ARM GAS  C:\Users\TTSS\AppData\Local\Temp\cc9YId72.s 			page 1


   1              		.cpu cortex-m0
   2              		.fpu softvfp
   3              		.eabi_attribute 20, 1
   4              		.eabi_attribute 21, 1
   5              		.eabi_attribute 23, 3
   6              		.eabi_attribute 24, 1
   7              		.eabi_attribute 25, 1
   8              		.eabi_attribute 26, 1
   9              		.eabi_attribute 30, 6
  10              		.eabi_attribute 34, 0
  11              		.eabi_attribute 18, 4
  12              		.code	16
  13              		.file	"main.c"
  14              		.text
  15              	.Ltext0:
  16              		.cfi_sections	.debug_frame
  17              		.section	.text.main,"ax",%progbits
  18              		.align	2
  19              		.global	main
  20              		.code	16
  21              		.thumb_func
  22              		.type	main, %function
  23              	main:
  24              	.LFB37:
  25              		.file 1 "main.c"
   1:main.c        **** /* ========================================
   2:main.c        ****  * Air Quality Beacon, part of the hackAIR project.
   3:main.c        ****  * Freely available under CC BY 4.0
   4:main.c        ****  *
   5:main.c        ****  *
   6:main.c        ****  * Author: George Doxastakis gdoxastakis.ee@gmail.com
   7:main.c        ****  * Technology Transfer & Smart Solutions
   8:main.c        ****  * TEI of Athens
   9:main.c        ****  * http://research.ee.teiath.gr/ttss/
  10:main.c        ****  *
  11:main.c        ****  * http://www.hackair.eu/
  12:main.c        **** */
  13:main.c        **** #include <project.h>
  14:main.c        **** 
  15:main.c        **** /* Function prototypes */  
  16:main.c        **** void StackEventHandler(uint32 event, void* eventParam);
  17:main.c        **** int16 readParticles();
  18:main.c        **** uint8 getQualityIndex(uint16 totalConcentration);
  19:main.c        **** 
  20:main.c        **** /* ADV payload dta structure */  
  21:main.c        **** extern CYBLE_GAPP_DISC_MODE_INFO_T cyBle_discoveryModeInfo;
  22:main.c        **** #define advPayload   (cyBle_discoveryModeInfo.advData->advData) 
  23:main.c        **** 
  24:main.c        **** 
  25:main.c        **** int main()
  26:main.c        **** {
  26              		.loc 1 26 0
  27              		.cfi_startproc
  28 0000 90B5     		push	{r4, r7, lr}
  29              		.cfi_def_cfa_offset 12
  30              		.cfi_offset 4, -12
  31              		.cfi_offset 7, -8
ARM GAS  C:\Users\TTSS\AppData\Local\Temp\cc9YId72.s 			page 2


  32              		.cfi_offset 14, -4
  33 0002 83B0     		sub	sp, sp, #12
  34              		.cfi_def_cfa_offset 24
  35 0004 00AF     		add	r7, sp, #0
  36              		.cfi_def_cfa_register 7
  27:main.c        ****     CyGlobalIntEnable; /* Enable global interrupts. */
  37              		.loc 1 27 0
  38              	@ 27 "main.c" 1
  39 0006 62B6     		CPSIE   i
  40              	@ 0 "" 2
  28:main.c        **** 
  29:main.c        ****     /* Start CYBLE component and register the generic event handler */
  30:main.c        ****     CyBle_Start(StackEventHandler);
  41              		.loc 1 30 0
  42              		.code	16
  43 0008 1D4B     		ldr	r3, .L3
  44 000a 181C     		mov	r0, r3
  45 000c FFF7FEFF 		bl	CyBle_Start
  31:main.c        ****     
  32:main.c        ****     ADC_Start();
  46              		.loc 1 32 0
  47 0010 FFF7FEFF 		bl	ADC_Start
  33:main.c        ****     ADC_StartConvert();
  48              		.loc 1 33 0
  49 0014 FFF7FEFF 		bl	ADC_StartConvert
  50              	.L2:
  51              	.LBB2:
  34:main.c        ****     for(;;)
  35:main.c        ****     {
  36:main.c        ****         STATUS_Write(1);CyDelay(300);STATUS_Write(0);
  52              		.loc 1 36 0 discriminator 1
  53 0018 0120     		mov	r0, #1
  54 001a FFF7FEFF 		bl	STATUS_Write
  55 001e 9623     		mov	r3, #150
  56 0020 5B00     		lsl	r3, r3, #1
  57 0022 181C     		mov	r0, r3
  58 0024 FFF7FEFF 		bl	CyDelay
  59 0028 0020     		mov	r0, #0
  60 002a FFF7FEFF 		bl	STATUS_Write
  37:main.c        ****         int16 val=readParticles(); //Perform sensor measurement
  61              		.loc 1 37 0 discriminator 1
  62 002e BC1D     		add	r4, r7, #6
  63 0030 FFF7FEFF 		bl	readParticles
  64 0034 031C     		mov	r3, r0
  65 0036 2380     		strh	r3, [r4]
  38:main.c        ****         
  39:main.c        ****         /* Dynamic payload will be continuously updated */
  40:main.c        ****         advPayload[19] =  0x04; //Sensor ID: 0x04 for DN7C3CA006
  66              		.loc 1 40 0 discriminator 1
  67 0038 124B     		ldr	r3, .L3+4
  68 003a 9B68     		ldr	r3, [r3, #8]
  69 003c 0422     		mov	r2, #4
  70 003e DA74     		strb	r2, [r3, #19]
  41:main.c        ****         advPayload[23] =  val>>8; //High byte of sensor measurement
  71              		.loc 1 41 0 discriminator 1
  72 0040 104B     		ldr	r3, .L3+4
  73 0042 9B68     		ldr	r3, [r3, #8]
ARM GAS  C:\Users\TTSS\AppData\Local\Temp\cc9YId72.s 			page 3


  74 0044 BA1D     		add	r2, r7, #6
  75 0046 0021     		mov	r1, #0
  76 0048 525E     		ldrsh	r2, [r2, r1]
  77 004a 1212     		asr	r2, r2, #8
  78 004c 92B2     		uxth	r2, r2
  79 004e D2B2     		uxtb	r2, r2
  80 0050 DA75     		strb	r2, [r3, #23]
  42:main.c        ****         advPayload[24] =  val&0xFF; //Low byte of sensor measurement
  81              		.loc 1 42 0 discriminator 1
  82 0052 0C4B     		ldr	r3, .L3+4
  83 0054 9B68     		ldr	r3, [r3, #8]
  84 0056 BA1D     		add	r2, r7, #6
  85 0058 1288     		ldrh	r2, [r2]
  86 005a D2B2     		uxtb	r2, r2
  87 005c 1A76     		strb	r2, [r3, #24]
  43:main.c        ****         CyBle_GapUpdateAdvData(cyBle_discoveryModeInfo.advData, cyBle_discoveryModeInfo.scanRspData
  88              		.loc 1 43 0 discriminator 1
  89 005e 094B     		ldr	r3, .L3+4
  90 0060 9A68     		ldr	r2, [r3, #8]
  91 0062 084B     		ldr	r3, .L3+4
  92 0064 DB68     		ldr	r3, [r3, #12]
  93 0066 101C     		mov	r0, r2
  94 0068 191C     		mov	r1, r3
  95 006a FFF7FEFF 		bl	CyBle_GapUpdateAdvData
  44:main.c        ****         
  45:main.c        ****         CyBle_ProcessEvents(); 
  96              		.loc 1 45 0 discriminator 1
  97 006e FFF7FEFF 		bl	CyBle_ProcessEvents
  46:main.c        ****         
  47:main.c        ****         CyDelay(500); //Measurement delay 
  98              		.loc 1 47 0 discriminator 1
  99 0072 FA23     		mov	r3, #250
 100 0074 5B00     		lsl	r3, r3, #1
 101 0076 181C     		mov	r0, r3
 102 0078 FFF7FEFF 		bl	CyDelay
 103              	.LBE2:
  48:main.c        ****     }
 104              		.loc 1 48 0 discriminator 1
 105 007c CCE7     		b	.L2
 106              	.L4:
 107 007e C046     		.align	2
 108              	.L3:
 109 0080 00000000 		.word	StackEventHandler
 110 0084 00000000 		.word	cyBle_discoveryModeInfo
 111              		.cfi_endproc
 112              	.LFE37:
 113              		.size	main, .-main
 114              		.section	.text.StackEventHandler,"ax",%progbits
 115              		.align	2
 116              		.global	StackEventHandler
 117              		.code	16
 118              		.thumb_func
 119              		.type	StackEventHandler, %function
 120              	StackEventHandler:
 121              	.LFB38:
  49:main.c        **** }
  50:main.c        **** 
ARM GAS  C:\Users\TTSS\AppData\Local\Temp\cc9YId72.s 			page 4


  51:main.c        **** void StackEventHandler(uint32 event, void *eventParam)
  52:main.c        **** {
 122              		.loc 1 52 0
 123              		.cfi_startproc
 124 0000 80B5     		push	{r7, lr}
 125              		.cfi_def_cfa_offset 8
 126              		.cfi_offset 7, -8
 127              		.cfi_offset 14, -4
 128 0002 82B0     		sub	sp, sp, #8
 129              		.cfi_def_cfa_offset 16
 130 0004 00AF     		add	r7, sp, #0
 131              		.cfi_def_cfa_register 7
 132 0006 7860     		str	r0, [r7, #4]
 133 0008 3960     		str	r1, [r7]
  53:main.c        ****     switch(event)
 134              		.loc 1 53 0
 135 000a 7B68     		ldr	r3, [r7, #4]
 136 000c 012B     		cmp	r3, #1
 137 000e 00D0     		beq	.L7
  54:main.c        ****     {
  55:main.c        ****         
  56:main.c        **** 		case CYBLE_EVT_STACK_ON:
  57:main.c        **** 			/* BLE stack is on. Start BLE advertisement */   
  58:main.c        **** 			CyBle_GappStartAdvertisement(CYBLE_ADVERTISING_FAST);
  59:main.c        **** 		    break;
  60:main.c        **** 		
  61:main.c        ****         default:
  62:main.c        ****             break;
 138              		.loc 1 62 0
 139 0010 03E0     		b	.L5
 140              	.L7:
  58:main.c        **** 		    break;
 141              		.loc 1 58 0
 142 0012 0020     		mov	r0, #0
 143 0014 FFF7FEFF 		bl	CyBle_GappStartAdvertisement
  59:main.c        **** 		
 144              		.loc 1 59 0
 145 0018 C046     		mov	r8, r8
 146              	.L5:
  63:main.c        ****     }   	
  64:main.c        **** 
  65:main.c        **** }
 147              		.loc 1 65 0
 148 001a BD46     		mov	sp, r7
 149 001c 02B0     		add	sp, sp, #8
 150              		@ sp needed
 151 001e 80BD     		pop	{r7, pc}
 152              		.cfi_endproc
 153              	.LFE38:
 154              		.size	StackEventHandler, .-StackEventHandler
 155              		.section	.text.readParticles,"ax",%progbits
 156              		.align	2
 157              		.global	readParticles
 158              		.code	16
 159              		.thumb_func
 160              		.type	readParticles, %function
 161              	readParticles:
ARM GAS  C:\Users\TTSS\AppData\Local\Temp\cc9YId72.s 			page 5


 162              	.LFB39:
  66:main.c        **** 
  67:main.c        **** /*******************************************************************
  68:main.c        **** * NAME :            int16 readParticles()
  69:main.c        **** *
  70:main.c        **** * DESCRIPTION :     Read sensor measurement
  71:main.c        **** * OUTPUTS :
  72:main.c        **** *       int16 Dust concentration in ug/m^3
  73:main.c        **** */
  74:main.c        **** int16 readParticles(){
 163              		.loc 1 74 0
 164              		.cfi_startproc
 165 0000 80B5     		push	{r7, lr}
 166              		.cfi_def_cfa_offset 8
 167              		.cfi_offset 7, -8
 168              		.cfi_offset 14, -4
 169 0002 84B0     		sub	sp, sp, #16
 170              		.cfi_def_cfa_offset 24
 171 0004 00AF     		add	r7, sp, #0
 172              		.cfi_def_cfa_register 7
  75:main.c        ****     int i; 
  76:main.c        ****     int sum=0;
 173              		.loc 1 76 0
 174 0006 0023     		mov	r3, #0
 175 0008 BB60     		str	r3, [r7, #8]
  77:main.c        ****     
  78:main.c        ****     for(i=0;i<4;i++){ // Average of 4 measurements
 176              		.loc 1 78 0
 177 000a 0023     		mov	r3, #0
 178 000c FB60     		str	r3, [r7, #12]
 179 000e 1EE0     		b	.L10
 180              	.L11:
  79:main.c        ****         Sensor_Power_Write(0); // Turn LED on
 181              		.loc 1 79 0 discriminator 3
 182 0010 0020     		mov	r0, #0
 183 0012 FFF7FEFF 		bl	Sensor_Power_Write
  80:main.c        ****         CyDelayUs(250); // Specified delay
 184              		.loc 1 80 0 discriminator 3
 185 0016 FA20     		mov	r0, #250
 186 0018 FFF7FEFF 		bl	CyDelayUs
  81:main.c        ****         sum+=ADC_CountsTo_mVolts(0, ADC_GetResult16(0)); // Get output voltage
 187              		.loc 1 81 0 discriminator 3
 188 001c 0020     		mov	r0, #0
 189 001e FFF7FEFF 		bl	ADC_GetResult16
 190 0022 031C     		mov	r3, r0
 191 0024 0020     		mov	r0, #0
 192 0026 191C     		mov	r1, r3
 193 0028 FFF7FEFF 		bl	ADC_CountsTo_mVolts
 194 002c 031C     		mov	r3, r0
 195 002e 1A1C     		mov	r2, r3
 196 0030 BB68     		ldr	r3, [r7, #8]
 197 0032 9B18     		add	r3, r3, r2
 198 0034 BB60     		str	r3, [r7, #8]
  82:main.c        ****         CyDelayUs(100); // Specified delay
 199              		.loc 1 82 0 discriminator 3
 200 0036 6420     		mov	r0, #100
 201 0038 FFF7FEFF 		bl	CyDelayUs
ARM GAS  C:\Users\TTSS\AppData\Local\Temp\cc9YId72.s 			page 6


  83:main.c        ****         Sensor_Power_Write(1); // Turn LED off
 202              		.loc 1 83 0 discriminator 3
 203 003c 0120     		mov	r0, #1
 204 003e FFF7FEFF 		bl	Sensor_Power_Write
  84:main.c        ****         CyDelay(10); // Cycle delay
 205              		.loc 1 84 0 discriminator 3
 206 0042 0A20     		mov	r0, #10
 207 0044 FFF7FEFF 		bl	CyDelay
  78:main.c        ****         Sensor_Power_Write(0); // Turn LED on
 208              		.loc 1 78 0 discriminator 3
 209 0048 FB68     		ldr	r3, [r7, #12]
 210 004a 0133     		add	r3, r3, #1
 211 004c FB60     		str	r3, [r7, #12]
 212              	.L10:
  78:main.c        ****         Sensor_Power_Write(0); // Turn LED on
 213              		.loc 1 78 0 is_stmt 0 discriminator 1
 214 004e FB68     		ldr	r3, [r7, #12]
 215 0050 032B     		cmp	r3, #3
 216 0052 DDDD     		ble	.L11
  85:main.c        ****     }
  86:main.c        ****     sum/=4; // Get average
 217              		.loc 1 86 0 is_stmt 1
 218 0054 BB68     		ldr	r3, [r7, #8]
 219 0056 002B     		cmp	r3, #0
 220 0058 00DA     		bge	.L12
 221 005a 0333     		add	r3, r3, #3
 222              	.L12:
 223 005c 9B10     		asr	r3, r3, #2
 224 005e BB60     		str	r3, [r7, #8]
  87:main.c        ****     
  88:main.c        ****     uint16 senDat=sum;//(int16)(1000.0f*((0.172f * (sum/1000.0f)) - 0.0999f)); // Sensor transfer f
 225              		.loc 1 88 0
 226 0060 BB1D     		add	r3, r7, #6
 227 0062 BA68     		ldr	r2, [r7, #8]
 228 0064 1A80     		strh	r2, [r3]
  89:main.c        ****     
  90:main.c        ****     return senDat;
 229              		.loc 1 90 0
 230 0066 BB1D     		add	r3, r7, #6
 231 0068 1B88     		ldrh	r3, [r3]
 232 006a 1BB2     		sxth	r3, r3
  91:main.c        **** }
 233              		.loc 1 91 0
 234 006c 181C     		mov	r0, r3
 235 006e BD46     		mov	sp, r7
 236 0070 04B0     		add	sp, sp, #16
 237              		@ sp needed
 238 0072 80BD     		pop	{r7, pc}
 239              		.cfi_endproc
 240              	.LFE39:
 241              		.size	readParticles, .-readParticles
 242              		.text
 243              	.Letext0:
 244              		.file 2 "Generated_Source\\PSoC4/cytypes.h"
 245              		.file 3 "Generated_Source\\PSoC4/BLE_Stack.h"
 246              		.file 4 "Generated_Source\\PSoC4/BLE_StackGap.h"