ARM GAS  C:\Users\TTSS\AppData\Local\Temp\cc8kiKGh.s 			page 1


   1              		.cpu cortex-m0
   2              		.fpu softvfp
   3              		.eabi_attribute 20, 1
   4              		.eabi_attribute 21, 1
   5              		.eabi_attribute 23, 3
   6              		.eabi_attribute 24, 1
   7              		.eabi_attribute 25, 1
   8              		.eabi_attribute 26, 1
   9              		.eabi_attribute 30, 6
  10              		.eabi_attribute 34, 0
  11              		.eabi_attribute 18, 4
  12              		.code	16
  13              		.file	"BLE_gatt.c"
  14              		.text
  15              	.Ltext0:
  16              		.cfi_sections	.debug_frame
  17              		.comm	cyBle_state,1,1
  18              		.global	cyBle_gatts
  19              		.section	.rodata
  20              		.align	2
  21              		.type	cyBle_gatts, %object
  22              		.size	cyBle_gatts, 6
  23              	cyBle_gatts:
  24 0000 0600     		.short	6
  25 0002 0800     		.short	8
  26 0004 0900     		.short	9
  27              		.data
  28              		.align	2
  29              		.type	cyBle_attValues, %object
  30              		.size	cyBle_attValues, 34
  31              	cyBle_attValues:
  32 0000 41       		.byte	65
  33 0001 69       		.byte	105
  34 0002 72       		.byte	114
  35 0003 20       		.byte	32
  36 0004 42       		.byte	66
  37 0005 65       		.byte	101
  38 0006 61       		.byte	97
  39 0007 63       		.byte	99
  40 0008 6F       		.byte	111
  41 0009 6E       		.byte	110
  42 000a 00       		.byte	0
  43 000b 00       		.byte	0
  44 000c 00       		.byte	0
  45 000d 00       		.byte	0
  46 000e 00       		.byte	0
  47 000f 00       		.byte	0
  48 0010 00       		.byte	0
  49 0011 00       		.byte	0
  50 0012 FB       		.byte	-5
  51 0013 34       		.byte	52
  52 0014 9B       		.byte	-101
  53 0015 5F       		.byte	95
  54 0016 80       		.byte	-128
  55 0017 00       		.byte	0
  56 0018 00       		.byte	0
  57 0019 80       		.byte	-128
ARM GAS  C:\Users\TTSS\AppData\Local\Temp\cc8kiKGh.s 			page 2


  58 001a 00       		.byte	0
  59 001b 10       		.byte	16
  60 001c 00       		.byte	0
  61 001d 00       		.byte	0
  62 001e 00       		.byte	0
  63 001f 00       		.byte	0
  64 0020 00       		.byte	0
  65 0021 00       		.byte	0
  66              		.global	cyBle_attValuesCCCDFlashMemory
  67              		.section	.rodata
  68 0006 00000000 		.align	7
  68      00000000 
  68      00000000 
  68      00000000 
  68      00000000 
  69              		.type	cyBle_attValuesCCCDFlashMemory, %object
  70              		.size	cyBle_attValuesCCCDFlashMemory, 10
  71              	cyBle_attValuesCCCDFlashMemory:
  72 0080 00000000 		.space	10
  72      00000000 
  72      0000
  73              		.comm	cyBle_attValuesCCCD,2,4
  74              		.global	cyBle_attUuid128
  75 008a 0000     		.align	2
  76              		.type	cyBle_attUuid128, %object
  77              		.size	cyBle_attUuid128, 32
  78              	cyBle_attUuid128:
  79 008c FB       		.byte	-5
  80 008d 34       		.byte	52
  81 008e 9B       		.byte	-101
  82 008f 5F       		.byte	95
  83 0090 80       		.byte	-128
  84 0091 00       		.byte	0
  85 0092 00       		.byte	0
  86 0093 80       		.byte	-128
  87 0094 00       		.byte	0
  88 0095 10       		.byte	16
  89 0096 00       		.byte	0
  90 0097 00       		.byte	0
  91 0098 00       		.byte	0
  92 0099 00       		.byte	0
  93 009a 00       		.byte	0
  94 009b 00       		.byte	0
  95 009c FB       		.byte	-5
  96 009d 34       		.byte	52
  97 009e 9B       		.byte	-101
  98 009f 5F       		.byte	95
  99 00a0 80       		.byte	-128
 100 00a1 00       		.byte	0
 101 00a2 00       		.byte	0
 102 00a3 80       		.byte	-128
 103 00a4 00       		.byte	0
 104 00a5 10       		.byte	16
 105 00a6 00       		.byte	0
 106 00a7 00       		.byte	0
 107 00a8 00       		.byte	0
 108 00a9 00       		.byte	0
ARM GAS  C:\Users\TTSS\AppData\Local\Temp\cc8kiKGh.s 			page 3


 109 00aa 00       		.byte	0
 110 00ab 00       		.byte	0
 111              		.global	cyBle_attValuesLen
 112              		.data
 113 0022 0000     		.align	2
 114              		.type	cyBle_attValuesLen, %object
 115              		.size	cyBle_attValuesLen, 64
 116              	cyBle_attValuesLen:
 117 0024 0A00     		.short	10
 118 0026 0000     		.space	2
 119 0028 00000000 		.word	cyBle_attValues
 120 002c 0200     		.short	2
 121 002e 0000     		.space	2
 122 0030 0A000000 		.word	cyBle_attValues+10
 123 0034 0400     		.short	4
 124 0036 0000     		.space	2
 125 0038 0C000000 		.word	cyBle_attValues+12
 126 003c 0200     		.short	2
 127 003e 0000     		.space	2
 128 0040 00000000 		.word	cyBle_attValuesCCCD
 129 0044 1000     		.short	16
 130 0046 0000     		.space	2
 131 0048 00000000 		.word	cyBle_attUuid128
 132 004c 1000     		.short	16
 133 004e 0000     		.space	2
 134 0050 10000000 		.word	cyBle_attUuid128+16
 135 0054 0100     		.short	1
 136 0056 0000     		.space	2
 137 0058 10000000 		.word	cyBle_attValues+16
 138 005c 1100     		.short	17
 139 005e 0000     		.space	2
 140 0060 11000000 		.word	cyBle_attValues+17
 141              		.global	cyBle_gattDB
 142              		.section	.rodata
 143              		.align	2
 144              		.type	cyBle_gattDB, %object
 145              		.size	cyBle_gattDB, 260
 146              	cyBle_gattDB:
 147 00ac 0100     		.short	1
 148 00ae 0028     		.short	10240
 149 00b0 01000000 		.word	1
 150 00b4 0500     		.short	5
 151 00b6 0000     		.space	2
 152 00b8 0018     		.short	6144
 153 00ba 0000     		.space	2
 154 00bc 00000000 		.word	0
 155 00c0 0200     		.short	2
 156 00c2 0328     		.short	10243
 157 00c4 01020000 		.word	513
 158 00c8 0300     		.short	3
 159 00ca 0000     		.space	2
 160 00cc 002A     		.short	10752
 161 00ce 0000     		.space	2
 162 00d0 00000000 		.word	0
 163 00d4 0300     		.short	3
 164 00d6 002A     		.short	10752
 165 00d8 01020000 		.word	513
ARM GAS  C:\Users\TTSS\AppData\Local\Temp\cc8kiKGh.s 			page 4


 166 00dc 0300     		.short	3
 167 00de 0000     		.space	2
 168 00e0 0A00     		.short	10
 169 00e2 0000     		.space	2
 170 00e4 00000000 		.word	cyBle_attValuesLen
 171 00e8 0400     		.short	4
 172 00ea 0328     		.short	10243
 173 00ec 01020000 		.word	513
 174 00f0 0500     		.short	5
 175 00f2 0000     		.space	2
 176 00f4 012A     		.short	10753
 177 00f6 0000     		.space	2
 178 00f8 00000000 		.word	0
 179 00fc 0500     		.short	5
 180 00fe 012A     		.short	10753
 181 0100 01020000 		.word	513
 182 0104 0500     		.short	5
 183 0106 0000     		.space	2
 184 0108 0200     		.short	2
 185 010a 0000     		.space	2
 186 010c 08000000 		.word	cyBle_attValuesLen+8
 187 0110 0600     		.short	6
 188 0112 0028     		.short	10240
 189 0114 01000000 		.word	1
 190 0118 0900     		.short	9
 191 011a 0000     		.space	2
 192 011c 0118     		.short	6145
 193 011e 0000     		.space	2
 194 0120 00000000 		.word	0
 195 0124 0700     		.short	7
 196 0126 0328     		.short	10243
 197 0128 01220000 		.word	8705
 198 012c 0900     		.short	9
 199 012e 0000     		.space	2
 200 0130 052A     		.short	10757
 201 0132 0000     		.space	2
 202 0134 00000000 		.word	0
 203 0138 0800     		.short	8
 204 013a 052A     		.short	10757
 205 013c 01220000 		.word	8705
 206 0140 0900     		.short	9
 207 0142 0000     		.space	2
 208 0144 0400     		.short	4
 209 0146 0000     		.space	2
 210 0148 10000000 		.word	cyBle_attValuesLen+16
 211 014c 0900     		.short	9
 212 014e 0229     		.short	10498
 213 0150 040A0000 		.word	2564
 214 0154 0900     		.short	9
 215 0156 0000     		.space	2
 216 0158 0200     		.short	2
 217 015a 0000     		.space	2
 218 015c 18000000 		.word	cyBle_attValuesLen+24
 219 0160 0A00     		.short	10
 220 0162 0028     		.short	10240
 221 0164 01000800 		.word	524289
 222 0168 0D00     		.short	13
ARM GAS  C:\Users\TTSS\AppData\Local\Temp\cc8kiKGh.s 			page 5


 223 016a 0000     		.space	2
 224 016c 1000     		.short	16
 225 016e 0000     		.space	2
 226 0170 20000000 		.word	cyBle_attValuesLen+32
 227 0174 0B00     		.short	11
 228 0176 0328     		.short	10243
 229 0178 01000000 		.word	1
 230 017c 0D00     		.short	13
 231 017e 0000     		.space	2
 232 0180 1000     		.short	16
 233 0182 0000     		.space	2
 234 0184 28000000 		.word	cyBle_attValuesLen+40
 235 0188 0C00     		.short	12
 236 018a 0000     		.short	0
 237 018c 00000800 		.word	524288
 238 0190 0D00     		.short	13
 239 0192 0000     		.space	2
 240 0194 0100     		.short	1
 241 0196 0000     		.space	2
 242 0198 30000000 		.word	cyBle_attValuesLen+48
 243 019c 0D00     		.short	13
 244 019e 0000     		.short	0
 245 01a0 01000800 		.word	524289
 246 01a4 0D00     		.short	13
 247 01a6 0000     		.space	2
 248 01a8 0100     		.short	1
 249 01aa 0000     		.space	2
 250 01ac 38000000 		.word	cyBle_attValuesLen+56
 251 01b0 00000000 		.section	.text.CyBle_GattsReInitGattDb,"ax",%progbits
 251      00000000 
 251      00000000 
 251      00000000 
 251      00000000 
 252              		.align	2
 253              		.global	CyBle_GattsReInitGattDb
 254              		.code	16
 255              		.thumb_func
 256              		.type	CyBle_GattsReInitGattDb, %function
 257              	CyBle_GattsReInitGattDb:
 258              	.LFB2:
 259              		.file 1 "Generated_Source\\PSoC4\\BLE_gatt.c"
   1:Generated_Source\PSoC4/BLE_gatt.c **** /*******************************************************************************
   2:Generated_Source\PSoC4/BLE_gatt.c **** File Name: CYBLE_gatt.c
   3:Generated_Source\PSoC4/BLE_gatt.c **** Version 2.0
   4:Generated_Source\PSoC4/BLE_gatt.c **** 
   5:Generated_Source\PSoC4/BLE_gatt.c **** Description:
   6:Generated_Source\PSoC4/BLE_gatt.c ****  This file contains the source code for the GATT API of the BLE Component.
   7:Generated_Source\PSoC4/BLE_gatt.c **** 
   8:Generated_Source\PSoC4/BLE_gatt.c **** ********************************************************************************
   9:Generated_Source\PSoC4/BLE_gatt.c **** Copyright 2014-2015, Cypress Semiconductor Corporation.  All rights reserved.
  10:Generated_Source\PSoC4/BLE_gatt.c **** You may use this file only in accordance with the license, terms, conditions,
  11:Generated_Source\PSoC4/BLE_gatt.c **** disclaimers, and limitations in the end user license agreement accompanying
  12:Generated_Source\PSoC4/BLE_gatt.c **** the software package with which this file was provided.
  13:Generated_Source\PSoC4/BLE_gatt.c **** *******************************************************************************/
  14:Generated_Source\PSoC4/BLE_gatt.c **** 
  15:Generated_Source\PSoC4/BLE_gatt.c **** 
  16:Generated_Source\PSoC4/BLE_gatt.c **** #include "BLE_eventHandler.h"
ARM GAS  C:\Users\TTSS\AppData\Local\Temp\cc8kiKGh.s 			page 6


  17:Generated_Source\PSoC4/BLE_gatt.c **** 
  18:Generated_Source\PSoC4/BLE_gatt.c **** 
  19:Generated_Source\PSoC4/BLE_gatt.c **** /***************************************
  20:Generated_Source\PSoC4/BLE_gatt.c **** ##Global variables
  21:Generated_Source\PSoC4/BLE_gatt.c **** ***************************************/
  22:Generated_Source\PSoC4/BLE_gatt.c **** 
  23:Generated_Source\PSoC4/BLE_gatt.c **** CYBLE_STATE_T cyBle_state;
  24:Generated_Source\PSoC4/BLE_gatt.c **** 
  25:Generated_Source\PSoC4/BLE_gatt.c **** 
  26:Generated_Source\PSoC4/BLE_gatt.c **** #if(CYBLE_GATT_ROLE_SERVER)
  27:Generated_Source\PSoC4/BLE_gatt.c ****     
  28:Generated_Source\PSoC4/BLE_gatt.c ****     const CYBLE_GATTS_T cyBle_gatts =
  29:Generated_Source\PSoC4/BLE_gatt.c **** {
  30:Generated_Source\PSoC4/BLE_gatt.c ****     0x0006u,    /* Handle of the GATT service */
  31:Generated_Source\PSoC4/BLE_gatt.c ****     0x0008u,    /* Handle of the Service Changed characteristic */
  32:Generated_Source\PSoC4/BLE_gatt.c ****     0x0009u,    /* Handle of the Client Characteristic Configuration descriptor */
  33:Generated_Source\PSoC4/BLE_gatt.c **** };
  34:Generated_Source\PSoC4/BLE_gatt.c ****     
  35:Generated_Source\PSoC4/BLE_gatt.c ****     static uint8 cyBle_attValues[0x22u] = {
  36:Generated_Source\PSoC4/BLE_gatt.c ****     /* Device Name */
  37:Generated_Source\PSoC4/BLE_gatt.c ****     (uint8)'A', (uint8)'i', (uint8)'r', (uint8)' ', (uint8)'B', (uint8)'e', (uint8)'a', (uint8)'c',
  38:Generated_Source\PSoC4/BLE_gatt.c **** 
  39:Generated_Source\PSoC4/BLE_gatt.c ****     /* Appearance */
  40:Generated_Source\PSoC4/BLE_gatt.c ****     0x00u, 0x00u, 
  41:Generated_Source\PSoC4/BLE_gatt.c **** 
  42:Generated_Source\PSoC4/BLE_gatt.c ****     /* Service Changed */
  43:Generated_Source\PSoC4/BLE_gatt.c ****     0x00u, 0x00u, 0x00u, 0x00u, 
  44:Generated_Source\PSoC4/BLE_gatt.c **** 
  45:Generated_Source\PSoC4/BLE_gatt.c ****     /* Custom Characteristic */
  46:Generated_Source\PSoC4/BLE_gatt.c ****     0x00u, 
  47:Generated_Source\PSoC4/BLE_gatt.c **** 
  48:Generated_Source\PSoC4/BLE_gatt.c ****     /* Custom Descriptor */
  49:Generated_Source\PSoC4/BLE_gatt.c ****     0x00u, 0xFBu, 0x34u, 0x9Bu, 0x5Fu, 0x80u, 0x00u, 0x00u, 0x80u, 0x00u, 0x10u, 0x00u, 0x00u, 0x00
  50:Generated_Source\PSoC4/BLE_gatt.c **** 
  51:Generated_Source\PSoC4/BLE_gatt.c **** };
  52:Generated_Source\PSoC4/BLE_gatt.c **** 
  53:Generated_Source\PSoC4/BLE_gatt.c **** #if defined(__GNUC__) || defined(__ARMCC_VERSION)
  54:Generated_Source\PSoC4/BLE_gatt.c **** const uint8 cyBle_attValuesCCCDFlashMemory[CYBLE_GAP_MAX_BONDED_DEVICE + 1u][CYBLE_GATT_DB_CCCD_COU
  55:Generated_Source\PSoC4/BLE_gatt.c **** #elif defined(__ICCARM__)
  56:Generated_Source\PSoC4/BLE_gatt.c **** /* The cyBle_attValuesCCCDFlashMemory[] should be aligned to the size of a Flash row */
  57:Generated_Source\PSoC4/BLE_gatt.c **** #pragma data_alignment=CY_FLASH_SIZEOF_ROW
  58:Generated_Source\PSoC4/BLE_gatt.c **** const uint8 cyBle_attValuesCCCDFlashMemory[CYBLE_GAP_MAX_BONDED_DEVICE + 1u][CYBLE_GATT_DB_CCCD_COU
  59:Generated_Source\PSoC4/BLE_gatt.c **** #endif /* defined(__GNUC__) || defined(__ARMCC_VERSION) */
  60:Generated_Source\PSoC4/BLE_gatt.c **** {
  61:Generated_Source\PSoC4/BLE_gatt.c ****     0x00u, 0x00u, 
  62:Generated_Source\PSoC4/BLE_gatt.c **** },
  63:Generated_Source\PSoC4/BLE_gatt.c **** {
  64:Generated_Source\PSoC4/BLE_gatt.c ****     0x00u, 0x00u, 
  65:Generated_Source\PSoC4/BLE_gatt.c **** },
  66:Generated_Source\PSoC4/BLE_gatt.c **** {
  67:Generated_Source\PSoC4/BLE_gatt.c ****     0x00u, 0x00u, 
  68:Generated_Source\PSoC4/BLE_gatt.c **** },
  69:Generated_Source\PSoC4/BLE_gatt.c **** {
  70:Generated_Source\PSoC4/BLE_gatt.c ****     0x00u, 0x00u, 
  71:Generated_Source\PSoC4/BLE_gatt.c **** },
  72:Generated_Source\PSoC4/BLE_gatt.c **** {
  73:Generated_Source\PSoC4/BLE_gatt.c ****     0x00u, 0x00u, 
ARM GAS  C:\Users\TTSS\AppData\Local\Temp\cc8kiKGh.s 			page 7


  74:Generated_Source\PSoC4/BLE_gatt.c **** },
  75:Generated_Source\PSoC4/BLE_gatt.c **** };
  76:Generated_Source\PSoC4/BLE_gatt.c **** uint8 cyBle_attValuesCCCD[CYBLE_GATT_DB_CCCD_COUNT];
  77:Generated_Source\PSoC4/BLE_gatt.c **** 
  78:Generated_Source\PSoC4/BLE_gatt.c **** const uint8 cyBle_attUuid128[][16u] = {
  79:Generated_Source\PSoC4/BLE_gatt.c ****     /* Custom Service */
  80:Generated_Source\PSoC4/BLE_gatt.c ****     { 0xFBu, 0x34u, 0x9Bu, 0x5Fu, 0x80u, 0x00u, 0x00u, 0x80u, 0x00u, 0x10u, 0x00u, 0x00u, 0x00u, 0x
  81:Generated_Source\PSoC4/BLE_gatt.c ****     /* Custom Characteristic */
  82:Generated_Source\PSoC4/BLE_gatt.c ****     { 0xFBu, 0x34u, 0x9Bu, 0x5Fu, 0x80u, 0x00u, 0x00u, 0x80u, 0x00u, 0x10u, 0x00u, 0x00u, 0x00u, 0x
  83:Generated_Source\PSoC4/BLE_gatt.c **** };
  84:Generated_Source\PSoC4/BLE_gatt.c **** 
  85:Generated_Source\PSoC4/BLE_gatt.c **** CYBLE_GATTS_ATT_GEN_VAL_LEN_T cyBle_attValuesLen[CYBLE_GATT_DB_ATT_VAL_COUNT] = {
  86:Generated_Source\PSoC4/BLE_gatt.c ****     { 0x000Au, (void *)&cyBle_attValues[0] }, /* Device Name */
  87:Generated_Source\PSoC4/BLE_gatt.c ****     { 0x0002u, (void *)&cyBle_attValues[10] }, /* Appearance */
  88:Generated_Source\PSoC4/BLE_gatt.c ****     { 0x0004u, (void *)&cyBle_attValues[12] }, /* Service Changed */
  89:Generated_Source\PSoC4/BLE_gatt.c ****     { 0x0002u, (void *)&cyBle_attValuesCCCD[0] }, /* Client Characteristic Configuration */
  90:Generated_Source\PSoC4/BLE_gatt.c ****     { 0x0010u, (void *)&cyBle_attUuid128[0] }, /* Custom Service UUID */
  91:Generated_Source\PSoC4/BLE_gatt.c ****     { 0x0010u, (void *)&cyBle_attUuid128[1] }, /* Custom Characteristic UUID */
  92:Generated_Source\PSoC4/BLE_gatt.c ****     { 0x0001u, (void *)&cyBle_attValues[16] }, /* Custom Characteristic */
  93:Generated_Source\PSoC4/BLE_gatt.c ****     { 0x0011u, (void *)&cyBle_attValues[17] }, /* Custom Descriptor */
  94:Generated_Source\PSoC4/BLE_gatt.c **** };
  95:Generated_Source\PSoC4/BLE_gatt.c **** 
  96:Generated_Source\PSoC4/BLE_gatt.c **** const CYBLE_GATTS_DB_T cyBle_gattDB[0x0Du] = {
  97:Generated_Source\PSoC4/BLE_gatt.c ****     { 0x0001u, 0x2800u /* Primary service                     */, 0x00000001u /*        */, 0x0005u
  98:Generated_Source\PSoC4/BLE_gatt.c ****     { 0x0002u, 0x2803u /* Characteristic                      */, 0x00000201u /* rd     */, 0x0003u
  99:Generated_Source\PSoC4/BLE_gatt.c ****     { 0x0003u, 0x2A00u /* Device Name                         */, 0x00000201u /* rd     */, 0x0003u
 100:Generated_Source\PSoC4/BLE_gatt.c ****     { 0x0004u, 0x2803u /* Characteristic                      */, 0x00000201u /* rd     */, 0x0005u
 101:Generated_Source\PSoC4/BLE_gatt.c ****     { 0x0005u, 0x2A01u /* Appearance                          */, 0x00000201u /* rd     */, 0x0005u
 102:Generated_Source\PSoC4/BLE_gatt.c ****     { 0x0006u, 0x2800u /* Primary service                     */, 0x00000001u /*        */, 0x0009u
 103:Generated_Source\PSoC4/BLE_gatt.c ****     { 0x0007u, 0x2803u /* Characteristic                      */, 0x00002201u /* rd,ind */, 0x0009u
 104:Generated_Source\PSoC4/BLE_gatt.c ****     { 0x0008u, 0x2A05u /* Service Changed                     */, 0x00002201u /* rd,ind */, 0x0009u
 105:Generated_Source\PSoC4/BLE_gatt.c ****     { 0x0009u, 0x2902u /* Client Characteristic Configuration */, 0x00000A04u /* rd,wr  */, 0x0009u
 106:Generated_Source\PSoC4/BLE_gatt.c ****     { 0x000Au, 0x2800u /* Primary service                     */, 0x00080001u /*        */, 0x000Du
 107:Generated_Source\PSoC4/BLE_gatt.c ****     { 0x000Bu, 0x2803u /* Characteristic                      */, 0x00000001u /*        */, 0x000Du
 108:Generated_Source\PSoC4/BLE_gatt.c ****     { 0x000Cu, 0x0000u /* Custom Characteristic               */, 0x00080000u /*        */, 0x000Du
 109:Generated_Source\PSoC4/BLE_gatt.c ****     { 0x000Du, 0x0000u /* Custom Descriptor                   */, 0x00080001u /*        */, 0x000Du
 110:Generated_Source\PSoC4/BLE_gatt.c **** };
 111:Generated_Source\PSoC4/BLE_gatt.c **** 
 112:Generated_Source\PSoC4/BLE_gatt.c **** 
 113:Generated_Source\PSoC4/BLE_gatt.c **** #endif /* (CYBLE_GATT_ROLE_SERVER) */
 114:Generated_Source\PSoC4/BLE_gatt.c **** 
 115:Generated_Source\PSoC4/BLE_gatt.c **** #if(CYBLE_GATT_ROLE_CLIENT)
 116:Generated_Source\PSoC4/BLE_gatt.c ****     
 117:Generated_Source\PSoC4/BLE_gatt.c **** CYBLE_CLIENT_STATE_T cyBle_clientState;
 118:Generated_Source\PSoC4/BLE_gatt.c **** CYBLE_GATTC_T cyBle_gattc;
 119:Generated_Source\PSoC4/BLE_gatt.c ****     
 120:Generated_Source\PSoC4/BLE_gatt.c **** #endif /* (CYBLE_GATT_ROLE_CLIENT) */
 121:Generated_Source\PSoC4/BLE_gatt.c **** 
 122:Generated_Source\PSoC4/BLE_gatt.c **** 
 123:Generated_Source\PSoC4/BLE_gatt.c **** #if(CYBLE_GATT_ROLE_SERVER)
 124:Generated_Source\PSoC4/BLE_gatt.c **** 
 125:Generated_Source\PSoC4/BLE_gatt.c **** /****************************************************************************** 
 126:Generated_Source\PSoC4/BLE_gatt.c **** ##Function Name: CyBle_GattsReInitGattDb
 127:Generated_Source\PSoC4/BLE_gatt.c **** *******************************************************************************
 128:Generated_Source\PSoC4/BLE_gatt.c **** 
 129:Generated_Source\PSoC4/BLE_gatt.c **** Summary:
 130:Generated_Source\PSoC4/BLE_gatt.c ****  Reinitializes the GATT database.
ARM GAS  C:\Users\TTSS\AppData\Local\Temp\cc8kiKGh.s 			page 8


 131:Generated_Source\PSoC4/BLE_gatt.c **** 
 132:Generated_Source\PSoC4/BLE_gatt.c **** Parameters:
 133:Generated_Source\PSoC4/BLE_gatt.c ****  None
 134:Generated_Source\PSoC4/BLE_gatt.c **** 
 135:Generated_Source\PSoC4/BLE_gatt.c **** Return:
 136:Generated_Source\PSoC4/BLE_gatt.c ****  CYBLE_API_RESULT_T: An API result states if the API succeeded or failed with
 137:Generated_Source\PSoC4/BLE_gatt.c ****  error codes:
 138:Generated_Source\PSoC4/BLE_gatt.c ****   * CYBLE_ERROR_OK: GATT database was reinitialized successfully
 139:Generated_Source\PSoC4/BLE_gatt.c ****   * CYBLE_ERROR_INVALID_STATE: If the function is called in any state except
 140:Generated_Source\PSoC4/BLE_gatt.c ****                                 CYBLE_STATE_DISCONNECTED.
 141:Generated_Source\PSoC4/BLE_gatt.c ****   * Any of the CyBle_GattsDbRegister() stack API function return values.
 142:Generated_Source\PSoC4/BLE_gatt.c **** 
 143:Generated_Source\PSoC4/BLE_gatt.c **** ******************************************************************************/
 144:Generated_Source\PSoC4/BLE_gatt.c **** CYBLE_API_RESULT_T CyBle_GattsReInitGattDb(void)
 145:Generated_Source\PSoC4/BLE_gatt.c **** {
 260              		.loc 1 145 0
 261              		.cfi_startproc
 262 0000 90B5     		push	{r4, r7, lr}
 263              		.cfi_def_cfa_offset 12
 264              		.cfi_offset 4, -12
 265              		.cfi_offset 7, -8
 266              		.cfi_offset 14, -4
 267 0002 83B0     		sub	sp, sp, #12
 268              		.cfi_def_cfa_offset 24
 269 0004 00AF     		add	r7, sp, #0
 270              		.cfi_def_cfa_register 7
 146:Generated_Source\PSoC4/BLE_gatt.c ****     CYBLE_API_RESULT_T apiResult;
 147:Generated_Source\PSoC4/BLE_gatt.c ****     
 148:Generated_Source\PSoC4/BLE_gatt.c ****     if(CYBLE_STATE_DISCONNECTED == CyBle_GetState())
 271              		.loc 1 148 0
 272 0006 0C4B     		ldr	r3, .L5
 273 0008 1B78     		ldrb	r3, [r3]
 274 000a 042B     		cmp	r3, #4
 275 000c 09D1     		bne	.L2
 149:Generated_Source\PSoC4/BLE_gatt.c ****     {
 150:Generated_Source\PSoC4/BLE_gatt.c ****         apiResult = CyBle_GattsDbRegister(cyBle_gattDB, CYBLE_GATT_DB_INDEX_COUNT, CYBLE_GATT_DB_MA
 276              		.loc 1 150 0
 277 000e BC1D     		add	r4, r7, #6
 278 0010 0A4B     		ldr	r3, .L5+4
 279 0012 181C     		mov	r0, r3
 280 0014 0D21     		mov	r1, #13
 281 0016 0A22     		mov	r2, #10
 282 0018 FFF7FEFF 		bl	CyBle_GattsDbRegister
 283 001c 031C     		mov	r3, r0
 284 001e 2380     		strh	r3, [r4]
 285 0020 03E0     		b	.L3
 286              	.L2:
 151:Generated_Source\PSoC4/BLE_gatt.c ****     }
 152:Generated_Source\PSoC4/BLE_gatt.c ****     else
 153:Generated_Source\PSoC4/BLE_gatt.c ****     {
 154:Generated_Source\PSoC4/BLE_gatt.c ****         apiResult = CYBLE_ERROR_INVALID_STATE;
 287              		.loc 1 154 0
 288 0022 BB1D     		add	r3, r7, #6
 289 0024 0422     		mov	r2, #4
 290 0026 FF32     		add	r2, r2, #255
 291 0028 1A80     		strh	r2, [r3]
 292              	.L3:
ARM GAS  C:\Users\TTSS\AppData\Local\Temp\cc8kiKGh.s 			page 9


 155:Generated_Source\PSoC4/BLE_gatt.c ****     }
 156:Generated_Source\PSoC4/BLE_gatt.c ****     
 157:Generated_Source\PSoC4/BLE_gatt.c ****     return(apiResult);
 293              		.loc 1 157 0
 294 002a BB1D     		add	r3, r7, #6
 295 002c 1B88     		ldrh	r3, [r3]
 158:Generated_Source\PSoC4/BLE_gatt.c **** }
 296              		.loc 1 158 0
 297 002e 181C     		mov	r0, r3
 298 0030 BD46     		mov	sp, r7
 299 0032 03B0     		add	sp, sp, #12
 300              		@ sp needed
 301 0034 90BD     		pop	{r4, r7, pc}
 302              	.L6:
 303 0036 C046     		.align	2
 304              	.L5:
 305 0038 00000000 		.word	cyBle_state
 306 003c 00000000 		.word	cyBle_gattDB
 307              		.cfi_endproc
 308              	.LFE2:
 309              		.size	CyBle_GattsReInitGattDb, .-CyBle_GattsReInitGattDb
 310              		.section	.text.CyBle_GattsWriteEventHandler,"ax",%progbits
 311              		.align	2
 312              		.global	CyBle_GattsWriteEventHandler
 313              		.code	16
 314              		.thumb_func
 315              		.type	CyBle_GattsWriteEventHandler, %function
 316              	CyBle_GattsWriteEventHandler:
 317              	.LFB3:
 159:Generated_Source\PSoC4/BLE_gatt.c **** 
 160:Generated_Source\PSoC4/BLE_gatt.c **** 
 161:Generated_Source\PSoC4/BLE_gatt.c **** /****************************************************************************** 
 162:Generated_Source\PSoC4/BLE_gatt.c **** ##Function Name: CyBle_GattsWriteEventHandler
 163:Generated_Source\PSoC4/BLE_gatt.c **** *******************************************************************************
 164:Generated_Source\PSoC4/BLE_gatt.c **** 
 165:Generated_Source\PSoC4/BLE_gatt.c **** Summary:
 166:Generated_Source\PSoC4/BLE_gatt.c ****  Handles the Write Request Event for GATT service.
 167:Generated_Source\PSoC4/BLE_gatt.c **** 
 168:Generated_Source\PSoC4/BLE_gatt.c **** Parameters:
 169:Generated_Source\PSoC4/BLE_gatt.c ****  *eventParam: The pointer to the data structure specified by the event.
 170:Generated_Source\PSoC4/BLE_gatt.c **** 
 171:Generated_Source\PSoC4/BLE_gatt.c **** Return:
 172:Generated_Source\PSoC4/BLE_gatt.c ****  * CYBLE_GATT_ERR_CODE_T: An API result returns one of the following status 
 173:Generated_Source\PSoC4/BLE_gatt.c ****     values
 174:Generated_Source\PSoC4/BLE_gatt.c ****  * CYBLE_GATT_ERR_NONE - Write is successful.
 175:Generated_Source\PSoC4/BLE_gatt.c **** 
 176:Generated_Source\PSoC4/BLE_gatt.c **** ******************************************************************************/
 177:Generated_Source\PSoC4/BLE_gatt.c **** CYBLE_GATT_ERR_CODE_T CyBle_GattsWriteEventHandler(CYBLE_GATTS_WRITE_REQ_PARAM_T *eventParam)
 178:Generated_Source\PSoC4/BLE_gatt.c **** {
 318              		.loc 1 178 0
 319              		.cfi_startproc
 320 0000 90B5     		push	{r4, r7, lr}
 321              		.cfi_def_cfa_offset 12
 322              		.cfi_offset 4, -12
 323              		.cfi_offset 7, -8
 324              		.cfi_offset 14, -4
 325 0002 85B0     		sub	sp, sp, #20
ARM GAS  C:\Users\TTSS\AppData\Local\Temp\cc8kiKGh.s 			page 10


 326              		.cfi_def_cfa_offset 32
 327 0004 00AF     		add	r7, sp, #0
 328              		.cfi_def_cfa_register 7
 329 0006 7860     		str	r0, [r7, #4]
 179:Generated_Source\PSoC4/BLE_gatt.c ****     CYBLE_GATT_ERR_CODE_T gattErr = CYBLE_GATT_ERR_NONE;
 330              		.loc 1 179 0
 331 0008 0F23     		mov	r3, #15
 332 000a FB18     		add	r3, r7, r3
 333 000c 0022     		mov	r2, #0
 334 000e 1A70     		strb	r2, [r3]
 180:Generated_Source\PSoC4/BLE_gatt.c ****     
 181:Generated_Source\PSoC4/BLE_gatt.c ****     /* Client Characteristic Configuration descriptor write request */
 182:Generated_Source\PSoC4/BLE_gatt.c ****     if(eventParam->handleValPair.attrHandle == cyBle_gatts.cccdHandle)
 335              		.loc 1 182 0
 336 0010 7B68     		ldr	r3, [r7, #4]
 337 0012 9B89     		ldrh	r3, [r3, #12]
 338 0014 0922     		mov	r2, #9
 339 0016 9342     		cmp	r3, r2
 340 0018 37D1     		bne	.L8
 183:Generated_Source\PSoC4/BLE_gatt.c ****     {
 184:Generated_Source\PSoC4/BLE_gatt.c ****         /* Store value to database */
 185:Generated_Source\PSoC4/BLE_gatt.c ****         gattErr = CyBle_GattsWriteAttributeValue(&eventParam->handleValPair, 0u, 
 341              		.loc 1 185 0
 342 001a 7B68     		ldr	r3, [r7, #4]
 343 001c 1A1D     		add	r2, r3, #4
 344 001e 7B68     		ldr	r3, [r7, #4]
 345 0020 0F21     		mov	r1, #15
 346 0022 7C18     		add	r4, r7, r1
 347 0024 101C     		mov	r0, r2
 348 0026 0021     		mov	r1, #0
 349 0028 1A1C     		mov	r2, r3
 350 002a 4023     		mov	r3, #64
 351 002c FFF7FEFF 		bl	CyBle_GattsWriteAttributeValue
 352 0030 031C     		mov	r3, r0
 353 0032 2370     		strb	r3, [r4]
 186:Generated_Source\PSoC4/BLE_gatt.c ****                         &eventParam->connHandle, CYBLE_GATT_DB_PEER_INITIATED);
 187:Generated_Source\PSoC4/BLE_gatt.c ****         
 188:Generated_Source\PSoC4/BLE_gatt.c ****         if(CYBLE_GATT_ERR_NONE == gattErr)
 354              		.loc 1 188 0
 355 0034 0F23     		mov	r3, #15
 356 0036 FB18     		add	r3, r7, r3
 357 0038 1B78     		ldrb	r3, [r3]
 358 003a 002B     		cmp	r3, #0
 359 003c 1DD1     		bne	.L9
 189:Generated_Source\PSoC4/BLE_gatt.c ****         {
 190:Generated_Source\PSoC4/BLE_gatt.c ****             if(CYBLE_IS_INDICATION_ENABLED_IN_PTR(eventParam->handleValPair.value.val))
 360              		.loc 1 190 0
 361 003e 7B68     		ldr	r3, [r7, #4]
 362 0040 5B68     		ldr	r3, [r3, #4]
 363 0042 181C     		mov	r0, r3
 364 0044 FFF7FEFF 		bl	CyBle_Get16ByPtr
 365 0048 031C     		mov	r3, r0
 366 004a 1A1C     		mov	r2, r3
 367 004c 0223     		mov	r3, #2
 368 004e 1340     		and	r3, r2
 369 0050 9BB2     		uxth	r3, r3
 370 0052 002B     		cmp	r3, #0
ARM GAS  C:\Users\TTSS\AppData\Local\Temp\cc8kiKGh.s 			page 11


 371 0054 08D0     		beq	.L10
 191:Generated_Source\PSoC4/BLE_gatt.c ****             {
 192:Generated_Source\PSoC4/BLE_gatt.c ****                 CyBle_ApplCallback((uint32)CYBLE_EVT_GATTS_INDICATION_ENABLED, eventParam);
 372              		.loc 1 192 0
 373 0056 104B     		ldr	r3, .L12
 374 0058 1B68     		ldr	r3, [r3]
 375 005a 8222     		mov	r2, #130
 376 005c 5100     		lsl	r1, r2, #1
 377 005e 7A68     		ldr	r2, [r7, #4]
 378 0060 081C     		mov	r0, r1
 379 0062 111C     		mov	r1, r2
 380 0064 9847     		blx	r3
 381 0066 08E0     		b	.L9
 382              	.L10:
 193:Generated_Source\PSoC4/BLE_gatt.c ****             }
 194:Generated_Source\PSoC4/BLE_gatt.c ****             else
 195:Generated_Source\PSoC4/BLE_gatt.c ****             {
 196:Generated_Source\PSoC4/BLE_gatt.c ****                 CyBle_ApplCallback((uint32)CYBLE_EVT_GATTS_INDICATION_DISABLED, eventParam);
 383              		.loc 1 196 0
 384 0068 0B4B     		ldr	r3, .L12
 385 006a 1B68     		ldr	r3, [r3]
 386 006c 0622     		mov	r2, #6
 387 006e FF32     		add	r2, r2, #255
 388 0070 111C     		mov	r1, r2
 389 0072 7A68     		ldr	r2, [r7, #4]
 390 0074 081C     		mov	r0, r1
 391 0076 111C     		mov	r1, r2
 392 0078 9847     		blx	r3
 393              	.L9:
 197:Generated_Source\PSoC4/BLE_gatt.c ****             }
 198:Generated_Source\PSoC4/BLE_gatt.c ****         }
 199:Generated_Source\PSoC4/BLE_gatt.c ****         cyBle_eventHandlerFlag &= (uint8)~CYBLE_CALLBACK;
 394              		.loc 1 199 0
 395 007a 084B     		ldr	r3, .L12+4
 396 007c 1B78     		ldrb	r3, [r3]
 397 007e DBB2     		uxtb	r3, r3
 398 0080 0122     		mov	r2, #1
 399 0082 9343     		bic	r3, r2
 400 0084 DAB2     		uxtb	r2, r3
 401 0086 054B     		ldr	r3, .L12+4
 402 0088 1A70     		strb	r2, [r3]
 403              	.L8:
 200:Generated_Source\PSoC4/BLE_gatt.c ****     }
 201:Generated_Source\PSoC4/BLE_gatt.c ****     return (gattErr);
 404              		.loc 1 201 0
 405 008a 0F23     		mov	r3, #15
 406 008c FB18     		add	r3, r7, r3
 407 008e 1B78     		ldrb	r3, [r3]
 202:Generated_Source\PSoC4/BLE_gatt.c **** }
 408              		.loc 1 202 0
 409 0090 181C     		mov	r0, r3
 410 0092 BD46     		mov	sp, r7
 411 0094 05B0     		add	sp, sp, #20
 412              		@ sp needed
 413 0096 90BD     		pop	{r4, r7, pc}
 414              	.L13:
 415              		.align	2
ARM GAS  C:\Users\TTSS\AppData\Local\Temp\cc8kiKGh.s 			page 12


 416              	.L12:
 417 0098 00000000 		.word	CyBle_ApplCallback
 418 009c 00000000 		.word	cyBle_eventHandlerFlag
 419              		.cfi_endproc
 420              	.LFE3:
 421              		.size	CyBle_GattsWriteEventHandler, .-CyBle_GattsWriteEventHandler
 422              		.text
 423              	.Letext0:
 424              		.file 2 "Generated_Source\\PSoC4\\cytypes.h"
 425              		.file 3 "Generated_Source\\PSoC4\\BLE_Stack.h"
 426              		.file 4 "Generated_Source\\PSoC4\\BLE_StackGatt.h"
 427              		.file 5 "Generated_Source\\PSoC4\\BLE_StackGattServer.h"
 428              		.file 6 "Generated_Source\\PSoC4\\BLE_StackGattDb.h"
 429              		.file 7 "Generated_Source\\PSoC4\\BLE.h"
 430              		.file 8 "Generated_Source\\PSoC4\\BLE_gatt.h"
 431              		.file 9 "Generated_Source\\PSoC4\\BLE_eventHandler.h"