ARM GAS  C:\Users\TTSS\AppData\Local\Temp\ccBAPXR4.s 			page 1


   1              		.cpu cortex-m0
   2              		.fpu softvfp
   3              		.eabi_attribute 20, 1
   4              		.eabi_attribute 21, 1
   5              		.eabi_attribute 23, 3
   6              		.eabi_attribute 24, 1
   7              		.eabi_attribute 25, 1
   8              		.eabi_attribute 26, 1
   9              		.eabi_attribute 30, 6
  10              		.eabi_attribute 34, 0
  11              		.eabi_attribute 18, 4
  12              		.code	16
  13              		.file	"CyLFClk.c"
  14              		.text
  15              	.Ltext0:
  16              		.cfi_sections	.debug_frame
  17              		.section	.text.CySysClkWcoSetHighPowerMode,"ax",%progbits
  18              		.align	2
  19              		.code	16
  20              		.thumb_func
  21              		.type	CySysClkWcoSetHighPowerMode, %function
  22              	CySysClkWcoSetHighPowerMode:
  23              	.LFB0:
  24              		.file 1 "Generated_Source\\PSoC4\\CyLFClk.h"
   1:Generated_Source\PSoC4/CyLFClk.h **** /*******************************************************************************
   2:Generated_Source\PSoC4/CyLFClk.h **** * File Name: .h
   3:Generated_Source\PSoC4/CyLFClk.h **** * Version 1.0
   4:Generated_Source\PSoC4/CyLFClk.h **** *
   5:Generated_Source\PSoC4/CyLFClk.h **** * Description:
   6:Generated_Source\PSoC4/CyLFClk.h **** *  This file provides constants and parameter values for the cy_lfclk Component.
   7:Generated_Source\PSoC4/CyLFClk.h **** *
   8:Generated_Source\PSoC4/CyLFClk.h **** ********************************************************************************
   9:Generated_Source\PSoC4/CyLFClk.h **** * Copyright 2008-2015, Cypress Semiconductor Corporation.  All rights reserved.
  10:Generated_Source\PSoC4/CyLFClk.h **** * You may use this file only in accordance with the license, terms, conditions,
  11:Generated_Source\PSoC4/CyLFClk.h **** * disclaimers, and limitations in the end user license agreement accompanying
  12:Generated_Source\PSoC4/CyLFClk.h **** * the software package with which this file was provided.
  13:Generated_Source\PSoC4/CyLFClk.h **** *******************************************************************************/
  14:Generated_Source\PSoC4/CyLFClk.h **** 
  15:Generated_Source\PSoC4/CyLFClk.h **** #if !defined(CY_LFCLK_CYLIB_H)
  16:Generated_Source\PSoC4/CyLFClk.h **** #define CY_LFCLK_CYLIB_H
  17:Generated_Source\PSoC4/CyLFClk.h **** 
  18:Generated_Source\PSoC4/CyLFClk.h **** #include "cytypes.h"
  19:Generated_Source\PSoC4/CyLFClk.h **** #include "cydevice_trm.h"
  20:Generated_Source\PSoC4/CyLFClk.h **** 
  21:Generated_Source\PSoC4/CyLFClk.h **** typedef enum
  22:Generated_Source\PSoC4/CyLFClk.h **** {
  23:Generated_Source\PSoC4/CyLFClk.h ****     CY_SYS_TIMER_WAIT = 0u,
  24:Generated_Source\PSoC4/CyLFClk.h ****     CY_SYS_TIMER_INTERRUPT = 1u
  25:Generated_Source\PSoC4/CyLFClk.h **** } cy_sys_timer_delaytype_enum;
  26:Generated_Source\PSoC4/CyLFClk.h **** 
  27:Generated_Source\PSoC4/CyLFClk.h **** 
  28:Generated_Source\PSoC4/CyLFClk.h **** /***************************************
  29:Generated_Source\PSoC4/CyLFClk.h **** *    Function Prototypes
  30:Generated_Source\PSoC4/CyLFClk.h **** ***************************************/
  31:Generated_Source\PSoC4/CyLFClk.h **** 
  32:Generated_Source\PSoC4/CyLFClk.h **** /* Clocks API */
  33:Generated_Source\PSoC4/CyLFClk.h **** void CySysClkIloStart(void);
ARM GAS  C:\Users\TTSS\AppData\Local\Temp\ccBAPXR4.s 			page 2


  34:Generated_Source\PSoC4/CyLFClk.h **** void CySysClkIloStop(void);
  35:Generated_Source\PSoC4/CyLFClk.h **** 
  36:Generated_Source\PSoC4/CyLFClk.h **** #if (CY_IP_WCO)
  37:Generated_Source\PSoC4/CyLFClk.h ****     void   CySysClkWcoStart(void);
  38:Generated_Source\PSoC4/CyLFClk.h ****     void   CySysClkWcoStop(void);
  39:Generated_Source\PSoC4/CyLFClk.h ****     uint32 CySysClkWcoSetPowerMode(uint32 mode);
  40:Generated_Source\PSoC4/CyLFClk.h **** 
  41:Generated_Source\PSoC4/CyLFClk.h ****     void CySysClkSetLfclkSource(uint32 source);
  42:Generated_Source\PSoC4/CyLFClk.h ****     uint32 CySysClkWcoEnabled(void);
  43:Generated_Source\PSoC4/CyLFClk.h **** #endif /* (CY_IP_WCO) */
  44:Generated_Source\PSoC4/CyLFClk.h **** 
  45:Generated_Source\PSoC4/CyLFClk.h **** typedef void (*cyWdtCallback)(void);
  46:Generated_Source\PSoC4/CyLFClk.h **** 
  47:Generated_Source\PSoC4/CyLFClk.h **** #if(CY_IP_SRSSV2)
  48:Generated_Source\PSoC4/CyLFClk.h ****     /* WDT API */
  49:Generated_Source\PSoC4/CyLFClk.h ****     void   CySysWdtLock(void);
  50:Generated_Source\PSoC4/CyLFClk.h ****     void   CySysWdtUnlock(void);
  51:Generated_Source\PSoC4/CyLFClk.h ****     void   CySysWdtSetMode(uint32 counterNum, uint32 mode);
  52:Generated_Source\PSoC4/CyLFClk.h ****     uint32 CySysWdtGetMode(uint32 counterNum);
  53:Generated_Source\PSoC4/CyLFClk.h ****     uint32 CySysWdtGetEnabledStatus(uint32 counterNum);
  54:Generated_Source\PSoC4/CyLFClk.h ****     void   CySysWdtSetClearOnMatch(uint32 counterNum, uint32 enable);
  55:Generated_Source\PSoC4/CyLFClk.h ****     uint32 CySysWdtGetClearOnMatch(uint32 counterNum);
  56:Generated_Source\PSoC4/CyLFClk.h ****     void   CySysWdtEnable(uint32 counterMask);
  57:Generated_Source\PSoC4/CyLFClk.h ****     void   CySysWdtDisable(uint32 counterMask);
  58:Generated_Source\PSoC4/CyLFClk.h ****     void   CySysWdtSetCascade(uint32 cascadeMask);
  59:Generated_Source\PSoC4/CyLFClk.h ****     uint32 CySysWdtGetCascade(void);
  60:Generated_Source\PSoC4/CyLFClk.h ****     void   CySysWdtSetMatch(uint32 counterNum, uint32 match);
  61:Generated_Source\PSoC4/CyLFClk.h ****     void   CySysWdtSetToggleBit(uint32 bits);
  62:Generated_Source\PSoC4/CyLFClk.h ****     uint32 CySysWdtGetToggleBit(void);
  63:Generated_Source\PSoC4/CyLFClk.h ****     uint32 CySysWdtGetMatch(uint32 counterNum);
  64:Generated_Source\PSoC4/CyLFClk.h ****     uint32 CySysWdtGetCount(uint32 counterNum);
  65:Generated_Source\PSoC4/CyLFClk.h ****     uint32 CySysWdtGetInterruptSource(void);
  66:Generated_Source\PSoC4/CyLFClk.h ****     void   CySysWdtClearInterrupt(uint32 counterMask);
  67:Generated_Source\PSoC4/CyLFClk.h ****     void   CySysWdtResetCounters(uint32 countersMask);
  68:Generated_Source\PSoC4/CyLFClk.h ****     cyWdtCallback  CySysWdtSetInterruptCallback(uint32 counterNum, cyWdtCallback function);
  69:Generated_Source\PSoC4/CyLFClk.h ****     cyWdtCallback  CySysWdtGetInterruptCallback(uint32 counterNum);
  70:Generated_Source\PSoC4/CyLFClk.h ****     void   CySysTimerDelay(uint32 counterNum, cy_sys_timer_delaytype_enum delayType, uint32 delay);
  71:Generated_Source\PSoC4/CyLFClk.h ****     void   CySysTimerDelayUntilMatch(uint32 counterNum, cy_sys_timer_delaytype_enum delayType, uint
  72:Generated_Source\PSoC4/CyLFClk.h ****     void   CySysWatchdogFeed(uint32 counterNum);
  73:Generated_Source\PSoC4/CyLFClk.h ****     void   CySysWdtEnableCounterIsr(uint32 counterNum);
  74:Generated_Source\PSoC4/CyLFClk.h ****     void   CySysWdtDisableCounterIsr(uint32 counterNum);
  75:Generated_Source\PSoC4/CyLFClk.h ****     void   CySysWdtIsr(void);
  76:Generated_Source\PSoC4/CyLFClk.h **** #else
  77:Generated_Source\PSoC4/CyLFClk.h ****     /* WDT API */
  78:Generated_Source\PSoC4/CyLFClk.h ****     uint32 CySysWdtGetEnabledStatus(void);
  79:Generated_Source\PSoC4/CyLFClk.h ****     void   CySysWdtEnable(void);
  80:Generated_Source\PSoC4/CyLFClk.h ****     void   CySysWdtDisable(void);
  81:Generated_Source\PSoC4/CyLFClk.h ****     void   CySysWdtSetMatch(uint32 match);
  82:Generated_Source\PSoC4/CyLFClk.h ****     uint32 CySysWdtGetMatch(void);
  83:Generated_Source\PSoC4/CyLFClk.h ****     uint32 CySysWdtGetCount(void);
  84:Generated_Source\PSoC4/CyLFClk.h ****     void   CySysWdtSetIgnoreBits(uint32 bitsNum);
  85:Generated_Source\PSoC4/CyLFClk.h ****     uint32 CySysWdtGetIgnoreBits(void);
  86:Generated_Source\PSoC4/CyLFClk.h ****     void   CySysWdtClearInterrupt(void);
  87:Generated_Source\PSoC4/CyLFClk.h ****     void   CySysWdtMaskInterrupt(void);
  88:Generated_Source\PSoC4/CyLFClk.h ****     void   CySysWdtUnmaskInterrupt(void);
  89:Generated_Source\PSoC4/CyLFClk.h ****     cyWdtCallback CySysWdtSetInterruptCallback(cyWdtCallback function);
  90:Generated_Source\PSoC4/CyLFClk.h ****     cyWdtCallback CySysWdtGetInterruptCallback(void);
ARM GAS  C:\Users\TTSS\AppData\Local\Temp\ccBAPXR4.s 			page 3


  91:Generated_Source\PSoC4/CyLFClk.h ****     void   CySysWdtIsr(void);
  92:Generated_Source\PSoC4/CyLFClk.h **** #endif  /* (CY_IP_SRSSV2) */
  93:Generated_Source\PSoC4/CyLFClk.h **** 
  94:Generated_Source\PSoC4/CyLFClk.h **** 
  95:Generated_Source\PSoC4/CyLFClk.h **** /***************************************
  96:Generated_Source\PSoC4/CyLFClk.h **** * API Constants
  97:Generated_Source\PSoC4/CyLFClk.h **** ***************************************/
  98:Generated_Source\PSoC4/CyLFClk.h **** 
  99:Generated_Source\PSoC4/CyLFClk.h **** #define UINT16_MAX_VAL    (0xFFFFu)
 100:Generated_Source\PSoC4/CyLFClk.h **** 
 101:Generated_Source\PSoC4/CyLFClk.h **** 
 102:Generated_Source\PSoC4/CyLFClk.h **** /*******************************************************************************
 103:Generated_Source\PSoC4/CyLFClk.h **** * Clock API Constants
 104:Generated_Source\PSoC4/CyLFClk.h **** *******************************************************************************/
 105:Generated_Source\PSoC4/CyLFClk.h **** /* CySysClkIloStart()/CySysClkIloStop() - implementation definitions */
 106:Generated_Source\PSoC4/CyLFClk.h **** #define CY_SYS_CLK_ILO_CONFIG_ENABLE                    (( uint32 )(( uint32 )0x01u << 31u))
 107:Generated_Source\PSoC4/CyLFClk.h **** 
 108:Generated_Source\PSoC4/CyLFClk.h **** 
 109:Generated_Source\PSoC4/CyLFClk.h **** /* CySysClkSetLfclkSource() - parameter definitions */
 110:Generated_Source\PSoC4/CyLFClk.h **** #if (CY_IP_WCO)
 111:Generated_Source\PSoC4/CyLFClk.h ****     #define CY_SYS_CLK_LFCLK_SRC_ILO                    (0u)
 112:Generated_Source\PSoC4/CyLFClk.h ****     #define CY_SYS_CLK_LFCLK_SRC_WCO                    (( uint32 )(( uint32 )0x01u << 30u))
 113:Generated_Source\PSoC4/CyLFClk.h **** #endif /* (CY_IP_WCO) */
 114:Generated_Source\PSoC4/CyLFClk.h **** 
 115:Generated_Source\PSoC4/CyLFClk.h **** 
 116:Generated_Source\PSoC4/CyLFClk.h **** /* CySysClkSetLfclkSource() - implementation definitions */
 117:Generated_Source\PSoC4/CyLFClk.h **** #if (CY_IP_WCO)
 118:Generated_Source\PSoC4/CyLFClk.h ****     #define CY_SYS_CLK_LFCLK_SEL_MASK                   (( uint32 )(( uint32 )0x03u << 30u))
 119:Generated_Source\PSoC4/CyLFClk.h **** #endif /* (CY_IP_WCO) */
 120:Generated_Source\PSoC4/CyLFClk.h **** 
 121:Generated_Source\PSoC4/CyLFClk.h **** #if (CY_IP_WCO)
 122:Generated_Source\PSoC4/CyLFClk.h ****     /* WCO Configuration Register */
 123:Generated_Source\PSoC4/CyLFClk.h ****     #define CY_SYS_CLK_WCO_CONFIG_LPM_EN                (( uint32 )(( uint32 )0x01u <<  0u))
 124:Generated_Source\PSoC4/CyLFClk.h ****     #define CY_SYS_CLK_WCO_CONFIG_LPM_AUTO              (( uint32 )(( uint32 )0x01u <<  1u))
 125:Generated_Source\PSoC4/CyLFClk.h ****     #define CY_SYS_CLK_WCO_CONFIG_LPM_ENABLE            (( uint32 )(( uint32 )0x01u << 31u))
 126:Generated_Source\PSoC4/CyLFClk.h **** 
 127:Generated_Source\PSoC4/CyLFClk.h ****     /* WCO Status Register */
 128:Generated_Source\PSoC4/CyLFClk.h ****     #define CY_SYS_CLK_WCO_STATUS_OUT_BLNK_A            (( uint32 )(( uint32 )0x01u <<  0u))
 129:Generated_Source\PSoC4/CyLFClk.h **** 
 130:Generated_Source\PSoC4/CyLFClk.h ****     /* WCO Trim Register */
 131:Generated_Source\PSoC4/CyLFClk.h ****     #define CY_SYS_CLK_WCO_TRIM_XGM_MASK                (( uint32 ) 0x07u)
 132:Generated_Source\PSoC4/CyLFClk.h ****     #define CY_SYS_CLK_WCO_TRIM_XGM_SHIFT               (( uint32 ) 0x00u)
 133:Generated_Source\PSoC4/CyLFClk.h **** 
 134:Generated_Source\PSoC4/CyLFClk.h ****     #define CY_SYS_CLK_WCO_TRIM_XGM_3370NA              (( uint32 ) 0x00u)
 135:Generated_Source\PSoC4/CyLFClk.h ****     #define CY_SYS_CLK_WCO_TRIM_XGM_2620NA              (( uint32 ) 0x01u)
 136:Generated_Source\PSoC4/CyLFClk.h ****     #define CY_SYS_CLK_WCO_TRIM_XGM_2250NA              (( uint32 ) 0x02u)
 137:Generated_Source\PSoC4/CyLFClk.h ****     #define CY_SYS_CLK_WCO_TRIM_XGM_1500NA              (( uint32 ) 0x03u)
 138:Generated_Source\PSoC4/CyLFClk.h ****     #define CY_SYS_CLK_WCO_TRIM_XGM_1870NA              (( uint32 ) 0x04u)
 139:Generated_Source\PSoC4/CyLFClk.h ****     #define CY_SYS_CLK_WCO_TRIM_XGM_1120NA              (( uint32 ) 0x05u)
 140:Generated_Source\PSoC4/CyLFClk.h ****     #define CY_SYS_CLK_WCO_TRIM_XGM_750NA               (( uint32 ) 0x06u)
 141:Generated_Source\PSoC4/CyLFClk.h ****     #define CY_SYS_CLK_WCO_TRIM_XGM_0NA                 (( uint32 ) 0x07u)
 142:Generated_Source\PSoC4/CyLFClk.h **** 
 143:Generated_Source\PSoC4/CyLFClk.h ****     #define CY_SYS_CLK_WCO_TRIM_GM_MASK                 (( uint32 )(( uint32 )0x03u << 4u))
 144:Generated_Source\PSoC4/CyLFClk.h ****     #define CY_SYS_CLK_WCO_TRIM_GM_SHIFT                (( uint32 ) 0x04u)
 145:Generated_Source\PSoC4/CyLFClk.h ****     #define CY_SYS_CLK_WCO_TRIM_GM_HPM                  (( uint32 ) 0x01u)
 146:Generated_Source\PSoC4/CyLFClk.h ****     #define CY_SYS_CLK_WCO_TRIM_GM_LPM                  (( uint32 ) 0x02u)
 147:Generated_Source\PSoC4/CyLFClk.h **** #endif  /* (CY_IP_WCO) */
ARM GAS  C:\Users\TTSS\AppData\Local\Temp\ccBAPXR4.s 			page 4


 148:Generated_Source\PSoC4/CyLFClk.h **** 
 149:Generated_Source\PSoC4/CyLFClk.h **** 
 150:Generated_Source\PSoC4/CyLFClk.h **** /*******************************************************************************
 151:Generated_Source\PSoC4/CyLFClk.h **** * WDT API Constants
 152:Generated_Source\PSoC4/CyLFClk.h **** *******************************************************************************/
 153:Generated_Source\PSoC4/CyLFClk.h **** #if(CY_IP_SRSSV2)
 154:Generated_Source\PSoC4/CyLFClk.h ****     #define CY_SYS_WDT_MODE_NONE                (0u)
 155:Generated_Source\PSoC4/CyLFClk.h ****     #define CY_SYS_WDT_MODE_INT                 (1u)
 156:Generated_Source\PSoC4/CyLFClk.h ****     #define CY_SYS_WDT_MODE_RESET               (2u)
 157:Generated_Source\PSoC4/CyLFClk.h ****     #define CY_SYS_WDT_MODE_INT_RESET           (3u)
 158:Generated_Source\PSoC4/CyLFClk.h **** 
 159:Generated_Source\PSoC4/CyLFClk.h ****     #define CY_SYS_WDT_COUNTER0_MASK            ((uint32)((uint32)0x01u))
 160:Generated_Source\PSoC4/CyLFClk.h ****     #define CY_SYS_WDT_COUNTER1_MASK            ((uint32)((uint32)0x01u << 8u))
 161:Generated_Source\PSoC4/CyLFClk.h ****     #define CY_SYS_WDT_COUNTER2_MASK            ((uint32)((uint32)0x01u << 16u))
 162:Generated_Source\PSoC4/CyLFClk.h **** 
 163:Generated_Source\PSoC4/CyLFClk.h ****     #define CY_SYS_WDT_CASCADE_NONE             ((uint32)0x00u)
 164:Generated_Source\PSoC4/CyLFClk.h ****     #define CY_SYS_WDT_CASCADE_01               ((uint32)0x01u << 3u)
 165:Generated_Source\PSoC4/CyLFClk.h ****     #define CY_SYS_WDT_CASCADE_12               ((uint32)0x01u << 11u)
 166:Generated_Source\PSoC4/CyLFClk.h **** 
 167:Generated_Source\PSoC4/CyLFClk.h ****     #define CY_SYS_WDT_COUNTER0_INT             ((uint32)0x01u << 2u)
 168:Generated_Source\PSoC4/CyLFClk.h ****     #define CY_SYS_WDT_COUNTER1_INT             ((uint32)0x01u << 10u)
 169:Generated_Source\PSoC4/CyLFClk.h ****     #define CY_SYS_WDT_COUNTER2_INT             ((uint32)0x01u << 18u)
 170:Generated_Source\PSoC4/CyLFClk.h **** 
 171:Generated_Source\PSoC4/CyLFClk.h ****     #define CY_SYS_WDT_COUNTER0_RESET           ((uint32)0x01u << 3u)
 172:Generated_Source\PSoC4/CyLFClk.h ****     #define CY_SYS_WDT_COUNTER1_RESET           ((uint32)0x01u << 11u)
 173:Generated_Source\PSoC4/CyLFClk.h ****     #define CY_SYS_WDT_COUNTER2_RESET           ((uint32)0x01u << 19u)
 174:Generated_Source\PSoC4/CyLFClk.h ****     #define CY_SYS_WDT_COUNTERS_RESET           (CY_SYS_WDT_COUNTER0_RESET |\
 175:Generated_Source\PSoC4/CyLFClk.h ****                                                  CY_SYS_WDT_COUNTER1_RESET |\
 176:Generated_Source\PSoC4/CyLFClk.h ****                                                  CY_SYS_WDT_COUNTER2_RESET)
 177:Generated_Source\PSoC4/CyLFClk.h **** 
 178:Generated_Source\PSoC4/CyLFClk.h ****     #define CY_SYS_WDT_COUNTER0                 (0x00u)
 179:Generated_Source\PSoC4/CyLFClk.h ****     #define CY_SYS_WDT_COUNTER1                 (0x01u)
 180:Generated_Source\PSoC4/CyLFClk.h ****     #define CY_SYS_WDT_COUNTER2                 (0x02u)
 181:Generated_Source\PSoC4/CyLFClk.h **** 
 182:Generated_Source\PSoC4/CyLFClk.h ****     #define CY_SYS_WDT_COUNTER0_OFFSET            (0x00u)
 183:Generated_Source\PSoC4/CyLFClk.h ****     #define CY_SYS_WDT_COUNTER1_OFFSET            (0x02u)
 184:Generated_Source\PSoC4/CyLFClk.h ****     #define CY_SYS_WDT_COUNTER2_OFFSET            (0x04u)
 185:Generated_Source\PSoC4/CyLFClk.h **** 
 186:Generated_Source\PSoC4/CyLFClk.h ****     #define CY_SYS_WDT_MODE_MASK                ((uint32)(0x03u))
 187:Generated_Source\PSoC4/CyLFClk.h **** 
 188:Generated_Source\PSoC4/CyLFClk.h ****     #define CY_SYS_WDT_CLK_LOCK_BITS_MASK       ((uint32)0x03u << 14u)
 189:Generated_Source\PSoC4/CyLFClk.h ****     #define CY_SYS_WDT_CLK_LOCK_BIT0            ((uint32)0x01u << 14u)
 190:Generated_Source\PSoC4/CyLFClk.h ****     #define CY_SYS_WDT_CLK_LOCK_BIT1            ((uint32)0x01u << 15u)
 191:Generated_Source\PSoC4/CyLFClk.h **** 
 192:Generated_Source\PSoC4/CyLFClk.h ****     #define CY_SYS_WDT_CONFIG_BITS2_MASK        (uint32)(0x1Fu)
 193:Generated_Source\PSoC4/CyLFClk.h ****     #define CY_SYS_WDT_CONFIG_BITS2_POS         (uint32)(24u)
 194:Generated_Source\PSoC4/CyLFClk.h ****     #define CY_SYS_WDT_LOWER_16BITS_MASK        (uint32)(0x0000FFFFu)
 195:Generated_Source\PSoC4/CyLFClk.h ****     #define CY_SYS_WDT_HIGHER_16BITS_MASK       (uint32)(0xFFFF0000u)
 196:Generated_Source\PSoC4/CyLFClk.h ****     #define CY_SYS_WDT_COUNTERS_MAX             (0x03u)
 197:Generated_Source\PSoC4/CyLFClk.h ****     #define CY_SYS_WDT_CNT_SHIFT                (0x08u)
 198:Generated_Source\PSoC4/CyLFClk.h ****     #define CY_SYS_WDT_CNT_MATCH_CLR_SHIFT      (0x02u)
 199:Generated_Source\PSoC4/CyLFClk.h ****     #define CY_SYS_WDT_CNT_STTS_SHIFT           (0x01u)
 200:Generated_Source\PSoC4/CyLFClk.h ****     #define CY_SYS_WDT_CNT_MATCH_SHIFT          (0x10u)
 201:Generated_Source\PSoC4/CyLFClk.h **** 
 202:Generated_Source\PSoC4/CyLFClk.h ****     #define CY_WDT_NUM_OF_WDT                    (3u)
 203:Generated_Source\PSoC4/CyLFClk.h ****     #define CY_WDT_NUM_OF_CALLBACKS             (3u)
 204:Generated_Source\PSoC4/CyLFClk.h **** 
ARM GAS  C:\Users\TTSS\AppData\Local\Temp\ccBAPXR4.s 			page 5


 205:Generated_Source\PSoC4/CyLFClk.h ****     #if (CY_PSOC4_4100 || CY_PSOC4_4200)
 206:Generated_Source\PSoC4/CyLFClk.h ****         #define CY_SYS_WDT_1LFCLK_DELAY_US      ((uint16)( 67u))
 207:Generated_Source\PSoC4/CyLFClk.h ****         #define CY_SYS_WDT_3LFCLK_DELAY_US      ((uint16)(201u))
 208:Generated_Source\PSoC4/CyLFClk.h ****     #endif /* (CY_PSOC4_4100 || CY_PSOC4_4200) */
 209:Generated_Source\PSoC4/CyLFClk.h **** 
 210:Generated_Source\PSoC4/CyLFClk.h ****     #if (CY_PSOC4_4000)
 211:Generated_Source\PSoC4/CyLFClk.h ****         #define CY_SYS_WDT_1LFCLK_DELAY_US      ((uint16)( 50u))
 212:Generated_Source\PSoC4/CyLFClk.h ****         #define CY_SYS_WDT_3LFCLK_DELAY_US      ((uint16)(150u))
 213:Generated_Source\PSoC4/CyLFClk.h ****     #endif /* (CY_PSOC4_4000) */
 214:Generated_Source\PSoC4/CyLFClk.h **** 
 215:Generated_Source\PSoC4/CyLFClk.h ****     #if (CY_IP_WCO)
 216:Generated_Source\PSoC4/CyLFClk.h **** 
 217:Generated_Source\PSoC4/CyLFClk.h ****         #define CY_SYS_WDT_1LFCLK_DELAY_US      \
 218:Generated_Source\PSoC4/CyLFClk.h ****             ((CY_SYS_CLK_LFCLK_SRC_ILO == (CY_SYS_WDT_CONFIG_REG & CY_SYS_CLK_LFCLK_SEL_MASK)) ? \
 219:Generated_Source\PSoC4/CyLFClk.h ****                                                 ((uint16)(67u)) : \
 220:Generated_Source\PSoC4/CyLFClk.h ****                                                 ((uint16)(31u)))
 221:Generated_Source\PSoC4/CyLFClk.h **** 
 222:Generated_Source\PSoC4/CyLFClk.h ****         #define CY_SYS_WDT_3LFCLK_DELAY_US      \
 223:Generated_Source\PSoC4/CyLFClk.h ****             ((CY_SYS_CLK_LFCLK_SRC_ILO == (CY_SYS_WDT_CONFIG_REG & CY_SYS_CLK_LFCLK_SEL_MASK)) ? \
 224:Generated_Source\PSoC4/CyLFClk.h ****                                                 ((uint16)(201u)) : \
 225:Generated_Source\PSoC4/CyLFClk.h ****                                                 ((uint16)(93u)))
 226:Generated_Source\PSoC4/CyLFClk.h **** 
 227:Generated_Source\PSoC4/CyLFClk.h ****     #endif /* (CY_IP_WCO) */
 228:Generated_Source\PSoC4/CyLFClk.h **** 
 229:Generated_Source\PSoC4/CyLFClk.h **** #else
 230:Generated_Source\PSoC4/CyLFClk.h ****     #define CY_SYS_WDT_KEY                      ((uint32)(0xACED8865u))
 231:Generated_Source\PSoC4/CyLFClk.h ****     #define CY_SYS_WDT_MATCH_MASK               ((uint32)(0x0000FFFFu))
 232:Generated_Source\PSoC4/CyLFClk.h ****     #define CY_SYS_WDT_IGNORE_BITS_MASK         ((uint32)(0x000F0000u))
 233:Generated_Source\PSoC4/CyLFClk.h ****     #define CY_SYS_WDT_IGNORE_BITS_SHIFT        ((uint32)(16u))
 234:Generated_Source\PSoC4/CyLFClk.h ****     #define CY_SYS_WDT_LOWER_BIT_MASK           ((uint32)(0x00000001u))
 235:Generated_Source\PSoC4/CyLFClk.h **** 
 236:Generated_Source\PSoC4/CyLFClk.h ****     #define CY_SYS_WDT_COUNTER0                 (0x00u)
 237:Generated_Source\PSoC4/CyLFClk.h **** 
 238:Generated_Source\PSoC4/CyLFClk.h ****     #define CY_WDT_NUM_OF_WDT                   (1u)
 239:Generated_Source\PSoC4/CyLFClk.h ****     #define CY_WDT_NUM_OF_CALLBACKS             (3u)
 240:Generated_Source\PSoC4/CyLFClk.h **** #endif  /* (CY_IP_SRSSV2) */
 241:Generated_Source\PSoC4/CyLFClk.h **** 
 242:Generated_Source\PSoC4/CyLFClk.h **** #define CY_INT_WDT_IRQN                            (7u)
 243:Generated_Source\PSoC4/CyLFClk.h **** 
 244:Generated_Source\PSoC4/CyLFClk.h **** /* CySysXTAL_32KHZ_SetPowerMode() */
 245:Generated_Source\PSoC4/CyLFClk.h **** #define CY_SYS_CLK_WCO_HPM                   (0x0u)
 246:Generated_Source\PSoC4/CyLFClk.h **** #if(0u == (CY_PSOC4_4100M || CY_PSOC4_4200M))
 247:Generated_Source\PSoC4/CyLFClk.h ****     #define CY_SYS_CLK_WCO_LPM               (0x1u)
 248:Generated_Source\PSoC4/CyLFClk.h **** #endif /* (0u == (CY_PSOC4_4100M || CY_PSOC4_4200M)) */
 249:Generated_Source\PSoC4/CyLFClk.h **** 
 250:Generated_Source\PSoC4/CyLFClk.h **** 
 251:Generated_Source\PSoC4/CyLFClk.h **** #define CY_SYS_CLK_ILO_CONFIG_REG           (*(reg32 *) CYREG_CLK_ILO_CONFIG)
 252:Generated_Source\PSoC4/CyLFClk.h **** #define CY_SYS_CLK_ILO_CONFIG_PTR           ( (reg32 *) CYREG_CLK_ILO_CONFIG)
 253:Generated_Source\PSoC4/CyLFClk.h **** 
 254:Generated_Source\PSoC4/CyLFClk.h **** #if(CY_IP_SRSSV2)
 255:Generated_Source\PSoC4/CyLFClk.h ****     #define CY_SYS_CLK_ILO_TRIM_REG             (*(reg32 *) CYREG_CLK_ILO_TRIM)
 256:Generated_Source\PSoC4/CyLFClk.h ****     #define CY_SYS_CLK_ILO_TRIM_PTR             ( (reg32 *) CYREG_CLK_ILO_TRIM)
 257:Generated_Source\PSoC4/CyLFClk.h **** #endif  /* (CY_IP_SRSSV2) */
 258:Generated_Source\PSoC4/CyLFClk.h **** 
 259:Generated_Source\PSoC4/CyLFClk.h **** #if (CY_IP_WCO)
 260:Generated_Source\PSoC4/CyLFClk.h **** 
 261:Generated_Source\PSoC4/CyLFClk.h ****     #if (CY_PSOC4_4100BL || CY_PSOC4_4200BL)
ARM GAS  C:\Users\TTSS\AppData\Local\Temp\ccBAPXR4.s 			page 6


 262:Generated_Source\PSoC4/CyLFClk.h ****         /* WCO Status Register */
 263:Generated_Source\PSoC4/CyLFClk.h ****         #define CY_SYS_CLK_WCO_STATUS_REG               (*(reg32 *) CYREG_BLE_BLESS_WCO_STATUS)
 264:Generated_Source\PSoC4/CyLFClk.h ****         #define CY_SYS_CLK_WCO_STATUS_PTR               ( (reg32 *) CYREG_BLE_BLESS_WCO_STATUS)
 265:Generated_Source\PSoC4/CyLFClk.h **** 
 266:Generated_Source\PSoC4/CyLFClk.h ****         /* WCO Configuration Register */
 267:Generated_Source\PSoC4/CyLFClk.h ****         #define CY_SYS_CLK_WCO_CONFIG_REG               (*(reg32 *) CYREG_BLE_BLESS_WCO_CONFIG)
 268:Generated_Source\PSoC4/CyLFClk.h ****         #define CY_SYS_CLK_WCO_CONFIG_PTR               ( (reg32 *) CYREG_BLE_BLESS_WCO_CONFIG)
 269:Generated_Source\PSoC4/CyLFClk.h **** 
 270:Generated_Source\PSoC4/CyLFClk.h ****         /* WCO Trim Register */
 271:Generated_Source\PSoC4/CyLFClk.h ****         #define CY_SYS_CLK_WCO_TRIM_REG                 (*(reg32 *) CYREG_BLE_BLESS_WCO_TRIM)
 272:Generated_Source\PSoC4/CyLFClk.h ****         #define CY_SYS_CLK_WCO_TRIM_PTR                 ( (reg32 *) CYREG_BLE_BLESS_WCO_TRIM)
 273:Generated_Source\PSoC4/CyLFClk.h ****     #else   /* (CY_PSOC4_4100M || CY_PSOC4_4200M) */
 274:Generated_Source\PSoC4/CyLFClk.h ****         /* WCO Status Register */
 275:Generated_Source\PSoC4/CyLFClk.h ****         #define CY_SYS_CLK_WCO_STATUS_REG               (*(reg32 *) CYREG_WCO_STATUS)
 276:Generated_Source\PSoC4/CyLFClk.h ****         #define CY_SYS_CLK_WCO_STATUS_PTR               ( (reg32 *) CYREG_WCO_STATUS)
 277:Generated_Source\PSoC4/CyLFClk.h **** 
 278:Generated_Source\PSoC4/CyLFClk.h ****         /* WCO Configuration Register */
 279:Generated_Source\PSoC4/CyLFClk.h ****         #define CY_SYS_CLK_WCO_CONFIG_REG               (*(reg32 *) CYREG_WCO_CONFIG)
 280:Generated_Source\PSoC4/CyLFClk.h ****         #define CY_SYS_CLK_WCO_CONFIG_PTR               ( (reg32 *) CYREG_WCO_CONFIG)
 281:Generated_Source\PSoC4/CyLFClk.h **** 
 282:Generated_Source\PSoC4/CyLFClk.h ****         /* WCO Trim Register */
 283:Generated_Source\PSoC4/CyLFClk.h ****         #define CY_SYS_CLK_WCO_TRIM_REG                 (*(reg32 *) CYREG_WCO_TRIM)
 284:Generated_Source\PSoC4/CyLFClk.h ****         #define CY_SYS_CLK_WCO_TRIM_PTR                 ( (reg32 *) CYREG_WCO_TRIM)
 285:Generated_Source\PSoC4/CyLFClk.h ****     #endif /* (CY_PSOC4_4100BL || CY_PSOC4_4200BL) */
 286:Generated_Source\PSoC4/CyLFClk.h **** 
 287:Generated_Source\PSoC4/CyLFClk.h **** #endif  /* (CY_IP_WCO) */
 288:Generated_Source\PSoC4/CyLFClk.h **** 
 289:Generated_Source\PSoC4/CyLFClk.h **** 
 290:Generated_Source\PSoC4/CyLFClk.h **** /*******************************************************************************
 291:Generated_Source\PSoC4/CyLFClk.h **** * WDT API Registers
 292:Generated_Source\PSoC4/CyLFClk.h **** *******************************************************************************/
 293:Generated_Source\PSoC4/CyLFClk.h **** #if(CY_IP_SRSSV2)
 294:Generated_Source\PSoC4/CyLFClk.h ****     #define CY_SYS_WDT_CTRLOW_REG               (*(reg32 *) CYREG_WDT_CTRLOW)
 295:Generated_Source\PSoC4/CyLFClk.h ****     #define CY_SYS_WDT_CTRLOW_PTR               ( (reg32 *) CYREG_WDT_CTRLOW)
 296:Generated_Source\PSoC4/CyLFClk.h **** 
 297:Generated_Source\PSoC4/CyLFClk.h ****     #define CY_SYS_WDT_CTRHIGH_REG              (*(reg32 *) CYREG_WDT_CTRHIGH)
 298:Generated_Source\PSoC4/CyLFClk.h ****     #define CY_SYS_WDT_CTRHIGH_PTR              ( (reg32 *) CYREG_WDT_CTRHIGH)
 299:Generated_Source\PSoC4/CyLFClk.h **** 
 300:Generated_Source\PSoC4/CyLFClk.h ****     #define CY_SYS_WDT_MATCH_REG                (*(reg32 *) CYREG_WDT_MATCH)
 301:Generated_Source\PSoC4/CyLFClk.h ****     #define CY_SYS_WDT_MATCH_PTR                ( (reg32 *) CYREG_WDT_MATCH)
 302:Generated_Source\PSoC4/CyLFClk.h **** 
 303:Generated_Source\PSoC4/CyLFClk.h ****     #define CY_SYS_WDT_CONFIG_REG               (*(reg32 *) CYREG_WDT_CONFIG)
 304:Generated_Source\PSoC4/CyLFClk.h ****     #define CY_SYS_WDT_CONFIG_PTR               ( (reg32 *) CYREG_WDT_CONFIG)
 305:Generated_Source\PSoC4/CyLFClk.h **** 
 306:Generated_Source\PSoC4/CyLFClk.h ****     #define CY_SYS_WDT_CONTROL_REG              (*(reg32 *) CYREG_WDT_CONTROL)
 307:Generated_Source\PSoC4/CyLFClk.h ****     #define CY_SYS_WDT_CONTROL_PTR              ( (reg32 *) CYREG_WDT_CONTROL)
 308:Generated_Source\PSoC4/CyLFClk.h **** #else
 309:Generated_Source\PSoC4/CyLFClk.h ****     #define CY_SYS_WDT_DISABLE_KEY_REG          (*(reg32 *) CYREG_WDT_DISABLE_KEY)
 310:Generated_Source\PSoC4/CyLFClk.h ****     #define CY_SYS_WDT_DISABLE_KEY_PTR          ( (reg32 *) CYREG_WDT_DISABLE_KEY)
 311:Generated_Source\PSoC4/CyLFClk.h **** 
 312:Generated_Source\PSoC4/CyLFClk.h ****     #define CY_SYS_WDT_MATCH_REG                (*(reg32 *) CYREG_WDT_MATCH)
 313:Generated_Source\PSoC4/CyLFClk.h ****     #define CY_SYS_WDT_MATCH_PTR                ( (reg32 *) CYREG_WDT_MATCH)
 314:Generated_Source\PSoC4/CyLFClk.h **** 
 315:Generated_Source\PSoC4/CyLFClk.h ****     #define CY_SYS_WDT_COUNTER_REG              (*(reg32 *) CYREG_WDT_COUNTER)
 316:Generated_Source\PSoC4/CyLFClk.h ****     #define CY_SYS_WDT_COUNTER_PTR              ( (reg32 *) CYREG_WDT_COUNTER)
 317:Generated_Source\PSoC4/CyLFClk.h **** 
 318:Generated_Source\PSoC4/CyLFClk.h ****     #define CY_SYS_SRSS_INTR_REG                (*(reg32 *) CYREG_SRSS_INTR)
ARM GAS  C:\Users\TTSS\AppData\Local\Temp\ccBAPXR4.s 			page 7


 319:Generated_Source\PSoC4/CyLFClk.h ****     #define CY_SYS_SRSS_INTR_PTR                ( (reg32 *) CYREG_SRSS_INTR)
 320:Generated_Source\PSoC4/CyLFClk.h **** 
 321:Generated_Source\PSoC4/CyLFClk.h ****     #define CY_SYS_SRSS_INTR_MASK_REG           (*(reg32 *) CYREG_SRSS_INTR_MASK)
 322:Generated_Source\PSoC4/CyLFClk.h ****     #define CY_SYS_SRSS_INTR_MASK_PTR           ( (reg32 *) CYREG_SRSS_INTR_MASK)
 323:Generated_Source\PSoC4/CyLFClk.h **** #endif  /* (CY_IP_SRSSV2) */
 324:Generated_Source\PSoC4/CyLFClk.h **** 
 325:Generated_Source\PSoC4/CyLFClk.h **** #if (CY_IP_WCO)
 326:Generated_Source\PSoC4/CyLFClk.h **** 
 327:Generated_Source\PSoC4/CyLFClk.h ****     /*******************************************************************************
 328:Generated_Source\PSoC4/CyLFClk.h ****     * Function Name: CySysClkWcoSetHighPowerMode
 329:Generated_Source\PSoC4/CyLFClk.h ****     ********************************************************************************
 330:Generated_Source\PSoC4/CyLFClk.h ****     *
 331:Generated_Source\PSoC4/CyLFClk.h ****     * Summary:
 332:Generated_Source\PSoC4/CyLFClk.h ****     *  Sets the high power mode for the 32 KHz WCO.
 333:Generated_Source\PSoC4/CyLFClk.h ****     *
 334:Generated_Source\PSoC4/CyLFClk.h ****     * Parameters:
 335:Generated_Source\PSoC4/CyLFClk.h ****     *  None.
 336:Generated_Source\PSoC4/CyLFClk.h ****     *
 337:Generated_Source\PSoC4/CyLFClk.h ****     * Return:
 338:Generated_Source\PSoC4/CyLFClk.h ****     *  None.
 339:Generated_Source\PSoC4/CyLFClk.h ****     *
 340:Generated_Source\PSoC4/CyLFClk.h ****     * Side Effects:
 341:Generated_Source\PSoC4/CyLFClk.h ****     *  None.
 342:Generated_Source\PSoC4/CyLFClk.h ****     *
 343:Generated_Source\PSoC4/CyLFClk.h ****     *******************************************************************************/
 344:Generated_Source\PSoC4/CyLFClk.h ****     static CY_INLINE void CySysClkWcoSetHighPowerMode(void)
 345:Generated_Source\PSoC4/CyLFClk.h ****     {
  25              		.loc 1 345 0
  26              		.cfi_startproc
  27 0000 80B5     		push	{r7, lr}
  28              		.cfi_def_cfa_offset 8
  29              		.cfi_offset 7, -8
  30              		.cfi_offset 14, -4
  31 0002 00AF     		add	r7, sp, #0
  32              		.cfi_def_cfa_register 7
 346:Generated_Source\PSoC4/CyLFClk.h ****         /* Switch off low power mode for WCO */
 347:Generated_Source\PSoC4/CyLFClk.h ****         CY_SYS_CLK_WCO_CONFIG_REG &= (uint32) ~CY_SYS_CLK_WCO_CONFIG_LPM_EN;
  33              		.loc 1 347 0
  34 0004 0E4B     		ldr	r3, .L2
  35 0006 0E4A     		ldr	r2, .L2
  36 0008 1268     		ldr	r2, [r2]
  37 000a 0121     		mov	r1, #1
  38 000c 8A43     		bic	r2, r1
  39 000e 1A60     		str	r2, [r3]
 348:Generated_Source\PSoC4/CyLFClk.h ****         
 349:Generated_Source\PSoC4/CyLFClk.h ****         /* Switch off auto low power mode in WCO */
 350:Generated_Source\PSoC4/CyLFClk.h ****         CY_SYS_CLK_WCO_CONFIG_REG &= ((uint32)~CY_SYS_CLK_WCO_CONFIG_LPM_AUTO);
  40              		.loc 1 350 0
  41 0010 0B4B     		ldr	r3, .L2
  42 0012 0B4A     		ldr	r2, .L2
  43 0014 1268     		ldr	r2, [r2]
  44 0016 0221     		mov	r1, #2
  45 0018 8A43     		bic	r2, r1
  46 001a 1A60     		str	r2, [r3]
 351:Generated_Source\PSoC4/CyLFClk.h **** 
 352:Generated_Source\PSoC4/CyLFClk.h ****         /* Restore WCO trim register HPM settings */
 353:Generated_Source\PSoC4/CyLFClk.h ****         CY_SYS_CLK_WCO_TRIM_REG = (CY_SYS_CLK_WCO_TRIM_REG & (uint32)(~CY_SYS_CLK_WCO_TRIM_GM_MASK)
ARM GAS  C:\Users\TTSS\AppData\Local\Temp\ccBAPXR4.s 			page 8


  47              		.loc 1 353 0
  48 001c 094B     		ldr	r3, .L2+4
  49 001e 094A     		ldr	r2, .L2+4
  50 0020 1268     		ldr	r2, [r2]
  51 0022 3021     		mov	r1, #48
  52 0024 8A43     		bic	r2, r1
 354:Generated_Source\PSoC4/CyLFClk.h ****                     | (uint32)(CY_SYS_CLK_WCO_TRIM_GM_HPM << CY_SYS_CLK_WCO_TRIM_GM_SHIFT);
  53              		.loc 1 354 0
  54 0026 1021     		mov	r1, #16
  55 0028 0A43     		orr	r2, r1
 353:Generated_Source\PSoC4/CyLFClk.h ****                     | (uint32)(CY_SYS_CLK_WCO_TRIM_GM_HPM << CY_SYS_CLK_WCO_TRIM_GM_SHIFT);
  56              		.loc 1 353 0
  57 002a 1A60     		str	r2, [r3]
 355:Generated_Source\PSoC4/CyLFClk.h ****         CY_SYS_CLK_WCO_TRIM_REG = (CY_SYS_CLK_WCO_TRIM_REG & (uint32)(~CY_SYS_CLK_WCO_TRIM_XGM_MASK
  58              		.loc 1 355 0
  59 002c 054B     		ldr	r3, .L2+4
  60 002e 054A     		ldr	r2, .L2+4
  61 0030 1268     		ldr	r2, [r2]
  62 0032 0721     		mov	r1, #7
  63 0034 8A43     		bic	r2, r1
 356:Generated_Source\PSoC4/CyLFClk.h ****                     | (uint32)(CY_SYS_CLK_WCO_TRIM_XGM_2620NA << CY_SYS_CLK_WCO_TRIM_XGM_SHIFT);
  64              		.loc 1 356 0
  65 0036 0121     		mov	r1, #1
  66 0038 0A43     		orr	r2, r1
 355:Generated_Source\PSoC4/CyLFClk.h ****         CY_SYS_CLK_WCO_TRIM_REG = (CY_SYS_CLK_WCO_TRIM_REG & (uint32)(~CY_SYS_CLK_WCO_TRIM_XGM_MASK
  67              		.loc 1 355 0
  68 003a 1A60     		str	r2, [r3]
 357:Generated_Source\PSoC4/CyLFClk.h ****     }
  69              		.loc 1 357 0
  70 003c BD46     		mov	sp, r7
  71              		@ sp needed
  72 003e 80BD     		pop	{r7, pc}
  73              	.L3:
  74              		.align	2
  75              	.L2:
  76 0040 00F02E40 		.word	1076817920
  77 0044 00FF2E40 		.word	1076821760
  78              		.cfi_endproc
  79              	.LFE0:
  80              		.size	CySysClkWcoSetHighPowerMode, .-CySysClkWcoSetHighPowerMode
  81              		.section	.text.CySysClkWcoSetLowPowerMode,"ax",%progbits
  82              		.align	2
  83              		.code	16
  84              		.thumb_func
  85              		.type	CySysClkWcoSetLowPowerMode, %function
  86              	CySysClkWcoSetLowPowerMode:
  87              	.LFB1:
 358:Generated_Source\PSoC4/CyLFClk.h **** 
 359:Generated_Source\PSoC4/CyLFClk.h ****     #if(!CY_PSOC4_4100M && !CY_PSOC4_4200M)
 360:Generated_Source\PSoC4/CyLFClk.h ****         /*******************************************************************************
 361:Generated_Source\PSoC4/CyLFClk.h ****         * Function Name: CySysClkWcoSetLowPowerMode
 362:Generated_Source\PSoC4/CyLFClk.h ****         ********************************************************************************
 363:Generated_Source\PSoC4/CyLFClk.h ****         *
 364:Generated_Source\PSoC4/CyLFClk.h ****         * Summary:
 365:Generated_Source\PSoC4/CyLFClk.h ****         *  Sets the low power mode for the 32 KHz WCO.
 366:Generated_Source\PSoC4/CyLFClk.h ****         *
 367:Generated_Source\PSoC4/CyLFClk.h ****         * Parameters:
ARM GAS  C:\Users\TTSS\AppData\Local\Temp\ccBAPXR4.s 			page 9


 368:Generated_Source\PSoC4/CyLFClk.h ****         *  None.
 369:Generated_Source\PSoC4/CyLFClk.h ****         *
 370:Generated_Source\PSoC4/CyLFClk.h ****         * Return:
 371:Generated_Source\PSoC4/CyLFClk.h ****         *  None.
 372:Generated_Source\PSoC4/CyLFClk.h ****         *
 373:Generated_Source\PSoC4/CyLFClk.h ****         * Side Effects:
 374:Generated_Source\PSoC4/CyLFClk.h ****         *  None.
 375:Generated_Source\PSoC4/CyLFClk.h ****         *
 376:Generated_Source\PSoC4/CyLFClk.h ****         *******************************************************************************/
 377:Generated_Source\PSoC4/CyLFClk.h ****         static CY_INLINE void CySysClkWcoSetLowPowerMode(void)
 378:Generated_Source\PSoC4/CyLFClk.h ****         {
  88              		.loc 1 378 0
  89              		.cfi_startproc
  90 0000 80B5     		push	{r7, lr}
  91              		.cfi_def_cfa_offset 8
  92              		.cfi_offset 7, -8
  93              		.cfi_offset 14, -4
  94 0002 00AF     		add	r7, sp, #0
  95              		.cfi_def_cfa_register 7
 379:Generated_Source\PSoC4/CyLFClk.h ****             /* Switch off auto low power mode in WCO */
 380:Generated_Source\PSoC4/CyLFClk.h ****             CY_SYS_CLK_WCO_CONFIG_REG &= ((uint32)~CY_SYS_CLK_WCO_CONFIG_LPM_AUTO);
  96              		.loc 1 380 0
  97 0004 0E4B     		ldr	r3, .L5
  98 0006 0E4A     		ldr	r2, .L5
  99 0008 1268     		ldr	r2, [r2]
 100 000a 0221     		mov	r1, #2
 101 000c 8A43     		bic	r2, r1
 102 000e 1A60     		str	r2, [r3]
 381:Generated_Source\PSoC4/CyLFClk.h **** 
 382:Generated_Source\PSoC4/CyLFClk.h ****             /* Change WCO trim register settings to LPM */
 383:Generated_Source\PSoC4/CyLFClk.h ****             CY_SYS_CLK_WCO_TRIM_REG = (CY_SYS_CLK_WCO_TRIM_REG & (uint32)(~CY_SYS_CLK_WCO_TRIM_XGM_
 103              		.loc 1 383 0
 104 0010 0C4B     		ldr	r3, .L5+4
 105 0012 0C4A     		ldr	r2, .L5+4
 106 0014 1268     		ldr	r2, [r2]
 107 0016 0721     		mov	r1, #7
 108 0018 8A43     		bic	r2, r1
 384:Generated_Source\PSoC4/CyLFClk.h ****                         | (uint32)(CY_SYS_CLK_WCO_TRIM_XGM_2250NA << CY_SYS_CLK_WCO_TRIM_XGM_SHIFT)
 109              		.loc 1 384 0
 110 001a 0221     		mov	r1, #2
 111 001c 0A43     		orr	r2, r1
 383:Generated_Source\PSoC4/CyLFClk.h ****                         | (uint32)(CY_SYS_CLK_WCO_TRIM_XGM_2250NA << CY_SYS_CLK_WCO_TRIM_XGM_SHIFT)
 112              		.loc 1 383 0
 113 001e 1A60     		str	r2, [r3]
 385:Generated_Source\PSoC4/CyLFClk.h ****             CY_SYS_CLK_WCO_TRIM_REG = (CY_SYS_CLK_WCO_TRIM_REG & (uint32)(~CY_SYS_CLK_WCO_TRIM_GM_M
 114              		.loc 1 385 0
 115 0020 084B     		ldr	r3, .L5+4
 116 0022 084A     		ldr	r2, .L5+4
 117 0024 1268     		ldr	r2, [r2]
 118 0026 3021     		mov	r1, #48
 119 0028 8A43     		bic	r2, r1
 386:Generated_Source\PSoC4/CyLFClk.h ****                         | (uint32)(CY_SYS_CLK_WCO_TRIM_GM_LPM << CY_SYS_CLK_WCO_TRIM_GM_SHIFT);
 120              		.loc 1 386 0
 121 002a 2021     		mov	r1, #32
 122 002c 0A43     		orr	r2, r1
 385:Generated_Source\PSoC4/CyLFClk.h ****             CY_SYS_CLK_WCO_TRIM_REG = (CY_SYS_CLK_WCO_TRIM_REG & (uint32)(~CY_SYS_CLK_WCO_TRIM_GM_M
 123              		.loc 1 385 0
ARM GAS  C:\Users\TTSS\AppData\Local\Temp\ccBAPXR4.s 			page 10


 124 002e 1A60     		str	r2, [r3]
 387:Generated_Source\PSoC4/CyLFClk.h **** 
 388:Generated_Source\PSoC4/CyLFClk.h ****             /* Switch on low power mode for WCO */
 389:Generated_Source\PSoC4/CyLFClk.h ****             CY_SYS_CLK_WCO_CONFIG_REG |= CY_SYS_CLK_WCO_CONFIG_LPM_EN;
 125              		.loc 1 389 0
 126 0030 034B     		ldr	r3, .L5
 127 0032 034A     		ldr	r2, .L5
 128 0034 1268     		ldr	r2, [r2]
 129 0036 0121     		mov	r1, #1
 130 0038 0A43     		orr	r2, r1
 131 003a 1A60     		str	r2, [r3]
 390:Generated_Source\PSoC4/CyLFClk.h ****         }
 132              		.loc 1 390 0
 133 003c BD46     		mov	sp, r7
 134              		@ sp needed
 135 003e 80BD     		pop	{r7, pc}
 136              	.L6:
 137              		.align	2
 138              	.L5:
 139 0040 00F02E40 		.word	1076817920
 140 0044 00FF2E40 		.word	1076821760
 141              		.cfi_endproc
 142              	.LFE1:
 143              		.size	CySysClkWcoSetLowPowerMode, .-CySysClkWcoSetLowPowerMode
 144              		.bss
 145              		.align	2
 146              	lfclkPosedgeWdtCounter0Enabled:
 147 0000 00000000 		.space	4
 148              		.align	2
 149              	lfclkPosedgeWdtCounter0Mode:
 150 0004 00000000 		.space	4
 151              		.align	2
 152              	disableServicedIsr:
 153 0008 00000000 		.space	4
 154              		.data
 155              		.align	2
 156              		.type	wdtIsrMask, %object
 157              		.size	wdtIsrMask, 4
 158              	wdtIsrMask:
 159 0000 04040400 		.word	263172
 160              		.section	.rodata
 161              		.align	2
 162              		.type	counterIntMaskTbl, %object
 163              		.size	counterIntMaskTbl, 12
 164              	counterIntMaskTbl:
 165 0000 04000000 		.word	4
 166 0004 00040000 		.word	1024
 167 0008 00000400 		.word	262144
 168              		.bss
 169              		.align	2
 170              	cySysWdtCallback:
 171 000c 00000000 		.space	12
 171      00000000 
 171      00000000 
 172              		.section	.text.CySysClkIloStart,"ax",%progbits
 173              		.align	2
 174              		.global	CySysClkIloStart
ARM GAS  C:\Users\TTSS\AppData\Local\Temp\ccBAPXR4.s 			page 11


 175              		.code	16
 176              		.thumb_func
 177              		.type	CySysClkIloStart, %function
 178              	CySysClkIloStart:
 179              	.LFB2:
 180              		.file 2 "Generated_Source\\PSoC4\\CyLFClk.c"
   1:Generated_Source\PSoC4/CyLFClk.c **** /*******************************************************************************
   2:Generated_Source\PSoC4/CyLFClk.c **** * File Name: .c
   3:Generated_Source\PSoC4/CyLFClk.c **** * Version 1.0
   4:Generated_Source\PSoC4/CyLFClk.c **** *
   5:Generated_Source\PSoC4/CyLFClk.c **** * Description:
   6:Generated_Source\PSoC4/CyLFClk.c **** *  This file provides the source code to API for the cy_lfclk Component.
   7:Generated_Source\PSoC4/CyLFClk.c **** *
   8:Generated_Source\PSoC4/CyLFClk.c **** ********************************************************************************
   9:Generated_Source\PSoC4/CyLFClk.c **** * Copyright 2008-2015, Cypress Semiconductor Corporation.  All rights reserved.
  10:Generated_Source\PSoC4/CyLFClk.c **** * You may use this file only in accordance with the license, terms, conditions,
  11:Generated_Source\PSoC4/CyLFClk.c **** * disclaimers, and limitations in the end user license agreement accompanying
  12:Generated_Source\PSoC4/CyLFClk.c **** * the software package with which this file was provided.
  13:Generated_Source\PSoC4/CyLFClk.c **** *******************************************************************************/
  14:Generated_Source\PSoC4/CyLFClk.c **** 
  15:Generated_Source\PSoC4/CyLFClk.c **** 
  16:Generated_Source\PSoC4/CyLFClk.c **** #include "CyLFClk.h"
  17:Generated_Source\PSoC4/CyLFClk.c **** #include "CyLib.h"
  18:Generated_Source\PSoC4/CyLFClk.c **** 
  19:Generated_Source\PSoC4/CyLFClk.c **** 
  20:Generated_Source\PSoC4/CyLFClk.c **** #if (CY_IP_WCO)
  21:Generated_Source\PSoC4/CyLFClk.c ****     static uint32 CySysClkGetLfclkSource(void);
  22:Generated_Source\PSoC4/CyLFClk.c **** #endif /* (CY_IP_WCO) */
  23:Generated_Source\PSoC4/CyLFClk.c **** 
  24:Generated_Source\PSoC4/CyLFClk.c **** #if(CY_IP_SRSSV2)
  25:Generated_Source\PSoC4/CyLFClk.c ****     /* CySysClkLfclkPosedgeCatch() / CySysClkLfclkPosedgeRestore() */
  26:Generated_Source\PSoC4/CyLFClk.c ****     static uint32 lfclkPosedgeWdtCounter0Enabled = 0u;
  27:Generated_Source\PSoC4/CyLFClk.c ****     static uint32 lfclkPosedgeWdtCounter0Mode    = CY_SYS_WDT_MODE_NONE;
  28:Generated_Source\PSoC4/CyLFClk.c **** 
  29:Generated_Source\PSoC4/CyLFClk.c ****     static volatile uint32 disableServicedIsr = 0uL;
  30:Generated_Source\PSoC4/CyLFClk.c ****     static volatile uint32 wdtIsrMask = CY_SYS_WDT_COUNTER0_INT |\
  31:Generated_Source\PSoC4/CyLFClk.c ****                                         CY_SYS_WDT_COUNTER1_INT |\
  32:Generated_Source\PSoC4/CyLFClk.c ****                                         CY_SYS_WDT_COUNTER2_INT;
  33:Generated_Source\PSoC4/CyLFClk.c **** 
  34:Generated_Source\PSoC4/CyLFClk.c ****     static const uint32 counterIntMaskTbl[CY_WDT_NUM_OF_WDT] = {CY_SYS_WDT_COUNTER0_INT,
  35:Generated_Source\PSoC4/CyLFClk.c ****                                                                 CY_SYS_WDT_COUNTER1_INT,
  36:Generated_Source\PSoC4/CyLFClk.c ****                                                                 CY_SYS_WDT_COUNTER2_INT};
  37:Generated_Source\PSoC4/CyLFClk.c **** 
  38:Generated_Source\PSoC4/CyLFClk.c ****     static void CySysClkLfclkPosedgeCatch(void);
  39:Generated_Source\PSoC4/CyLFClk.c ****     static void CySysClkLfclkPosedgeRestore(void);
  40:Generated_Source\PSoC4/CyLFClk.c **** 
  41:Generated_Source\PSoC4/CyLFClk.c ****     static uint32 CySysWdtLocked(void);
  42:Generated_Source\PSoC4/CyLFClk.c ****     static uint32 CySysClkIloEnabled(void);
  43:Generated_Source\PSoC4/CyLFClk.c **** #endif /* (CY_IP_SRSSV2) */
  44:Generated_Source\PSoC4/CyLFClk.c **** 
  45:Generated_Source\PSoC4/CyLFClk.c **** #if(CY_IP_SRSSV2)
  46:Generated_Source\PSoC4/CyLFClk.c ****     static cyWdtCallback cySysWdtCallback[CY_WDT_NUM_OF_WDT] = {(void *)0, (void *)0, (void *)0};
  47:Generated_Source\PSoC4/CyLFClk.c **** #else
  48:Generated_Source\PSoC4/CyLFClk.c ****     static cyWdtCallback cySysWdtCallback = (void *)0;
  49:Generated_Source\PSoC4/CyLFClk.c **** #endif /* (CY_IP_SRSSV2) */
  50:Generated_Source\PSoC4/CyLFClk.c **** 
  51:Generated_Source\PSoC4/CyLFClk.c **** /*******************************************************************************
ARM GAS  C:\Users\TTSS\AppData\Local\Temp\ccBAPXR4.s 			page 12


  52:Generated_Source\PSoC4/CyLFClk.c **** * Function Name: CySysClkIloStart
  53:Generated_Source\PSoC4/CyLFClk.c **** ********************************************************************************
  54:Generated_Source\PSoC4/CyLFClk.c **** *
  55:Generated_Source\PSoC4/CyLFClk.c **** * Summary:
  56:Generated_Source\PSoC4/CyLFClk.c **** *  Enables ILO. Refer to the device datasheet for the ILO startup time.
  57:Generated_Source\PSoC4/CyLFClk.c **** *
  58:Generated_Source\PSoC4/CyLFClk.c **** * Parameters:
  59:Generated_Source\PSoC4/CyLFClk.c **** *  None
  60:Generated_Source\PSoC4/CyLFClk.c **** *
  61:Generated_Source\PSoC4/CyLFClk.c **** * Return:
  62:Generated_Source\PSoC4/CyLFClk.c **** *  None
  63:Generated_Source\PSoC4/CyLFClk.c **** *
  64:Generated_Source\PSoC4/CyLFClk.c **** *******************************************************************************/
  65:Generated_Source\PSoC4/CyLFClk.c **** void CySysClkIloStart(void)
  66:Generated_Source\PSoC4/CyLFClk.c **** {
 181              		.loc 2 66 0
 182              		.cfi_startproc
 183 0000 80B5     		push	{r7, lr}
 184              		.cfi_def_cfa_offset 8
 185              		.cfi_offset 7, -8
 186              		.cfi_offset 14, -4
 187 0002 00AF     		add	r7, sp, #0
 188              		.cfi_def_cfa_register 7
  67:Generated_Source\PSoC4/CyLFClk.c ****     CY_SYS_CLK_ILO_CONFIG_REG |= CY_SYS_CLK_ILO_CONFIG_ENABLE;
 189              		.loc 2 67 0
 190 0004 044B     		ldr	r3, .L8
 191 0006 044A     		ldr	r2, .L8
 192 0008 1268     		ldr	r2, [r2]
 193 000a 8021     		mov	r1, #128
 194 000c 0906     		lsl	r1, r1, #24
 195 000e 0A43     		orr	r2, r1
 196 0010 1A60     		str	r2, [r3]
  68:Generated_Source\PSoC4/CyLFClk.c **** }
 197              		.loc 2 68 0
 198 0012 BD46     		mov	sp, r7
 199              		@ sp needed
 200 0014 80BD     		pop	{r7, pc}
 201              	.L9:
 202 0016 C046     		.align	2
 203              	.L8:
 204 0018 04010B40 		.word	1074462980
 205              		.cfi_endproc
 206              	.LFE2:
 207              		.size	CySysClkIloStart, .-CySysClkIloStart
 208              		.section	.text.CySysClkIloStop,"ax",%progbits
 209              		.align	2
 210              		.global	CySysClkIloStop
 211              		.code	16
 212              		.thumb_func
 213              		.type	CySysClkIloStop, %function
 214              	CySysClkIloStop:
 215              	.LFB3:
  69:Generated_Source\PSoC4/CyLFClk.c **** 
  70:Generated_Source\PSoC4/CyLFClk.c **** 
  71:Generated_Source\PSoC4/CyLFClk.c **** /*******************************************************************************
  72:Generated_Source\PSoC4/CyLFClk.c **** * Function Name: CySysClkIloStop
  73:Generated_Source\PSoC4/CyLFClk.c **** ********************************************************************************
ARM GAS  C:\Users\TTSS\AppData\Local\Temp\ccBAPXR4.s 			page 13


  74:Generated_Source\PSoC4/CyLFClk.c **** *
  75:Generated_Source\PSoC4/CyLFClk.c **** * Summary:
  76:Generated_Source\PSoC4/CyLFClk.c **** *  Disables ILO.
  77:Generated_Source\PSoC4/CyLFClk.c **** *
  78:Generated_Source\PSoC4/CyLFClk.c **** * Parameters:
  79:Generated_Source\PSoC4/CyLFClk.c **** *  None.
  80:Generated_Source\PSoC4/CyLFClk.c **** *
  81:Generated_Source\PSoC4/CyLFClk.c **** * Return:
  82:Generated_Source\PSoC4/CyLFClk.c **** *  None.
  83:Generated_Source\PSoC4/CyLFClk.c **** *
  84:Generated_Source\PSoC4/CyLFClk.c **** * Side Effects:
  85:Generated_Source\PSoC4/CyLFClk.c **** *  This function has no effect if WDT is locked (CySysWdtLock() is
  86:Generated_Source\PSoC4/CyLFClk.c **** *  called). Call CySysWdtUnlock() to unlock WDT and stop ILO.
  87:Generated_Source\PSoC4/CyLFClk.c **** *
  88:Generated_Source\PSoC4/CyLFClk.c **** *  PSoC 4100 / PSoC 4200: Note that ILO is required for WDT's operation.
  89:Generated_Source\PSoC4/CyLFClk.c **** *  ILO is required for WDT operation.
  90:Generated_Source\PSoC4/CyLFClk.c **** *
  91:Generated_Source\PSoC4/CyLFClk.c **** *  PSoC 4100-BL / PSoC 4200-BL and PSoC 4100M / PSoC 4200M:
  92:Generated_Source\PSoC4/CyLFClk.c **** *  Stopping ILO affects the peripheral clocked by LFCLK, if
  93:Generated_Source\PSoC4/CyLFClk.c **** *  LFCLK is configured to be sourced by ILO.
  94:Generated_Source\PSoC4/CyLFClk.c **** *
  95:Generated_Source\PSoC4/CyLFClk.c **** *******************************************************************************/
  96:Generated_Source\PSoC4/CyLFClk.c **** void CySysClkIloStop(void)
  97:Generated_Source\PSoC4/CyLFClk.c **** {
 216              		.loc 2 97 0
 217              		.cfi_startproc
 218 0000 90B5     		push	{r4, r7, lr}
 219              		.cfi_def_cfa_offset 12
 220              		.cfi_offset 4, -12
 221              		.cfi_offset 7, -8
 222              		.cfi_offset 14, -4
 223 0002 83B0     		sub	sp, sp, #12
 224              		.cfi_def_cfa_offset 24
 225 0004 00AF     		add	r7, sp, #0
 226              		.cfi_def_cfa_register 7
  98:Generated_Source\PSoC4/CyLFClk.c ****     #if(CY_IP_SRSSV2)
  99:Generated_Source\PSoC4/CyLFClk.c ****         uint8  interruptState;
 100:Generated_Source\PSoC4/CyLFClk.c **** 
 101:Generated_Source\PSoC4/CyLFClk.c ****         /* Do nothing if WDT is locked or ILO is disabled */
 102:Generated_Source\PSoC4/CyLFClk.c ****         if (0u == CySysWdtLocked())
 227              		.loc 2 102 0
 228 0006 FFF7FEFF 		bl	CySysWdtLocked
 229 000a 031E     		sub	r3, r0, #0
 230 000c 22D1     		bne	.L10
 103:Generated_Source\PSoC4/CyLFClk.c ****         {
 104:Generated_Source\PSoC4/CyLFClk.c ****             if (0u != CySysClkIloEnabled())
 231              		.loc 2 104 0
 232 000e FFF7FEFF 		bl	CySysClkIloEnabled
 233 0012 031E     		sub	r3, r0, #0
 234 0014 1ED0     		beq	.L10
 105:Generated_Source\PSoC4/CyLFClk.c ****             {
 106:Generated_Source\PSoC4/CyLFClk.c **** 
 107:Generated_Source\PSoC4/CyLFClk.c ****             #if (CY_IP_WCO)
 108:Generated_Source\PSoC4/CyLFClk.c ****                 if (CY_SYS_CLK_LFCLK_SRC_ILO == CySysClkGetLfclkSource())
 235              		.loc 2 108 0
 236 0016 FFF7FEFF 		bl	CySysClkGetLfclkSource
 237 001a 031E     		sub	r3, r0, #0
ARM GAS  C:\Users\TTSS\AppData\Local\Temp\ccBAPXR4.s 			page 14


 238 001c 14D1     		bne	.L12
 109:Generated_Source\PSoC4/CyLFClk.c ****                 {
 110:Generated_Source\PSoC4/CyLFClk.c ****             #endif /* (CY_IP_WCO) */
 111:Generated_Source\PSoC4/CyLFClk.c **** 
 112:Generated_Source\PSoC4/CyLFClk.c ****                 interruptState = CyEnterCriticalSection();
 239              		.loc 2 112 0
 240 001e FC1D     		add	r4, r7, #7
 241 0020 FFF7FEFF 		bl	CyEnterCriticalSection
 242 0024 031C     		mov	r3, r0
 243 0026 2370     		strb	r3, [r4]
 113:Generated_Source\PSoC4/CyLFClk.c ****                 CySysClkLfclkPosedgeCatch();
 244              		.loc 2 113 0
 245 0028 FFF7FEFF 		bl	CySysClkLfclkPosedgeCatch
 114:Generated_Source\PSoC4/CyLFClk.c ****                 CY_SYS_CLK_ILO_CONFIG_REG &= ( uint32 ) ( ~( uint32 )CY_SYS_CLK_ILO_CONFIG_ENABLE);
 246              		.loc 2 114 0
 247 002c 0B4B     		ldr	r3, .L13
 248 002e 0B4A     		ldr	r2, .L13
 249 0030 1268     		ldr	r2, [r2]
 250 0032 5200     		lsl	r2, r2, #1
 251 0034 5208     		lsr	r2, r2, #1
 252 0036 1A60     		str	r2, [r3]
 115:Generated_Source\PSoC4/CyLFClk.c ****                 CySysClkLfclkPosedgeRestore();
 253              		.loc 2 115 0
 254 0038 FFF7FEFF 		bl	CySysClkLfclkPosedgeRestore
 116:Generated_Source\PSoC4/CyLFClk.c ****                 CyExitCriticalSection(interruptState);
 255              		.loc 2 116 0
 256 003c FB1D     		add	r3, r7, #7
 257 003e 1B78     		ldrb	r3, [r3]
 258 0040 181C     		mov	r0, r3
 259 0042 FFF7FEFF 		bl	CyExitCriticalSection
 260 0046 05E0     		b	.L10
 261              	.L12:
 117:Generated_Source\PSoC4/CyLFClk.c **** 
 118:Generated_Source\PSoC4/CyLFClk.c ****             #if (CY_IP_WCO)
 119:Generated_Source\PSoC4/CyLFClk.c ****                 }
 120:Generated_Source\PSoC4/CyLFClk.c ****                 else /* Safe to disable - shortened pulse does not impact peripheral */
 121:Generated_Source\PSoC4/CyLFClk.c ****                 {
 122:Generated_Source\PSoC4/CyLFClk.c ****                     CY_SYS_CLK_ILO_CONFIG_REG &= ( uint32 ) ( ~( uint32 )CY_SYS_CLK_ILO_CONFIG_ENAB
 262              		.loc 2 122 0
 263 0048 044B     		ldr	r3, .L13
 264 004a 044A     		ldr	r2, .L13
 265 004c 1268     		ldr	r2, [r2]
 266 004e 5200     		lsl	r2, r2, #1
 267 0050 5208     		lsr	r2, r2, #1
 268 0052 1A60     		str	r2, [r3]
 269              	.L10:
 123:Generated_Source\PSoC4/CyLFClk.c ****                 }
 124:Generated_Source\PSoC4/CyLFClk.c ****             #endif /* (CY_IP_WCO) */
 125:Generated_Source\PSoC4/CyLFClk.c **** 
 126:Generated_Source\PSoC4/CyLFClk.c ****             }
 127:Generated_Source\PSoC4/CyLFClk.c ****         }
 128:Generated_Source\PSoC4/CyLFClk.c ****     #else
 129:Generated_Source\PSoC4/CyLFClk.c ****         CY_SYS_CLK_ILO_CONFIG_REG &= ( uint32 ) ( ~( uint32 )CY_SYS_CLK_ILO_CONFIG_ENABLE);
 130:Generated_Source\PSoC4/CyLFClk.c ****     #endif /* (CY_IP_SRSSV2) */
 131:Generated_Source\PSoC4/CyLFClk.c **** }
 270              		.loc 2 131 0
 271 0054 BD46     		mov	sp, r7
ARM GAS  C:\Users\TTSS\AppData\Local\Temp\ccBAPXR4.s 			page 15


 272 0056 03B0     		add	sp, sp, #12
 273              		@ sp needed
 274 0058 90BD     		pop	{r4, r7, pc}
 275              	.L14:
 276 005a C046     		.align	2
 277              	.L13:
 278 005c 04010B40 		.word	1074462980
 279              		.cfi_endproc
 280              	.LFE3:
 281              		.size	CySysClkIloStop, .-CySysClkIloStop
 282              		.section	.text.CySysClkIloEnabled,"ax",%progbits
 283              		.align	2
 284              		.code	16
 285              		.thumb_func
 286              		.type	CySysClkIloEnabled, %function
 287              	CySysClkIloEnabled:
 288              	.LFB4:
 132:Generated_Source\PSoC4/CyLFClk.c **** 
 133:Generated_Source\PSoC4/CyLFClk.c **** #if(CY_IP_SRSSV2)
 134:Generated_Source\PSoC4/CyLFClk.c ****     /*******************************************************************************
 135:Generated_Source\PSoC4/CyLFClk.c ****     * Function Name: CySysClkIloEnabled
 136:Generated_Source\PSoC4/CyLFClk.c ****     ********************************************************************************
 137:Generated_Source\PSoC4/CyLFClk.c ****     *
 138:Generated_Source\PSoC4/CyLFClk.c ****     * Summary:
 139:Generated_Source\PSoC4/CyLFClk.c ****     *  Reports the ILO enable state.
 140:Generated_Source\PSoC4/CyLFClk.c ****     *
 141:Generated_Source\PSoC4/CyLFClk.c ****     * Parameters:
 142:Generated_Source\PSoC4/CyLFClk.c ****     *  None.
 143:Generated_Source\PSoC4/CyLFClk.c ****     *
 144:Generated_Source\PSoC4/CyLFClk.c ****     * Return:
 145:Generated_Source\PSoC4/CyLFClk.c ****     *  1 if ILO is enabled, and 0 if ILO is disabled.
 146:Generated_Source\PSoC4/CyLFClk.c ****     *
 147:Generated_Source\PSoC4/CyLFClk.c ****     *******************************************************************************/
 148:Generated_Source\PSoC4/CyLFClk.c ****     static uint32 CySysClkIloEnabled(void)
 149:Generated_Source\PSoC4/CyLFClk.c ****     {
 289              		.loc 2 149 0
 290              		.cfi_startproc
 291 0000 80B5     		push	{r7, lr}
 292              		.cfi_def_cfa_offset 8
 293              		.cfi_offset 7, -8
 294              		.cfi_offset 14, -4
 295 0002 00AF     		add	r7, sp, #0
 296              		.cfi_def_cfa_register 7
 150:Generated_Source\PSoC4/CyLFClk.c ****         /* Prohibits writing to WDT registers and ILO/WCO registers when not equal to 0 */
 151:Generated_Source\PSoC4/CyLFClk.c ****         return ((0u != (CY_SYS_CLK_ILO_CONFIG_REG & (uint32)(CY_SYS_CLK_ILO_CONFIG_ENABLE))) ?
 297              		.loc 2 151 0
 298 0004 044B     		ldr	r3, .L19
 299 0006 1B68     		ldr	r3, [r3]
 152:Generated_Source\PSoC4/CyLFClk.c ****             (uint32) 1u :
 300              		.loc 2 152 0
 301 0008 002B     		cmp	r3, #0
 302 000a 01DA     		bge	.L16
 303              		.loc 2 152 0 is_stmt 0 discriminator 1
 304 000c 0123     		mov	r3, #1
 305 000e 00E0     		b	.L17
 306              	.L16:
 307              		.loc 2 152 0 discriminator 2
ARM GAS  C:\Users\TTSS\AppData\Local\Temp\ccBAPXR4.s 			page 16


 308 0010 0023     		mov	r3, #0
 309              	.L17:
 153:Generated_Source\PSoC4/CyLFClk.c ****             (uint32) 0u);
 154:Generated_Source\PSoC4/CyLFClk.c ****     }
 310              		.loc 2 154 0 is_stmt 1
 311 0012 181C     		mov	r0, r3
 312 0014 BD46     		mov	sp, r7
 313              		@ sp needed
 314 0016 80BD     		pop	{r7, pc}
 315              	.L20:
 316              		.align	2
 317              	.L19:
 318 0018 04010B40 		.word	1074462980
 319              		.cfi_endproc
 320              	.LFE4:
 321              		.size	CySysClkIloEnabled, .-CySysClkIloEnabled
 322              		.section	.text.CySysClkGetLfclkSource,"ax",%progbits
 323              		.align	2
 324              		.code	16
 325              		.thumb_func
 326              		.type	CySysClkGetLfclkSource, %function
 327              	CySysClkGetLfclkSource:
 328              	.LFB5:
 155:Generated_Source\PSoC4/CyLFClk.c **** #endif /* (CY_IP_SRSSV2) */
 156:Generated_Source\PSoC4/CyLFClk.c **** 
 157:Generated_Source\PSoC4/CyLFClk.c **** 
 158:Generated_Source\PSoC4/CyLFClk.c **** /*******************************************************************************
 159:Generated_Source\PSoC4/CyLFClk.c **** * Function Name: CySysClkGetLfclkSource
 160:Generated_Source\PSoC4/CyLFClk.c **** ********************************************************************************
 161:Generated_Source\PSoC4/CyLFClk.c **** *
 162:Generated_Source\PSoC4/CyLFClk.c **** * Summary:
 163:Generated_Source\PSoC4/CyLFClk.c **** *  Gets the clock source for the LFCLK clock.
 164:Generated_Source\PSoC4/CyLFClk.c **** *  The function is applicable only for PSoC 4100-BL and PSoC 4200-BL.
 165:Generated_Source\PSoC4/CyLFClk.c **** *
 166:Generated_Source\PSoC4/CyLFClk.c **** * Parameters:
 167:Generated_Source\PSoC4/CyLFClk.c **** *  None.
 168:Generated_Source\PSoC4/CyLFClk.c **** *
 169:Generated_Source\PSoC4/CyLFClk.c **** * Return:
 170:Generated_Source\PSoC4/CyLFClk.c **** *  The LFCLK source:
 171:Generated_Source\PSoC4/CyLFClk.c **** *   CY_SYS_CLK_LFCLK_SRC_ILO    Internal Low Frequency (32 kHz) Oscillator (ILO)
 172:Generated_Source\PSoC4/CyLFClk.c **** *   CY_SYS_CLK_LFCLK_SRC_WCO    Low Frequency Watch Crystal Oscillator (WCO)
 173:Generated_Source\PSoC4/CyLFClk.c **** *
 174:Generated_Source\PSoC4/CyLFClk.c **** *******************************************************************************/
 175:Generated_Source\PSoC4/CyLFClk.c **** #if (CY_IP_WCO)
 176:Generated_Source\PSoC4/CyLFClk.c ****     static uint32 CySysClkGetLfclkSource(void)
 177:Generated_Source\PSoC4/CyLFClk.c ****     {
 329              		.loc 2 177 0
 330              		.cfi_startproc
 331 0000 80B5     		push	{r7, lr}
 332              		.cfi_def_cfa_offset 8
 333              		.cfi_offset 7, -8
 334              		.cfi_offset 14, -4
 335 0002 82B0     		sub	sp, sp, #8
 336              		.cfi_def_cfa_offset 16
 337 0004 00AF     		add	r7, sp, #0
 338              		.cfi_def_cfa_register 7
 178:Generated_Source\PSoC4/CyLFClk.c ****         uint32 lfclkSource;
ARM GAS  C:\Users\TTSS\AppData\Local\Temp\ccBAPXR4.s 			page 17


 179:Generated_Source\PSoC4/CyLFClk.c ****         lfclkSource = CY_SYS_WDT_CONFIG_REG & CY_SYS_CLK_LFCLK_SEL_MASK;
 339              		.loc 2 179 0
 340 0006 054B     		ldr	r3, .L23
 341 0008 1B68     		ldr	r3, [r3]
 342 000a 9B0F     		lsr	r3, r3, #30
 343 000c 9B07     		lsl	r3, r3, #30
 344 000e 7B60     		str	r3, [r7, #4]
 180:Generated_Source\PSoC4/CyLFClk.c ****         return (lfclkSource);
 345              		.loc 2 180 0
 346 0010 7B68     		ldr	r3, [r7, #4]
 181:Generated_Source\PSoC4/CyLFClk.c ****     }
 347              		.loc 2 181 0
 348 0012 181C     		mov	r0, r3
 349 0014 BD46     		mov	sp, r7
 350 0016 02B0     		add	sp, sp, #8
 351              		@ sp needed
 352 0018 80BD     		pop	{r7, pc}
 353              	.L24:
 354 001a C046     		.align	2
 355              	.L23:
 356 001c 0C020B40 		.word	1074463244
 357              		.cfi_endproc
 358              	.LFE5:
 359              		.size	CySysClkGetLfclkSource, .-CySysClkGetLfclkSource
 360              		.section	.text.CySysClkSetLfclkSource,"ax",%progbits
 361              		.align	2
 362              		.global	CySysClkSetLfclkSource
 363              		.code	16
 364              		.thumb_func
 365              		.type	CySysClkSetLfclkSource, %function
 366              	CySysClkSetLfclkSource:
 367              	.LFB6:
 182:Generated_Source\PSoC4/CyLFClk.c **** #endif /* (CY_IP_WCO) */
 183:Generated_Source\PSoC4/CyLFClk.c **** 
 184:Generated_Source\PSoC4/CyLFClk.c **** 
 185:Generated_Source\PSoC4/CyLFClk.c **** /*******************************************************************************
 186:Generated_Source\PSoC4/CyLFClk.c **** * Function Name: CySysClkSetLfclkSource
 187:Generated_Source\PSoC4/CyLFClk.c **** ********************************************************************************
 188:Generated_Source\PSoC4/CyLFClk.c **** *
 189:Generated_Source\PSoC4/CyLFClk.c **** * Summary:
 190:Generated_Source\PSoC4/CyLFClk.c **** *  Sets the clock source for the LFCLK clock.
 191:Generated_Source\PSoC4/CyLFClk.c **** *
 192:Generated_Source\PSoC4/CyLFClk.c **** *  The switch between LFCLK sources must be done between the positive edges of
 193:Generated_Source\PSoC4/CyLFClk.c **** *  LFCLK, because the glitch risk is around the LFCLK positive edge. To ensure
 194:Generated_Source\PSoC4/CyLFClk.c **** *  that the switch can be done safely, the WDT counter value is read until it
 195:Generated_Source\PSoC4/CyLFClk.c **** *  changes.
 196:Generated_Source\PSoC4/CyLFClk.c **** *
 197:Generated_Source\PSoC4/CyLFClk.c **** *  That means that the positive edge just finished and the switch is performed.
 198:Generated_Source\PSoC4/CyLFClk.c **** *  The enabled WDT counter is used for that purpose. If no counters are enabled,
 199:Generated_Source\PSoC4/CyLFClk.c **** *  counter 0 is enabled. And after the LFCLK source is switched, counter 0
 200:Generated_Source\PSoC4/CyLFClk.c **** *  configuration is restored.
 201:Generated_Source\PSoC4/CyLFClk.c **** *
 202:Generated_Source\PSoC4/CyLFClk.c **** *  The function is applicable only for PSoC 4100-BL and PSoC 4200-BL.
 203:Generated_Source\PSoC4/CyLFClk.c **** *
 204:Generated_Source\PSoC4/CyLFClk.c **** * Parameters:
 205:Generated_Source\PSoC4/CyLFClk.c **** *  source: One of the available LFCLK sources.
 206:Generated_Source\PSoC4/CyLFClk.c **** *   CY_SYS_CLK_LFCLK_SRC_ILO    Internal Low Frequency (32 kHz) Oscillator (ILO)
ARM GAS  C:\Users\TTSS\AppData\Local\Temp\ccBAPXR4.s 			page 18


 207:Generated_Source\PSoC4/CyLFClk.c **** *   CY_SYS_CLK_LFCLK_SRC_WCO    Low Frequency Watch Crystal Oscillator (WCO)
 208:Generated_Source\PSoC4/CyLFClk.c **** *
 209:Generated_Source\PSoC4/CyLFClk.c **** * Return:
 210:Generated_Source\PSoC4/CyLFClk.c **** *  None
 211:Generated_Source\PSoC4/CyLFClk.c **** *
 212:Generated_Source\PSoC4/CyLFClk.c **** * Side Effects:
 213:Generated_Source\PSoC4/CyLFClk.c **** *  This function has no effect if WDT is locked (CySysWdtLock() is
 214:Generated_Source\PSoC4/CyLFClk.c **** *  called). Call CySysWdtUnlock() to unlock WDT.
 215:Generated_Source\PSoC4/CyLFClk.c **** *
 216:Generated_Source\PSoC4/CyLFClk.c **** *  Both the current source and the new source must be running and stable before
 217:Generated_Source\PSoC4/CyLFClk.c **** *  calling this function.
 218:Generated_Source\PSoC4/CyLFClk.c **** *
 219:Generated_Source\PSoC4/CyLFClk.c **** *  Changing the LFCLK clock source may change the LFCLK clock frequency and
 220:Generated_Source\PSoC4/CyLFClk.c **** *  affect the functionality that uses this clock. For example, watchdog timer
 221:Generated_Source\PSoC4/CyLFClk.c **** *  "uses this clock" or "this clock uses" (WDT) is clocked by LFCLK.
 222:Generated_Source\PSoC4/CyLFClk.c **** *
 223:Generated_Source\PSoC4/CyLFClk.c **** *******************************************************************************/
 224:Generated_Source\PSoC4/CyLFClk.c **** #if (CY_IP_WCO)
 225:Generated_Source\PSoC4/CyLFClk.c ****     void CySysClkSetLfclkSource(uint32 source)
 226:Generated_Source\PSoC4/CyLFClk.c ****     {
 368              		.loc 2 226 0
 369              		.cfi_startproc
 370 0000 90B5     		push	{r4, r7, lr}
 371              		.cfi_def_cfa_offset 12
 372              		.cfi_offset 4, -12
 373              		.cfi_offset 7, -8
 374              		.cfi_offset 14, -4
 375 0002 85B0     		sub	sp, sp, #20
 376              		.cfi_def_cfa_offset 32
 377 0004 00AF     		add	r7, sp, #0
 378              		.cfi_def_cfa_register 7
 379 0006 7860     		str	r0, [r7, #4]
 227:Generated_Source\PSoC4/CyLFClk.c ****         uint8  interruptState;
 228:Generated_Source\PSoC4/CyLFClk.c **** 
 229:Generated_Source\PSoC4/CyLFClk.c ****         if (CySysClkGetLfclkSource() != source)
 380              		.loc 2 229 0
 381 0008 FFF7FEFF 		bl	CySysClkGetLfclkSource
 382 000c 021E     		sub	r2, r0, #0
 383 000e 7B68     		ldr	r3, [r7, #4]
 384 0010 9A42     		cmp	r2, r3
 385 0012 19D0     		beq	.L25
 230:Generated_Source\PSoC4/CyLFClk.c ****         {
 231:Generated_Source\PSoC4/CyLFClk.c ****             interruptState = CyEnterCriticalSection();
 386              		.loc 2 231 0
 387 0014 0F23     		mov	r3, #15
 388 0016 FC18     		add	r4, r7, r3
 389 0018 FFF7FEFF 		bl	CyEnterCriticalSection
 390 001c 031C     		mov	r3, r0
 391 001e 2370     		strb	r3, [r4]
 232:Generated_Source\PSoC4/CyLFClk.c **** 
 233:Generated_Source\PSoC4/CyLFClk.c ****             CySysClkLfclkPosedgeCatch();
 392              		.loc 2 233 0
 393 0020 FFF7FEFF 		bl	CySysClkLfclkPosedgeCatch
 234:Generated_Source\PSoC4/CyLFClk.c **** 
 235:Generated_Source\PSoC4/CyLFClk.c ****             CY_SYS_WDT_CONFIG_REG = (CY_SYS_WDT_CONFIG_REG & (uint32)(~CY_SYS_CLK_LFCLK_SEL_MASK)) 
 394              		.loc 2 235 0
 395 0024 0A4B     		ldr	r3, .L27
ARM GAS  C:\Users\TTSS\AppData\Local\Temp\ccBAPXR4.s 			page 19


 396 0026 0A4A     		ldr	r2, .L27
 397 0028 1268     		ldr	r2, [r2]
 398 002a 9200     		lsl	r2, r2, #2
 399 002c 9108     		lsr	r1, r2, #2
 236:Generated_Source\PSoC4/CyLFClk.c ****                                     (source & CY_SYS_CLK_LFCLK_SEL_MASK);
 400              		.loc 2 236 0
 401 002e 7A68     		ldr	r2, [r7, #4]
 402 0030 920F     		lsr	r2, r2, #30
 403 0032 9207     		lsl	r2, r2, #30
 235:Generated_Source\PSoC4/CyLFClk.c ****                                     (source & CY_SYS_CLK_LFCLK_SEL_MASK);
 404              		.loc 2 235 0
 405 0034 0A43     		orr	r2, r1
 406 0036 1A60     		str	r2, [r3]
 237:Generated_Source\PSoC4/CyLFClk.c **** 
 238:Generated_Source\PSoC4/CyLFClk.c ****             CySysClkLfclkPosedgeRestore();
 407              		.loc 2 238 0
 408 0038 FFF7FEFF 		bl	CySysClkLfclkPosedgeRestore
 239:Generated_Source\PSoC4/CyLFClk.c **** 
 240:Generated_Source\PSoC4/CyLFClk.c ****             CyExitCriticalSection(interruptState);
 409              		.loc 2 240 0
 410 003c 0F23     		mov	r3, #15
 411 003e FB18     		add	r3, r7, r3
 412 0040 1B78     		ldrb	r3, [r3]
 413 0042 181C     		mov	r0, r3
 414 0044 FFF7FEFF 		bl	CyExitCriticalSection
 415              	.L25:
 241:Generated_Source\PSoC4/CyLFClk.c ****         }
 242:Generated_Source\PSoC4/CyLFClk.c ****     }
 416              		.loc 2 242 0
 417 0048 BD46     		mov	sp, r7
 418 004a 05B0     		add	sp, sp, #20
 419              		@ sp needed
 420 004c 90BD     		pop	{r4, r7, pc}
 421              	.L28:
 422 004e C046     		.align	2
 423              	.L27:
 424 0050 0C020B40 		.word	1074463244
 425              		.cfi_endproc
 426              	.LFE6:
 427              		.size	CySysClkSetLfclkSource, .-CySysClkSetLfclkSource
 428              		.section	.text.CySysClkWcoStart,"ax",%progbits
 429              		.align	2
 430              		.global	CySysClkWcoStart
 431              		.code	16
 432              		.thumb_func
 433              		.type	CySysClkWcoStart, %function
 434              	CySysClkWcoStart:
 435              	.LFB7:
 243:Generated_Source\PSoC4/CyLFClk.c **** #endif /* (CY_IP_WCO) */
 244:Generated_Source\PSoC4/CyLFClk.c **** 
 245:Generated_Source\PSoC4/CyLFClk.c **** 
 246:Generated_Source\PSoC4/CyLFClk.c **** #if (CY_IP_WCO)
 247:Generated_Source\PSoC4/CyLFClk.c ****     /*******************************************************************************
 248:Generated_Source\PSoC4/CyLFClk.c ****     * Function Name: CySysClkWcoStart
 249:Generated_Source\PSoC4/CyLFClk.c ****     ********************************************************************************
 250:Generated_Source\PSoC4/CyLFClk.c ****     *
 251:Generated_Source\PSoC4/CyLFClk.c ****     * Summary:
ARM GAS  C:\Users\TTSS\AppData\Local\Temp\ccBAPXR4.s 			page 20


 252:Generated_Source\PSoC4/CyLFClk.c ****     *  Enables Watch Crystal Oscillator (WCO). WCO is used as a source for
 253:Generated_Source\PSoC4/CyLFClk.c ****     *  LFCLK.  Similar to ILO, WCO is also available in all modes except Hibernate
 254:Generated_Source\PSoC4/CyLFClk.c ****     *  and Stop modes.
 255:Generated_Source\PSoC4/CyLFClk.c ****     *
 256:Generated_Source\PSoC4/CyLFClk.c ****     *  WCO is always enabled in High Power Mode (HPM). Refer to the device
 257:Generated_Source\PSoC4/CyLFClk.c ****     *  datasheet for the  WCO startup time. Once WCO becomes stable it can be
 258:Generated_Source\PSoC4/CyLFClk.c ****     *  switched to Low Power Mode (LPM). Note that oscillator can be unstable
 259:Generated_Source\PSoC4/CyLFClk.c ****     *  during a switch and hence its output should not be used at that moment.
 260:Generated_Source\PSoC4/CyLFClk.c ****     *
 261:Generated_Source\PSoC4/CyLFClk.c ****     *  The CySysClkWcoSetPowerMode() function configures the WCO power mode.
 262:Generated_Source\PSoC4/CyLFClk.c ****     *
 263:Generated_Source\PSoC4/CyLFClk.c ****     * Parameters:
 264:Generated_Source\PSoC4/CyLFClk.c ****     *  None.
 265:Generated_Source\PSoC4/CyLFClk.c ****     *
 266:Generated_Source\PSoC4/CyLFClk.c ****     * Return:
 267:Generated_Source\PSoC4/CyLFClk.c ****     *  None.
 268:Generated_Source\PSoC4/CyLFClk.c ****     *
 269:Generated_Source\PSoC4/CyLFClk.c ****     *******************************************************************************/
 270:Generated_Source\PSoC4/CyLFClk.c ****     void CySysClkWcoStart(void)
 271:Generated_Source\PSoC4/CyLFClk.c ****     {
 436              		.loc 2 271 0
 437              		.cfi_startproc
 438 0000 80B5     		push	{r7, lr}
 439              		.cfi_def_cfa_offset 8
 440              		.cfi_offset 7, -8
 441              		.cfi_offset 14, -4
 442 0002 00AF     		add	r7, sp, #0
 443              		.cfi_def_cfa_register 7
 272:Generated_Source\PSoC4/CyLFClk.c ****         CySysClkWcoSetHighPowerMode();
 444              		.loc 2 272 0
 445 0004 FFF7FEFF 		bl	CySysClkWcoSetHighPowerMode
 273:Generated_Source\PSoC4/CyLFClk.c ****         CY_SYS_CLK_WCO_CONFIG_REG |= CY_SYS_CLK_WCO_CONFIG_LPM_ENABLE;
 446              		.loc 2 273 0
 447 0008 044B     		ldr	r3, .L30
 448 000a 044A     		ldr	r2, .L30
 449 000c 1268     		ldr	r2, [r2]
 450 000e 8021     		mov	r1, #128
 451 0010 0906     		lsl	r1, r1, #24
 452 0012 0A43     		orr	r2, r1
 453 0014 1A60     		str	r2, [r3]
 274:Generated_Source\PSoC4/CyLFClk.c ****     }
 454              		.loc 2 274 0
 455 0016 BD46     		mov	sp, r7
 456              		@ sp needed
 457 0018 80BD     		pop	{r7, pc}
 458              	.L31:
 459 001a C046     		.align	2
 460              	.L30:
 461 001c 00F02E40 		.word	1076817920
 462              		.cfi_endproc
 463              	.LFE7:
 464              		.size	CySysClkWcoStart, .-CySysClkWcoStart
 465              		.section	.text.CySysClkWcoStop,"ax",%progbits
 466              		.align	2
 467              		.global	CySysClkWcoStop
 468              		.code	16
 469              		.thumb_func
ARM GAS  C:\Users\TTSS\AppData\Local\Temp\ccBAPXR4.s 			page 21


 470              		.type	CySysClkWcoStop, %function
 471              	CySysClkWcoStop:
 472              	.LFB8:
 275:Generated_Source\PSoC4/CyLFClk.c **** 
 276:Generated_Source\PSoC4/CyLFClk.c **** 
 277:Generated_Source\PSoC4/CyLFClk.c ****     /*******************************************************************************
 278:Generated_Source\PSoC4/CyLFClk.c ****     * Function Name: CySysClkWcoStop
 279:Generated_Source\PSoC4/CyLFClk.c ****     ********************************************************************************
 280:Generated_Source\PSoC4/CyLFClk.c ****     *
 281:Generated_Source\PSoC4/CyLFClk.c ****     * Summary:
 282:Generated_Source\PSoC4/CyLFClk.c ****     *  Disables the 32KHz Crystal Oscillator.
 283:Generated_Source\PSoC4/CyLFClk.c ****     *
 284:Generated_Source\PSoC4/CyLFClk.c ****     * Parameters:
 285:Generated_Source\PSoC4/CyLFClk.c ****     *  None.
 286:Generated_Source\PSoC4/CyLFClk.c ****     *
 287:Generated_Source\PSoC4/CyLFClk.c ****     * Return:
 288:Generated_Source\PSoC4/CyLFClk.c ****     *  None.
 289:Generated_Source\PSoC4/CyLFClk.c ****     *
 290:Generated_Source\PSoC4/CyLFClk.c ****     *******************************************************************************/
 291:Generated_Source\PSoC4/CyLFClk.c ****     void  CySysClkWcoStop(void)
 292:Generated_Source\PSoC4/CyLFClk.c ****     {
 473              		.loc 2 292 0
 474              		.cfi_startproc
 475 0000 90B5     		push	{r4, r7, lr}
 476              		.cfi_def_cfa_offset 12
 477              		.cfi_offset 4, -12
 478              		.cfi_offset 7, -8
 479              		.cfi_offset 14, -4
 480 0002 83B0     		sub	sp, sp, #12
 481              		.cfi_def_cfa_offset 24
 482 0004 00AF     		add	r7, sp, #0
 483              		.cfi_def_cfa_register 7
 293:Generated_Source\PSoC4/CyLFClk.c ****         uint8  interruptState;
 294:Generated_Source\PSoC4/CyLFClk.c **** 
 295:Generated_Source\PSoC4/CyLFClk.c ****         if (0u != CySysClkWcoEnabled())
 484              		.loc 2 295 0
 485 0006 FFF7FEFF 		bl	CySysClkWcoEnabled
 486 000a 031E     		sub	r3, r0, #0
 487 000c 21D0     		beq	.L32
 296:Generated_Source\PSoC4/CyLFClk.c ****         {
 297:Generated_Source\PSoC4/CyLFClk.c **** 
 298:Generated_Source\PSoC4/CyLFClk.c ****             if (CY_SYS_CLK_LFCLK_SRC_WCO == CySysClkGetLfclkSource())
 488              		.loc 2 298 0
 489 000e FFF7FEFF 		bl	CySysClkGetLfclkSource
 490 0012 021C     		mov	r2, r0
 491 0014 8023     		mov	r3, #128
 492 0016 DB05     		lsl	r3, r3, #23
 493 0018 9A42     		cmp	r2, r3
 494 001a 14D1     		bne	.L34
 299:Generated_Source\PSoC4/CyLFClk.c ****             {
 300:Generated_Source\PSoC4/CyLFClk.c ****                 interruptState = CyEnterCriticalSection();
 495              		.loc 2 300 0
 496 001c FC1D     		add	r4, r7, #7
 497 001e FFF7FEFF 		bl	CyEnterCriticalSection
 498 0022 031C     		mov	r3, r0
 499 0024 2370     		strb	r3, [r4]
 301:Generated_Source\PSoC4/CyLFClk.c ****                 CySysClkLfclkPosedgeCatch();
ARM GAS  C:\Users\TTSS\AppData\Local\Temp\ccBAPXR4.s 			page 22


 500              		.loc 2 301 0
 501 0026 FFF7FEFF 		bl	CySysClkLfclkPosedgeCatch
 302:Generated_Source\PSoC4/CyLFClk.c ****                 CY_SYS_CLK_WCO_CONFIG_REG &= (uint32) ~CY_SYS_CLK_WCO_CONFIG_LPM_ENABLE;
 502              		.loc 2 302 0
 503 002a 0B4B     		ldr	r3, .L35
 504 002c 0A4A     		ldr	r2, .L35
 505 002e 1268     		ldr	r2, [r2]
 506 0030 5200     		lsl	r2, r2, #1
 507 0032 5208     		lsr	r2, r2, #1
 508 0034 1A60     		str	r2, [r3]
 303:Generated_Source\PSoC4/CyLFClk.c ****                 CySysClkLfclkPosedgeRestore();
 509              		.loc 2 303 0
 510 0036 FFF7FEFF 		bl	CySysClkLfclkPosedgeRestore
 304:Generated_Source\PSoC4/CyLFClk.c ****                 CyExitCriticalSection(interruptState);
 511              		.loc 2 304 0
 512 003a FB1D     		add	r3, r7, #7
 513 003c 1B78     		ldrb	r3, [r3]
 514 003e 181C     		mov	r0, r3
 515 0040 FFF7FEFF 		bl	CyExitCriticalSection
 516 0044 05E0     		b	.L32
 517              	.L34:
 305:Generated_Source\PSoC4/CyLFClk.c ****             }
 306:Generated_Source\PSoC4/CyLFClk.c ****             else /* Safe to disable - shortened pulse does not impact peripheral */
 307:Generated_Source\PSoC4/CyLFClk.c ****             {
 308:Generated_Source\PSoC4/CyLFClk.c ****                 CY_SYS_CLK_WCO_CONFIG_REG &= (uint32) ~CY_SYS_CLK_WCO_CONFIG_LPM_ENABLE;
 518              		.loc 2 308 0
 519 0046 044B     		ldr	r3, .L35
 520 0048 034A     		ldr	r2, .L35
 521 004a 1268     		ldr	r2, [r2]
 522 004c 5200     		lsl	r2, r2, #1
 523 004e 5208     		lsr	r2, r2, #1
 524 0050 1A60     		str	r2, [r3]
 525              	.L32:
 309:Generated_Source\PSoC4/CyLFClk.c ****             }
 310:Generated_Source\PSoC4/CyLFClk.c ****         } /* Otherwise do nothing. WCO configuration cannot be changed. */
 311:Generated_Source\PSoC4/CyLFClk.c ****     }
 526              		.loc 2 311 0
 527 0052 BD46     		mov	sp, r7
 528 0054 03B0     		add	sp, sp, #12
 529              		@ sp needed
 530 0056 90BD     		pop	{r4, r7, pc}
 531              	.L36:
 532              		.align	2
 533              	.L35:
 534 0058 00F02E40 		.word	1076817920
 535              		.cfi_endproc
 536              	.LFE8:
 537              		.size	CySysClkWcoStop, .-CySysClkWcoStop
 538              		.section	.text.CySysClkWcoEnabled,"ax",%progbits
 539              		.align	2
 540              		.global	CySysClkWcoEnabled
 541              		.code	16
 542              		.thumb_func
 543              		.type	CySysClkWcoEnabled, %function
 544              	CySysClkWcoEnabled:
 545              	.LFB9:
 312:Generated_Source\PSoC4/CyLFClk.c **** 
ARM GAS  C:\Users\TTSS\AppData\Local\Temp\ccBAPXR4.s 			page 23


 313:Generated_Source\PSoC4/CyLFClk.c **** 
 314:Generated_Source\PSoC4/CyLFClk.c ****     /*******************************************************************************
 315:Generated_Source\PSoC4/CyLFClk.c ****     * Function Name: CySysClkWcoEnabled
 316:Generated_Source\PSoC4/CyLFClk.c ****     ********************************************************************************
 317:Generated_Source\PSoC4/CyLFClk.c ****     *
 318:Generated_Source\PSoC4/CyLFClk.c ****     * Summary:
 319:Generated_Source\PSoC4/CyLFClk.c ****     *  Reports the WCO enable state.
 320:Generated_Source\PSoC4/CyLFClk.c ****     *
 321:Generated_Source\PSoC4/CyLFClk.c ****     * Parameters:
 322:Generated_Source\PSoC4/CyLFClk.c ****     *  None.
 323:Generated_Source\PSoC4/CyLFClk.c ****     *
 324:Generated_Source\PSoC4/CyLFClk.c ****     * Return:
 325:Generated_Source\PSoC4/CyLFClk.c ****     *  1 if WCO is enabled, and 0 if WCO is disabled.
 326:Generated_Source\PSoC4/CyLFClk.c ****     *
 327:Generated_Source\PSoC4/CyLFClk.c ****     *******************************************************************************/
 328:Generated_Source\PSoC4/CyLFClk.c ****     uint32 CySysClkWcoEnabled(void)
 329:Generated_Source\PSoC4/CyLFClk.c ****     {
 546              		.loc 2 329 0
 547              		.cfi_startproc
 548 0000 80B5     		push	{r7, lr}
 549              		.cfi_def_cfa_offset 8
 550              		.cfi_offset 7, -8
 551              		.cfi_offset 14, -4
 552 0002 00AF     		add	r7, sp, #0
 553              		.cfi_def_cfa_register 7
 330:Generated_Source\PSoC4/CyLFClk.c ****         return ((0u != (CY_SYS_CLK_WCO_CONFIG_REG & (uint32)(CY_SYS_CLK_WCO_CONFIG_LPM_ENABLE))) ?
 554              		.loc 2 330 0
 555 0004 044B     		ldr	r3, .L41
 556 0006 1B68     		ldr	r3, [r3]
 331:Generated_Source\PSoC4/CyLFClk.c ****                 (uint32) 1u :
 557              		.loc 2 331 0
 558 0008 002B     		cmp	r3, #0
 559 000a 01DA     		bge	.L38
 560              		.loc 2 331 0 is_stmt 0 discriminator 1
 561 000c 0123     		mov	r3, #1
 562 000e 00E0     		b	.L39
 563              	.L38:
 564              		.loc 2 331 0 discriminator 2
 565 0010 0023     		mov	r3, #0
 566              	.L39:
 332:Generated_Source\PSoC4/CyLFClk.c ****                 (uint32) 0u);
 333:Generated_Source\PSoC4/CyLFClk.c ****     }
 567              		.loc 2 333 0 is_stmt 1
 568 0012 181C     		mov	r0, r3
 569 0014 BD46     		mov	sp, r7
 570              		@ sp needed
 571 0016 80BD     		pop	{r7, pc}
 572              	.L42:
 573              		.align	2
 574              	.L41:
 575 0018 00F02E40 		.word	1076817920
 576              		.cfi_endproc
 577              	.LFE9:
 578              		.size	CySysClkWcoEnabled, .-CySysClkWcoEnabled
 579              		.section	.text.CySysClkWcoSetPowerMode,"ax",%progbits
 580              		.align	2
 581              		.global	CySysClkWcoSetPowerMode
ARM GAS  C:\Users\TTSS\AppData\Local\Temp\ccBAPXR4.s 			page 24


 582              		.code	16
 583              		.thumb_func
 584              		.type	CySysClkWcoSetPowerMode, %function
 585              	CySysClkWcoSetPowerMode:
 586              	.LFB10:
 334:Generated_Source\PSoC4/CyLFClk.c **** 
 335:Generated_Source\PSoC4/CyLFClk.c **** 
 336:Generated_Source\PSoC4/CyLFClk.c ****     /*******************************************************************************
 337:Generated_Source\PSoC4/CyLFClk.c ****     * Function Name: CySysClkWcoSetPowerMode
 338:Generated_Source\PSoC4/CyLFClk.c ****     ********************************************************************************
 339:Generated_Source\PSoC4/CyLFClk.c ****     *
 340:Generated_Source\PSoC4/CyLFClk.c ****     * Summary:
 341:Generated_Source\PSoC4/CyLFClk.c ****     *  Sets the power mode for the 32 KHz WCO.
 342:Generated_Source\PSoC4/CyLFClk.c ****     *
 343:Generated_Source\PSoC4/CyLFClk.c ****     * Parameters:
 344:Generated_Source\PSoC4/CyLFClk.c ****     *  uint32 mode:
 345:Generated_Source\PSoC4/CyLFClk.c ****     *   CY_SYS_CLK_WCO_HPM  - The High Power mode
 346:Generated_Source\PSoC4/CyLFClk.c ****     *   CY_SYS_CLK_WCO_LPM  - The Low Power mode(not applicable for
 347:Generated_Source\PSoC4/CyLFClk.c ****     *                         PSoC 4100M / PSoC 4200M devices)
 348:Generated_Source\PSoC4/CyLFClk.c ****     *
 349:Generated_Source\PSoC4/CyLFClk.c ****     * Return:
 350:Generated_Source\PSoC4/CyLFClk.c ****     *  A previous power mode. The same as the parameters.
 351:Generated_Source\PSoC4/CyLFClk.c ****     *
 352:Generated_Source\PSoC4/CyLFClk.c ****     * Note:
 353:Generated_Source\PSoC4/CyLFClk.c ****     *  The WCO Low power mode is not applicable for the PSoC 4100M/PSoC 4200M
 354:Generated_Source\PSoC4/CyLFClk.c ****     *  devices.
 355:Generated_Source\PSoC4/CyLFClk.c ****     *
 356:Generated_Source\PSoC4/CyLFClk.c ****     *******************************************************************************/
 357:Generated_Source\PSoC4/CyLFClk.c ****     uint32 CySysClkWcoSetPowerMode(uint32 mode)
 358:Generated_Source\PSoC4/CyLFClk.c ****     {
 587              		.loc 2 358 0
 588              		.cfi_startproc
 589 0000 80B5     		push	{r7, lr}
 590              		.cfi_def_cfa_offset 8
 591              		.cfi_offset 7, -8
 592              		.cfi_offset 14, -4
 593 0002 84B0     		sub	sp, sp, #16
 594              		.cfi_def_cfa_offset 24
 595 0004 00AF     		add	r7, sp, #0
 596              		.cfi_def_cfa_register 7
 597 0006 7860     		str	r0, [r7, #4]
 359:Generated_Source\PSoC4/CyLFClk.c ****         uint32 status;
 360:Generated_Source\PSoC4/CyLFClk.c **** 
 361:Generated_Source\PSoC4/CyLFClk.c ****         status = CY_SYS_CLK_WCO_CONFIG_REG & CY_SYS_CLK_WCO_CONFIG_LPM_EN;
 598              		.loc 2 361 0
 599 0008 0C4B     		ldr	r3, .L50
 600 000a 1B68     		ldr	r3, [r3]
 601 000c 0122     		mov	r2, #1
 602 000e 1340     		and	r3, r2
 603 0010 FB60     		str	r3, [r7, #12]
 362:Generated_Source\PSoC4/CyLFClk.c **** 
 363:Generated_Source\PSoC4/CyLFClk.c ****         switch(mode)
 604              		.loc 2 363 0
 605 0012 7B68     		ldr	r3, [r7, #4]
 606 0014 002B     		cmp	r3, #0
 607 0016 02D0     		beq	.L45
 608 0018 012B     		cmp	r3, #1
ARM GAS  C:\Users\TTSS\AppData\Local\Temp\ccBAPXR4.s 			page 25


 609 001a 03D0     		beq	.L46
 610 001c 05E0     		b	.L49
 611              	.L45:
 364:Generated_Source\PSoC4/CyLFClk.c ****         {
 365:Generated_Source\PSoC4/CyLFClk.c ****         case CY_SYS_CLK_WCO_HPM:
 366:Generated_Source\PSoC4/CyLFClk.c ****                 CySysClkWcoSetHighPowerMode();
 612              		.loc 2 366 0
 613 001e FFF7FEFF 		bl	CySysClkWcoSetHighPowerMode
 367:Generated_Source\PSoC4/CyLFClk.c ****             break;
 614              		.loc 2 367 0
 615 0022 06E0     		b	.L47
 616              	.L46:
 368:Generated_Source\PSoC4/CyLFClk.c **** 
 369:Generated_Source\PSoC4/CyLFClk.c ****         #if(!CY_PSOC4_4100M && !CY_PSOC4_4200M)
 370:Generated_Source\PSoC4/CyLFClk.c ****             case CY_SYS_CLK_WCO_LPM:
 371:Generated_Source\PSoC4/CyLFClk.c ****                     CySysClkWcoSetLowPowerMode();
 617              		.loc 2 371 0
 618 0024 FFF7FEFF 		bl	CySysClkWcoSetLowPowerMode
 372:Generated_Source\PSoC4/CyLFClk.c ****                 break;
 619              		.loc 2 372 0
 620 0028 03E0     		b	.L47
 621              	.L49:
 373:Generated_Source\PSoC4/CyLFClk.c ****         #endif /* (!CY_PSOC4_4100M && !CY_PSOC4_4200M) */
 374:Generated_Source\PSoC4/CyLFClk.c **** 
 375:Generated_Source\PSoC4/CyLFClk.c ****         default:
 376:Generated_Source\PSoC4/CyLFClk.c ****             CYASSERT(0u != 0u);
 622              		.loc 2 376 0
 623 002a 0020     		mov	r0, #0
 624 002c FFF7FEFF 		bl	CyHalt
 377:Generated_Source\PSoC4/CyLFClk.c ****             break;
 625              		.loc 2 377 0
 626 0030 C046     		mov	r8, r8
 627              	.L47:
 378:Generated_Source\PSoC4/CyLFClk.c ****         }
 379:Generated_Source\PSoC4/CyLFClk.c **** 
 380:Generated_Source\PSoC4/CyLFClk.c ****         return (status);
 628              		.loc 2 380 0
 629 0032 FB68     		ldr	r3, [r7, #12]
 381:Generated_Source\PSoC4/CyLFClk.c ****     }
 630              		.loc 2 381 0
 631 0034 181C     		mov	r0, r3
 632 0036 BD46     		mov	sp, r7
 633 0038 04B0     		add	sp, sp, #16
 634              		@ sp needed
 635 003a 80BD     		pop	{r7, pc}
 636              	.L51:
 637              		.align	2
 638              	.L50:
 639 003c 00F02E40 		.word	1076817920
 640              		.cfi_endproc
 641              	.LFE10:
 642              		.size	CySysClkWcoSetPowerMode, .-CySysClkWcoSetPowerMode
 643              		.section	.text.CySysWdtLock,"ax",%progbits
 644              		.align	2
 645              		.global	CySysWdtLock
 646              		.code	16
 647              		.thumb_func
ARM GAS  C:\Users\TTSS\AppData\Local\Temp\ccBAPXR4.s 			page 26


 648              		.type	CySysWdtLock, %function
 649              	CySysWdtLock:
 650              	.LFB11:
 382:Generated_Source\PSoC4/CyLFClk.c **** 
 383:Generated_Source\PSoC4/CyLFClk.c **** #endif  /* (CY_IP_WCO) */
 384:Generated_Source\PSoC4/CyLFClk.c **** 
 385:Generated_Source\PSoC4/CyLFClk.c **** 
 386:Generated_Source\PSoC4/CyLFClk.c **** #if(CY_IP_SRSSV2)
 387:Generated_Source\PSoC4/CyLFClk.c **** 
 388:Generated_Source\PSoC4/CyLFClk.c **** 
 389:Generated_Source\PSoC4/CyLFClk.c ****     /*******************************************************************************
 390:Generated_Source\PSoC4/CyLFClk.c ****     * Function Name: CySysWdtLock
 391:Generated_Source\PSoC4/CyLFClk.c ****     ********************************************************************************
 392:Generated_Source\PSoC4/CyLFClk.c ****     *
 393:Generated_Source\PSoC4/CyLFClk.c ****     * Summary:
 394:Generated_Source\PSoC4/CyLFClk.c ****     *  Locks out configuration changes to the Watchdog timer registers and ILO
 395:Generated_Source\PSoC4/CyLFClk.c ****     *  configuration register.
 396:Generated_Source\PSoC4/CyLFClk.c ****     *
 397:Generated_Source\PSoC4/CyLFClk.c ****     * Parameters:
 398:Generated_Source\PSoC4/CyLFClk.c ****     *  None.
 399:Generated_Source\PSoC4/CyLFClk.c ****     *
 400:Generated_Source\PSoC4/CyLFClk.c ****     * Return:
 401:Generated_Source\PSoC4/CyLFClk.c ****     *  None.
 402:Generated_Source\PSoC4/CyLFClk.c ****     *
 403:Generated_Source\PSoC4/CyLFClk.c ****     * Side effects:
 404:Generated_Source\PSoC4/CyLFClk.c ****     *  After this function is called, ILO clock can't be disabled until
 405:Generated_Source\PSoC4/CyLFClk.c ****     *  CySysWdtUnlock() is called.
 406:Generated_Source\PSoC4/CyLFClk.c ****     *
 407:Generated_Source\PSoC4/CyLFClk.c ****     *******************************************************************************/
 408:Generated_Source\PSoC4/CyLFClk.c ****     void CySysWdtLock(void)
 409:Generated_Source\PSoC4/CyLFClk.c ****     {
 651              		.loc 2 409 0
 652              		.cfi_startproc
 653 0000 90B5     		push	{r4, r7, lr}
 654              		.cfi_def_cfa_offset 12
 655              		.cfi_offset 4, -12
 656              		.cfi_offset 7, -8
 657              		.cfi_offset 14, -4
 658 0002 83B0     		sub	sp, sp, #12
 659              		.cfi_def_cfa_offset 24
 660 0004 00AF     		add	r7, sp, #0
 661              		.cfi_def_cfa_register 7
 410:Generated_Source\PSoC4/CyLFClk.c ****         uint8 interruptState;
 411:Generated_Source\PSoC4/CyLFClk.c ****         interruptState = CyEnterCriticalSection();
 662              		.loc 2 411 0
 663 0006 FC1D     		add	r4, r7, #7
 664 0008 FFF7FEFF 		bl	CyEnterCriticalSection
 665 000c 031C     		mov	r3, r0
 666 000e 2370     		strb	r3, [r4]
 412:Generated_Source\PSoC4/CyLFClk.c **** 
 413:Generated_Source\PSoC4/CyLFClk.c ****         CY_SYS_CLK_SELECT_REG = (CY_SYS_CLK_SELECT_REG & (uint32)(~CY_SYS_WDT_CLK_LOCK_BITS_MASK)) 
 667              		.loc 2 413 0
 668 0010 074B     		ldr	r3, .L53
 669 0012 074A     		ldr	r2, .L53
 670 0014 1268     		ldr	r2, [r2]
 671 0016 C021     		mov	r1, #192
 672 0018 0902     		lsl	r1, r1, #8
ARM GAS  C:\Users\TTSS\AppData\Local\Temp\ccBAPXR4.s 			page 27


 673 001a 0A43     		orr	r2, r1
 674 001c 1A60     		str	r2, [r3]
 414:Generated_Source\PSoC4/CyLFClk.c ****                  CY_SYS_WDT_CLK_LOCK_BITS_MASK;
 415:Generated_Source\PSoC4/CyLFClk.c **** 
 416:Generated_Source\PSoC4/CyLFClk.c ****         CyExitCriticalSection(interruptState);
 675              		.loc 2 416 0
 676 001e FB1D     		add	r3, r7, #7
 677 0020 1B78     		ldrb	r3, [r3]
 678 0022 181C     		mov	r0, r3
 679 0024 FFF7FEFF 		bl	CyExitCriticalSection
 417:Generated_Source\PSoC4/CyLFClk.c ****     }
 680              		.loc 2 417 0
 681 0028 BD46     		mov	sp, r7
 682 002a 03B0     		add	sp, sp, #12
 683              		@ sp needed
 684 002c 90BD     		pop	{r4, r7, pc}
 685              	.L54:
 686 002e C046     		.align	2
 687              	.L53:
 688 0030 00010B40 		.word	1074462976
 689              		.cfi_endproc
 690              	.LFE11:
 691              		.size	CySysWdtLock, .-CySysWdtLock
 692              		.section	.text.CySysWdtLocked,"ax",%progbits
 693              		.align	2
 694              		.code	16
 695              		.thumb_func
 696              		.type	CySysWdtLocked, %function
 697              	CySysWdtLocked:
 698              	.LFB12:
 418:Generated_Source\PSoC4/CyLFClk.c **** 
 419:Generated_Source\PSoC4/CyLFClk.c **** 
 420:Generated_Source\PSoC4/CyLFClk.c ****     /*******************************************************************************
 421:Generated_Source\PSoC4/CyLFClk.c ****     * Function Name: CySysWdtLocked
 422:Generated_Source\PSoC4/CyLFClk.c ****     ********************************************************************************
 423:Generated_Source\PSoC4/CyLFClk.c ****     *
 424:Generated_Source\PSoC4/CyLFClk.c ****     * Summary:
 425:Generated_Source\PSoC4/CyLFClk.c ****     *  Reports the WDT lock state.
 426:Generated_Source\PSoC4/CyLFClk.c ****     *
 427:Generated_Source\PSoC4/CyLFClk.c ****     * Parameters:
 428:Generated_Source\PSoC4/CyLFClk.c ****     *  None
 429:Generated_Source\PSoC4/CyLFClk.c ****     *
 430:Generated_Source\PSoC4/CyLFClk.c ****     * Return:
 431:Generated_Source\PSoC4/CyLFClk.c ****     *  1 - WDT is locked, and 0 - WDT is unlocked.
 432:Generated_Source\PSoC4/CyLFClk.c ****     *
 433:Generated_Source\PSoC4/CyLFClk.c ****     *******************************************************************************/
 434:Generated_Source\PSoC4/CyLFClk.c ****     static uint32 CySysWdtLocked(void)
 435:Generated_Source\PSoC4/CyLFClk.c ****     {
 699              		.loc 2 435 0
 700              		.cfi_startproc
 701 0000 80B5     		push	{r7, lr}
 702              		.cfi_def_cfa_offset 8
 703              		.cfi_offset 7, -8
 704              		.cfi_offset 14, -4
 705 0002 00AF     		add	r7, sp, #0
 706              		.cfi_def_cfa_register 7
 436:Generated_Source\PSoC4/CyLFClk.c ****         /* Prohibits writing to WDT registers and ILO/WCO registers when not equal 0 */
ARM GAS  C:\Users\TTSS\AppData\Local\Temp\ccBAPXR4.s 			page 28


 437:Generated_Source\PSoC4/CyLFClk.c ****         return ((0u != (CY_SYS_CLK_SELECT_REG & (uint32)(CY_SYS_WDT_CLK_LOCK_BITS_MASK))) ? (uint32
 707              		.loc 2 437 0
 708 0004 054B     		ldr	r3, .L59
 709 0006 1A68     		ldr	r2, [r3]
 710 0008 C023     		mov	r3, #192
 711 000a 1B02     		lsl	r3, r3, #8
 712 000c 1340     		and	r3, r2
 713 000e 01D0     		beq	.L56
 714              		.loc 2 437 0 is_stmt 0 discriminator 1
 715 0010 0123     		mov	r3, #1
 716 0012 00E0     		b	.L57
 717              	.L56:
 718              		.loc 2 437 0 discriminator 2
 719 0014 0023     		mov	r3, #0
 720              	.L57:
 438:Generated_Source\PSoC4/CyLFClk.c ****     }
 721              		.loc 2 438 0 is_stmt 1 discriminator 4
 722 0016 181C     		mov	r0, r3
 723 0018 BD46     		mov	sp, r7
 724              		@ sp needed
 725 001a 80BD     		pop	{r7, pc}
 726              	.L60:
 727              		.align	2
 728              	.L59:
 729 001c 00010B40 		.word	1074462976
 730              		.cfi_endproc
 731              	.LFE12:
 732              		.size	CySysWdtLocked, .-CySysWdtLocked
 733              		.section	.text.CySysWdtUnlock,"ax",%progbits
 734              		.align	2
 735              		.global	CySysWdtUnlock
 736              		.code	16
 737              		.thumb_func
 738              		.type	CySysWdtUnlock, %function
 739              	CySysWdtUnlock:
 740              	.LFB13:
 439:Generated_Source\PSoC4/CyLFClk.c **** 
 440:Generated_Source\PSoC4/CyLFClk.c **** 
 441:Generated_Source\PSoC4/CyLFClk.c ****     /*******************************************************************************
 442:Generated_Source\PSoC4/CyLFClk.c ****     * Function Name: CySysWdtUnlock
 443:Generated_Source\PSoC4/CyLFClk.c ****     ********************************************************************************
 444:Generated_Source\PSoC4/CyLFClk.c ****     *
 445:Generated_Source\PSoC4/CyLFClk.c ****     * Summary:
 446:Generated_Source\PSoC4/CyLFClk.c ****     *  Unlocks the Watchdog Timer configuration register.
 447:Generated_Source\PSoC4/CyLFClk.c ****     *
 448:Generated_Source\PSoC4/CyLFClk.c ****     * Parameters:
 449:Generated_Source\PSoC4/CyLFClk.c ****     *  None.
 450:Generated_Source\PSoC4/CyLFClk.c ****     *
 451:Generated_Source\PSoC4/CyLFClk.c ****     * Return:
 452:Generated_Source\PSoC4/CyLFClk.c ****     *  None.
 453:Generated_Source\PSoC4/CyLFClk.c ****     *
 454:Generated_Source\PSoC4/CyLFClk.c ****     *******************************************************************************/
 455:Generated_Source\PSoC4/CyLFClk.c ****     void CySysWdtUnlock(void)
 456:Generated_Source\PSoC4/CyLFClk.c ****     {
 741              		.loc 2 456 0
 742              		.cfi_startproc
 743 0000 90B5     		push	{r4, r7, lr}
ARM GAS  C:\Users\TTSS\AppData\Local\Temp\ccBAPXR4.s 			page 29


 744              		.cfi_def_cfa_offset 12
 745              		.cfi_offset 4, -12
 746              		.cfi_offset 7, -8
 747              		.cfi_offset 14, -4
 748 0002 83B0     		sub	sp, sp, #12
 749              		.cfi_def_cfa_offset 24
 750 0004 00AF     		add	r7, sp, #0
 751              		.cfi_def_cfa_register 7
 457:Generated_Source\PSoC4/CyLFClk.c ****         uint8 interruptState;
 458:Generated_Source\PSoC4/CyLFClk.c ****         interruptState = CyEnterCriticalSection();
 752              		.loc 2 458 0
 753 0006 FC1D     		add	r4, r7, #7
 754 0008 FFF7FEFF 		bl	CyEnterCriticalSection
 755 000c 031C     		mov	r3, r0
 756 000e 2370     		strb	r3, [r4]
 459:Generated_Source\PSoC4/CyLFClk.c **** 
 460:Generated_Source\PSoC4/CyLFClk.c ****         /* Removing WDT lock requires two writes */
 461:Generated_Source\PSoC4/CyLFClk.c ****         CY_SYS_CLK_SELECT_REG = ((CY_SYS_CLK_SELECT_REG & (uint32)(~CY_SYS_WDT_CLK_LOCK_BITS_MASK))
 757              		.loc 2 461 0
 758 0010 0C4B     		ldr	r3, .L62
 759 0012 0C4A     		ldr	r2, .L62
 760 0014 1268     		ldr	r2, [r2]
 761 0016 0C49     		ldr	r1, .L62+4
 762 0018 0A40     		and	r2, r1
 763 001a 8021     		mov	r1, #128
 764 001c C901     		lsl	r1, r1, #7
 765 001e 0A43     		orr	r2, r1
 766 0020 1A60     		str	r2, [r3]
 462:Generated_Source\PSoC4/CyLFClk.c ****                 CY_SYS_WDT_CLK_LOCK_BIT0);
 463:Generated_Source\PSoC4/CyLFClk.c **** 
 464:Generated_Source\PSoC4/CyLFClk.c ****         CY_SYS_CLK_SELECT_REG = ((CY_SYS_CLK_SELECT_REG & (uint32)(~CY_SYS_WDT_CLK_LOCK_BITS_MASK))
 767              		.loc 2 464 0
 768 0022 084B     		ldr	r3, .L62
 769 0024 074A     		ldr	r2, .L62
 770 0026 1268     		ldr	r2, [r2]
 771 0028 0749     		ldr	r1, .L62+4
 772 002a 0A40     		and	r2, r1
 773 002c 8021     		mov	r1, #128
 774 002e 0902     		lsl	r1, r1, #8
 775 0030 0A43     		orr	r2, r1
 776 0032 1A60     		str	r2, [r3]
 465:Generated_Source\PSoC4/CyLFClk.c ****                 CY_SYS_WDT_CLK_LOCK_BIT1);
 466:Generated_Source\PSoC4/CyLFClk.c **** 
 467:Generated_Source\PSoC4/CyLFClk.c ****         CyExitCriticalSection(interruptState);
 777              		.loc 2 467 0
 778 0034 FB1D     		add	r3, r7, #7
 779 0036 1B78     		ldrb	r3, [r3]
 780 0038 181C     		mov	r0, r3
 781 003a FFF7FEFF 		bl	CyExitCriticalSection
 468:Generated_Source\PSoC4/CyLFClk.c ****     }
 782              		.loc 2 468 0
 783 003e BD46     		mov	sp, r7
 784 0040 03B0     		add	sp, sp, #12
 785              		@ sp needed
 786 0042 90BD     		pop	{r4, r7, pc}
 787              	.L63:
 788              		.align	2
ARM GAS  C:\Users\TTSS\AppData\Local\Temp\ccBAPXR4.s 			page 30


 789              	.L62:
 790 0044 00010B40 		.word	1074462976
 791 0048 FF3FFFFF 		.word	-49153
 792              		.cfi_endproc
 793              	.LFE13:
 794              		.size	CySysWdtUnlock, .-CySysWdtUnlock
 795              		.section	.text.CySysWdtGetEnabledStatus,"ax",%progbits
 796              		.align	2
 797              		.global	CySysWdtGetEnabledStatus
 798              		.code	16
 799              		.thumb_func
 800              		.type	CySysWdtGetEnabledStatus, %function
 801              	CySysWdtGetEnabledStatus:
 802              	.LFB14:
 469:Generated_Source\PSoC4/CyLFClk.c **** 
 470:Generated_Source\PSoC4/CyLFClk.c **** 
 471:Generated_Source\PSoC4/CyLFClk.c ****     /*******************************************************************************
 472:Generated_Source\PSoC4/CyLFClk.c ****     * Function Name: CySysWdtGetEnabledStatus
 473:Generated_Source\PSoC4/CyLFClk.c ****     ********************************************************************************
 474:Generated_Source\PSoC4/CyLFClk.c ****     *
 475:Generated_Source\PSoC4/CyLFClk.c ****     * Summary:
 476:Generated_Source\PSoC4/CyLFClk.c ****     *  Reads the enabled status of one of the three WDT counters.
 477:Generated_Source\PSoC4/CyLFClk.c ****     *
 478:Generated_Source\PSoC4/CyLFClk.c ****     * Parameters:
 479:Generated_Source\PSoC4/CyLFClk.c ****     *  counterNum: Valid range [0-2].  the number of the WDT counter.
 480:Generated_Source\PSoC4/CyLFClk.c ****     *
 481:Generated_Source\PSoC4/CyLFClk.c ****     * Return:
 482:Generated_Source\PSoC4/CyLFClk.c ****     *  The status of the WDT counter:
 483:Generated_Source\PSoC4/CyLFClk.c ****     *   0 - The counter is disabled.
 484:Generated_Source\PSoC4/CyLFClk.c ****     *   1 - The counter is enabled.
 485:Generated_Source\PSoC4/CyLFClk.c ****     *
 486:Generated_Source\PSoC4/CyLFClk.c ****     * Side Effects:
 487:Generated_Source\PSoC4/CyLFClk.c ****     *  This function returns an actual WDT counter status from the status register. It may
 488:Generated_Source\PSoC4/CyLFClk.c ****     *  take up to 3 LFCLK cycles for the WDT status register to contain actual data
 489:Generated_Source\PSoC4/CyLFClk.c ****     *  after the WDT counter is enabled.
 490:Generated_Source\PSoC4/CyLFClk.c ****     *
 491:Generated_Source\PSoC4/CyLFClk.c ****     *
 492:Generated_Source\PSoC4/CyLFClk.c ****     *******************************************************************************/
 493:Generated_Source\PSoC4/CyLFClk.c ****     uint32 CySysWdtGetEnabledStatus(uint32 counterNum)
 494:Generated_Source\PSoC4/CyLFClk.c ****     {
 803              		.loc 2 494 0
 804              		.cfi_startproc
 805 0000 80B5     		push	{r7, lr}
 806              		.cfi_def_cfa_offset 8
 807              		.cfi_offset 7, -8
 808              		.cfi_offset 14, -4
 809 0002 82B0     		sub	sp, sp, #8
 810              		.cfi_def_cfa_offset 16
 811 0004 00AF     		add	r7, sp, #0
 812              		.cfi_def_cfa_register 7
 813 0006 7860     		str	r0, [r7, #4]
 495:Generated_Source\PSoC4/CyLFClk.c ****         CYASSERT(counterNum < CY_SYS_WDT_COUNTERS_MAX);
 814              		.loc 2 495 0
 815 0008 7B68     		ldr	r3, [r7, #4]
 816 000a 022B     		cmp	r3, #2
 817 000c 02D9     		bls	.L65
 818              		.loc 2 495 0 is_stmt 0 discriminator 1
ARM GAS  C:\Users\TTSS\AppData\Local\Temp\ccBAPXR4.s 			page 31


 819 000e 0020     		mov	r0, #0
 820 0010 FFF7FEFF 		bl	CyHalt
 821              	.L65:
 496:Generated_Source\PSoC4/CyLFClk.c ****         return ((CY_SYS_WDT_CONTROL_REG >> ((CY_SYS_WDT_CNT_SHIFT * counterNum) + CY_SYS_WDT_CNT_ST
 822              		.loc 2 496 0 is_stmt 1
 823 0014 054B     		ldr	r3, .L67
 824 0016 1B68     		ldr	r3, [r3]
 825 0018 7A68     		ldr	r2, [r7, #4]
 826 001a D200     		lsl	r2, r2, #3
 827 001c 0132     		add	r2, r2, #1
 828 001e D340     		lsr	r3, r3, r2
 829 0020 0122     		mov	r2, #1
 830 0022 1340     		and	r3, r2
 497:Generated_Source\PSoC4/CyLFClk.c ****     }
 831              		.loc 2 497 0
 832 0024 181C     		mov	r0, r3
 833 0026 BD46     		mov	sp, r7
 834 0028 02B0     		add	sp, sp, #8
 835              		@ sp needed
 836 002a 80BD     		pop	{r7, pc}
 837              	.L68:
 838              		.align	2
 839              	.L67:
 840 002c 10020B40 		.word	1074463248
 841              		.cfi_endproc
 842              	.LFE14:
 843              		.size	CySysWdtGetEnabledStatus, .-CySysWdtGetEnabledStatus
 844              		.section	.text.CySysWdtSetMode,"ax",%progbits
 845              		.align	2
 846              		.global	CySysWdtSetMode
 847              		.code	16
 848              		.thumb_func
 849              		.type	CySysWdtSetMode, %function
 850              	CySysWdtSetMode:
 851              	.LFB15:
 498:Generated_Source\PSoC4/CyLFClk.c **** 
 499:Generated_Source\PSoC4/CyLFClk.c **** 
 500:Generated_Source\PSoC4/CyLFClk.c ****     /*******************************************************************************
 501:Generated_Source\PSoC4/CyLFClk.c ****     * Function Name: CySysWdtSetMode
 502:Generated_Source\PSoC4/CyLFClk.c ****     ********************************************************************************
 503:Generated_Source\PSoC4/CyLFClk.c ****     *
 504:Generated_Source\PSoC4/CyLFClk.c ****     * Summary:
 505:Generated_Source\PSoC4/CyLFClk.c ****     *   Writes the mode of one of the three WDT counters.
 506:Generated_Source\PSoC4/CyLFClk.c ****     *
 507:Generated_Source\PSoC4/CyLFClk.c ****     * Parameters:
 508:Generated_Source\PSoC4/CyLFClk.c ****     *   counterNum: Valid range [0-2].  The number of the WDT counter.
 509:Generated_Source\PSoC4/CyLFClk.c ****     *   mode:       Mode of operation for the counter.
 510:Generated_Source\PSoC4/CyLFClk.c ****     *       Define                     Mode
 511:Generated_Source\PSoC4/CyLFClk.c ****     *        CY_SYS_WDT_MODE_NONE       Free running
 512:Generated_Source\PSoC4/CyLFClk.c ****     *        CY_SYS_WDT_MODE_INT        The interrupt generated on match for counter 0
 513:Generated_Source\PSoC4/CyLFClk.c ****     *                                   and 1, and on bit toggle for counter 2.
 514:Generated_Source\PSoC4/CyLFClk.c ****     *        CY_SYS_WDT_MODE_RESET      Reset on match (valid for counter 0 and 1
 515:Generated_Source\PSoC4/CyLFClk.c ****     *                                   only)
 516:Generated_Source\PSoC4/CyLFClk.c ****     *        CY_SYS_WDT_MODE_INT_RESET  Generate an interrupt.  Generate a reset on
 517:Generated_Source\PSoC4/CyLFClk.c ****     *                                   the 3rd non-handled interrupt.
 518:Generated_Source\PSoC4/CyLFClk.c ****     *                                   (valid for counter 0 and 1 only)
 519:Generated_Source\PSoC4/CyLFClk.c ****     * Return:
ARM GAS  C:\Users\TTSS\AppData\Local\Temp\ccBAPXR4.s 			page 32


 520:Generated_Source\PSoC4/CyLFClk.c ****     *   None.
 521:Generated_Source\PSoC4/CyLFClk.c ****     *
 522:Generated_Source\PSoC4/CyLFClk.c ****     * Side Effects:
 523:Generated_Source\PSoC4/CyLFClk.c ****     *   WDT counter counterNum should be disabled to set a mode. Otherwise, this
 524:Generated_Source\PSoC4/CyLFClk.c ****     *   function call has no effect. If the specified counter is enabled,
 525:Generated_Source\PSoC4/CyLFClk.c ****     *   call the CySysWdtDisable() function with the corresponding parameter to
 526:Generated_Source\PSoC4/CyLFClk.c ****     *   disable the specified counter and wait for it to stop.
 527:Generated_Source\PSoC4/CyLFClk.c ****     *
 528:Generated_Source\PSoC4/CyLFClk.c ****     *******************************************************************************/
 529:Generated_Source\PSoC4/CyLFClk.c ****     void CySysWdtSetMode(uint32 counterNum, uint32 mode)
 530:Generated_Source\PSoC4/CyLFClk.c ****     {
 852              		.loc 2 530 0
 853              		.cfi_startproc
 854 0000 80B5     		push	{r7, lr}
 855              		.cfi_def_cfa_offset 8
 856              		.cfi_offset 7, -8
 857              		.cfi_offset 14, -4
 858 0002 84B0     		sub	sp, sp, #16
 859              		.cfi_def_cfa_offset 24
 860 0004 00AF     		add	r7, sp, #0
 861              		.cfi_def_cfa_register 7
 862 0006 7860     		str	r0, [r7, #4]
 863 0008 3960     		str	r1, [r7]
 531:Generated_Source\PSoC4/CyLFClk.c ****         uint32 configRegValue;
 532:Generated_Source\PSoC4/CyLFClk.c **** 
 533:Generated_Source\PSoC4/CyLFClk.c ****         CYASSERT(counterNum < CY_SYS_WDT_COUNTERS_MAX);
 864              		.loc 2 533 0
 865 000a 7B68     		ldr	r3, [r7, #4]
 866 000c 022B     		cmp	r3, #2
 867 000e 02D9     		bls	.L70
 868              		.loc 2 533 0 is_stmt 0 discriminator 1
 869 0010 0020     		mov	r0, #0
 870 0012 FFF7FEFF 		bl	CyHalt
 871              	.L70:
 534:Generated_Source\PSoC4/CyLFClk.c **** 
 535:Generated_Source\PSoC4/CyLFClk.c ****         if(0u == CySysWdtGetEnabledStatus(counterNum))
 872              		.loc 2 535 0 is_stmt 1
 873 0016 7B68     		ldr	r3, [r7, #4]
 874 0018 181C     		mov	r0, r3
 875 001a FFF7FEFF 		bl	CySysWdtGetEnabledStatus
 876 001e 031E     		sub	r3, r0, #0
 877 0020 15D1     		bne	.L69
 536:Generated_Source\PSoC4/CyLFClk.c ****         {
 537:Generated_Source\PSoC4/CyLFClk.c ****             configRegValue = CY_SYS_WDT_CONFIG_REG &
 878              		.loc 2 537 0
 879 0022 0C4B     		ldr	r3, .L72
 880 0024 1B68     		ldr	r3, [r3]
 538:Generated_Source\PSoC4/CyLFClk.c ****                                 (uint32)~((uint32)(CY_SYS_WDT_MODE_MASK << (counterNum * CY_SYS_WDT
 881              		.loc 2 538 0
 882 0026 7A68     		ldr	r2, [r7, #4]
 883 0028 D200     		lsl	r2, r2, #3
 884 002a 111C     		mov	r1, r2
 885 002c 0322     		mov	r2, #3
 886 002e 8A40     		lsl	r2, r2, r1
 887 0030 D243     		mvn	r2, r2
 537:Generated_Source\PSoC4/CyLFClk.c ****                                 (uint32)~((uint32)(CY_SYS_WDT_MODE_MASK << (counterNum * CY_SYS_WDT
 888              		.loc 2 537 0
ARM GAS  C:\Users\TTSS\AppData\Local\Temp\ccBAPXR4.s 			page 33


 889 0032 1340     		and	r3, r2
 890 0034 FB60     		str	r3, [r7, #12]
 539:Generated_Source\PSoC4/CyLFClk.c ****             configRegValue |= (uint32)((mode & CY_SYS_WDT_MODE_MASK) << (counterNum * CY_SYS_WDT_CN
 891              		.loc 2 539 0
 892 0036 3B68     		ldr	r3, [r7]
 893 0038 0322     		mov	r2, #3
 894 003a 1340     		and	r3, r2
 895 003c 7A68     		ldr	r2, [r7, #4]
 896 003e D200     		lsl	r2, r2, #3
 897 0040 9340     		lsl	r3, r3, r2
 898 0042 FA68     		ldr	r2, [r7, #12]
 899 0044 1343     		orr	r3, r2
 900 0046 FB60     		str	r3, [r7, #12]
 540:Generated_Source\PSoC4/CyLFClk.c ****             CY_SYS_WDT_CONFIG_REG = configRegValue;
 901              		.loc 2 540 0
 902 0048 024B     		ldr	r3, .L72
 903 004a FA68     		ldr	r2, [r7, #12]
 904 004c 1A60     		str	r2, [r3]
 905              	.L69:
 541:Generated_Source\PSoC4/CyLFClk.c ****         }
 542:Generated_Source\PSoC4/CyLFClk.c ****     }
 906              		.loc 2 542 0
 907 004e BD46     		mov	sp, r7
 908 0050 04B0     		add	sp, sp, #16
 909              		@ sp needed
 910 0052 80BD     		pop	{r7, pc}
 911              	.L73:
 912              		.align	2
 913              	.L72:
 914 0054 0C020B40 		.word	1074463244
 915              		.cfi_endproc
 916              	.LFE15:
 917              		.size	CySysWdtSetMode, .-CySysWdtSetMode
 918              		.section	.text.CySysWdtGetMode,"ax",%progbits
 919              		.align	2
 920              		.global	CySysWdtGetMode
 921              		.code	16
 922              		.thumb_func
 923              		.type	CySysWdtGetMode, %function
 924              	CySysWdtGetMode:
 925              	.LFB16:
 543:Generated_Source\PSoC4/CyLFClk.c **** 
 544:Generated_Source\PSoC4/CyLFClk.c **** 
 545:Generated_Source\PSoC4/CyLFClk.c ****     /*******************************************************************************
 546:Generated_Source\PSoC4/CyLFClk.c ****     * Function Name: CySysWdtGetMode
 547:Generated_Source\PSoC4/CyLFClk.c ****     ********************************************************************************
 548:Generated_Source\PSoC4/CyLFClk.c ****     *
 549:Generated_Source\PSoC4/CyLFClk.c ****     * Summary:
 550:Generated_Source\PSoC4/CyLFClk.c ****     *  Reads the mode of one of the three WDT counters.
 551:Generated_Source\PSoC4/CyLFClk.c ****     *
 552:Generated_Source\PSoC4/CyLFClk.c ****     * Parameters:
 553:Generated_Source\PSoC4/CyLFClk.c ****     *  counterNum: Valid range [0-2].  The number of the WDT counter.
 554:Generated_Source\PSoC4/CyLFClk.c ****     *
 555:Generated_Source\PSoC4/CyLFClk.c ****     * Return:
 556:Generated_Source\PSoC4/CyLFClk.c ****     *  The mode of the counter.  The same enumerated values as the mode parameter used in
 557:Generated_Source\PSoC4/CyLFClk.c ****     *  CySysWdtSetMode().
 558:Generated_Source\PSoC4/CyLFClk.c ****     *
ARM GAS  C:\Users\TTSS\AppData\Local\Temp\ccBAPXR4.s 			page 34


 559:Generated_Source\PSoC4/CyLFClk.c ****     *******************************************************************************/
 560:Generated_Source\PSoC4/CyLFClk.c ****     uint32 CySysWdtGetMode(uint32 counterNum)
 561:Generated_Source\PSoC4/CyLFClk.c ****     {
 926              		.loc 2 561 0
 927              		.cfi_startproc
 928 0000 80B5     		push	{r7, lr}
 929              		.cfi_def_cfa_offset 8
 930              		.cfi_offset 7, -8
 931              		.cfi_offset 14, -4
 932 0002 82B0     		sub	sp, sp, #8
 933              		.cfi_def_cfa_offset 16
 934 0004 00AF     		add	r7, sp, #0
 935              		.cfi_def_cfa_register 7
 936 0006 7860     		str	r0, [r7, #4]
 562:Generated_Source\PSoC4/CyLFClk.c ****         return ((CY_SYS_WDT_CONFIG_REG >> (counterNum * CY_SYS_WDT_CNT_SHIFT)) & CY_SYS_WDT_MODE_MA
 937              		.loc 2 562 0
 938 0008 054B     		ldr	r3, .L76
 939 000a 1B68     		ldr	r3, [r3]
 940 000c 7A68     		ldr	r2, [r7, #4]
 941 000e D200     		lsl	r2, r2, #3
 942 0010 D340     		lsr	r3, r3, r2
 943 0012 0322     		mov	r2, #3
 944 0014 1340     		and	r3, r2
 563:Generated_Source\PSoC4/CyLFClk.c ****     }
 945              		.loc 2 563 0
 946 0016 181C     		mov	r0, r3
 947 0018 BD46     		mov	sp, r7
 948 001a 02B0     		add	sp, sp, #8
 949              		@ sp needed
 950 001c 80BD     		pop	{r7, pc}
 951              	.L77:
 952 001e C046     		.align	2
 953              	.L76:
 954 0020 0C020B40 		.word	1074463244
 955              		.cfi_endproc
 956              	.LFE16:
 957              		.size	CySysWdtGetMode, .-CySysWdtGetMode
 958              		.section	.text.CySysWdtSetClearOnMatch,"ax",%progbits
 959              		.align	2
 960              		.global	CySysWdtSetClearOnMatch
 961              		.code	16
 962              		.thumb_func
 963              		.type	CySysWdtSetClearOnMatch, %function
 964              	CySysWdtSetClearOnMatch:
 965              	.LFB17:
 564:Generated_Source\PSoC4/CyLFClk.c **** 
 565:Generated_Source\PSoC4/CyLFClk.c **** 
 566:Generated_Source\PSoC4/CyLFClk.c ****     /*******************************************************************************
 567:Generated_Source\PSoC4/CyLFClk.c ****     * Function Name: CySysWdtSetClearOnMatch
 568:Generated_Source\PSoC4/CyLFClk.c ****     ********************************************************************************
 569:Generated_Source\PSoC4/CyLFClk.c ****     *
 570:Generated_Source\PSoC4/CyLFClk.c ****     * Summary:
 571:Generated_Source\PSoC4/CyLFClk.c ****     *  Configures the WDT counter "clear on match" setting.  If configured to "clear
 572:Generated_Source\PSoC4/CyLFClk.c ****     *  on match", the counter counts from 0 to MatchValue giving it a
 573:Generated_Source\PSoC4/CyLFClk.c ****     *  period of (MatchValue + 1).
 574:Generated_Source\PSoC4/CyLFClk.c ****     *
 575:Generated_Source\PSoC4/CyLFClk.c ****     * Parameters:
ARM GAS  C:\Users\TTSS\AppData\Local\Temp\ccBAPXR4.s 			page 35


 576:Generated_Source\PSoC4/CyLFClk.c ****     *  counterNum:
 577:Generated_Source\PSoC4/CyLFClk.c ****     *   Valid range [0-1].  The number of the WDT counter.  The match values are not
 578:Generated_Source\PSoC4/CyLFClk.c ****     *   supported by counter 2.
 579:Generated_Source\PSoC4/CyLFClk.c ****     *
 580:Generated_Source\PSoC4/CyLFClk.c ****     * enable:
 581:Generated_Source\PSoC4/CyLFClk.c ****     *   0 to disable, 1 to enable
 582:Generated_Source\PSoC4/CyLFClk.c ****     *
 583:Generated_Source\PSoC4/CyLFClk.c ****     * Return:
 584:Generated_Source\PSoC4/CyLFClk.c ****     *   None.
 585:Generated_Source\PSoC4/CyLFClk.c ****     *
 586:Generated_Source\PSoC4/CyLFClk.c ****     * Side Effects:
 587:Generated_Source\PSoC4/CyLFClk.c ****     *   WDT counter counterNum should be disabled. Otherwise this function call
 588:Generated_Source\PSoC4/CyLFClk.c ****     *   has no effect. If the specified counter is enabled, call the CySysWdtDisable()
 589:Generated_Source\PSoC4/CyLFClk.c ****     *   function with the corresponding parameter to disable the specified counter and
 590:Generated_Source\PSoC4/CyLFClk.c ****     *   wait for it to stop. This may take up to three LFCLK cycles.
 591:Generated_Source\PSoC4/CyLFClk.c ****     *
 592:Generated_Source\PSoC4/CyLFClk.c ****     *******************************************************************************/
 593:Generated_Source\PSoC4/CyLFClk.c ****     void CySysWdtSetClearOnMatch(uint32 counterNum, uint32 enable)
 594:Generated_Source\PSoC4/CyLFClk.c ****     {
 966              		.loc 2 594 0
 967              		.cfi_startproc
 968 0000 80B5     		push	{r7, lr}
 969              		.cfi_def_cfa_offset 8
 970              		.cfi_offset 7, -8
 971              		.cfi_offset 14, -4
 972 0002 84B0     		sub	sp, sp, #16
 973              		.cfi_def_cfa_offset 24
 974 0004 00AF     		add	r7, sp, #0
 975              		.cfi_def_cfa_register 7
 976 0006 7860     		str	r0, [r7, #4]
 977 0008 3960     		str	r1, [r7]
 595:Generated_Source\PSoC4/CyLFClk.c ****         uint32 configRegValue;
 596:Generated_Source\PSoC4/CyLFClk.c **** 
 597:Generated_Source\PSoC4/CyLFClk.c ****         CYASSERT((counterNum == CY_SYS_WDT_COUNTER0) ||
 978              		.loc 2 597 0
 979 000a 7B68     		ldr	r3, [r7, #4]
 980 000c 002B     		cmp	r3, #0
 981 000e 02D0     		beq	.L79
 982              		.loc 2 597 0 is_stmt 0 discriminator 2
 983 0010 7B68     		ldr	r3, [r7, #4]
 984 0012 012B     		cmp	r3, #1
 985 0014 01D1     		bne	.L80
 986              	.L79:
 987              		.loc 2 597 0 discriminator 3
 988 0016 0123     		mov	r3, #1
 989 0018 00E0     		b	.L81
 990              	.L80:
 991              		.loc 2 597 0 discriminator 4
 992 001a 0023     		mov	r3, #0
 993              	.L81:
 994              		.loc 2 597 0 discriminator 6
 995 001c 002B     		cmp	r3, #0
 996 001e 02D1     		bne	.L82
 997              		.loc 2 597 0 discriminator 7
 998 0020 0020     		mov	r0, #0
 999 0022 FFF7FEFF 		bl	CyHalt
 1000              	.L82:
ARM GAS  C:\Users\TTSS\AppData\Local\Temp\ccBAPXR4.s 			page 36


 598:Generated_Source\PSoC4/CyLFClk.c ****                  (counterNum == CY_SYS_WDT_COUNTER1));
 599:Generated_Source\PSoC4/CyLFClk.c **** 
 600:Generated_Source\PSoC4/CyLFClk.c ****         if(0u == CySysWdtGetEnabledStatus(counterNum))
 1001              		.loc 2 600 0 is_stmt 1
 1002 0026 7B68     		ldr	r3, [r7, #4]
 1003 0028 181C     		mov	r0, r3
 1004 002a FFF7FEFF 		bl	CySysWdtGetEnabledStatus
 1005 002e 031E     		sub	r3, r0, #0
 1006 0030 16D1     		bne	.L78
 601:Generated_Source\PSoC4/CyLFClk.c ****         {
 602:Generated_Source\PSoC4/CyLFClk.c ****             configRegValue = CY_SYS_WDT_CONFIG_REG &
 1007              		.loc 2 602 0
 1008 0032 0D4B     		ldr	r3, .L84
 1009 0034 1B68     		ldr	r3, [r3]
 603:Generated_Source\PSoC4/CyLFClk.c ****                 (uint32)~((uint32)((uint32)1u << ((counterNum * CY_SYS_WDT_CNT_SHIFT) + CY_SYS_WDT_
 1010              		.loc 2 603 0
 1011 0036 7A68     		ldr	r2, [r7, #4]
 1012 0038 D200     		lsl	r2, r2, #3
 1013 003a 0232     		add	r2, r2, #2
 1014 003c 111C     		mov	r1, r2
 1015 003e 0122     		mov	r2, #1
 1016 0040 8A40     		lsl	r2, r2, r1
 1017 0042 D243     		mvn	r2, r2
 602:Generated_Source\PSoC4/CyLFClk.c ****                 (uint32)~((uint32)((uint32)1u << ((counterNum * CY_SYS_WDT_CNT_SHIFT) + CY_SYS_WDT_
 1018              		.loc 2 602 0
 1019 0044 1340     		and	r3, r2
 1020 0046 FB60     		str	r3, [r7, #12]
 604:Generated_Source\PSoC4/CyLFClk.c **** 
 605:Generated_Source\PSoC4/CyLFClk.c ****             configRegValue
 606:Generated_Source\PSoC4/CyLFClk.c ****                 |= (uint32)(enable << ((counterNum * CY_SYS_WDT_CNT_SHIFT) + CY_SYS_WDT_CNT_MATCH_C
 1021              		.loc 2 606 0
 1022 0048 7B68     		ldr	r3, [r7, #4]
 1023 004a DB00     		lsl	r3, r3, #3
 1024 004c 0233     		add	r3, r3, #2
 1025 004e 1A1C     		mov	r2, r3
 1026 0050 3B68     		ldr	r3, [r7]
 1027 0052 9340     		lsl	r3, r3, r2
 1028 0054 FA68     		ldr	r2, [r7, #12]
 1029 0056 1343     		orr	r3, r2
 1030 0058 FB60     		str	r3, [r7, #12]
 607:Generated_Source\PSoC4/CyLFClk.c **** 
 608:Generated_Source\PSoC4/CyLFClk.c ****             CY_SYS_WDT_CONFIG_REG = configRegValue;
 1031              		.loc 2 608 0
 1032 005a 034B     		ldr	r3, .L84
 1033 005c FA68     		ldr	r2, [r7, #12]
 1034 005e 1A60     		str	r2, [r3]
 1035              	.L78:
 609:Generated_Source\PSoC4/CyLFClk.c ****         }
 610:Generated_Source\PSoC4/CyLFClk.c ****     }
 1036              		.loc 2 610 0
 1037 0060 BD46     		mov	sp, r7
 1038 0062 04B0     		add	sp, sp, #16
 1039              		@ sp needed
 1040 0064 80BD     		pop	{r7, pc}
 1041              	.L85:
 1042 0066 C046     		.align	2
 1043              	.L84:
ARM GAS  C:\Users\TTSS\AppData\Local\Temp\ccBAPXR4.s 			page 37


 1044 0068 0C020B40 		.word	1074463244
 1045              		.cfi_endproc
 1046              	.LFE17:
 1047              		.size	CySysWdtSetClearOnMatch, .-CySysWdtSetClearOnMatch
 1048              		.section	.text.CySysWdtGetClearOnMatch,"ax",%progbits
 1049              		.align	2
 1050              		.global	CySysWdtGetClearOnMatch
 1051              		.code	16
 1052              		.thumb_func
 1053              		.type	CySysWdtGetClearOnMatch, %function
 1054              	CySysWdtGetClearOnMatch:
 1055              	.LFB18:
 611:Generated_Source\PSoC4/CyLFClk.c **** 
 612:Generated_Source\PSoC4/CyLFClk.c **** 
 613:Generated_Source\PSoC4/CyLFClk.c ****     /*******************************************************************************
 614:Generated_Source\PSoC4/CyLFClk.c ****     * Function Name: CySysWdtGetClearOnMatch
 615:Generated_Source\PSoC4/CyLFClk.c ****     ********************************************************************************
 616:Generated_Source\PSoC4/CyLFClk.c ****     *
 617:Generated_Source\PSoC4/CyLFClk.c ****     * Summary:
 618:Generated_Source\PSoC4/CyLFClk.c ****     *  Reads the "clear on match" setting for the specified counter.
 619:Generated_Source\PSoC4/CyLFClk.c ****     *
 620:Generated_Source\PSoC4/CyLFClk.c ****     * Parameters:
 621:Generated_Source\PSoC4/CyLFClk.c ****     *   counterNum: Valid range [0-1].  The number of the WDT counter.  The match values are
 622:Generated_Source\PSoC4/CyLFClk.c ****     *               not supported by counter 2.
 623:Generated_Source\PSoC4/CyLFClk.c ****     *
 624:Generated_Source\PSoC4/CyLFClk.c ****     * Return:
 625:Generated_Source\PSoC4/CyLFClk.c ****     *   The "clear on match" status: 1 if enabled, 0 if disabled
 626:Generated_Source\PSoC4/CyLFClk.c ****     *
 627:Generated_Source\PSoC4/CyLFClk.c ****     *******************************************************************************/
 628:Generated_Source\PSoC4/CyLFClk.c ****     uint32 CySysWdtGetClearOnMatch(uint32 counterNum)
 629:Generated_Source\PSoC4/CyLFClk.c ****     {
 1056              		.loc 2 629 0
 1057              		.cfi_startproc
 1058 0000 80B5     		push	{r7, lr}
 1059              		.cfi_def_cfa_offset 8
 1060              		.cfi_offset 7, -8
 1061              		.cfi_offset 14, -4
 1062 0002 82B0     		sub	sp, sp, #8
 1063              		.cfi_def_cfa_offset 16
 1064 0004 00AF     		add	r7, sp, #0
 1065              		.cfi_def_cfa_register 7
 1066 0006 7860     		str	r0, [r7, #4]
 630:Generated_Source\PSoC4/CyLFClk.c ****         CYASSERT((counterNum == CY_SYS_WDT_COUNTER0) ||
 1067              		.loc 2 630 0
 1068 0008 7B68     		ldr	r3, [r7, #4]
 1069 000a 002B     		cmp	r3, #0
 1070 000c 02D0     		beq	.L87
 1071              		.loc 2 630 0 is_stmt 0 discriminator 2
 1072 000e 7B68     		ldr	r3, [r7, #4]
 1073 0010 012B     		cmp	r3, #1
 1074 0012 01D1     		bne	.L88
 1075              	.L87:
 1076              		.loc 2 630 0 discriminator 3
 1077 0014 0123     		mov	r3, #1
 1078 0016 00E0     		b	.L89
 1079              	.L88:
 1080              		.loc 2 630 0 discriminator 4
ARM GAS  C:\Users\TTSS\AppData\Local\Temp\ccBAPXR4.s 			page 38


 1081 0018 0023     		mov	r3, #0
 1082              	.L89:
 1083              		.loc 2 630 0 discriminator 6
 1084 001a 002B     		cmp	r3, #0
 1085 001c 02D1     		bne	.L90
 1086              		.loc 2 630 0 discriminator 7
 1087 001e 0020     		mov	r0, #0
 1088 0020 FFF7FEFF 		bl	CyHalt
 1089              	.L90:
 631:Generated_Source\PSoC4/CyLFClk.c ****                  (counterNum == CY_SYS_WDT_COUNTER1));
 632:Generated_Source\PSoC4/CyLFClk.c **** 
 633:Generated_Source\PSoC4/CyLFClk.c ****         return (uint32)((CY_SYS_WDT_CONFIG_REG >>
 1090              		.loc 2 633 0 is_stmt 1
 1091 0024 054B     		ldr	r3, .L92
 1092 0026 1B68     		ldr	r3, [r3]
 634:Generated_Source\PSoC4/CyLFClk.c ****                         ((counterNum * CY_SYS_WDT_CNT_SHIFT) + CY_SYS_WDT_CNT_MATCH_CLR_SHIFT)) & 0
 1093              		.loc 2 634 0
 1094 0028 7A68     		ldr	r2, [r7, #4]
 1095 002a D200     		lsl	r2, r2, #3
 1096 002c 0232     		add	r2, r2, #2
 633:Generated_Source\PSoC4/CyLFClk.c ****                         ((counterNum * CY_SYS_WDT_CNT_SHIFT) + CY_SYS_WDT_CNT_MATCH_CLR_SHIFT)) & 0
 1097              		.loc 2 633 0
 1098 002e D340     		lsr	r3, r3, r2
 1099 0030 0122     		mov	r2, #1
 1100 0032 1340     		and	r3, r2
 635:Generated_Source\PSoC4/CyLFClk.c ****     }
 1101              		.loc 2 635 0
 1102 0034 181C     		mov	r0, r3
 1103 0036 BD46     		mov	sp, r7
 1104 0038 02B0     		add	sp, sp, #8
 1105              		@ sp needed
 1106 003a 80BD     		pop	{r7, pc}
 1107              	.L93:
 1108              		.align	2
 1109              	.L92:
 1110 003c 0C020B40 		.word	1074463244
 1111              		.cfi_endproc
 1112              	.LFE18:
 1113              		.size	CySysWdtGetClearOnMatch, .-CySysWdtGetClearOnMatch
 1114              		.section	.text.CySysWdtEnable,"ax",%progbits
 1115              		.align	2
 1116              		.global	CySysWdtEnable
 1117              		.code	16
 1118              		.thumb_func
 1119              		.type	CySysWdtEnable, %function
 1120              	CySysWdtEnable:
 1121              	.LFB19:
 636:Generated_Source\PSoC4/CyLFClk.c **** 
 637:Generated_Source\PSoC4/CyLFClk.c **** 
 638:Generated_Source\PSoC4/CyLFClk.c ****     /*******************************************************************************
 639:Generated_Source\PSoC4/CyLFClk.c ****     * Function Name: CySysWdtEnable
 640:Generated_Source\PSoC4/CyLFClk.c ****     ********************************************************************************
 641:Generated_Source\PSoC4/CyLFClk.c ****     *
 642:Generated_Source\PSoC4/CyLFClk.c ****     * Summary:
 643:Generated_Source\PSoC4/CyLFClk.c ****     *  Enables the specified WDT counters.  All the counters specified in the mask
 644:Generated_Source\PSoC4/CyLFClk.c ****     *  are enabled.
 645:Generated_Source\PSoC4/CyLFClk.c ****     *
ARM GAS  C:\Users\TTSS\AppData\Local\Temp\ccBAPXR4.s 			page 39


 646:Generated_Source\PSoC4/CyLFClk.c ****     * Parameters:
 647:Generated_Source\PSoC4/CyLFClk.c ****     *  counterMask: The mask of all counters to enable.
 648:Generated_Source\PSoC4/CyLFClk.c ****     *       Define                       Counter
 649:Generated_Source\PSoC4/CyLFClk.c ****     *      CY_SYS_WDT_COUNTER0_MASK      0
 650:Generated_Source\PSoC4/CyLFClk.c ****     *      CY_SYS_WDT_COUNTER1_MASK      1
 651:Generated_Source\PSoC4/CyLFClk.c ****     *      CY_SYS_WDT_COUNTER2_MASK      2
 652:Generated_Source\PSoC4/CyLFClk.c ****     *
 653:Generated_Source\PSoC4/CyLFClk.c ****     * Return:
 654:Generated_Source\PSoC4/CyLFClk.c ****     *  None
 655:Generated_Source\PSoC4/CyLFClk.c ****     *
 656:Generated_Source\PSoC4/CyLFClk.c ****     * Side Effects:
 657:Generated_Source\PSoC4/CyLFClk.c ****     *  Enabling or disabling WDT requires 3 LFCLK cycles to come into effect.
 658:Generated_Source\PSoC4/CyLFClk.c ****     *  Therefore, the WDT enable state must not be changed more than once in
 659:Generated_Source\PSoC4/CyLFClk.c ****     *  that period.
 660:Generated_Source\PSoC4/CyLFClk.c ****     *
 661:Generated_Source\PSoC4/CyLFClk.c ****     *  After WDT is enabled, it is illegal to write WDT configuration (WDT_CONFIG)
 662:Generated_Source\PSoC4/CyLFClk.c ****     *  and control (WDT_CONTROL) registers. This means that all WDT functions that
 663:Generated_Source\PSoC4/CyLFClk.c ****     *  contain 'write' in the name (with the exception of CySysWdtSetMatch()
 664:Generated_Source\PSoC4/CyLFClk.c ****     *  function) are illegal to call once WDT enabled.
 665:Generated_Source\PSoC4/CyLFClk.c ****     *
 666:Generated_Source\PSoC4/CyLFClk.c ****     *  PSoC 4100 / PSoC 4200:
 667:Generated_Source\PSoC4/CyLFClk.c ****     *  This function enables ILO.
 668:Generated_Source\PSoC4/CyLFClk.c ****     *
 669:Generated_Source\PSoC4/CyLFClk.c ****     *  PSoC 4100-BL / PSoC 4200-BL and PSoC 4100M / PSoC 4200M:
 670:Generated_Source\PSoC4/CyLFClk.c ****     *  LFLCK should be configured before calling this function. The desired
 671:Generated_Source\PSoC4/CyLFClk.c ****     *  source should be enabled and configured to be the source for LFCLK.
 672:Generated_Source\PSoC4/CyLFClk.c ****     *
 673:Generated_Source\PSoC4/CyLFClk.c ****     *******************************************************************************/
 674:Generated_Source\PSoC4/CyLFClk.c ****     void CySysWdtEnable(uint32 counterMask)
 675:Generated_Source\PSoC4/CyLFClk.c ****     {
 1122              		.loc 2 675 0
 1123              		.cfi_startproc
 1124 0000 80B5     		push	{r7, lr}
 1125              		.cfi_def_cfa_offset 8
 1126              		.cfi_offset 7, -8
 1127              		.cfi_offset 14, -4
 1128 0002 82B0     		sub	sp, sp, #8
 1129              		.cfi_def_cfa_offset 16
 1130 0004 00AF     		add	r7, sp, #0
 1131              		.cfi_def_cfa_register 7
 1132 0006 7860     		str	r0, [r7, #4]
 676:Generated_Source\PSoC4/CyLFClk.c ****         #if (!CY_IP_WCO)
 677:Generated_Source\PSoC4/CyLFClk.c ****             CySysClkIloStart();
 678:Generated_Source\PSoC4/CyLFClk.c ****         #endif /* (!CY_IP_WCO) */
 679:Generated_Source\PSoC4/CyLFClk.c **** 
 680:Generated_Source\PSoC4/CyLFClk.c ****         CY_SYS_WDT_CONTROL_REG |= counterMask;
 1133              		.loc 2 680 0
 1134 0008 144B     		ldr	r3, .L101
 1135 000a 144A     		ldr	r2, .L101
 1136 000c 1168     		ldr	r1, [r2]
 1137 000e 7A68     		ldr	r2, [r7, #4]
 1138 0010 0A43     		orr	r2, r1
 1139 0012 1A60     		str	r2, [r3]
 681:Generated_Source\PSoC4/CyLFClk.c **** 
 682:Generated_Source\PSoC4/CyLFClk.c ****         if(0u != (counterMask & CY_SYS_WDT_COUNTER0_MASK))
 1140              		.loc 2 682 0
 1141 0014 7B68     		ldr	r3, [r7, #4]
ARM GAS  C:\Users\TTSS\AppData\Local\Temp\ccBAPXR4.s 			page 40


 1142 0016 0122     		mov	r2, #1
 1143 0018 1340     		and	r3, r2
 1144 001a 05D0     		beq	.L95
 683:Generated_Source\PSoC4/CyLFClk.c ****         {
 684:Generated_Source\PSoC4/CyLFClk.c ****             while (0u == CySysWdtGetEnabledStatus(CY_SYS_WDT_COUNTER0))
 1145              		.loc 2 684 0
 1146 001c C046     		mov	r8, r8
 1147              	.L96:
 1148              		.loc 2 684 0 is_stmt 0 discriminator 1
 1149 001e 0020     		mov	r0, #0
 1150 0020 FFF7FEFF 		bl	CySysWdtGetEnabledStatus
 1151 0024 031E     		sub	r3, r0, #0
 1152 0026 FAD0     		beq	.L96
 1153              	.L95:
 685:Generated_Source\PSoC4/CyLFClk.c ****             {
 686:Generated_Source\PSoC4/CyLFClk.c ****                 /* Wait for changes to come into effect */
 687:Generated_Source\PSoC4/CyLFClk.c ****             }
 688:Generated_Source\PSoC4/CyLFClk.c ****         }
 689:Generated_Source\PSoC4/CyLFClk.c **** 
 690:Generated_Source\PSoC4/CyLFClk.c ****         if(0u != (counterMask & CY_SYS_WDT_COUNTER1_MASK))
 1154              		.loc 2 690 0 is_stmt 1
 1155 0028 7A68     		ldr	r2, [r7, #4]
 1156 002a 8023     		mov	r3, #128
 1157 002c 5B00     		lsl	r3, r3, #1
 1158 002e 1340     		and	r3, r2
 1159 0030 05D0     		beq	.L97
 691:Generated_Source\PSoC4/CyLFClk.c ****         {
 692:Generated_Source\PSoC4/CyLFClk.c ****             while (0u == CySysWdtGetEnabledStatus(CY_SYS_WDT_COUNTER1))
 1160              		.loc 2 692 0
 1161 0032 C046     		mov	r8, r8
 1162              	.L98:
 1163              		.loc 2 692 0 is_stmt 0 discriminator 1
 1164 0034 0120     		mov	r0, #1
 1165 0036 FFF7FEFF 		bl	CySysWdtGetEnabledStatus
 1166 003a 031E     		sub	r3, r0, #0
 1167 003c FAD0     		beq	.L98
 1168              	.L97:
 693:Generated_Source\PSoC4/CyLFClk.c ****             {
 694:Generated_Source\PSoC4/CyLFClk.c ****                 /* Wait for changes to come into effect */
 695:Generated_Source\PSoC4/CyLFClk.c ****             }
 696:Generated_Source\PSoC4/CyLFClk.c ****         }
 697:Generated_Source\PSoC4/CyLFClk.c **** 
 698:Generated_Source\PSoC4/CyLFClk.c ****         if(0u != (counterMask & CY_SYS_WDT_COUNTER2_MASK))
 1169              		.loc 2 698 0 is_stmt 1
 1170 003e 7A68     		ldr	r2, [r7, #4]
 1171 0040 8023     		mov	r3, #128
 1172 0042 5B02     		lsl	r3, r3, #9
 1173 0044 1340     		and	r3, r2
 1174 0046 05D0     		beq	.L94
 699:Generated_Source\PSoC4/CyLFClk.c ****         {
 700:Generated_Source\PSoC4/CyLFClk.c ****             while (0u == CySysWdtGetEnabledStatus(CY_SYS_WDT_COUNTER2))
 1175              		.loc 2 700 0
 1176 0048 C046     		mov	r8, r8
 1177              	.L100:
 1178              		.loc 2 700 0 is_stmt 0 discriminator 1
 1179 004a 0220     		mov	r0, #2
 1180 004c FFF7FEFF 		bl	CySysWdtGetEnabledStatus
ARM GAS  C:\Users\TTSS\AppData\Local\Temp\ccBAPXR4.s 			page 41


 1181 0050 031E     		sub	r3, r0, #0
 1182 0052 FAD0     		beq	.L100
 1183              	.L94:
 701:Generated_Source\PSoC4/CyLFClk.c ****             {
 702:Generated_Source\PSoC4/CyLFClk.c ****                 /* Wait for changes to come into effect */
 703:Generated_Source\PSoC4/CyLFClk.c ****             }
 704:Generated_Source\PSoC4/CyLFClk.c ****         }
 705:Generated_Source\PSoC4/CyLFClk.c ****     }
 1184              		.loc 2 705 0 is_stmt 1
 1185 0054 BD46     		mov	sp, r7
 1186 0056 02B0     		add	sp, sp, #8
 1187              		@ sp needed
 1188 0058 80BD     		pop	{r7, pc}
 1189              	.L102:
 1190 005a C046     		.align	2
 1191              	.L101:
 1192 005c 10020B40 		.word	1074463248
 1193              		.cfi_endproc
 1194              	.LFE19:
 1195              		.size	CySysWdtEnable, .-CySysWdtEnable
 1196              		.section	.text.CySysWdtDisable,"ax",%progbits
 1197              		.align	2
 1198              		.global	CySysWdtDisable
 1199              		.code	16
 1200              		.thumb_func
 1201              		.type	CySysWdtDisable, %function
 1202              	CySysWdtDisable:
 1203              	.LFB20:
 706:Generated_Source\PSoC4/CyLFClk.c **** 
 707:Generated_Source\PSoC4/CyLFClk.c **** 
 708:Generated_Source\PSoC4/CyLFClk.c ****     /*******************************************************************************
 709:Generated_Source\PSoC4/CyLFClk.c ****     * Function Name: CySysWdtDisable
 710:Generated_Source\PSoC4/CyLFClk.c ****     ********************************************************************************
 711:Generated_Source\PSoC4/CyLFClk.c ****     *
 712:Generated_Source\PSoC4/CyLFClk.c ****     * Summary:
 713:Generated_Source\PSoC4/CyLFClk.c ****     *  Disables the specified WDT counters. All the counters specified in the mask
 714:Generated_Source\PSoC4/CyLFClk.c ****     *  are disabled. The function waits for the changes to come into effect.
 715:Generated_Source\PSoC4/CyLFClk.c ****     *
 716:Generated_Source\PSoC4/CyLFClk.c ****     * Parameters:
 717:Generated_Source\PSoC4/CyLFClk.c ****     *  uint32 counterMask: The mask of all counters to disable
 718:Generated_Source\PSoC4/CyLFClk.c ****     *    Define                       Counter
 719:Generated_Source\PSoC4/CyLFClk.c ****     *   CY_SYS_WDT_COUNTER0_MASK      0
 720:Generated_Source\PSoC4/CyLFClk.c ****     *   CY_SYS_WDT_COUNTER1_MASK      1
 721:Generated_Source\PSoC4/CyLFClk.c ****     *   CY_SYS_WDT_COUNTER2_MASK      2
 722:Generated_Source\PSoC4/CyLFClk.c ****     *
 723:Generated_Source\PSoC4/CyLFClk.c ****     * Return:
 724:Generated_Source\PSoC4/CyLFClk.c ****     *   None.
 725:Generated_Source\PSoC4/CyLFClk.c ****     *
 726:Generated_Source\PSoC4/CyLFClk.c ****     *******************************************************************************/
 727:Generated_Source\PSoC4/CyLFClk.c ****     void CySysWdtDisable(uint32 counterMask)
 728:Generated_Source\PSoC4/CyLFClk.c ****     {
 1204              		.loc 2 728 0
 1205              		.cfi_startproc
 1206 0000 80B5     		push	{r7, lr}
 1207              		.cfi_def_cfa_offset 8
 1208              		.cfi_offset 7, -8
 1209              		.cfi_offset 14, -4
ARM GAS  C:\Users\TTSS\AppData\Local\Temp\ccBAPXR4.s 			page 42


 1210 0002 82B0     		sub	sp, sp, #8
 1211              		.cfi_def_cfa_offset 16
 1212 0004 00AF     		add	r7, sp, #0
 1213              		.cfi_def_cfa_register 7
 1214 0006 7860     		str	r0, [r7, #4]
 729:Generated_Source\PSoC4/CyLFClk.c ****         if (0uL == CySysWdtLocked())
 1215              		.loc 2 729 0
 1216 0008 FFF7FEFF 		bl	CySysWdtLocked
 1217 000c 031E     		sub	r3, r0, #0
 1218 000e 26D1     		bne	.L103
 730:Generated_Source\PSoC4/CyLFClk.c ****         {
 731:Generated_Source\PSoC4/CyLFClk.c ****             CY_SYS_WDT_CONTROL_REG &= ~counterMask;
 1219              		.loc 2 731 0
 1220 0010 144B     		ldr	r3, .L110
 1221 0012 144A     		ldr	r2, .L110
 1222 0014 1268     		ldr	r2, [r2]
 1223 0016 7968     		ldr	r1, [r7, #4]
 1224 0018 C943     		mvn	r1, r1
 1225 001a 0A40     		and	r2, r1
 1226 001c 1A60     		str	r2, [r3]
 732:Generated_Source\PSoC4/CyLFClk.c **** 
 733:Generated_Source\PSoC4/CyLFClk.c ****             if(0u != (counterMask & CY_SYS_WDT_COUNTER0_MASK))
 1227              		.loc 2 733 0
 1228 001e 7B68     		ldr	r3, [r7, #4]
 1229 0020 0122     		mov	r2, #1
 1230 0022 1340     		and	r3, r2
 1231 0024 05D0     		beq	.L105
 734:Generated_Source\PSoC4/CyLFClk.c ****             {
 735:Generated_Source\PSoC4/CyLFClk.c ****                 while (0u != CySysWdtGetEnabledStatus(CY_SYS_WDT_COUNTER0))
 1232              		.loc 2 735 0
 1233 0026 C046     		mov	r8, r8
 1234              	.L106:
 1235              		.loc 2 735 0 is_stmt 0 discriminator 1
 1236 0028 0020     		mov	r0, #0
 1237 002a FFF7FEFF 		bl	CySysWdtGetEnabledStatus
 1238 002e 031E     		sub	r3, r0, #0
 1239 0030 FAD1     		bne	.L106
 1240              	.L105:
 736:Generated_Source\PSoC4/CyLFClk.c ****                 {
 737:Generated_Source\PSoC4/CyLFClk.c ****                     /* Wait for changes to come into effect */
 738:Generated_Source\PSoC4/CyLFClk.c ****                 }
 739:Generated_Source\PSoC4/CyLFClk.c ****             }
 740:Generated_Source\PSoC4/CyLFClk.c **** 
 741:Generated_Source\PSoC4/CyLFClk.c ****             if(0u != (counterMask & CY_SYS_WDT_COUNTER1_MASK))
 1241              		.loc 2 741 0 is_stmt 1
 1242 0032 7A68     		ldr	r2, [r7, #4]
 1243 0034 8023     		mov	r3, #128
 1244 0036 5B00     		lsl	r3, r3, #1
 1245 0038 1340     		and	r3, r2
 1246 003a 05D0     		beq	.L107
 742:Generated_Source\PSoC4/CyLFClk.c ****             {
 743:Generated_Source\PSoC4/CyLFClk.c ****                 while (0u != CySysWdtGetEnabledStatus(CY_SYS_WDT_COUNTER1))
 1247              		.loc 2 743 0
 1248 003c C046     		mov	r8, r8
 1249              	.L108:
 1250              		.loc 2 743 0 is_stmt 0 discriminator 1
 1251 003e 0120     		mov	r0, #1
ARM GAS  C:\Users\TTSS\AppData\Local\Temp\ccBAPXR4.s 			page 43


 1252 0040 FFF7FEFF 		bl	CySysWdtGetEnabledStatus
 1253 0044 031E     		sub	r3, r0, #0
 1254 0046 FAD1     		bne	.L108
 1255              	.L107:
 744:Generated_Source\PSoC4/CyLFClk.c ****                 {
 745:Generated_Source\PSoC4/CyLFClk.c ****                     /* Wait for changes to come into effect */
 746:Generated_Source\PSoC4/CyLFClk.c ****                 }
 747:Generated_Source\PSoC4/CyLFClk.c ****             }
 748:Generated_Source\PSoC4/CyLFClk.c **** 
 749:Generated_Source\PSoC4/CyLFClk.c ****             if(0u != (counterMask & CY_SYS_WDT_COUNTER2_MASK))
 1256              		.loc 2 749 0 is_stmt 1
 1257 0048 7A68     		ldr	r2, [r7, #4]
 1258 004a 8023     		mov	r3, #128
 1259 004c 5B02     		lsl	r3, r3, #9
 1260 004e 1340     		and	r3, r2
 1261 0050 05D0     		beq	.L103
 750:Generated_Source\PSoC4/CyLFClk.c ****             {
 751:Generated_Source\PSoC4/CyLFClk.c ****                 while (0u != CySysWdtGetEnabledStatus(CY_SYS_WDT_COUNTER2))
 1262              		.loc 2 751 0
 1263 0052 C046     		mov	r8, r8
 1264              	.L109:
 1265              		.loc 2 751 0 is_stmt 0 discriminator 1
 1266 0054 0220     		mov	r0, #2
 1267 0056 FFF7FEFF 		bl	CySysWdtGetEnabledStatus
 1268 005a 031E     		sub	r3, r0, #0
 1269 005c FAD1     		bne	.L109
 1270              	.L103:
 752:Generated_Source\PSoC4/CyLFClk.c ****                 {
 753:Generated_Source\PSoC4/CyLFClk.c ****                     /* Wait for changes to come into effect */
 754:Generated_Source\PSoC4/CyLFClk.c ****                 }
 755:Generated_Source\PSoC4/CyLFClk.c ****             }
 756:Generated_Source\PSoC4/CyLFClk.c ****         }
 757:Generated_Source\PSoC4/CyLFClk.c ****     }
 1271              		.loc 2 757 0 is_stmt 1
 1272 005e BD46     		mov	sp, r7
 1273 0060 02B0     		add	sp, sp, #8
 1274              		@ sp needed
 1275 0062 80BD     		pop	{r7, pc}
 1276              	.L111:
 1277              		.align	2
 1278              	.L110:
 1279 0064 10020B40 		.word	1074463248
 1280              		.cfi_endproc
 1281              	.LFE20:
 1282              		.size	CySysWdtDisable, .-CySysWdtDisable
 1283              		.section	.text.CySysWdtSetCascade,"ax",%progbits
 1284              		.align	2
 1285              		.global	CySysWdtSetCascade
 1286              		.code	16
 1287              		.thumb_func
 1288              		.type	CySysWdtSetCascade, %function
 1289              	CySysWdtSetCascade:
 1290              	.LFB21:
 758:Generated_Source\PSoC4/CyLFClk.c **** 
 759:Generated_Source\PSoC4/CyLFClk.c **** 
 760:Generated_Source\PSoC4/CyLFClk.c ****     /*******************************************************************************
 761:Generated_Source\PSoC4/CyLFClk.c ****     * Function Name: CySysWdtSetCascade
ARM GAS  C:\Users\TTSS\AppData\Local\Temp\ccBAPXR4.s 			page 44


 762:Generated_Source\PSoC4/CyLFClk.c ****     ********************************************************************************
 763:Generated_Source\PSoC4/CyLFClk.c ****     *
 764:Generated_Source\PSoC4/CyLFClk.c ****     * Summary:
 765:Generated_Source\PSoC4/CyLFClk.c ****     *   Writes the two WDT cascade values based on the combination of mask values
 766:Generated_Source\PSoC4/CyLFClk.c ****     *   specified.
 767:Generated_Source\PSoC4/CyLFClk.c ****     *
 768:Generated_Source\PSoC4/CyLFClk.c ****     * Parameters:
 769:Generated_Source\PSoC4/CyLFClk.c ****     *   cascadeMask: The mask value used to set or clear the cascade values.
 770:Generated_Source\PSoC4/CyLFClk.c ****     *   Define                     Cascade
 771:Generated_Source\PSoC4/CyLFClk.c ****     *   CY_SYS_WDT_CASCADE_NONE    Neither
 772:Generated_Source\PSoC4/CyLFClk.c ****     *   CY_SYS_WDT_CASCADE_01      Cascade 01
 773:Generated_Source\PSoC4/CyLFClk.c ****     *   CY_SYS_WDT_CASCADE_12      Cascade 12
 774:Generated_Source\PSoC4/CyLFClk.c ****     *
 775:Generated_Source\PSoC4/CyLFClk.c ****     *   To set both cascade modes, two defines should be ORed:
 776:Generated_Source\PSoC4/CyLFClk.c ****     *   (CY_SYS_WDT_CASCADE_01 | CY_SYS_WDT_CASCADE_12)
 777:Generated_Source\PSoC4/CyLFClk.c ****     *
 778:Generated_Source\PSoC4/CyLFClk.c ****     * Return:
 779:Generated_Source\PSoC4/CyLFClk.c ****     *   None.
 780:Generated_Source\PSoC4/CyLFClk.c ****     *
 781:Generated_Source\PSoC4/CyLFClk.c ****     * Side effects:
 782:Generated_Source\PSoC4/CyLFClk.c ****     *   If only one cascade mask is specified, the second cascade is disabled.
 783:Generated_Source\PSoC4/CyLFClk.c ****     *   To set both cascade modes, two defines should be ORed:
 784:Generated_Source\PSoC4/CyLFClk.c ****     *    (CY_SYS_WDT_CASCADE_01 | CY_SYS_WDT_CASCADE_12).
 785:Generated_Source\PSoC4/CyLFClk.c ****     *
 786:Generated_Source\PSoC4/CyLFClk.c ****     *   WDT counters that are part of the specified cascade should be disabled.
 787:Generated_Source\PSoC4/CyLFClk.c ****     *   Otherwise this function call has no effect. If the specified
 788:Generated_Source\PSoC4/CyLFClk.c ****     *   counter is enabled, call CySysWdtDisable() function with the corresponding
 789:Generated_Source\PSoC4/CyLFClk.c ****     *   parameter to disable the specified counter and wait for it to stop. This may
 790:Generated_Source\PSoC4/CyLFClk.c ****     *   take up to 3 LFCLK cycles.
 791:Generated_Source\PSoC4/CyLFClk.c ****     *
 792:Generated_Source\PSoC4/CyLFClk.c ****     *******************************************************************************/
 793:Generated_Source\PSoC4/CyLFClk.c ****     void CySysWdtSetCascade(uint32 cascadeMask)
 794:Generated_Source\PSoC4/CyLFClk.c ****     {
 1291              		.loc 2 794 0
 1292              		.cfi_startproc
 1293 0000 90B5     		push	{r4, r7, lr}
 1294              		.cfi_def_cfa_offset 12
 1295              		.cfi_offset 4, -12
 1296              		.cfi_offset 7, -8
 1297              		.cfi_offset 14, -4
 1298 0002 85B0     		sub	sp, sp, #20
 1299              		.cfi_def_cfa_offset 32
 1300 0004 00AF     		add	r7, sp, #0
 1301              		.cfi_def_cfa_register 7
 1302 0006 7860     		str	r0, [r7, #4]
 795:Generated_Source\PSoC4/CyLFClk.c ****         uint32 configRegValue;
 796:Generated_Source\PSoC4/CyLFClk.c ****         uint32 countersEnableStatus;
 797:Generated_Source\PSoC4/CyLFClk.c **** 
 798:Generated_Source\PSoC4/CyLFClk.c ****         countersEnableStatus = CySysWdtGetEnabledStatus(CY_SYS_WDT_COUNTER0) |
 1303              		.loc 2 798 0
 1304 0008 0020     		mov	r0, #0
 1305 000a FFF7FEFF 		bl	CySysWdtGetEnabledStatus
 1306 000e 041C     		mov	r4, r0
 799:Generated_Source\PSoC4/CyLFClk.c ****                             CySysWdtGetEnabledStatus(CY_SYS_WDT_COUNTER1) |
 1307              		.loc 2 799 0
 1308 0010 0120     		mov	r0, #1
 1309 0012 FFF7FEFF 		bl	CySysWdtGetEnabledStatus
ARM GAS  C:\Users\TTSS\AppData\Local\Temp\ccBAPXR4.s 			page 45


 1310 0016 031C     		mov	r3, r0
 798:Generated_Source\PSoC4/CyLFClk.c ****                             CySysWdtGetEnabledStatus(CY_SYS_WDT_COUNTER1) |
 1311              		.loc 2 798 0
 1312 0018 1C43     		orr	r4, r3
 800:Generated_Source\PSoC4/CyLFClk.c ****                             CySysWdtGetEnabledStatus(CY_SYS_WDT_COUNTER2);
 1313              		.loc 2 800 0
 1314 001a 0220     		mov	r0, #2
 1315 001c FFF7FEFF 		bl	CySysWdtGetEnabledStatus
 1316 0020 031C     		mov	r3, r0
 798:Generated_Source\PSoC4/CyLFClk.c ****                             CySysWdtGetEnabledStatus(CY_SYS_WDT_COUNTER1) |
 1317              		.loc 2 798 0
 1318 0022 2343     		orr	r3, r4
 1319 0024 FB60     		str	r3, [r7, #12]
 801:Generated_Source\PSoC4/CyLFClk.c **** 
 802:Generated_Source\PSoC4/CyLFClk.c ****         if (0u == countersEnableStatus)
 1320              		.loc 2 802 0
 1321 0026 FB68     		ldr	r3, [r7, #12]
 1322 0028 002B     		cmp	r3, #0
 1323 002a 0DD1     		bne	.L112
 803:Generated_Source\PSoC4/CyLFClk.c ****         {
 804:Generated_Source\PSoC4/CyLFClk.c ****             configRegValue = CY_SYS_WDT_CONFIG_REG;
 1324              		.loc 2 804 0
 1325 002c 084B     		ldr	r3, .L114
 1326 002e 1B68     		ldr	r3, [r3]
 1327 0030 BB60     		str	r3, [r7, #8]
 805:Generated_Source\PSoC4/CyLFClk.c ****             configRegValue &= ((uint32)(~(CY_SYS_WDT_CASCADE_01|CY_SYS_WDT_CASCADE_12)));
 1328              		.loc 2 805 0
 1329 0032 BB68     		ldr	r3, [r7, #8]
 1330 0034 074A     		ldr	r2, .L114+4
 1331 0036 1340     		and	r3, r2
 1332 0038 BB60     		str	r3, [r7, #8]
 806:Generated_Source\PSoC4/CyLFClk.c ****             configRegValue |= cascadeMask;
 1333              		.loc 2 806 0
 1334 003a BA68     		ldr	r2, [r7, #8]
 1335 003c 7B68     		ldr	r3, [r7, #4]
 1336 003e 1343     		orr	r3, r2
 1337 0040 BB60     		str	r3, [r7, #8]
 807:Generated_Source\PSoC4/CyLFClk.c ****             CY_SYS_WDT_CONFIG_REG = configRegValue;
 1338              		.loc 2 807 0
 1339 0042 034B     		ldr	r3, .L114
 1340 0044 BA68     		ldr	r2, [r7, #8]
 1341 0046 1A60     		str	r2, [r3]
 1342              	.L112:
 808:Generated_Source\PSoC4/CyLFClk.c ****         }
 809:Generated_Source\PSoC4/CyLFClk.c ****     }
 1343              		.loc 2 809 0
 1344 0048 BD46     		mov	sp, r7
 1345 004a 05B0     		add	sp, sp, #20
 1346              		@ sp needed
 1347 004c 90BD     		pop	{r4, r7, pc}
 1348              	.L115:
 1349 004e C046     		.align	2
 1350              	.L114:
 1351 0050 0C020B40 		.word	1074463244
 1352 0054 F7F7FFFF 		.word	-2057
 1353              		.cfi_endproc
 1354              	.LFE21:
ARM GAS  C:\Users\TTSS\AppData\Local\Temp\ccBAPXR4.s 			page 46


 1355              		.size	CySysWdtSetCascade, .-CySysWdtSetCascade
 1356              		.section	.text.CySysWdtGetCascade,"ax",%progbits
 1357              		.align	2
 1358              		.global	CySysWdtGetCascade
 1359              		.code	16
 1360              		.thumb_func
 1361              		.type	CySysWdtGetCascade, %function
 1362              	CySysWdtGetCascade:
 1363              	.LFB22:
 810:Generated_Source\PSoC4/CyLFClk.c **** 
 811:Generated_Source\PSoC4/CyLFClk.c **** 
 812:Generated_Source\PSoC4/CyLFClk.c ****     /*******************************************************************************
 813:Generated_Source\PSoC4/CyLFClk.c ****     * Function Name: CySysWdtGetCascade
 814:Generated_Source\PSoC4/CyLFClk.c ****     ********************************************************************************
 815:Generated_Source\PSoC4/CyLFClk.c ****     *
 816:Generated_Source\PSoC4/CyLFClk.c ****     * Summary:
 817:Generated_Source\PSoC4/CyLFClk.c ****     *   Reads the two WDT cascade values returning a mask of the bits set.
 818:Generated_Source\PSoC4/CyLFClk.c ****     *
 819:Generated_Source\PSoC4/CyLFClk.c ****     * Parameters:
 820:Generated_Source\PSoC4/CyLFClk.c ****     *   None.
 821:Generated_Source\PSoC4/CyLFClk.c ****     *
 822:Generated_Source\PSoC4/CyLFClk.c ****     * Return:
 823:Generated_Source\PSoC4/CyLFClk.c ****     *   The mask of the cascade values set.
 824:Generated_Source\PSoC4/CyLFClk.c ****     *   Define                     Cascade
 825:Generated_Source\PSoC4/CyLFClk.c ****     *   CY_SYS_WDT_CASCADE_NONE    Neither
 826:Generated_Source\PSoC4/CyLFClk.c ****     *   CY_SYS_WDT_CASCADE_01      Cascade 01
 827:Generated_Source\PSoC4/CyLFClk.c ****     *   CY_SYS_WDT_CASCADE_12      Cascade 12
 828:Generated_Source\PSoC4/CyLFClk.c ****     *
 829:Generated_Source\PSoC4/CyLFClk.c ****     *******************************************************************************/
 830:Generated_Source\PSoC4/CyLFClk.c ****     uint32 CySysWdtGetCascade(void)
 831:Generated_Source\PSoC4/CyLFClk.c ****     {
 1364              		.loc 2 831 0
 1365              		.cfi_startproc
 1366 0000 80B5     		push	{r7, lr}
 1367              		.cfi_def_cfa_offset 8
 1368              		.cfi_offset 7, -8
 1369              		.cfi_offset 14, -4
 1370 0002 00AF     		add	r7, sp, #0
 1371              		.cfi_def_cfa_register 7
 832:Generated_Source\PSoC4/CyLFClk.c ****         return (CY_SYS_WDT_CONFIG_REG & (CY_SYS_WDT_CASCADE_01 | CY_SYS_WDT_CASCADE_12));
 1372              		.loc 2 832 0
 1373 0004 034B     		ldr	r3, .L118
 1374 0006 1B68     		ldr	r3, [r3]
 1375 0008 034A     		ldr	r2, .L118+4
 1376 000a 1340     		and	r3, r2
 833:Generated_Source\PSoC4/CyLFClk.c ****     }
 1377              		.loc 2 833 0
 1378 000c 181C     		mov	r0, r3
 1379 000e BD46     		mov	sp, r7
 1380              		@ sp needed
 1381 0010 80BD     		pop	{r7, pc}
 1382              	.L119:
 1383 0012 C046     		.align	2
 1384              	.L118:
 1385 0014 0C020B40 		.word	1074463244
 1386 0018 08080000 		.word	2056
 1387              		.cfi_endproc
ARM GAS  C:\Users\TTSS\AppData\Local\Temp\ccBAPXR4.s 			page 47


 1388              	.LFE22:
 1389              		.size	CySysWdtGetCascade, .-CySysWdtGetCascade
 1390              		.section	.text.CySysWdtSetMatch,"ax",%progbits
 1391              		.align	2
 1392              		.global	CySysWdtSetMatch
 1393              		.code	16
 1394              		.thumb_func
 1395              		.type	CySysWdtSetMatch, %function
 1396              	CySysWdtSetMatch:
 1397              	.LFB23:
 834:Generated_Source\PSoC4/CyLFClk.c **** 
 835:Generated_Source\PSoC4/CyLFClk.c **** 
 836:Generated_Source\PSoC4/CyLFClk.c ****     /*******************************************************************************
 837:Generated_Source\PSoC4/CyLFClk.c ****     * Function Name: CySysWdtSetMatch
 838:Generated_Source\PSoC4/CyLFClk.c ****     ********************************************************************************
 839:Generated_Source\PSoC4/CyLFClk.c ****     *
 840:Generated_Source\PSoC4/CyLFClk.c ****     * Summary:
 841:Generated_Source\PSoC4/CyLFClk.c ****     *  Configures the WDT counter match comparison value.
 842:Generated_Source\PSoC4/CyLFClk.c ****     *
 843:Generated_Source\PSoC4/CyLFClk.c ****     * Parameters:
 844:Generated_Source\PSoC4/CyLFClk.c ****     *  counterNum:
 845:Generated_Source\PSoC4/CyLFClk.c ****     *   Valid range [0-1]. The number of the WDT counter. The match values are not
 846:Generated_Source\PSoC4/CyLFClk.c ****     *   supported by counter 2.
 847:Generated_Source\PSoC4/CyLFClk.c ****     *
 848:Generated_Source\PSoC4/CyLFClk.c ****     *  match:
 849:Generated_Source\PSoC4/CyLFClk.c ****     *   Valid range [0-65535]. The value to be used to match against the counter.
 850:Generated_Source\PSoC4/CyLFClk.c ****     *
 851:Generated_Source\PSoC4/CyLFClk.c ****     * Return:
 852:Generated_Source\PSoC4/CyLFClk.c ****     *   None.
 853:Generated_Source\PSoC4/CyLFClk.c ****     *
 854:Generated_Source\PSoC4/CyLFClk.c ****     *******************************************************************************/
 855:Generated_Source\PSoC4/CyLFClk.c ****     void CySysWdtSetMatch(uint32 counterNum, uint32 match)
 856:Generated_Source\PSoC4/CyLFClk.c ****     {
 1398              		.loc 2 856 0
 1399              		.cfi_startproc
 1400 0000 80B5     		push	{r7, lr}
 1401              		.cfi_def_cfa_offset 8
 1402              		.cfi_offset 7, -8
 1403              		.cfi_offset 14, -4
 1404 0002 84B0     		sub	sp, sp, #16
 1405              		.cfi_def_cfa_offset 24
 1406 0004 00AF     		add	r7, sp, #0
 1407              		.cfi_def_cfa_register 7
 1408 0006 7860     		str	r0, [r7, #4]
 1409 0008 3960     		str	r1, [r7]
 857:Generated_Source\PSoC4/CyLFClk.c ****         uint32 regValue;
 858:Generated_Source\PSoC4/CyLFClk.c **** 
 859:Generated_Source\PSoC4/CyLFClk.c ****         CYASSERT((counterNum == CY_SYS_WDT_COUNTER0) ||
 1410              		.loc 2 859 0
 1411 000a 7B68     		ldr	r3, [r7, #4]
 1412 000c 002B     		cmp	r3, #0
 1413 000e 02D0     		beq	.L121
 1414              		.loc 2 859 0 is_stmt 0 discriminator 2
 1415 0010 7B68     		ldr	r3, [r7, #4]
 1416 0012 012B     		cmp	r3, #1
 1417 0014 01D1     		bne	.L122
 1418              	.L121:
ARM GAS  C:\Users\TTSS\AppData\Local\Temp\ccBAPXR4.s 			page 48


 1419              		.loc 2 859 0 discriminator 3
 1420 0016 0123     		mov	r3, #1
 1421 0018 00E0     		b	.L123
 1422              	.L122:
 1423              		.loc 2 859 0 discriminator 4
 1424 001a 0023     		mov	r3, #0
 1425              	.L123:
 1426              		.loc 2 859 0 discriminator 6
 1427 001c 002B     		cmp	r3, #0
 1428 001e 02D1     		bne	.L124
 1429              		.loc 2 859 0 discriminator 7
 1430 0020 0020     		mov	r0, #0
 1431 0022 FFF7FEFF 		bl	CyHalt
 1432              	.L124:
 860:Generated_Source\PSoC4/CyLFClk.c ****                  (counterNum == CY_SYS_WDT_COUNTER1));
 861:Generated_Source\PSoC4/CyLFClk.c **** 
 862:Generated_Source\PSoC4/CyLFClk.c ****         /* Wait for previous changes to come into effect */
 863:Generated_Source\PSoC4/CyLFClk.c ****         CyDelayUs(CY_SYS_WDT_3LFCLK_DELAY_US);
 1433              		.loc 2 863 0 is_stmt 1
 1434 0026 174B     		ldr	r3, .L129
 1435 0028 1B68     		ldr	r3, [r3]
 1436 002a 9B0F     		lsr	r3, r3, #30
 1437 002c 9B07     		lsl	r3, r3, #30
 1438 002e 01D1     		bne	.L125
 1439              		.loc 2 863 0 is_stmt 0 discriminator 1
 1440 0030 C923     		mov	r3, #201
 1441 0032 00E0     		b	.L126
 1442              	.L125:
 1443              		.loc 2 863 0 discriminator 2
 1444 0034 5D23     		mov	r3, #93
 1445              	.L126:
 1446              		.loc 2 863 0 discriminator 4
 1447 0036 181C     		mov	r0, r3
 1448 0038 FFF7FEFF 		bl	CyDelayUs
 864:Generated_Source\PSoC4/CyLFClk.c **** 
 865:Generated_Source\PSoC4/CyLFClk.c ****         regValue = CY_SYS_WDT_MATCH_REG;
 1449              		.loc 2 865 0 is_stmt 1 discriminator 4
 1450 003c 124B     		ldr	r3, .L129+4
 1451 003e 1B68     		ldr	r3, [r3]
 1452 0040 FB60     		str	r3, [r7, #12]
 866:Generated_Source\PSoC4/CyLFClk.c ****         regValue &= (uint32)~((uint32)(CY_SYS_WDT_LOWER_16BITS_MASK << (counterNum * CY_SYS_WDT_CNT
 1453              		.loc 2 866 0 discriminator 4
 1454 0042 7B68     		ldr	r3, [r7, #4]
 1455 0044 1B01     		lsl	r3, r3, #4
 1456 0046 1A1C     		mov	r2, r3
 1457 0048 104B     		ldr	r3, .L129+8
 1458 004a 9340     		lsl	r3, r3, r2
 1459 004c DA43     		mvn	r2, r3
 1460 004e FB68     		ldr	r3, [r7, #12]
 1461 0050 1340     		and	r3, r2
 1462 0052 FB60     		str	r3, [r7, #12]
 867:Generated_Source\PSoC4/CyLFClk.c ****         CY_SYS_WDT_MATCH_REG = (regValue | (match << (counterNum * CY_SYS_WDT_CNT_MATCH_SHIFT)));
 1463              		.loc 2 867 0 discriminator 4
 1464 0054 0C4B     		ldr	r3, .L129+4
 1465 0056 7A68     		ldr	r2, [r7, #4]
 1466 0058 1201     		lsl	r2, r2, #4
 1467 005a 111C     		mov	r1, r2
ARM GAS  C:\Users\TTSS\AppData\Local\Temp\ccBAPXR4.s 			page 49


 1468 005c 3A68     		ldr	r2, [r7]
 1469 005e 8A40     		lsl	r2, r2, r1
 1470 0060 111C     		mov	r1, r2
 1471 0062 FA68     		ldr	r2, [r7, #12]
 1472 0064 0A43     		orr	r2, r1
 1473 0066 1A60     		str	r2, [r3]
 868:Generated_Source\PSoC4/CyLFClk.c **** 
 869:Generated_Source\PSoC4/CyLFClk.c ****         /* Make sure match synchronization has started */
 870:Generated_Source\PSoC4/CyLFClk.c ****         CyDelayUs(CY_SYS_WDT_1LFCLK_DELAY_US);
 1474              		.loc 2 870 0 discriminator 4
 1475 0068 064B     		ldr	r3, .L129
 1476 006a 1B68     		ldr	r3, [r3]
 1477 006c 9B0F     		lsr	r3, r3, #30
 1478 006e 9B07     		lsl	r3, r3, #30
 1479 0070 01D1     		bne	.L127
 1480              		.loc 2 870 0 is_stmt 0 discriminator 1
 1481 0072 4323     		mov	r3, #67
 1482 0074 00E0     		b	.L128
 1483              	.L127:
 1484              		.loc 2 870 0 discriminator 2
 1485 0076 1F23     		mov	r3, #31
 1486              	.L128:
 1487              		.loc 2 870 0 discriminator 4
 1488 0078 181C     		mov	r0, r3
 1489 007a FFF7FEFF 		bl	CyDelayUs
 871:Generated_Source\PSoC4/CyLFClk.c ****     }
 1490              		.loc 2 871 0 is_stmt 1 discriminator 4
 1491 007e BD46     		mov	sp, r7
 1492 0080 04B0     		add	sp, sp, #16
 1493              		@ sp needed
 1494 0082 80BD     		pop	{r7, pc}
 1495              	.L130:
 1496              		.align	2
 1497              	.L129:
 1498 0084 0C020B40 		.word	1074463244
 1499 0088 08020B40 		.word	1074463240
 1500 008c FFFF0000 		.word	65535
 1501              		.cfi_endproc
 1502              	.LFE23:
 1503              		.size	CySysWdtSetMatch, .-CySysWdtSetMatch
 1504              		.section	.text.CySysWdtSetToggleBit,"ax",%progbits
 1505              		.align	2
 1506              		.global	CySysWdtSetToggleBit
 1507              		.code	16
 1508              		.thumb_func
 1509              		.type	CySysWdtSetToggleBit, %function
 1510              	CySysWdtSetToggleBit:
 1511              	.LFB24:
 872:Generated_Source\PSoC4/CyLFClk.c **** 
 873:Generated_Source\PSoC4/CyLFClk.c **** 
 874:Generated_Source\PSoC4/CyLFClk.c ****     /*******************************************************************************
 875:Generated_Source\PSoC4/CyLFClk.c ****     * Function Name: CySysWdtSetToggleBit
 876:Generated_Source\PSoC4/CyLFClk.c ****     ********************************************************************************
 877:Generated_Source\PSoC4/CyLFClk.c ****     *
 878:Generated_Source\PSoC4/CyLFClk.c ****     * Summary:
 879:Generated_Source\PSoC4/CyLFClk.c ****     *  Configures which bit in WDT counter 2 to monitor for a toggle. When that
 880:Generated_Source\PSoC4/CyLFClk.c ****     *  bit toggles, an interrupt is generated if the mode for counter 2 has
ARM GAS  C:\Users\TTSS\AppData\Local\Temp\ccBAPXR4.s 			page 50


 881:Generated_Source\PSoC4/CyLFClk.c ****     *  enabled interrupts.
 882:Generated_Source\PSoC4/CyLFClk.c ****     *
 883:Generated_Source\PSoC4/CyLFClk.c ****     * Parameters:
 884:Generated_Source\PSoC4/CyLFClk.c ****     *  bit:
 885:Generated_Source\PSoC4/CyLFClk.c ****     *   Valid range [0-31].  Counter 2 bit to monitor for a toggle.
 886:Generated_Source\PSoC4/CyLFClk.c ****     *
 887:Generated_Source\PSoC4/CyLFClk.c ****     * Return:
 888:Generated_Source\PSoC4/CyLFClk.c ****     *   None.
 889:Generated_Source\PSoC4/CyLFClk.c ****     *
 890:Generated_Source\PSoC4/CyLFClk.c ****     * Side effects:
 891:Generated_Source\PSoC4/CyLFClk.c ****     *   WDT Counter 2 should be disabled. Otherwise this function call has no
 892:Generated_Source\PSoC4/CyLFClk.c ****     *   effect.
 893:Generated_Source\PSoC4/CyLFClk.c ****     *
 894:Generated_Source\PSoC4/CyLFClk.c ****     *   If the specified counter is enabled, call the CySysWdtDisable() function with
 895:Generated_Source\PSoC4/CyLFClk.c ****     *   the corresponding parameter to disable the specified counter and wait for it to
 896:Generated_Source\PSoC4/CyLFClk.c ****     *   stop. This may take up to 3 LFCLK cycles.
 897:Generated_Source\PSoC4/CyLFClk.c ****     *
 898:Generated_Source\PSoC4/CyLFClk.c ****     *******************************************************************************/
 899:Generated_Source\PSoC4/CyLFClk.c ****     void CySysWdtSetToggleBit(uint32 bits)
 900:Generated_Source\PSoC4/CyLFClk.c ****     {
 1512              		.loc 2 900 0
 1513              		.cfi_startproc
 1514 0000 80B5     		push	{r7, lr}
 1515              		.cfi_def_cfa_offset 8
 1516              		.cfi_offset 7, -8
 1517              		.cfi_offset 14, -4
 1518 0002 84B0     		sub	sp, sp, #16
 1519              		.cfi_def_cfa_offset 24
 1520 0004 00AF     		add	r7, sp, #0
 1521              		.cfi_def_cfa_register 7
 1522 0006 7860     		str	r0, [r7, #4]
 901:Generated_Source\PSoC4/CyLFClk.c ****         uint32 configRegValue;
 902:Generated_Source\PSoC4/CyLFClk.c **** 
 903:Generated_Source\PSoC4/CyLFClk.c ****         if (0u == CySysWdtGetEnabledStatus(CY_SYS_WDT_COUNTER2))
 1523              		.loc 2 903 0
 1524 0008 0220     		mov	r0, #2
 1525 000a FFF7FEFF 		bl	CySysWdtGetEnabledStatus
 1526 000e 031E     		sub	r3, r0, #0
 1527 0010 10D1     		bne	.L131
 904:Generated_Source\PSoC4/CyLFClk.c ****         {
 905:Generated_Source\PSoC4/CyLFClk.c ****             configRegValue = CY_SYS_WDT_CONFIG_REG;
 1528              		.loc 2 905 0
 1529 0012 0A4B     		ldr	r3, .L133
 1530 0014 1B68     		ldr	r3, [r3]
 1531 0016 FB60     		str	r3, [r7, #12]
 906:Generated_Source\PSoC4/CyLFClk.c ****             configRegValue &= (uint32)(~((uint32)(CY_SYS_WDT_CONFIG_BITS2_MASK << CY_SYS_WDT_CONFIG
 1532              		.loc 2 906 0
 1533 0018 FB68     		ldr	r3, [r7, #12]
 1534 001a 094A     		ldr	r2, .L133+4
 1535 001c 1340     		and	r3, r2
 1536 001e FB60     		str	r3, [r7, #12]
 907:Generated_Source\PSoC4/CyLFClk.c ****             configRegValue |= ((bits & CY_SYS_WDT_CONFIG_BITS2_MASK) << CY_SYS_WDT_CONFIG_BITS2_POS
 1537              		.loc 2 907 0
 1538 0020 7B68     		ldr	r3, [r7, #4]
 1539 0022 1F22     		mov	r2, #31
 1540 0024 1340     		and	r3, r2
 1541 0026 1B06     		lsl	r3, r3, #24
ARM GAS  C:\Users\TTSS\AppData\Local\Temp\ccBAPXR4.s 			page 51


 1542 0028 FA68     		ldr	r2, [r7, #12]
 1543 002a 1343     		orr	r3, r2
 1544 002c FB60     		str	r3, [r7, #12]
 908:Generated_Source\PSoC4/CyLFClk.c ****             CY_SYS_WDT_CONFIG_REG = configRegValue;
 1545              		.loc 2 908 0
 1546 002e 034B     		ldr	r3, .L133
 1547 0030 FA68     		ldr	r2, [r7, #12]
 1548 0032 1A60     		str	r2, [r3]
 1549              	.L131:
 909:Generated_Source\PSoC4/CyLFClk.c ****         }
 910:Generated_Source\PSoC4/CyLFClk.c ****     }
 1550              		.loc 2 910 0
 1551 0034 BD46     		mov	sp, r7
 1552 0036 04B0     		add	sp, sp, #16
 1553              		@ sp needed
 1554 0038 80BD     		pop	{r7, pc}
 1555              	.L134:
 1556 003a C046     		.align	2
 1557              	.L133:
 1558 003c 0C020B40 		.word	1074463244
 1559 0040 FFFFFFE0 		.word	-520093697
 1560              		.cfi_endproc
 1561              	.LFE24:
 1562              		.size	CySysWdtSetToggleBit, .-CySysWdtSetToggleBit
 1563              		.section	.text.CySysWdtGetToggleBit,"ax",%progbits
 1564              		.align	2
 1565              		.global	CySysWdtGetToggleBit
 1566              		.code	16
 1567              		.thumb_func
 1568              		.type	CySysWdtGetToggleBit, %function
 1569              	CySysWdtGetToggleBit:
 1570              	.LFB25:
 911:Generated_Source\PSoC4/CyLFClk.c **** 
 912:Generated_Source\PSoC4/CyLFClk.c **** 
 913:Generated_Source\PSoC4/CyLFClk.c ****     /*******************************************************************************
 914:Generated_Source\PSoC4/CyLFClk.c ****     * Function Name: CySysWdtGetToggleBit
 915:Generated_Source\PSoC4/CyLFClk.c ****     ********************************************************************************
 916:Generated_Source\PSoC4/CyLFClk.c ****     *
 917:Generated_Source\PSoC4/CyLFClk.c ****     * Summary:
 918:Generated_Source\PSoC4/CyLFClk.c ****     *  Reads which bit in WDT counter 2 is monitored for a toggle.
 919:Generated_Source\PSoC4/CyLFClk.c ****     *
 920:Generated_Source\PSoC4/CyLFClk.c ****     * Parameters:
 921:Generated_Source\PSoC4/CyLFClk.c ****     *  None.
 922:Generated_Source\PSoC4/CyLFClk.c ****     *
 923:Generated_Source\PSoC4/CyLFClk.c ****     * Return:
 924:Generated_Source\PSoC4/CyLFClk.c ****     *  The bit that is monitored (range of 0 to 31)
 925:Generated_Source\PSoC4/CyLFClk.c ****     *
 926:Generated_Source\PSoC4/CyLFClk.c ****     *******************************************************************************/
 927:Generated_Source\PSoC4/CyLFClk.c ****     uint32 CySysWdtGetToggleBit(void)
 928:Generated_Source\PSoC4/CyLFClk.c ****     {
 1571              		.loc 2 928 0
 1572              		.cfi_startproc
 1573 0000 80B5     		push	{r7, lr}
 1574              		.cfi_def_cfa_offset 8
 1575              		.cfi_offset 7, -8
 1576              		.cfi_offset 14, -4
 1577 0002 00AF     		add	r7, sp, #0
ARM GAS  C:\Users\TTSS\AppData\Local\Temp\ccBAPXR4.s 			page 52


 1578              		.cfi_def_cfa_register 7
 929:Generated_Source\PSoC4/CyLFClk.c ****         return ((CY_SYS_WDT_CONFIG_REG >> CY_SYS_WDT_CONFIG_BITS2_POS) & CY_SYS_WDT_CONFIG_BITS2_MA
 1579              		.loc 2 929 0
 1580 0004 034B     		ldr	r3, .L137
 1581 0006 1B68     		ldr	r3, [r3]
 1582 0008 1B0E     		lsr	r3, r3, #24
 1583 000a 1F22     		mov	r2, #31
 1584 000c 1340     		and	r3, r2
 930:Generated_Source\PSoC4/CyLFClk.c ****     }
 1585              		.loc 2 930 0
 1586 000e 181C     		mov	r0, r3
 1587 0010 BD46     		mov	sp, r7
 1588              		@ sp needed
 1589 0012 80BD     		pop	{r7, pc}
 1590              	.L138:
 1591              		.align	2
 1592              	.L137:
 1593 0014 0C020B40 		.word	1074463244
 1594              		.cfi_endproc
 1595              	.LFE25:
 1596              		.size	CySysWdtGetToggleBit, .-CySysWdtGetToggleBit
 1597              		.section	.text.CySysWdtGetMatch,"ax",%progbits
 1598              		.align	2
 1599              		.global	CySysWdtGetMatch
 1600              		.code	16
 1601              		.thumb_func
 1602              		.type	CySysWdtGetMatch, %function
 1603              	CySysWdtGetMatch:
 1604              	.LFB26:
 931:Generated_Source\PSoC4/CyLFClk.c **** 
 932:Generated_Source\PSoC4/CyLFClk.c **** 
 933:Generated_Source\PSoC4/CyLFClk.c ****     /*******************************************************************************
 934:Generated_Source\PSoC4/CyLFClk.c ****     * Function Name: CySysWdtGetMatch
 935:Generated_Source\PSoC4/CyLFClk.c ****     ********************************************************************************
 936:Generated_Source\PSoC4/CyLFClk.c ****     *
 937:Generated_Source\PSoC4/CyLFClk.c ****     * Summary:
 938:Generated_Source\PSoC4/CyLFClk.c ****     *  Reads the WDT counter match comparison value.
 939:Generated_Source\PSoC4/CyLFClk.c ****     *
 940:Generated_Source\PSoC4/CyLFClk.c ****     * Parameters:
 941:Generated_Source\PSoC4/CyLFClk.c ****     *  counterNum: Valid range [0-1].  The number of the WDT counter.  The match values
 942:Generated_Source\PSoC4/CyLFClk.c ****     *               are not supported by counter 2.
 943:Generated_Source\PSoC4/CyLFClk.c ****     *
 944:Generated_Source\PSoC4/CyLFClk.c ****     * Return:
 945:Generated_Source\PSoC4/CyLFClk.c ****     *  A 16-bit match value.
 946:Generated_Source\PSoC4/CyLFClk.c ****     *
 947:Generated_Source\PSoC4/CyLFClk.c ****     *******************************************************************************/
 948:Generated_Source\PSoC4/CyLFClk.c ****     uint32 CySysWdtGetMatch(uint32 counterNum)
 949:Generated_Source\PSoC4/CyLFClk.c ****     {
 1605              		.loc 2 949 0
 1606              		.cfi_startproc
 1607 0000 80B5     		push	{r7, lr}
 1608              		.cfi_def_cfa_offset 8
 1609              		.cfi_offset 7, -8
 1610              		.cfi_offset 14, -4
 1611 0002 82B0     		sub	sp, sp, #8
 1612              		.cfi_def_cfa_offset 16
 1613 0004 00AF     		add	r7, sp, #0
ARM GAS  C:\Users\TTSS\AppData\Local\Temp\ccBAPXR4.s 			page 53


 1614              		.cfi_def_cfa_register 7
 1615 0006 7860     		str	r0, [r7, #4]
 950:Generated_Source\PSoC4/CyLFClk.c ****         CYASSERT((counterNum == CY_SYS_WDT_COUNTER0) ||
 1616              		.loc 2 950 0
 1617 0008 7B68     		ldr	r3, [r7, #4]
 1618 000a 002B     		cmp	r3, #0
 1619 000c 02D0     		beq	.L140
 1620              		.loc 2 950 0 is_stmt 0 discriminator 2
 1621 000e 7B68     		ldr	r3, [r7, #4]
 1622 0010 012B     		cmp	r3, #1
 1623 0012 01D1     		bne	.L141
 1624              	.L140:
 1625              		.loc 2 950 0 discriminator 3
 1626 0014 0123     		mov	r3, #1
 1627 0016 00E0     		b	.L142
 1628              	.L141:
 1629              		.loc 2 950 0 discriminator 4
 1630 0018 0023     		mov	r3, #0
 1631              	.L142:
 1632              		.loc 2 950 0 discriminator 6
 1633 001a 002B     		cmp	r3, #0
 1634 001c 02D1     		bne	.L143
 1635              		.loc 2 950 0 discriminator 7
 1636 001e 0020     		mov	r0, #0
 1637 0020 FFF7FEFF 		bl	CyHalt
 1638              	.L143:
 951:Generated_Source\PSoC4/CyLFClk.c ****                  (counterNum == CY_SYS_WDT_COUNTER1));
 952:Generated_Source\PSoC4/CyLFClk.c **** 
 953:Generated_Source\PSoC4/CyLFClk.c ****         return ((uint32)(CY_SYS_WDT_MATCH_REG >> (counterNum * CY_SYS_WDT_CNT_MATCH_SHIFT)) & CY_SY
 1639              		.loc 2 953 0 is_stmt 1
 1640 0024 054B     		ldr	r3, .L145
 1641 0026 1B68     		ldr	r3, [r3]
 1642 0028 7A68     		ldr	r2, [r7, #4]
 1643 002a 1201     		lsl	r2, r2, #4
 1644 002c D340     		lsr	r3, r3, r2
 1645 002e 1B04     		lsl	r3, r3, #16
 1646 0030 1B0C     		lsr	r3, r3, #16
 954:Generated_Source\PSoC4/CyLFClk.c ****     }
 1647              		.loc 2 954 0
 1648 0032 181C     		mov	r0, r3
 1649 0034 BD46     		mov	sp, r7
 1650 0036 02B0     		add	sp, sp, #8
 1651              		@ sp needed
 1652 0038 80BD     		pop	{r7, pc}
 1653              	.L146:
 1654 003a C046     		.align	2
 1655              	.L145:
 1656 003c 08020B40 		.word	1074463240
 1657              		.cfi_endproc
 1658              	.LFE26:
 1659              		.size	CySysWdtGetMatch, .-CySysWdtGetMatch
 1660              		.section	.text.CySysWdtGetCount,"ax",%progbits
 1661              		.align	2
 1662              		.global	CySysWdtGetCount
 1663              		.code	16
 1664              		.thumb_func
 1665              		.type	CySysWdtGetCount, %function
ARM GAS  C:\Users\TTSS\AppData\Local\Temp\ccBAPXR4.s 			page 54


 1666              	CySysWdtGetCount:
 1667              	.LFB27:
 955:Generated_Source\PSoC4/CyLFClk.c **** 
 956:Generated_Source\PSoC4/CyLFClk.c **** 
 957:Generated_Source\PSoC4/CyLFClk.c ****     /*******************************************************************************
 958:Generated_Source\PSoC4/CyLFClk.c ****     * Function Name: CySysWdtGetCount
 959:Generated_Source\PSoC4/CyLFClk.c ****     ********************************************************************************
 960:Generated_Source\PSoC4/CyLFClk.c ****     *
 961:Generated_Source\PSoC4/CyLFClk.c ****     * Summary:
 962:Generated_Source\PSoC4/CyLFClk.c ****     *  Reads the current WDT counter value.
 963:Generated_Source\PSoC4/CyLFClk.c ****     *
 964:Generated_Source\PSoC4/CyLFClk.c ****     * Parameters:
 965:Generated_Source\PSoC4/CyLFClk.c ****     *  counterNum: Valid range [0-2].  The number of the WDT counter.
 966:Generated_Source\PSoC4/CyLFClk.c ****     *
 967:Generated_Source\PSoC4/CyLFClk.c ****     * Return:
 968:Generated_Source\PSoC4/CyLFClk.c ****     *  A live counter value.  Counter 0 and 1 are 16 bit counters and counter
 969:Generated_Source\PSoC4/CyLFClk.c ****     *  2 is a 32 bit counter.
 970:Generated_Source\PSoC4/CyLFClk.c ****     *
 971:Generated_Source\PSoC4/CyLFClk.c ****     *******************************************************************************/
 972:Generated_Source\PSoC4/CyLFClk.c ****     uint32 CySysWdtGetCount(uint32 counterNum)
 973:Generated_Source\PSoC4/CyLFClk.c ****     {
 1668              		.loc 2 973 0
 1669              		.cfi_startproc
 1670 0000 80B5     		push	{r7, lr}
 1671              		.cfi_def_cfa_offset 8
 1672              		.cfi_offset 7, -8
 1673              		.cfi_offset 14, -4
 1674 0002 84B0     		sub	sp, sp, #16
 1675              		.cfi_def_cfa_offset 24
 1676 0004 00AF     		add	r7, sp, #0
 1677              		.cfi_def_cfa_register 7
 1678 0006 7860     		str	r0, [r7, #4]
 974:Generated_Source\PSoC4/CyLFClk.c ****         uint32 regValue = 0u;
 1679              		.loc 2 974 0
 1680 0008 0023     		mov	r3, #0
 1681 000a FB60     		str	r3, [r7, #12]
 975:Generated_Source\PSoC4/CyLFClk.c **** 
 976:Generated_Source\PSoC4/CyLFClk.c ****         switch(counterNum)
 1682              		.loc 2 976 0
 1683 000c 7B68     		ldr	r3, [r7, #4]
 1684 000e 012B     		cmp	r3, #1
 1685 0010 09D0     		beq	.L149
 1686 0012 02D3     		bcc	.L150
 1687 0014 022B     		cmp	r3, #2
 1688 0016 0BD0     		beq	.L151
 1689 0018 0EE0     		b	.L154
 1690              	.L150:
 977:Generated_Source\PSoC4/CyLFClk.c ****         {
 978:Generated_Source\PSoC4/CyLFClk.c ****             /* WDT Counter 0 */
 979:Generated_Source\PSoC4/CyLFClk.c ****             case 0u:
 980:Generated_Source\PSoC4/CyLFClk.c ****                 regValue = CY_SYS_WDT_CTRLOW_REG & CY_SYS_WDT_LOWER_16BITS_MASK;
 1691              		.loc 2 980 0
 1692 001a 0C4B     		ldr	r3, .L155
 1693 001c 1B68     		ldr	r3, [r3]
 1694 001e 1B04     		lsl	r3, r3, #16
 1695 0020 1B0C     		lsr	r3, r3, #16
 1696 0022 FB60     		str	r3, [r7, #12]
ARM GAS  C:\Users\TTSS\AppData\Local\Temp\ccBAPXR4.s 			page 55


 981:Generated_Source\PSoC4/CyLFClk.c ****             break;
 1697              		.loc 2 981 0
 1698 0024 0CE0     		b	.L152
 1699              	.L149:
 982:Generated_Source\PSoC4/CyLFClk.c **** 
 983:Generated_Source\PSoC4/CyLFClk.c ****             /* WDT Counter 1 */
 984:Generated_Source\PSoC4/CyLFClk.c ****             case 1u:
 985:Generated_Source\PSoC4/CyLFClk.c ****                 regValue = (CY_SYS_WDT_CTRLOW_REG >> CY_SYS_WDT_CNT_MATCH_SHIFT) & CY_SYS_WDT_LOWER
 1700              		.loc 2 985 0
 1701 0026 094B     		ldr	r3, .L155
 1702 0028 1B68     		ldr	r3, [r3]
 1703 002a 1B0C     		lsr	r3, r3, #16
 1704 002c FB60     		str	r3, [r7, #12]
 986:Generated_Source\PSoC4/CyLFClk.c ****             break;
 1705              		.loc 2 986 0
 1706 002e 07E0     		b	.L152
 1707              	.L151:
 987:Generated_Source\PSoC4/CyLFClk.c **** 
 988:Generated_Source\PSoC4/CyLFClk.c ****             /* WDT Counter 2 */
 989:Generated_Source\PSoC4/CyLFClk.c ****             case 2u:
 990:Generated_Source\PSoC4/CyLFClk.c ****                 regValue = CY_SYS_WDT_CTRHIGH_REG;
 1708              		.loc 2 990 0
 1709 0030 074B     		ldr	r3, .L155+4
 1710 0032 1B68     		ldr	r3, [r3]
 1711 0034 FB60     		str	r3, [r7, #12]
 991:Generated_Source\PSoC4/CyLFClk.c ****             break;
 1712              		.loc 2 991 0
 1713 0036 03E0     		b	.L152
 1714              	.L154:
 992:Generated_Source\PSoC4/CyLFClk.c **** 
 993:Generated_Source\PSoC4/CyLFClk.c ****             default:
 994:Generated_Source\PSoC4/CyLFClk.c ****                 CYASSERT(0u != 0u);
 1715              		.loc 2 994 0
 1716 0038 0020     		mov	r0, #0
 1717 003a FFF7FEFF 		bl	CyHalt
 995:Generated_Source\PSoC4/CyLFClk.c ****             break;
 1718              		.loc 2 995 0
 1719 003e C046     		mov	r8, r8
 1720              	.L152:
 996:Generated_Source\PSoC4/CyLFClk.c ****         }
 997:Generated_Source\PSoC4/CyLFClk.c **** 
 998:Generated_Source\PSoC4/CyLFClk.c ****         return (regValue);
 1721              		.loc 2 998 0
 1722 0040 FB68     		ldr	r3, [r7, #12]
 999:Generated_Source\PSoC4/CyLFClk.c ****     }
 1723              		.loc 2 999 0
 1724 0042 181C     		mov	r0, r3
 1725 0044 BD46     		mov	sp, r7
 1726 0046 04B0     		add	sp, sp, #16
 1727              		@ sp needed
 1728 0048 80BD     		pop	{r7, pc}
 1729              	.L156:
 1730 004a C046     		.align	2
 1731              	.L155:
 1732 004c 00020B40 		.word	1074463232
 1733 0050 04020B40 		.word	1074463236
 1734              		.cfi_endproc
ARM GAS  C:\Users\TTSS\AppData\Local\Temp\ccBAPXR4.s 			page 56


 1735              	.LFE27:
 1736              		.size	CySysWdtGetCount, .-CySysWdtGetCount
 1737              		.section	.text.CySysWdtGetInterruptSource,"ax",%progbits
 1738              		.align	2
 1739              		.global	CySysWdtGetInterruptSource
 1740              		.code	16
 1741              		.thumb_func
 1742              		.type	CySysWdtGetInterruptSource, %function
 1743              	CySysWdtGetInterruptSource:
 1744              	.LFB28:
1000:Generated_Source\PSoC4/CyLFClk.c **** 
1001:Generated_Source\PSoC4/CyLFClk.c **** 
1002:Generated_Source\PSoC4/CyLFClk.c ****     /*******************************************************************************
1003:Generated_Source\PSoC4/CyLFClk.c ****     * Function Name: CySysWdtGetInterruptSource
1004:Generated_Source\PSoC4/CyLFClk.c ****     ********************************************************************************
1005:Generated_Source\PSoC4/CyLFClk.c ****     *
1006:Generated_Source\PSoC4/CyLFClk.c ****     * Summary:
1007:Generated_Source\PSoC4/CyLFClk.c ****     *   Reads a mask containing all the WDT counters interrupts that are currently
1008:Generated_Source\PSoC4/CyLFClk.c ****     *   set by the hardware, if a corresponding mode is selected.
1009:Generated_Source\PSoC4/CyLFClk.c ****     *
1010:Generated_Source\PSoC4/CyLFClk.c ****     * Parameters:
1011:Generated_Source\PSoC4/CyLFClk.c ****     *   None.
1012:Generated_Source\PSoC4/CyLFClk.c ****     *
1013:Generated_Source\PSoC4/CyLFClk.c ****     * Return:
1014:Generated_Source\PSoC4/CyLFClk.c ****     *   The mask of interrupts set.
1015:Generated_Source\PSoC4/CyLFClk.c ****     *   Define                    Counter
1016:Generated_Source\PSoC4/CyLFClk.c ****     *   CY_SYS_WDT_COUNTER0_INT    0
1017:Generated_Source\PSoC4/CyLFClk.c ****     *   CY_SYS_WDT_COUNTER1_INT    1
1018:Generated_Source\PSoC4/CyLFClk.c ****     *   CY_SYS_WDT_COUNTER2_INT    2
1019:Generated_Source\PSoC4/CyLFClk.c ****     *
1020:Generated_Source\PSoC4/CyLFClk.c ****     *******************************************************************************/
1021:Generated_Source\PSoC4/CyLFClk.c ****     uint32 CySysWdtGetInterruptSource(void)
1022:Generated_Source\PSoC4/CyLFClk.c ****     {
 1745              		.loc 2 1022 0
 1746              		.cfi_startproc
 1747 0000 80B5     		push	{r7, lr}
 1748              		.cfi_def_cfa_offset 8
 1749              		.cfi_offset 7, -8
 1750              		.cfi_offset 14, -4
 1751 0002 00AF     		add	r7, sp, #0
 1752              		.cfi_def_cfa_register 7
1023:Generated_Source\PSoC4/CyLFClk.c ****         return (CY_SYS_WDT_CONTROL_REG & (CY_SYS_WDT_COUNTER0_INT | CY_SYS_WDT_COUNTER1_INT | CY_SY
 1753              		.loc 2 1023 0
 1754 0004 034B     		ldr	r3, .L159
 1755 0006 1B68     		ldr	r3, [r3]
 1756 0008 034A     		ldr	r2, .L159+4
 1757 000a 1340     		and	r3, r2
1024:Generated_Source\PSoC4/CyLFClk.c ****     }
 1758              		.loc 2 1024 0
 1759 000c 181C     		mov	r0, r3
 1760 000e BD46     		mov	sp, r7
 1761              		@ sp needed
 1762 0010 80BD     		pop	{r7, pc}
 1763              	.L160:
 1764 0012 C046     		.align	2
 1765              	.L159:
 1766 0014 10020B40 		.word	1074463248
ARM GAS  C:\Users\TTSS\AppData\Local\Temp\ccBAPXR4.s 			page 57


 1767 0018 04040400 		.word	263172
 1768              		.cfi_endproc
 1769              	.LFE28:
 1770              		.size	CySysWdtGetInterruptSource, .-CySysWdtGetInterruptSource
 1771              		.section	.text.CySysWdtClearInterrupt,"ax",%progbits
 1772              		.align	2
 1773              		.global	CySysWdtClearInterrupt
 1774              		.code	16
 1775              		.thumb_func
 1776              		.type	CySysWdtClearInterrupt, %function
 1777              	CySysWdtClearInterrupt:
 1778              	.LFB29:
1025:Generated_Source\PSoC4/CyLFClk.c **** 
1026:Generated_Source\PSoC4/CyLFClk.c **** 
1027:Generated_Source\PSoC4/CyLFClk.c ****     /*******************************************************************************
1028:Generated_Source\PSoC4/CyLFClk.c ****     * Function Name: CySysWdtClearInterrupt
1029:Generated_Source\PSoC4/CyLFClk.c ****     ********************************************************************************
1030:Generated_Source\PSoC4/CyLFClk.c ****     *
1031:Generated_Source\PSoC4/CyLFClk.c ****     * Summary:
1032:Generated_Source\PSoC4/CyLFClk.c ****     *   Clears all the WDT counter interrupts set in the mask. Calling this function
1033:Generated_Source\PSoC4/CyLFClk.c ****     *   also prevents from Reset when the counter mode is set to generate
1034:Generated_Source\PSoC4/CyLFClk.c ****     *   3 interrupts and then the device resets.
1035:Generated_Source\PSoC4/CyLFClk.c ****     *
1036:Generated_Source\PSoC4/CyLFClk.c ****     *   All the WDT interrupts are to be cleared by the firmware, otherwise
1037:Generated_Source\PSoC4/CyLFClk.c ****     *   interrupts are generated continuously.
1038:Generated_Source\PSoC4/CyLFClk.c ****     *
1039:Generated_Source\PSoC4/CyLFClk.c ****     * Parameters:
1040:Generated_Source\PSoC4/CyLFClk.c ****     *   counterMask: The mask of all the counters to enable.
1041:Generated_Source\PSoC4/CyLFClk.c ****     *   Define                    Counter
1042:Generated_Source\PSoC4/CyLFClk.c ****     *   CY_SYS_WDT_COUNTER0_INT    0
1043:Generated_Source\PSoC4/CyLFClk.c ****     *   CY_SYS_WDT_COUNTER1_INT    1
1044:Generated_Source\PSoC4/CyLFClk.c ****     *   CY_SYS_WDT_COUNTER2_INT    2
1045:Generated_Source\PSoC4/CyLFClk.c ****     *
1046:Generated_Source\PSoC4/CyLFClk.c ****     * Return:
1047:Generated_Source\PSoC4/CyLFClk.c ****     *   None
1048:Generated_Source\PSoC4/CyLFClk.c ****     *
1049:Generated_Source\PSoC4/CyLFClk.c ****     * Side effects:
1050:Generated_Source\PSoC4/CyLFClk.c ****     *   This function temporary removes the watchdog lock, if it was set, and
1051:Generated_Source\PSoC4/CyLFClk.c ****     *   restores the lock state after cleaning the WDT interrupts that are set in
1052:Generated_Source\PSoC4/CyLFClk.c ****     *   a mask.
1053:Generated_Source\PSoC4/CyLFClk.c ****     *
1054:Generated_Source\PSoC4/CyLFClk.c ****     *******************************************************************************/
1055:Generated_Source\PSoC4/CyLFClk.c ****     void CySysWdtClearInterrupt(uint32 counterMask)
1056:Generated_Source\PSoC4/CyLFClk.c ****     {
 1779              		.loc 2 1056 0
 1780              		.cfi_startproc
 1781 0000 90B5     		push	{r4, r7, lr}
 1782              		.cfi_def_cfa_offset 12
 1783              		.cfi_offset 4, -12
 1784              		.cfi_offset 7, -8
 1785              		.cfi_offset 14, -4
 1786 0002 85B0     		sub	sp, sp, #20
 1787              		.cfi_def_cfa_offset 32
 1788 0004 00AF     		add	r7, sp, #0
 1789              		.cfi_def_cfa_register 7
 1790 0006 7860     		str	r0, [r7, #4]
1057:Generated_Source\PSoC4/CyLFClk.c ****         uint8 interruptState;
ARM GAS  C:\Users\TTSS\AppData\Local\Temp\ccBAPXR4.s 			page 58


1058:Generated_Source\PSoC4/CyLFClk.c ****         uint32 wdtLockState;
1059:Generated_Source\PSoC4/CyLFClk.c **** 
1060:Generated_Source\PSoC4/CyLFClk.c ****         interruptState = CyEnterCriticalSection();
 1791              		.loc 2 1060 0
 1792 0008 0B23     		mov	r3, #11
 1793 000a FC18     		add	r4, r7, r3
 1794 000c FFF7FEFF 		bl	CyEnterCriticalSection
 1795 0010 031C     		mov	r3, r0
 1796 0012 2370     		strb	r3, [r4]
1061:Generated_Source\PSoC4/CyLFClk.c **** 
1062:Generated_Source\PSoC4/CyLFClk.c ****         if (0u != CySysWdtLocked())
 1797              		.loc 2 1062 0
 1798 0014 FFF7FEFF 		bl	CySysWdtLocked
 1799 0018 031E     		sub	r3, r0, #0
 1800 001a 04D0     		beq	.L162
1063:Generated_Source\PSoC4/CyLFClk.c ****         {
1064:Generated_Source\PSoC4/CyLFClk.c ****             wdtLockState = 1u;
 1801              		.loc 2 1064 0
 1802 001c 0123     		mov	r3, #1
 1803 001e FB60     		str	r3, [r7, #12]
1065:Generated_Source\PSoC4/CyLFClk.c ****             CySysWdtUnlock();
 1804              		.loc 2 1065 0
 1805 0020 FFF7FEFF 		bl	CySysWdtUnlock
 1806 0024 01E0     		b	.L163
 1807              	.L162:
1066:Generated_Source\PSoC4/CyLFClk.c ****         }
1067:Generated_Source\PSoC4/CyLFClk.c ****         else
1068:Generated_Source\PSoC4/CyLFClk.c ****         {
1069:Generated_Source\PSoC4/CyLFClk.c ****             wdtLockState = 0u;
 1808              		.loc 2 1069 0
 1809 0026 0023     		mov	r3, #0
 1810 0028 FB60     		str	r3, [r7, #12]
 1811              	.L163:
1070:Generated_Source\PSoC4/CyLFClk.c ****         }
1071:Generated_Source\PSoC4/CyLFClk.c **** 
1072:Generated_Source\PSoC4/CyLFClk.c ****         /* Set new WDT control register value */
1073:Generated_Source\PSoC4/CyLFClk.c ****         counterMask &= (CY_SYS_WDT_COUNTER0_INT |
 1812              		.loc 2 1073 0
 1813 002a 7B68     		ldr	r3, [r7, #4]
 1814 002c 0D4A     		ldr	r2, .L165
 1815 002e 1340     		and	r3, r2
 1816 0030 7B60     		str	r3, [r7, #4]
1074:Generated_Source\PSoC4/CyLFClk.c ****                         CY_SYS_WDT_COUNTER1_INT |
1075:Generated_Source\PSoC4/CyLFClk.c ****                         CY_SYS_WDT_COUNTER2_INT);
1076:Generated_Source\PSoC4/CyLFClk.c **** 
1077:Generated_Source\PSoC4/CyLFClk.c ****         CY_SYS_WDT_CONTROL_REG = counterMask | (CY_SYS_WDT_CONTROL_REG & ~(CY_SYS_WDT_COUNTER0_INT 
 1817              		.loc 2 1077 0
 1818 0032 0D4B     		ldr	r3, .L165+4
 1819 0034 0C4A     		ldr	r2, .L165+4
 1820 0036 1268     		ldr	r2, [r2]
 1821 0038 0C49     		ldr	r1, .L165+8
 1822 003a 1140     		and	r1, r2
 1823 003c 7A68     		ldr	r2, [r7, #4]
 1824 003e 0A43     		orr	r2, r1
 1825 0040 1A60     		str	r2, [r3]
1078:Generated_Source\PSoC4/CyLFClk.c ****                                                                            CY_SYS_WDT_COUNTER1_INT 
1079:Generated_Source\PSoC4/CyLFClk.c ****                                                                            CY_SYS_WDT_COUNTER2_INT)
ARM GAS  C:\Users\TTSS\AppData\Local\Temp\ccBAPXR4.s 			page 59


1080:Generated_Source\PSoC4/CyLFClk.c **** 
1081:Generated_Source\PSoC4/CyLFClk.c ****         /* Read the CY_SYS_WDT_CONTROL_REG to clear the interrupt request.
1082:Generated_Source\PSoC4/CyLFClk.c ****          * Cypress ID #207093, #206231
1083:Generated_Source\PSoC4/CyLFClk.c ****         */
1084:Generated_Source\PSoC4/CyLFClk.c ****         (void)CY_SYS_WDT_CONTROL_REG;
 1826              		.loc 2 1084 0
 1827 0042 094B     		ldr	r3, .L165+4
 1828 0044 1B68     		ldr	r3, [r3]
1085:Generated_Source\PSoC4/CyLFClk.c **** 
1086:Generated_Source\PSoC4/CyLFClk.c ****         if (1u == wdtLockState)
 1829              		.loc 2 1086 0
 1830 0046 FB68     		ldr	r3, [r7, #12]
 1831 0048 012B     		cmp	r3, #1
 1832 004a 01D1     		bne	.L164
1087:Generated_Source\PSoC4/CyLFClk.c ****         {
1088:Generated_Source\PSoC4/CyLFClk.c ****             CySysWdtLock();
 1833              		.loc 2 1088 0
 1834 004c FFF7FEFF 		bl	CySysWdtLock
 1835              	.L164:
1089:Generated_Source\PSoC4/CyLFClk.c ****         }
1090:Generated_Source\PSoC4/CyLFClk.c **** 
1091:Generated_Source\PSoC4/CyLFClk.c ****         CyExitCriticalSection(interruptState);
 1836              		.loc 2 1091 0
 1837 0050 0B23     		mov	r3, #11
 1838 0052 FB18     		add	r3, r7, r3
 1839 0054 1B78     		ldrb	r3, [r3]
 1840 0056 181C     		mov	r0, r3
 1841 0058 FFF7FEFF 		bl	CyExitCriticalSection
1092:Generated_Source\PSoC4/CyLFClk.c ****     }
 1842              		.loc 2 1092 0
 1843 005c BD46     		mov	sp, r7
 1844 005e 05B0     		add	sp, sp, #20
 1845              		@ sp needed
 1846 0060 90BD     		pop	{r4, r7, pc}
 1847              	.L166:
 1848 0062 C046     		.align	2
 1849              	.L165:
 1850 0064 04040400 		.word	263172
 1851 0068 10020B40 		.word	1074463248
 1852 006c FBFBFBFF 		.word	-263173
 1853              		.cfi_endproc
 1854              	.LFE29:
 1855              		.size	CySysWdtClearInterrupt, .-CySysWdtClearInterrupt
 1856              		.section	.text.CySysWdtResetCounters,"ax",%progbits
 1857              		.align	2
 1858              		.global	CySysWdtResetCounters
 1859              		.code	16
 1860              		.thumb_func
 1861              		.type	CySysWdtResetCounters, %function
 1862              	CySysWdtResetCounters:
 1863              	.LFB30:
1093:Generated_Source\PSoC4/CyLFClk.c **** 
1094:Generated_Source\PSoC4/CyLFClk.c **** 
1095:Generated_Source\PSoC4/CyLFClk.c ****     /*******************************************************************************
1096:Generated_Source\PSoC4/CyLFClk.c ****     * Function Name: CySysWdtResetCounters
1097:Generated_Source\PSoC4/CyLFClk.c ****     ********************************************************************************
1098:Generated_Source\PSoC4/CyLFClk.c ****     *
ARM GAS  C:\Users\TTSS\AppData\Local\Temp\ccBAPXR4.s 			page 60


1099:Generated_Source\PSoC4/CyLFClk.c ****     * Summary:
1100:Generated_Source\PSoC4/CyLFClk.c ****     *  Resets all the WDT counters set in the mask.
1101:Generated_Source\PSoC4/CyLFClk.c ****     *
1102:Generated_Source\PSoC4/CyLFClk.c ****     * Parameters:
1103:Generated_Source\PSoC4/CyLFClk.c ****     *  counterMask: The mask of all the counters to reset.
1104:Generated_Source\PSoC4/CyLFClk.c ****     *   Define                       Counter
1105:Generated_Source\PSoC4/CyLFClk.c ****     *   CY_SYS_WDT_COUNTER0_RESET    0
1106:Generated_Source\PSoC4/CyLFClk.c ****     *   CY_SYS_WDT_COUNTER1_RESET    1
1107:Generated_Source\PSoC4/CyLFClk.c ****     *   CY_SYS_WDT_COUNTER2_RESET    2
1108:Generated_Source\PSoC4/CyLFClk.c ****     *
1109:Generated_Source\PSoC4/CyLFClk.c ****     * Return:
1110:Generated_Source\PSoC4/CyLFClk.c ****     *   None
1111:Generated_Source\PSoC4/CyLFClk.c ****     *
1112:Generated_Source\PSoC4/CyLFClk.c ****     * Side effects:
1113:Generated_Source\PSoC4/CyLFClk.c ****     *   This function does not reset counter values if the Watchdog is locked.
1114:Generated_Source\PSoC4/CyLFClk.c ****     *   This function waits while corresponding counters will be reset. This may
1115:Generated_Source\PSoC4/CyLFClk.c ****     *   take up to 3 LFCLK cycles.
1116:Generated_Source\PSoC4/CyLFClk.c ****     *   The LFCLK source must be enabled. Otherwise, the function will never exit.
1117:Generated_Source\PSoC4/CyLFClk.c ****     *
1118:Generated_Source\PSoC4/CyLFClk.c ****     *******************************************************************************/
1119:Generated_Source\PSoC4/CyLFClk.c ****     void CySysWdtResetCounters(uint32 countersMask)
1120:Generated_Source\PSoC4/CyLFClk.c ****     {
 1864              		.loc 2 1120 0
 1865              		.cfi_startproc
 1866 0000 80B5     		push	{r7, lr}
 1867              		.cfi_def_cfa_offset 8
 1868              		.cfi_offset 7, -8
 1869              		.cfi_offset 14, -4
 1870 0002 82B0     		sub	sp, sp, #8
 1871              		.cfi_def_cfa_offset 16
 1872 0004 00AF     		add	r7, sp, #0
 1873              		.cfi_def_cfa_register 7
 1874 0006 7860     		str	r0, [r7, #4]
1121:Generated_Source\PSoC4/CyLFClk.c ****         /* Set new WDT reset value */
1122:Generated_Source\PSoC4/CyLFClk.c ****         CY_SYS_WDT_CONTROL_REG |= (countersMask & CY_SYS_WDT_COUNTERS_RESET);
 1875              		.loc 2 1122 0
 1876 0008 084B     		ldr	r3, .L169
 1877 000a 084A     		ldr	r2, .L169
 1878 000c 1168     		ldr	r1, [r2]
 1879 000e 7A68     		ldr	r2, [r7, #4]
 1880 0010 0748     		ldr	r0, .L169+4
 1881 0012 0240     		and	r2, r0
 1882 0014 0A43     		orr	r2, r1
 1883 0016 1A60     		str	r2, [r3]
1123:Generated_Source\PSoC4/CyLFClk.c **** 
1124:Generated_Source\PSoC4/CyLFClk.c ****         while (0uL != (CY_SYS_WDT_CONTROL_REG & CY_SYS_WDT_COUNTERS_RESET))
 1884              		.loc 2 1124 0
 1885 0018 C046     		mov	r8, r8
 1886              	.L168:
 1887              		.loc 2 1124 0 is_stmt 0 discriminator 1
 1888 001a 044B     		ldr	r3, .L169
 1889 001c 1B68     		ldr	r3, [r3]
 1890 001e 044A     		ldr	r2, .L169+4
 1891 0020 1340     		and	r3, r2
 1892 0022 FAD1     		bne	.L168
1125:Generated_Source\PSoC4/CyLFClk.c ****         {
1126:Generated_Source\PSoC4/CyLFClk.c ****             /* Wait for reset to come into effect */
ARM GAS  C:\Users\TTSS\AppData\Local\Temp\ccBAPXR4.s 			page 61


1127:Generated_Source\PSoC4/CyLFClk.c ****         }
1128:Generated_Source\PSoC4/CyLFClk.c ****     }
 1893              		.loc 2 1128 0 is_stmt 1
 1894 0024 BD46     		mov	sp, r7
 1895 0026 02B0     		add	sp, sp, #8
 1896              		@ sp needed
 1897 0028 80BD     		pop	{r7, pc}
 1898              	.L170:
 1899 002a C046     		.align	2
 1900              	.L169:
 1901 002c 10020B40 		.word	1074463248
 1902 0030 08080800 		.word	526344
 1903              		.cfi_endproc
 1904              	.LFE30:
 1905              		.size	CySysWdtResetCounters, .-CySysWdtResetCounters
 1906              		.section	.text.CySysWdtSetInterruptCallback,"ax",%progbits
 1907              		.align	2
 1908              		.global	CySysWdtSetInterruptCallback
 1909              		.code	16
 1910              		.thumb_func
 1911              		.type	CySysWdtSetInterruptCallback, %function
 1912              	CySysWdtSetInterruptCallback:
 1913              	.LFB31:
1129:Generated_Source\PSoC4/CyLFClk.c **** 
1130:Generated_Source\PSoC4/CyLFClk.c **** 
1131:Generated_Source\PSoC4/CyLFClk.c ****     /*******************************************************************************
1132:Generated_Source\PSoC4/CyLFClk.c ****     * Function Name: CySysWdtSetInterruptCallback
1133:Generated_Source\PSoC4/CyLFClk.c ****     ********************************************************************************
1134:Generated_Source\PSoC4/CyLFClk.c ****     *
1135:Generated_Source\PSoC4/CyLFClk.c ****     * Summary:
1136:Generated_Source\PSoC4/CyLFClk.c ****     *  Sets the ISR callback function for the particular WDT counter.
1137:Generated_Source\PSoC4/CyLFClk.c ****     *  These functions are called on the WDT interrupt.
1138:Generated_Source\PSoC4/CyLFClk.c ****     *
1139:Generated_Source\PSoC4/CyLFClk.c ****     * Parameters:
1140:Generated_Source\PSoC4/CyLFClk.c ****     *  counterNum : The number of the WDT counter.
1141:Generated_Source\PSoC4/CyLFClk.c ****     *  function   : The pointer to the callback function.
1142:Generated_Source\PSoC4/CyLFClk.c ****     *
1143:Generated_Source\PSoC4/CyLFClk.c ****     * Return:
1144:Generated_Source\PSoC4/CyLFClk.c ****     *  The pointer to the previous callback function.
1145:Generated_Source\PSoC4/CyLFClk.c ****     *  NULL is returned if the specified address is not set.
1146:Generated_Source\PSoC4/CyLFClk.c ****     *
1147:Generated_Source\PSoC4/CyLFClk.c ****     *******************************************************************************/
1148:Generated_Source\PSoC4/CyLFClk.c ****     cyWdtCallback CySysWdtSetInterruptCallback(uint32 counterNum, cyWdtCallback function)
1149:Generated_Source\PSoC4/CyLFClk.c ****     {
 1914              		.loc 2 1149 0
 1915              		.cfi_startproc
 1916 0000 80B5     		push	{r7, lr}
 1917              		.cfi_def_cfa_offset 8
 1918              		.cfi_offset 7, -8
 1919              		.cfi_offset 14, -4
 1920 0002 84B0     		sub	sp, sp, #16
 1921              		.cfi_def_cfa_offset 24
 1922 0004 00AF     		add	r7, sp, #0
 1923              		.cfi_def_cfa_register 7
 1924 0006 7860     		str	r0, [r7, #4]
 1925 0008 3960     		str	r1, [r7]
1150:Generated_Source\PSoC4/CyLFClk.c ****         cyWdtCallback prevCallback = (void *)0;
ARM GAS  C:\Users\TTSS\AppData\Local\Temp\ccBAPXR4.s 			page 62


 1926              		.loc 2 1150 0
 1927 000a 0023     		mov	r3, #0
 1928 000c FB60     		str	r3, [r7, #12]
1151:Generated_Source\PSoC4/CyLFClk.c **** 
1152:Generated_Source\PSoC4/CyLFClk.c ****         if(counterNum < CY_WDT_NUM_OF_WDT)
 1929              		.loc 2 1152 0
 1930 000e 7B68     		ldr	r3, [r7, #4]
 1931 0010 022B     		cmp	r3, #2
 1932 0012 0AD8     		bhi	.L172
1153:Generated_Source\PSoC4/CyLFClk.c ****         {
1154:Generated_Source\PSoC4/CyLFClk.c ****             prevCallback = cySysWdtCallback[counterNum];
 1933              		.loc 2 1154 0
 1934 0014 094B     		ldr	r3, .L175
 1935 0016 7A68     		ldr	r2, [r7, #4]
 1936 0018 9200     		lsl	r2, r2, #2
 1937 001a D358     		ldr	r3, [r2, r3]
 1938 001c FB60     		str	r3, [r7, #12]
1155:Generated_Source\PSoC4/CyLFClk.c ****             cySysWdtCallback[counterNum] = function;
 1939              		.loc 2 1155 0
 1940 001e 074B     		ldr	r3, .L175
 1941 0020 7A68     		ldr	r2, [r7, #4]
 1942 0022 9200     		lsl	r2, r2, #2
 1943 0024 3968     		ldr	r1, [r7]
 1944 0026 D150     		str	r1, [r2, r3]
 1945 0028 02E0     		b	.L173
 1946              	.L172:
1156:Generated_Source\PSoC4/CyLFClk.c ****         }
1157:Generated_Source\PSoC4/CyLFClk.c ****         else
1158:Generated_Source\PSoC4/CyLFClk.c ****         {
1159:Generated_Source\PSoC4/CyLFClk.c ****             CYASSERT(0u != 0u);
 1947              		.loc 2 1159 0 discriminator 1
 1948 002a 0020     		mov	r0, #0
 1949 002c FFF7FEFF 		bl	CyHalt
 1950              	.L173:
1160:Generated_Source\PSoC4/CyLFClk.c ****         }
1161:Generated_Source\PSoC4/CyLFClk.c **** 
1162:Generated_Source\PSoC4/CyLFClk.c ****         return((cyWdtCallback)prevCallback);
 1951              		.loc 2 1162 0
 1952 0030 FB68     		ldr	r3, [r7, #12]
1163:Generated_Source\PSoC4/CyLFClk.c ****     }
 1953              		.loc 2 1163 0
 1954 0032 181C     		mov	r0, r3
 1955 0034 BD46     		mov	sp, r7
 1956 0036 04B0     		add	sp, sp, #16
 1957              		@ sp needed
 1958 0038 80BD     		pop	{r7, pc}
 1959              	.L176:
 1960 003a C046     		.align	2
 1961              	.L175:
 1962 003c 0C000000 		.word	cySysWdtCallback
 1963              		.cfi_endproc
 1964              	.LFE31:
 1965              		.size	CySysWdtSetInterruptCallback, .-CySysWdtSetInterruptCallback
 1966              		.section	.text.CySysWdtGetInterruptCallback,"ax",%progbits
 1967              		.align	2
 1968              		.global	CySysWdtGetInterruptCallback
 1969              		.code	16
ARM GAS  C:\Users\TTSS\AppData\Local\Temp\ccBAPXR4.s 			page 63


 1970              		.thumb_func
 1971              		.type	CySysWdtGetInterruptCallback, %function
 1972              	CySysWdtGetInterruptCallback:
 1973              	.LFB32:
1164:Generated_Source\PSoC4/CyLFClk.c **** 
1165:Generated_Source\PSoC4/CyLFClk.c **** 
1166:Generated_Source\PSoC4/CyLFClk.c ****     /*******************************************************************************
1167:Generated_Source\PSoC4/CyLFClk.c ****     * Function Name: CySysWdtGetInterruptCallback
1168:Generated_Source\PSoC4/CyLFClk.c ****     ********************************************************************************
1169:Generated_Source\PSoC4/CyLFClk.c ****     *
1170:Generated_Source\PSoC4/CyLFClk.c ****     * Summary:
1171:Generated_Source\PSoC4/CyLFClk.c ****     *  Gets the ISR callback function for the particular WDT counter.
1172:Generated_Source\PSoC4/CyLFClk.c ****     *
1173:Generated_Source\PSoC4/CyLFClk.c ****     * Parameters:
1174:Generated_Source\PSoC4/CyLFClk.c ****     *  counterNum : The number of the WDT counter.
1175:Generated_Source\PSoC4/CyLFClk.c ****     *
1176:Generated_Source\PSoC4/CyLFClk.c ****     * Return:
1177:Generated_Source\PSoC4/CyLFClk.c ****     *  The pointer to the callback function registered for a particular WDT by
1178:Generated_Source\PSoC4/CyLFClk.c ****     *  a particular address that are passed through arguments.
1179:Generated_Source\PSoC4/CyLFClk.c ****     *
1180:Generated_Source\PSoC4/CyLFClk.c ****     *******************************************************************************/
1181:Generated_Source\PSoC4/CyLFClk.c ****     cyWdtCallback CySysWdtGetInterruptCallback(uint32 counterNum)
1182:Generated_Source\PSoC4/CyLFClk.c ****     {
 1974              		.loc 2 1182 0
 1975              		.cfi_startproc
 1976 0000 80B5     		push	{r7, lr}
 1977              		.cfi_def_cfa_offset 8
 1978              		.cfi_offset 7, -8
 1979              		.cfi_offset 14, -4
 1980 0002 84B0     		sub	sp, sp, #16
 1981              		.cfi_def_cfa_offset 24
 1982 0004 00AF     		add	r7, sp, #0
 1983              		.cfi_def_cfa_register 7
 1984 0006 7860     		str	r0, [r7, #4]
1183:Generated_Source\PSoC4/CyLFClk.c ****         cyWdtCallback retCallback = (void *)0;
 1985              		.loc 2 1183 0
 1986 0008 0023     		mov	r3, #0
 1987 000a FB60     		str	r3, [r7, #12]
1184:Generated_Source\PSoC4/CyLFClk.c **** 
1185:Generated_Source\PSoC4/CyLFClk.c ****         if(counterNum < CY_WDT_NUM_OF_WDT)
 1988              		.loc 2 1185 0
 1989 000c 7B68     		ldr	r3, [r7, #4]
 1990 000e 022B     		cmp	r3, #2
 1991 0010 05D8     		bhi	.L178
1186:Generated_Source\PSoC4/CyLFClk.c ****         {
1187:Generated_Source\PSoC4/CyLFClk.c ****             retCallback = (cyWdtCallback)cySysWdtCallback[counterNum];
 1992              		.loc 2 1187 0
 1993 0012 074B     		ldr	r3, .L181
 1994 0014 7A68     		ldr	r2, [r7, #4]
 1995 0016 9200     		lsl	r2, r2, #2
 1996 0018 D358     		ldr	r3, [r2, r3]
 1997 001a FB60     		str	r3, [r7, #12]
 1998 001c 02E0     		b	.L179
 1999              	.L178:
1188:Generated_Source\PSoC4/CyLFClk.c ****         }
1189:Generated_Source\PSoC4/CyLFClk.c ****         else
1190:Generated_Source\PSoC4/CyLFClk.c ****         {
ARM GAS  C:\Users\TTSS\AppData\Local\Temp\ccBAPXR4.s 			page 64


1191:Generated_Source\PSoC4/CyLFClk.c ****             CYASSERT(0u != 0u);
 2000              		.loc 2 1191 0 discriminator 1
 2001 001e 0020     		mov	r0, #0
 2002 0020 FFF7FEFF 		bl	CyHalt
 2003              	.L179:
1192:Generated_Source\PSoC4/CyLFClk.c ****         }
1193:Generated_Source\PSoC4/CyLFClk.c **** 
1194:Generated_Source\PSoC4/CyLFClk.c ****         return(retCallback);
 2004              		.loc 2 1194 0
 2005 0024 FB68     		ldr	r3, [r7, #12]
1195:Generated_Source\PSoC4/CyLFClk.c ****     }
 2006              		.loc 2 1195 0
 2007 0026 181C     		mov	r0, r3
 2008 0028 BD46     		mov	sp, r7
 2009 002a 04B0     		add	sp, sp, #16
 2010              		@ sp needed
 2011 002c 80BD     		pop	{r7, pc}
 2012              	.L182:
 2013 002e C046     		.align	2
 2014              	.L181:
 2015 0030 0C000000 		.word	cySysWdtCallback
 2016              		.cfi_endproc
 2017              	.LFE32:
 2018              		.size	CySysWdtGetInterruptCallback, .-CySysWdtGetInterruptCallback
 2019              		.section	.text.CySysWdtEnableCounterIsr,"ax",%progbits
 2020              		.align	2
 2021              		.global	CySysWdtEnableCounterIsr
 2022              		.code	16
 2023              		.thumb_func
 2024              		.type	CySysWdtEnableCounterIsr, %function
 2025              	CySysWdtEnableCounterIsr:
 2026              	.LFB33:
1196:Generated_Source\PSoC4/CyLFClk.c **** 
1197:Generated_Source\PSoC4/CyLFClk.c **** 
1198:Generated_Source\PSoC4/CyLFClk.c ****     /*******************************************************************************
1199:Generated_Source\PSoC4/CyLFClk.c ****     * Function Name: CySysWdtEnableCounterIsr
1200:Generated_Source\PSoC4/CyLFClk.c ****     ********************************************************************************
1201:Generated_Source\PSoC4/CyLFClk.c ****     *
1202:Generated_Source\PSoC4/CyLFClk.c ****     * Summary:
1203:Generated_Source\PSoC4/CyLFClk.c ****     *  Enables the ISR callback servicing for the particular WDT counter
1204:Generated_Source\PSoC4/CyLFClk.c ****     *
1205:Generated_Source\PSoC4/CyLFClk.c ****     * Parameters:
1206:Generated_Source\PSoC4/CyLFClk.c ****     *  counterNum: Valid range [0-2].  The number of the WDT counter.
1207:Generated_Source\PSoC4/CyLFClk.c ****     *
1208:Generated_Source\PSoC4/CyLFClk.c ****     *******************************************************************************/
1209:Generated_Source\PSoC4/CyLFClk.c ****     void CySysWdtEnableCounterIsr(uint32 counterNum)
1210:Generated_Source\PSoC4/CyLFClk.c ****     {
 2027              		.loc 2 1210 0
 2028              		.cfi_startproc
 2029 0000 80B5     		push	{r7, lr}
 2030              		.cfi_def_cfa_offset 8
 2031              		.cfi_offset 7, -8
 2032              		.cfi_offset 14, -4
 2033 0002 82B0     		sub	sp, sp, #8
 2034              		.cfi_def_cfa_offset 16
 2035 0004 00AF     		add	r7, sp, #0
 2036              		.cfi_def_cfa_register 7
ARM GAS  C:\Users\TTSS\AppData\Local\Temp\ccBAPXR4.s 			page 65


 2037 0006 7860     		str	r0, [r7, #4]
1211:Generated_Source\PSoC4/CyLFClk.c ****         if(counterNum <= CY_SYS_WDT_COUNTER2)
 2038              		.loc 2 1211 0
 2039 0008 7B68     		ldr	r3, [r7, #4]
 2040 000a 022B     		cmp	r3, #2
 2041 000c 13D8     		bhi	.L184
1212:Generated_Source\PSoC4/CyLFClk.c ****         {
1213:Generated_Source\PSoC4/CyLFClk.c ****             disableServicedIsr &= ~counterIntMaskTbl[counterNum];
 2042              		.loc 2 1213 0
 2043 000e 0D4B     		ldr	r3, .L186
 2044 0010 7A68     		ldr	r2, [r7, #4]
 2045 0012 9200     		lsl	r2, r2, #2
 2046 0014 D358     		ldr	r3, [r2, r3]
 2047 0016 DA43     		mvn	r2, r3
 2048 0018 0B4B     		ldr	r3, .L186+4
 2049 001a 1B68     		ldr	r3, [r3]
 2050 001c 1A40     		and	r2, r3
 2051 001e 0A4B     		ldr	r3, .L186+4
 2052 0020 1A60     		str	r2, [r3]
1214:Generated_Source\PSoC4/CyLFClk.c ****             wdtIsrMask |= counterIntMaskTbl[counterNum];
 2053              		.loc 2 1214 0
 2054 0022 084B     		ldr	r3, .L186
 2055 0024 7A68     		ldr	r2, [r7, #4]
 2056 0026 9200     		lsl	r2, r2, #2
 2057 0028 D258     		ldr	r2, [r2, r3]
 2058 002a 084B     		ldr	r3, .L186+8
 2059 002c 1B68     		ldr	r3, [r3]
 2060 002e 1A43     		orr	r2, r3
 2061 0030 064B     		ldr	r3, .L186+8
 2062 0032 1A60     		str	r2, [r3]
 2063 0034 02E0     		b	.L183
 2064              	.L184:
1215:Generated_Source\PSoC4/CyLFClk.c ****         }
1216:Generated_Source\PSoC4/CyLFClk.c ****         else
1217:Generated_Source\PSoC4/CyLFClk.c ****         {
1218:Generated_Source\PSoC4/CyLFClk.c ****             CYASSERT(0u != 0u);
 2065              		.loc 2 1218 0 discriminator 1
 2066 0036 0020     		mov	r0, #0
 2067 0038 FFF7FEFF 		bl	CyHalt
 2068              	.L183:
1219:Generated_Source\PSoC4/CyLFClk.c ****         }
1220:Generated_Source\PSoC4/CyLFClk.c ****     }
 2069              		.loc 2 1220 0
 2070 003c BD46     		mov	sp, r7
 2071 003e 02B0     		add	sp, sp, #8
 2072              		@ sp needed
 2073 0040 80BD     		pop	{r7, pc}
 2074              	.L187:
 2075 0042 C046     		.align	2
 2076              	.L186:
 2077 0044 00000000 		.word	counterIntMaskTbl
 2078 0048 08000000 		.word	disableServicedIsr
 2079 004c 00000000 		.word	wdtIsrMask
 2080              		.cfi_endproc
 2081              	.LFE33:
 2082              		.size	CySysWdtEnableCounterIsr, .-CySysWdtEnableCounterIsr
 2083              		.section	.text.CySysWdtDisableCounterIsr,"ax",%progbits
ARM GAS  C:\Users\TTSS\AppData\Local\Temp\ccBAPXR4.s 			page 66


 2084              		.align	2
 2085              		.global	CySysWdtDisableCounterIsr
 2086              		.code	16
 2087              		.thumb_func
 2088              		.type	CySysWdtDisableCounterIsr, %function
 2089              	CySysWdtDisableCounterIsr:
 2090              	.LFB34:
1221:Generated_Source\PSoC4/CyLFClk.c **** 
1222:Generated_Source\PSoC4/CyLFClk.c **** 
1223:Generated_Source\PSoC4/CyLFClk.c ****     /*******************************************************************************
1224:Generated_Source\PSoC4/CyLFClk.c ****     * Function Name: CySysWdtDisableCounterIsr
1225:Generated_Source\PSoC4/CyLFClk.c ****     ********************************************************************************
1226:Generated_Source\PSoC4/CyLFClk.c ****     *
1227:Generated_Source\PSoC4/CyLFClk.c ****     * Summary:
1228:Generated_Source\PSoC4/CyLFClk.c ****     *  Disables the ISR callback servicing for the particular WDT counter
1229:Generated_Source\PSoC4/CyLFClk.c ****     *
1230:Generated_Source\PSoC4/CyLFClk.c ****     * Parameters:
1231:Generated_Source\PSoC4/CyLFClk.c ****     *  counterNum: Valid range [0-2].  The number of the WDT counter.
1232:Generated_Source\PSoC4/CyLFClk.c ****     *
1233:Generated_Source\PSoC4/CyLFClk.c ****     *******************************************************************************/
1234:Generated_Source\PSoC4/CyLFClk.c ****     void CySysWdtDisableCounterIsr(uint32 counterNum)
1235:Generated_Source\PSoC4/CyLFClk.c ****     {
 2091              		.loc 2 1235 0
 2092              		.cfi_startproc
 2093 0000 80B5     		push	{r7, lr}
 2094              		.cfi_def_cfa_offset 8
 2095              		.cfi_offset 7, -8
 2096              		.cfi_offset 14, -4
 2097 0002 82B0     		sub	sp, sp, #8
 2098              		.cfi_def_cfa_offset 16
 2099 0004 00AF     		add	r7, sp, #0
 2100              		.cfi_def_cfa_register 7
 2101 0006 7860     		str	r0, [r7, #4]
1236:Generated_Source\PSoC4/CyLFClk.c ****         if(counterNum <= CY_SYS_WDT_COUNTER2)
 2102              		.loc 2 1236 0
 2103 0008 7B68     		ldr	r3, [r7, #4]
 2104 000a 022B     		cmp	r3, #2
 2105 000c 0AD8     		bhi	.L189
1237:Generated_Source\PSoC4/CyLFClk.c ****         {
1238:Generated_Source\PSoC4/CyLFClk.c ****             wdtIsrMask &= ~counterIntMaskTbl[counterNum];
 2106              		.loc 2 1238 0
 2107 000e 084B     		ldr	r3, .L191
 2108 0010 7A68     		ldr	r2, [r7, #4]
 2109 0012 9200     		lsl	r2, r2, #2
 2110 0014 D358     		ldr	r3, [r2, r3]
 2111 0016 DA43     		mvn	r2, r3
 2112 0018 064B     		ldr	r3, .L191+4
 2113 001a 1B68     		ldr	r3, [r3]
 2114 001c 1A40     		and	r2, r3
 2115 001e 054B     		ldr	r3, .L191+4
 2116 0020 1A60     		str	r2, [r3]
 2117 0022 02E0     		b	.L188
 2118              	.L189:
1239:Generated_Source\PSoC4/CyLFClk.c ****         }
1240:Generated_Source\PSoC4/CyLFClk.c ****         else
1241:Generated_Source\PSoC4/CyLFClk.c ****         {
1242:Generated_Source\PSoC4/CyLFClk.c ****             CYASSERT(0u != 0u);
ARM GAS  C:\Users\TTSS\AppData\Local\Temp\ccBAPXR4.s 			page 67


 2119              		.loc 2 1242 0 discriminator 1
 2120 0024 0020     		mov	r0, #0
 2121 0026 FFF7FEFF 		bl	CyHalt
 2122              	.L188:
1243:Generated_Source\PSoC4/CyLFClk.c ****         }
1244:Generated_Source\PSoC4/CyLFClk.c ****     }
 2123              		.loc 2 1244 0
 2124 002a BD46     		mov	sp, r7
 2125 002c 02B0     		add	sp, sp, #8
 2126              		@ sp needed
 2127 002e 80BD     		pop	{r7, pc}
 2128              	.L192:
 2129              		.align	2
 2130              	.L191:
 2131 0030 00000000 		.word	counterIntMaskTbl
 2132 0034 00000000 		.word	wdtIsrMask
 2133              		.cfi_endproc
 2134              	.LFE34:
 2135              		.size	CySysWdtDisableCounterIsr, .-CySysWdtDisableCounterIsr
 2136              		.section	.text.CySysWdtIsr,"ax",%progbits
 2137              		.align	2
 2138              		.global	CySysWdtIsr
 2139              		.code	16
 2140              		.thumb_func
 2141              		.type	CySysWdtIsr, %function
 2142              	CySysWdtIsr:
 2143              	.LFB35:
1245:Generated_Source\PSoC4/CyLFClk.c **** 
1246:Generated_Source\PSoC4/CyLFClk.c **** 
1247:Generated_Source\PSoC4/CyLFClk.c ****     /*******************************************************************************
1248:Generated_Source\PSoC4/CyLFClk.c ****     * Function Name: CySysWdtIsr
1249:Generated_Source\PSoC4/CyLFClk.c ****     ********************************************************************************
1250:Generated_Source\PSoC4/CyLFClk.c ****     *
1251:Generated_Source\PSoC4/CyLFClk.c ****     * Summary:
1252:Generated_Source\PSoC4/CyLFClk.c ****     *  This is the handler of the WDT interrupt in CPU NVIC. The handler checks
1253:Generated_Source\PSoC4/CyLFClk.c ****     *  which WDT triggered in the interrupt and calls the respective callback
1254:Generated_Source\PSoC4/CyLFClk.c ****     *  functions configured by the user by using CySysWdtSetIsrCallback() API.
1255:Generated_Source\PSoC4/CyLFClk.c ****     *
1256:Generated_Source\PSoC4/CyLFClk.c ****     *  The order of the callback execution is incremental. Callback-0 is
1257:Generated_Source\PSoC4/CyLFClk.c ****     *  run as the first one and callback-2 is called as the last one.
1258:Generated_Source\PSoC4/CyLFClk.c ****     *
1259:Generated_Source\PSoC4/CyLFClk.c ****     * Parameters:
1260:Generated_Source\PSoC4/CyLFClk.c ****     *  None.
1261:Generated_Source\PSoC4/CyLFClk.c ****     *
1262:Generated_Source\PSoC4/CyLFClk.c ****     * Return:
1263:Generated_Source\PSoC4/CyLFClk.c ****     *  None.
1264:Generated_Source\PSoC4/CyLFClk.c ****     *
1265:Generated_Source\PSoC4/CyLFClk.c ****     * Side Effects:
1266:Generated_Source\PSoC4/CyLFClk.c ****     *  This function clears the WDT interrupt every time when it is called.
1267:Generated_Source\PSoC4/CyLFClk.c ****     *  Reset after the 3rd interrupt does not happen if this function is registered
1268:Generated_Source\PSoC4/CyLFClk.c ****     *  as the interrupt handler even if the "Watchdog with Interrupt" mode is
1269:Generated_Source\PSoC4/CyLFClk.c ****     *  selected on the "Low Frequency Clocks" tab.
1270:Generated_Source\PSoC4/CyLFClk.c ****     *
1271:Generated_Source\PSoC4/CyLFClk.c ****     *******************************************************************************/
1272:Generated_Source\PSoC4/CyLFClk.c ****     void CySysWdtIsr(void)
1273:Generated_Source\PSoC4/CyLFClk.c ****     {
 2144              		.loc 2 1273 0
ARM GAS  C:\Users\TTSS\AppData\Local\Temp\ccBAPXR4.s 			page 68


 2145              		.cfi_startproc
 2146 0000 80B5     		push	{r7, lr}
 2147              		.cfi_def_cfa_offset 8
 2148              		.cfi_offset 7, -8
 2149              		.cfi_offset 14, -4
 2150 0002 00AF     		add	r7, sp, #0
 2151              		.cfi_def_cfa_register 7
1274:Generated_Source\PSoC4/CyLFClk.c ****         if(0u != (CY_SYS_WDT_COUNTER0_INT & CY_SYS_WDT_CONTROL_REG))
 2152              		.loc 2 1274 0
 2153 0004 334B     		ldr	r3, .L200
 2154 0006 1B68     		ldr	r3, [r3]
 2155 0008 0422     		mov	r2, #4
 2156 000a 1340     		and	r3, r2
 2157 000c 1FD0     		beq	.L194
1275:Generated_Source\PSoC4/CyLFClk.c ****         {
1276:Generated_Source\PSoC4/CyLFClk.c ****             if(0u != (CY_SYS_WDT_COUNTER0_INT & wdtIsrMask))
 2158              		.loc 2 1276 0
 2159 000e 324B     		ldr	r3, .L200+4
 2160 0010 1B68     		ldr	r3, [r3]
 2161 0012 0422     		mov	r2, #4
 2162 0014 1340     		and	r3, r2
 2163 0016 17D0     		beq	.L195
1277:Generated_Source\PSoC4/CyLFClk.c ****             {
1278:Generated_Source\PSoC4/CyLFClk.c ****                 wdtIsrMask &= ~(disableServicedIsr & CY_SYS_WDT_COUNTER0_INT);
 2164              		.loc 2 1278 0
 2165 0018 304B     		ldr	r3, .L200+8
 2166 001a 1B68     		ldr	r3, [r3]
 2167 001c 0422     		mov	r2, #4
 2168 001e 1340     		and	r3, r2
 2169 0020 DA43     		mvn	r2, r3
 2170 0022 2D4B     		ldr	r3, .L200+4
 2171 0024 1B68     		ldr	r3, [r3]
 2172 0026 1A40     		and	r2, r3
 2173 0028 2B4B     		ldr	r3, .L200+4
 2174 002a 1A60     		str	r2, [r3]
1279:Generated_Source\PSoC4/CyLFClk.c ****                 disableServicedIsr  &= ~CY_SYS_WDT_COUNTER0_INT;
 2175              		.loc 2 1279 0
 2176 002c 2B4B     		ldr	r3, .L200+8
 2177 002e 1B68     		ldr	r3, [r3]
 2178 0030 0422     		mov	r2, #4
 2179 0032 9343     		bic	r3, r2
 2180 0034 1A1C     		mov	r2, r3
 2181 0036 294B     		ldr	r3, .L200+8
 2182 0038 1A60     		str	r2, [r3]
1280:Generated_Source\PSoC4/CyLFClk.c ****                 if(cySysWdtCallback[CY_SYS_WDT_COUNTER0] != (void *) 0)
 2183              		.loc 2 1280 0
 2184 003a 294B     		ldr	r3, .L200+12
 2185 003c 1B68     		ldr	r3, [r3]
 2186 003e 002B     		cmp	r3, #0
 2187 0040 02D0     		beq	.L195
1281:Generated_Source\PSoC4/CyLFClk.c ****                 {
1282:Generated_Source\PSoC4/CyLFClk.c ****                     (void)(cySysWdtCallback[CY_SYS_WDT_COUNTER0])();
 2188              		.loc 2 1282 0
 2189 0042 274B     		ldr	r3, .L200+12
 2190 0044 1B68     		ldr	r3, [r3]
 2191 0046 9847     		blx	r3
 2192              	.L195:
ARM GAS  C:\Users\TTSS\AppData\Local\Temp\ccBAPXR4.s 			page 69


1283:Generated_Source\PSoC4/CyLFClk.c ****                 }
1284:Generated_Source\PSoC4/CyLFClk.c ****             }
1285:Generated_Source\PSoC4/CyLFClk.c ****             CySysWdtClearInterrupt(CY_SYS_WDT_COUNTER0_INT);
 2193              		.loc 2 1285 0
 2194 0048 0420     		mov	r0, #4
 2195 004a FFF7FEFF 		bl	CySysWdtClearInterrupt
 2196              	.L194:
1286:Generated_Source\PSoC4/CyLFClk.c ****         }
1287:Generated_Source\PSoC4/CyLFClk.c **** 
1288:Generated_Source\PSoC4/CyLFClk.c ****         if(0u != (CY_SYS_WDT_COUNTER1_INT & CY_SYS_WDT_CONTROL_REG))
 2197              		.loc 2 1288 0
 2198 004e 214B     		ldr	r3, .L200
 2199 0050 1A68     		ldr	r2, [r3]
 2200 0052 8023     		mov	r3, #128
 2201 0054 DB00     		lsl	r3, r3, #3
 2202 0056 1340     		and	r3, r2
 2203 0058 22D0     		beq	.L196
1289:Generated_Source\PSoC4/CyLFClk.c ****         {
1290:Generated_Source\PSoC4/CyLFClk.c ****             if(0u != (CY_SYS_WDT_COUNTER1_INT & wdtIsrMask))
 2204              		.loc 2 1290 0
 2205 005a 1F4B     		ldr	r3, .L200+4
 2206 005c 1A68     		ldr	r2, [r3]
 2207 005e 8023     		mov	r3, #128
 2208 0060 DB00     		lsl	r3, r3, #3
 2209 0062 1340     		and	r3, r2
 2210 0064 17D0     		beq	.L197
1291:Generated_Source\PSoC4/CyLFClk.c ****             {
1292:Generated_Source\PSoC4/CyLFClk.c ****                 wdtIsrMask &= ~(disableServicedIsr & CY_SYS_WDT_COUNTER1_INT);
 2211              		.loc 2 1292 0
 2212 0066 1D4B     		ldr	r3, .L200+8
 2213 0068 1A68     		ldr	r2, [r3]
 2214 006a 8023     		mov	r3, #128
 2215 006c DB00     		lsl	r3, r3, #3
 2216 006e 1340     		and	r3, r2
 2217 0070 DA43     		mvn	r2, r3
 2218 0072 194B     		ldr	r3, .L200+4
 2219 0074 1B68     		ldr	r3, [r3]
 2220 0076 1A40     		and	r2, r3
 2221 0078 174B     		ldr	r3, .L200+4
 2222 007a 1A60     		str	r2, [r3]
1293:Generated_Source\PSoC4/CyLFClk.c ****                 disableServicedIsr  &= ~CY_SYS_WDT_COUNTER1_INT;
 2223              		.loc 2 1293 0
 2224 007c 174B     		ldr	r3, .L200+8
 2225 007e 1B68     		ldr	r3, [r3]
 2226 0080 184A     		ldr	r2, .L200+16
 2227 0082 1A40     		and	r2, r3
 2228 0084 154B     		ldr	r3, .L200+8
 2229 0086 1A60     		str	r2, [r3]
1294:Generated_Source\PSoC4/CyLFClk.c ****                 if(cySysWdtCallback[CY_SYS_WDT_COUNTER1] != (void *) 0)
 2230              		.loc 2 1294 0
 2231 0088 154B     		ldr	r3, .L200+12
 2232 008a 5B68     		ldr	r3, [r3, #4]
 2233 008c 002B     		cmp	r3, #0
 2234 008e 02D0     		beq	.L197
1295:Generated_Source\PSoC4/CyLFClk.c ****                 {
1296:Generated_Source\PSoC4/CyLFClk.c ****                     (void)(cySysWdtCallback[CY_SYS_WDT_COUNTER1])();
 2235              		.loc 2 1296 0
ARM GAS  C:\Users\TTSS\AppData\Local\Temp\ccBAPXR4.s 			page 70


 2236 0090 134B     		ldr	r3, .L200+12
 2237 0092 5B68     		ldr	r3, [r3, #4]
 2238 0094 9847     		blx	r3
 2239              	.L197:
1297:Generated_Source\PSoC4/CyLFClk.c ****                 }
1298:Generated_Source\PSoC4/CyLFClk.c ****             }
1299:Generated_Source\PSoC4/CyLFClk.c ****             CySysWdtClearInterrupt(CY_SYS_WDT_COUNTER1_INT);
 2240              		.loc 2 1299 0
 2241 0096 8023     		mov	r3, #128
 2242 0098 DB00     		lsl	r3, r3, #3
 2243 009a 181C     		mov	r0, r3
 2244 009c FFF7FEFF 		bl	CySysWdtClearInterrupt
 2245              	.L196:
1300:Generated_Source\PSoC4/CyLFClk.c ****         }
1301:Generated_Source\PSoC4/CyLFClk.c **** 
1302:Generated_Source\PSoC4/CyLFClk.c ****         if(0u != (CY_SYS_WDT_COUNTER2_INT & CY_SYS_WDT_CONTROL_REG))
 2246              		.loc 2 1302 0
 2247 00a0 0C4B     		ldr	r3, .L200
 2248 00a2 1A68     		ldr	r2, [r3]
 2249 00a4 8023     		mov	r3, #128
 2250 00a6 DB02     		lsl	r3, r3, #11
 2251 00a8 1340     		and	r3, r2
 2252 00aa 11D0     		beq	.L193
1303:Generated_Source\PSoC4/CyLFClk.c ****         {
1304:Generated_Source\PSoC4/CyLFClk.c ****             if(0u != (CY_SYS_WDT_COUNTER2_INT & wdtIsrMask))
 2253              		.loc 2 1304 0
 2254 00ac 0A4B     		ldr	r3, .L200+4
 2255 00ae 1A68     		ldr	r2, [r3]
 2256 00b0 8023     		mov	r3, #128
 2257 00b2 DB02     		lsl	r3, r3, #11
 2258 00b4 1340     		and	r3, r2
 2259 00b6 06D0     		beq	.L199
1305:Generated_Source\PSoC4/CyLFClk.c ****             {
1306:Generated_Source\PSoC4/CyLFClk.c ****                 if(cySysWdtCallback[CY_SYS_WDT_COUNTER2] != (void *) 0)
 2260              		.loc 2 1306 0
 2261 00b8 094B     		ldr	r3, .L200+12
 2262 00ba 9B68     		ldr	r3, [r3, #8]
 2263 00bc 002B     		cmp	r3, #0
 2264 00be 02D0     		beq	.L199
1307:Generated_Source\PSoC4/CyLFClk.c ****                 {
1308:Generated_Source\PSoC4/CyLFClk.c ****                     (void)(cySysWdtCallback[CY_SYS_WDT_COUNTER2])();
 2265              		.loc 2 1308 0
 2266 00c0 074B     		ldr	r3, .L200+12
 2267 00c2 9B68     		ldr	r3, [r3, #8]
 2268 00c4 9847     		blx	r3
 2269              	.L199:
1309:Generated_Source\PSoC4/CyLFClk.c ****                 }
1310:Generated_Source\PSoC4/CyLFClk.c ****             }
1311:Generated_Source\PSoC4/CyLFClk.c ****             CySysWdtClearInterrupt(CY_SYS_WDT_COUNTER2_INT);
 2270              		.loc 2 1311 0
 2271 00c6 8023     		mov	r3, #128
 2272 00c8 DB02     		lsl	r3, r3, #11
 2273 00ca 181C     		mov	r0, r3
 2274 00cc FFF7FEFF 		bl	CySysWdtClearInterrupt
 2275              	.L193:
1312:Generated_Source\PSoC4/CyLFClk.c ****         }
1313:Generated_Source\PSoC4/CyLFClk.c ****     }
ARM GAS  C:\Users\TTSS\AppData\Local\Temp\ccBAPXR4.s 			page 71


 2276              		.loc 2 1313 0
 2277 00d0 BD46     		mov	sp, r7
 2278              		@ sp needed
 2279 00d2 80BD     		pop	{r7, pc}
 2280              	.L201:
 2281              		.align	2
 2282              	.L200:
 2283 00d4 10020B40 		.word	1074463248
 2284 00d8 00000000 		.word	wdtIsrMask
 2285 00dc 08000000 		.word	disableServicedIsr
 2286 00e0 0C000000 		.word	cySysWdtCallback
 2287 00e4 FFFBFFFF 		.word	-1025
 2288              		.cfi_endproc
 2289              	.LFE35:
 2290              		.size	CySysWdtIsr, .-CySysWdtIsr
 2291              		.section	.text.CySysTimerDelay,"ax",%progbits
 2292              		.align	2
 2293              		.global	CySysTimerDelay
 2294              		.code	16
 2295              		.thumb_func
 2296              		.type	CySysTimerDelay, %function
 2297              	CySysTimerDelay:
 2298              	.LFB36:
1314:Generated_Source\PSoC4/CyLFClk.c **** 
1315:Generated_Source\PSoC4/CyLFClk.c **** 
1316:Generated_Source\PSoC4/CyLFClk.c ****     /*******************************************************************************
1317:Generated_Source\PSoC4/CyLFClk.c ****     * Function Name: CySysTimerDelay
1318:Generated_Source\PSoC4/CyLFClk.c ****     ********************************************************************************
1319:Generated_Source\PSoC4/CyLFClk.c ****     *
1320:Generated_Source\PSoC4/CyLFClk.c ****     * Summary:
1321:Generated_Source\PSoC4/CyLFClk.c ****     *  The function implements the delay specified in the LFCLK clock ticks. The
1322:Generated_Source\PSoC4/CyLFClk.c ****     *  specified WDT counter should be configured as described below and started.
1323:Generated_Source\PSoC4/CyLFClk.c ****     *
1324:Generated_Source\PSoC4/CyLFClk.c ****     *  This function can operate in two modes: the "WAIT" and "INTERRUPT" modes. In
1325:Generated_Source\PSoC4/CyLFClk.c ****     *  the "WAIT" mode, the function waits for the specified number of ticks. In the
1326:Generated_Source\PSoC4/CyLFClk.c ****     *  "INTERRUPT" mode, the interrupt is generated after the specified number of
1327:Generated_Source\PSoC4/CyLFClk.c ****     *  ticks.
1328:Generated_Source\PSoC4/CyLFClk.c ****     *
1329:Generated_Source\PSoC4/CyLFClk.c ****     *  For the correct function operation, the "Clear On Match" option should be
1330:Generated_Source\PSoC4/CyLFClk.c ****     *  disabled for the specified WDT counter. Use CySysWdtSetClearOnMatch()
1331:Generated_Source\PSoC4/CyLFClk.c ****     *  function with the "enable" parameter equal to zero for the used WDT counter.
1332:Generated_Source\PSoC4/CyLFClk.c ****     *
1333:Generated_Source\PSoC4/CyLFClk.c ****     *  The corresponding WDT counter should be configured to match the selected
1334:Generated_Source\PSoC4/CyLFClk.c ****     *  mode: "Free running Timer" for the "WAIT" mode, and
1335:Generated_Source\PSoC4/CyLFClk.c ****     *  "Periodic Timer" / "Watchdog (w/Interrupt)" for the "INTERRUPT" mode.
1336:Generated_Source\PSoC4/CyLFClk.c ****     *
1337:Generated_Source\PSoC4/CyLFClk.c ****     *  This can be configured in two ways:
1338:Generated_Source\PSoC4/CyLFClk.c ****     *  - Through the DWR page. Open the "Clocks" tab, click the "Edit Clocks..."
1339:Generated_Source\PSoC4/CyLFClk.c ****     *    button, in the "Configure System Clocks" window click on the
1340:Generated_Source\PSoC4/CyLFClk.c ****     *    "Low Frequency Clocks" tab and choose the appropriate option for the used
1341:Generated_Source\PSoC4/CyLFClk.c ****     *    WDT counter.
1342:Generated_Source\PSoC4/CyLFClk.c ****     *
1343:Generated_Source\PSoC4/CyLFClk.c ****     *  - Through the CySysWdtSetMode() function. Call it with the appropriate mode
1344:Generated_Source\PSoC4/CyLFClk.c ****     *    parameter for the used WDT counter.
1345:Generated_Source\PSoC4/CyLFClk.c ****     *
1346:Generated_Source\PSoC4/CyLFClk.c ****     *  For the "INTERRUPT" mode, the recommended sequence is the following:
1347:Generated_Source\PSoC4/CyLFClk.c ****     *  - Call the CySysWdtDisableCounterIsr() function to disable servicing
ARM GAS  C:\Users\TTSS\AppData\Local\Temp\ccBAPXR4.s 			page 72


1348:Generated_Source\PSoC4/CyLFClk.c ****     *    interrupts of the specified WDT counter.
1349:Generated_Source\PSoC4/CyLFClk.c ****     *
1350:Generated_Source\PSoC4/CyLFClk.c ****     *  - Call the CySysWdtSetInterruptCallback() function to register the callback
1351:Generated_Source\PSoC4/CyLFClk.c ****     *    function for the corresponding WDT counter.
1352:Generated_Source\PSoC4/CyLFClk.c ****     *
1353:Generated_Source\PSoC4/CyLFClk.c ****     *  - Call the CySysTimerDelay() function.
1354:Generated_Source\PSoC4/CyLFClk.c ****     *
1355:Generated_Source\PSoC4/CyLFClk.c ****     * Parameters:
1356:Generated_Source\PSoC4/CyLFClk.c ****     *  counterNum: Valid range [0-1]. The number of the WDT counter (WDT0 or WDT1).
1357:Generated_Source\PSoC4/CyLFClk.c ****     *  delayType : Defines the operation mode.
1358:Generated_Source\PSoC4/CyLFClk.c ****     *               CY_SYS_TIMER_WAIT       "WAIT" mode.
1359:Generated_Source\PSoC4/CyLFClk.c ****     *               CY_SYS_TIMER_INTERRUPT  "INTERRUPT" mode.
1360:Generated_Source\PSoC4/CyLFClk.c ****     *  delay:  The delay value in the LFCLK ticks (allowable range - 16-bit value).
1361:Generated_Source\PSoC4/CyLFClk.c ****     *
1362:Generated_Source\PSoC4/CyLFClk.c ****     * Return:
1363:Generated_Source\PSoC4/CyLFClk.c ****     *  None
1364:Generated_Source\PSoC4/CyLFClk.c ****     *
1365:Generated_Source\PSoC4/CyLFClk.c ****     * Side effects:
1366:Generated_Source\PSoC4/CyLFClk.c ****     *  In the "INTERRUPT" mode, this function enables ISR callback servicing
1367:Generated_Source\PSoC4/CyLFClk.c ****     *  from the corresponding WDT counter. Servicing of this ISR callback will be
1368:Generated_Source\PSoC4/CyLFClk.c ****     *  disabled after the expiration of the delay time.
1369:Generated_Source\PSoC4/CyLFClk.c ****     *
1370:Generated_Source\PSoC4/CyLFClk.c ****     *******************************************************************************/
1371:Generated_Source\PSoC4/CyLFClk.c ****     void CySysTimerDelay(uint32 counterNum, cy_sys_timer_delaytype_enum delayType, uint32 delay)
1372:Generated_Source\PSoC4/CyLFClk.c ****     {
 2299              		.loc 2 1372 0
 2300              		.cfi_startproc
 2301 0000 80B5     		push	{r7, lr}
 2302              		.cfi_def_cfa_offset 8
 2303              		.cfi_offset 7, -8
 2304              		.cfi_offset 14, -4
 2305 0002 86B0     		sub	sp, sp, #24
 2306              		.cfi_def_cfa_offset 32
 2307 0004 00AF     		add	r7, sp, #0
 2308              		.cfi_def_cfa_register 7
 2309 0006 F860     		str	r0, [r7, #12]
 2310 0008 7A60     		str	r2, [r7, #4]
 2311 000a 0B23     		mov	r3, #11
 2312 000c FB18     		add	r3, r7, r3
 2313 000e 0A1C     		add	r2, r1, #0
 2314 0010 1A70     		strb	r2, [r3]
1373:Generated_Source\PSoC4/CyLFClk.c ****         uint32 regValue;
1374:Generated_Source\PSoC4/CyLFClk.c ****         uint32 matchValue;
1375:Generated_Source\PSoC4/CyLFClk.c **** 
1376:Generated_Source\PSoC4/CyLFClk.c ****         if((counterNum < CY_SYS_WDT_COUNTER2) && (0uL == CySysWdtGetClearOnMatch(counterNum)) && (d
 2315              		.loc 2 1376 0
 2316 0012 FB68     		ldr	r3, [r7, #12]
 2317 0014 012B     		cmp	r3, #1
 2318 0016 20D8     		bhi	.L203
 2319              		.loc 2 1376 0 is_stmt 0 discriminator 1
 2320 0018 FB68     		ldr	r3, [r7, #12]
 2321 001a 181C     		mov	r0, r3
 2322 001c FFF7FEFF 		bl	CySysWdtGetClearOnMatch
 2323 0020 031E     		sub	r3, r0, #0
 2324 0022 1AD1     		bne	.L203
 2325              		.loc 2 1376 0 discriminator 2
 2326 0024 7B68     		ldr	r3, [r7, #4]
ARM GAS  C:\Users\TTSS\AppData\Local\Temp\ccBAPXR4.s 			page 73


 2327 0026 104A     		ldr	r2, .L205
 2328 0028 9342     		cmp	r3, r2
 2329 002a 16D8     		bhi	.L203
1377:Generated_Source\PSoC4/CyLFClk.c ****         {
1378:Generated_Source\PSoC4/CyLFClk.c ****             regValue   = CySysWdtGetCount(counterNum);
 2330              		.loc 2 1378 0 is_stmt 1
 2331 002c FB68     		ldr	r3, [r7, #12]
 2332 002e 181C     		mov	r0, r3
 2333 0030 FFF7FEFF 		bl	CySysWdtGetCount
 2334 0034 031C     		mov	r3, r0
 2335 0036 7B61     		str	r3, [r7, #20]
1379:Generated_Source\PSoC4/CyLFClk.c ****             matchValue = (regValue + delay) & (uint32)UINT16_MAX_VAL;
 2336              		.loc 2 1379 0
 2337 0038 7A69     		ldr	r2, [r7, #20]
 2338 003a 7B68     		ldr	r3, [r7, #4]
 2339 003c D318     		add	r3, r2, r3
 2340 003e 1B04     		lsl	r3, r3, #16
 2341 0040 1B0C     		lsr	r3, r3, #16
 2342 0042 3B61     		str	r3, [r7, #16]
1380:Generated_Source\PSoC4/CyLFClk.c **** 
1381:Generated_Source\PSoC4/CyLFClk.c ****             CySysTimerDelayUntilMatch(counterNum, delayType, matchValue);
 2343              		.loc 2 1381 0
 2344 0044 F968     		ldr	r1, [r7, #12]
 2345 0046 0B23     		mov	r3, #11
 2346 0048 FB18     		add	r3, r7, r3
 2347 004a 1A78     		ldrb	r2, [r3]
 2348 004c 3B69     		ldr	r3, [r7, #16]
 2349 004e 081C     		mov	r0, r1
 2350 0050 111C     		mov	r1, r2
 2351 0052 1A1C     		mov	r2, r3
 2352 0054 FFF7FEFF 		bl	CySysTimerDelayUntilMatch
 2353 0058 02E0     		b	.L202
 2354              	.L203:
1382:Generated_Source\PSoC4/CyLFClk.c ****         }
1383:Generated_Source\PSoC4/CyLFClk.c ****         else
1384:Generated_Source\PSoC4/CyLFClk.c ****         {
1385:Generated_Source\PSoC4/CyLFClk.c ****             CYASSERT(0u != 0u);
 2355              		.loc 2 1385 0 discriminator 1
 2356 005a 0020     		mov	r0, #0
 2357 005c FFF7FEFF 		bl	CyHalt
 2358              	.L202:
1386:Generated_Source\PSoC4/CyLFClk.c ****         }
1387:Generated_Source\PSoC4/CyLFClk.c ****     }
 2359              		.loc 2 1387 0
 2360 0060 BD46     		mov	sp, r7
 2361 0062 06B0     		add	sp, sp, #24
 2362              		@ sp needed
 2363 0064 80BD     		pop	{r7, pc}
 2364              	.L206:
 2365 0066 C046     		.align	2
 2366              	.L205:
 2367 0068 FFFF0000 		.word	65535
 2368              		.cfi_endproc
 2369              	.LFE36:
 2370              		.size	CySysTimerDelay, .-CySysTimerDelay
 2371              		.section	.text.CySysTimerDelayUntilMatch,"ax",%progbits
 2372              		.align	2
ARM GAS  C:\Users\TTSS\AppData\Local\Temp\ccBAPXR4.s 			page 74


 2373              		.global	CySysTimerDelayUntilMatch
 2374              		.code	16
 2375              		.thumb_func
 2376              		.type	CySysTimerDelayUntilMatch, %function
 2377              	CySysTimerDelayUntilMatch:
 2378              	.LFB37:
1388:Generated_Source\PSoC4/CyLFClk.c **** 
1389:Generated_Source\PSoC4/CyLFClk.c **** 
1390:Generated_Source\PSoC4/CyLFClk.c ****     /*******************************************************************************
1391:Generated_Source\PSoC4/CyLFClk.c ****     * Function Name: CySysTimerDelayUntilMatch
1392:Generated_Source\PSoC4/CyLFClk.c ****     ********************************************************************************
1393:Generated_Source\PSoC4/CyLFClk.c ****     *
1394:Generated_Source\PSoC4/CyLFClk.c ****     * Summary:
1395:Generated_Source\PSoC4/CyLFClk.c ****     *  The function implements the delay specified as the number of LFCLK ticks
1396:Generated_Source\PSoC4/CyLFClk.c ****     *  between the specified WDT counter's current value and the "match" passed as
1397:Generated_Source\PSoC4/CyLFClk.c ****     *  the parameter to this function. The current WDT counter value can be obtained
1398:Generated_Source\PSoC4/CyLFClk.c ****     *  using the CySysWdtGetCount() function.
1399:Generated_Source\PSoC4/CyLFClk.c ****     *
1400:Generated_Source\PSoC4/CyLFClk.c ****     *  This function can operate in two modes: the "WAIT" and "INTERRUPT" mode. In
1401:Generated_Source\PSoC4/CyLFClk.c ****     *  the "WAIT" mode, the function waits while the used WDT counter value becomes
1402:Generated_Source\PSoC4/CyLFClk.c ****     *  equal to the match value. In the "INTERRUPT" mode, the interrupt is generated
1403:Generated_Source\PSoC4/CyLFClk.c ****     *  when the used WDT counter became equal to the "match" value.
1404:Generated_Source\PSoC4/CyLFClk.c ****     *
1405:Generated_Source\PSoC4/CyLFClk.c ****     *  For the correct function operation, the "Clear On Match" option should be
1406:Generated_Source\PSoC4/CyLFClk.c ****     *  disabled for the specified WDT counter. Use CySysWdtSetClearOnMatch()
1407:Generated_Source\PSoC4/CyLFClk.c ****     *  function with the "enable" parameter equal to zero for the used WDT counter.
1408:Generated_Source\PSoC4/CyLFClk.c ****     *
1409:Generated_Source\PSoC4/CyLFClk.c ****     *  The corresponding WDT counter should be configured to match the selected mode:
1410:Generated_Source\PSoC4/CyLFClk.c ****     *  "Free running Timer" for the "WAIT" mode, and "Periodic Timer" / "Watchdog
1411:Generated_Source\PSoC4/CyLFClk.c ****     *  (w/Interrupt)" for the "INTERRUPT" mode.
1412:Generated_Source\PSoC4/CyLFClk.c ****     *
1413:Generated_Source\PSoC4/CyLFClk.c ****     *  This can be configured in two ways:
1414:Generated_Source\PSoC4/CyLFClk.c ****     *  - Through the DWR page. Open the "Clocks" tab, click the "Edit Clocks..."
1415:Generated_Source\PSoC4/CyLFClk.c ****     *    button, in the "Configure System Clocks" window click on the
1416:Generated_Source\PSoC4/CyLFClk.c ****     *    "Low Frequency Clocks" tab and choose the appropriate option for the used
1417:Generated_Source\PSoC4/CyLFClk.c ****     *    WDT counter.
1418:Generated_Source\PSoC4/CyLFClk.c ****     *
1419:Generated_Source\PSoC4/CyLFClk.c ****     *  - Through the CySysWdtSetMode() function. Call it with the appropriate "mode"
1420:Generated_Source\PSoC4/CyLFClk.c ****     *    parameter for the used WDT counter.
1421:Generated_Source\PSoC4/CyLFClk.c ****     *
1422:Generated_Source\PSoC4/CyLFClk.c ****     *  For the "INTERRUPT" mode, the recommended sequence is the following:
1423:Generated_Source\PSoC4/CyLFClk.c ****     *  - Call the CySysWdtDisableCounterIsr() function to disable servicing
1424:Generated_Source\PSoC4/CyLFClk.c ****     *    interrupts of the specified WDT counter.
1425:Generated_Source\PSoC4/CyLFClk.c ****     *
1426:Generated_Source\PSoC4/CyLFClk.c ****     *  - Call the CySysWdtSetInterruptCallback() function to register the callback
1427:Generated_Source\PSoC4/CyLFClk.c ****     *    function for the corresponding WDT counter.
1428:Generated_Source\PSoC4/CyLFClk.c ****     *
1429:Generated_Source\PSoC4/CyLFClk.c ****     *  - Call the CySysTimerDelay() function.
1430:Generated_Source\PSoC4/CyLFClk.c ****     *
1431:Generated_Source\PSoC4/CyLFClk.c ****     * Parameters:
1432:Generated_Source\PSoC4/CyLFClk.c ****     *  counterNum: Valid range [0-1]. The number of the WDT counter (WDT0 or WDT1).
1433:Generated_Source\PSoC4/CyLFClk.c ****     *  delayType : Defines the operation mode.
1434:Generated_Source\PSoC4/CyLFClk.c ****     *               CY_SYS_TIMER_WAIT       "WAIT" mode.
1435:Generated_Source\PSoC4/CyLFClk.c ****     *               CY_SYS_TIMER_INTERRUPT  "INTERRUPT" mode.
1436:Generated_Source\PSoC4/CyLFClk.c ****     *  delay:  The delay value in the LFCLK ticks (allowable range - 16-bit value).
1437:Generated_Source\PSoC4/CyLFClk.c ****     *
1438:Generated_Source\PSoC4/CyLFClk.c ****     * Return:
ARM GAS  C:\Users\TTSS\AppData\Local\Temp\ccBAPXR4.s 			page 75


1439:Generated_Source\PSoC4/CyLFClk.c ****     *  None
1440:Generated_Source\PSoC4/CyLFClk.c ****     *
1441:Generated_Source\PSoC4/CyLFClk.c ****     * Side effects:
1442:Generated_Source\PSoC4/CyLFClk.c ****     *  In the "INTERRUPT" mode, this function enables ISR callback servicing
1443:Generated_Source\PSoC4/CyLFClk.c ****     *  from the corresponding WDT counter. Servicing of this ISR callback will be
1444:Generated_Source\PSoC4/CyLFClk.c ****     *  disabled after the expiration of the delay time.
1445:Generated_Source\PSoC4/CyLFClk.c ****     *
1446:Generated_Source\PSoC4/CyLFClk.c ****     *******************************************************************************/
1447:Generated_Source\PSoC4/CyLFClk.c ****     void CySysTimerDelayUntilMatch(uint32 counterNum, cy_sys_timer_delaytype_enum delayType, uint32
1448:Generated_Source\PSoC4/CyLFClk.c ****     {
 2379              		.loc 2 1448 0
 2380              		.cfi_startproc
 2381 0000 80B5     		push	{r7, lr}
 2382              		.cfi_def_cfa_offset 8
 2383              		.cfi_offset 7, -8
 2384              		.cfi_offset 14, -4
 2385 0002 86B0     		sub	sp, sp, #24
 2386              		.cfi_def_cfa_offset 32
 2387 0004 00AF     		add	r7, sp, #0
 2388              		.cfi_def_cfa_register 7
 2389 0006 F860     		str	r0, [r7, #12]
 2390 0008 7A60     		str	r2, [r7, #4]
 2391 000a 0B23     		mov	r3, #11
 2392 000c FB18     		add	r3, r7, r3
 2393 000e 0A1C     		add	r2, r1, #0
 2394 0010 1A70     		strb	r2, [r3]
1449:Generated_Source\PSoC4/CyLFClk.c ****         uint32 tmpValue;
1450:Generated_Source\PSoC4/CyLFClk.c **** 
1451:Generated_Source\PSoC4/CyLFClk.c ****         if((counterNum < CY_SYS_WDT_COUNTER2) && (0uL == CySysWdtGetClearOnMatch(counterNum)) && (m
 2395              		.loc 2 1451 0
 2396 0012 FB68     		ldr	r3, [r7, #12]
 2397 0014 012B     		cmp	r3, #1
 2398 0016 3BD8     		bhi	.L208
 2399              		.loc 2 1451 0 is_stmt 0 discriminator 1
 2400 0018 FB68     		ldr	r3, [r7, #12]
 2401 001a 181C     		mov	r0, r3
 2402 001c FFF7FEFF 		bl	CySysWdtGetClearOnMatch
 2403 0020 031E     		sub	r3, r0, #0
 2404 0022 35D1     		bne	.L208
 2405              		.loc 2 1451 0 discriminator 2
 2406 0024 7B68     		ldr	r3, [r7, #4]
 2407 0026 1D4A     		ldr	r2, .L214
 2408 0028 9342     		cmp	r3, r2
 2409 002a 31D8     		bhi	.L208
1452:Generated_Source\PSoC4/CyLFClk.c ****         {
1453:Generated_Source\PSoC4/CyLFClk.c ****             if(delayType == CY_SYS_TIMER_WAIT)
 2410              		.loc 2 1453 0 is_stmt 1
 2411 002c 0B23     		mov	r3, #11
 2412 002e FB18     		add	r3, r7, r3
 2413 0030 1B78     		ldrb	r3, [r3]
 2414 0032 002B     		cmp	r3, #0
 2415 0034 14D1     		bne	.L209
 2416              	.L210:
1454:Generated_Source\PSoC4/CyLFClk.c ****             {
1455:Generated_Source\PSoC4/CyLFClk.c ****                 do
1456:Generated_Source\PSoC4/CyLFClk.c ****                 {
1457:Generated_Source\PSoC4/CyLFClk.c ****                     tmpValue = CySysWdtGetCount(counterNum);
ARM GAS  C:\Users\TTSS\AppData\Local\Temp\ccBAPXR4.s 			page 76


 2417              		.loc 2 1457 0 discriminator 1
 2418 0036 FB68     		ldr	r3, [r7, #12]
 2419 0038 181C     		mov	r0, r3
 2420 003a FFF7FEFF 		bl	CySysWdtGetCount
 2421 003e 031C     		mov	r3, r0
 2422 0040 7B61     		str	r3, [r7, #20]
1458:Generated_Source\PSoC4/CyLFClk.c ****                 }while(tmpValue > match);
 2423              		.loc 2 1458 0 discriminator 1
 2424 0042 7A69     		ldr	r2, [r7, #20]
 2425 0044 7B68     		ldr	r3, [r7, #4]
 2426 0046 9A42     		cmp	r2, r3
 2427 0048 F5D8     		bhi	.L210
 2428              	.L211:
1459:Generated_Source\PSoC4/CyLFClk.c **** 
1460:Generated_Source\PSoC4/CyLFClk.c ****                 do
1461:Generated_Source\PSoC4/CyLFClk.c ****                 {
1462:Generated_Source\PSoC4/CyLFClk.c ****                     tmpValue = CySysWdtGetCount(counterNum);
 2429              		.loc 2 1462 0 discriminator 1
 2430 004a FB68     		ldr	r3, [r7, #12]
 2431 004c 181C     		mov	r0, r3
 2432 004e FFF7FEFF 		bl	CySysWdtGetCount
 2433 0052 031C     		mov	r3, r0
 2434 0054 7B61     		str	r3, [r7, #20]
1463:Generated_Source\PSoC4/CyLFClk.c ****                 }while(tmpValue < match);
 2435              		.loc 2 1463 0 discriminator 1
 2436 0056 7A69     		ldr	r2, [r7, #20]
 2437 0058 7B68     		ldr	r3, [r7, #4]
 2438 005a 9A42     		cmp	r2, r3
 2439 005c F5D3     		bcc	.L211
1453:Generated_Source\PSoC4/CyLFClk.c ****             {
 2440              		.loc 2 1453 0
 2441 005e 1AE0     		b	.L207
 2442              	.L209:
1464:Generated_Source\PSoC4/CyLFClk.c ****             }
1465:Generated_Source\PSoC4/CyLFClk.c ****             else
1466:Generated_Source\PSoC4/CyLFClk.c ****             {
1467:Generated_Source\PSoC4/CyLFClk.c ****                 tmpValue = counterIntMaskTbl[counterNum];
 2443              		.loc 2 1467 0
 2444 0060 0F4B     		ldr	r3, .L214+4
 2445 0062 FA68     		ldr	r2, [r7, #12]
 2446 0064 9200     		lsl	r2, r2, #2
 2447 0066 D358     		ldr	r3, [r2, r3]
 2448 0068 7B61     		str	r3, [r7, #20]
1468:Generated_Source\PSoC4/CyLFClk.c ****                 CySysWdtSetMatch(counterNum, match);
 2449              		.loc 2 1468 0
 2450 006a FA68     		ldr	r2, [r7, #12]
 2451 006c 7B68     		ldr	r3, [r7, #4]
 2452 006e 101C     		mov	r0, r2
 2453 0070 191C     		mov	r1, r3
 2454 0072 FFF7FEFF 		bl	CySysWdtSetMatch
1469:Generated_Source\PSoC4/CyLFClk.c **** 
1470:Generated_Source\PSoC4/CyLFClk.c ****                 disableServicedIsr  |= tmpValue;
 2455              		.loc 2 1470 0
 2456 0076 0B4B     		ldr	r3, .L214+8
 2457 0078 1A68     		ldr	r2, [r3]
 2458 007a 7B69     		ldr	r3, [r7, #20]
 2459 007c 1A43     		orr	r2, r3
ARM GAS  C:\Users\TTSS\AppData\Local\Temp\ccBAPXR4.s 			page 77


 2460 007e 094B     		ldr	r3, .L214+8
 2461 0080 1A60     		str	r2, [r3]
1471:Generated_Source\PSoC4/CyLFClk.c ****                 wdtIsrMask |= tmpValue;
 2462              		.loc 2 1471 0
 2463 0082 094B     		ldr	r3, .L214+12
 2464 0084 1A68     		ldr	r2, [r3]
 2465 0086 7B69     		ldr	r3, [r7, #20]
 2466 0088 1A43     		orr	r2, r3
 2467 008a 074B     		ldr	r3, .L214+12
 2468 008c 1A60     		str	r2, [r3]
1453:Generated_Source\PSoC4/CyLFClk.c ****             {
 2469              		.loc 2 1453 0
 2470 008e 02E0     		b	.L207
 2471              	.L208:
1472:Generated_Source\PSoC4/CyLFClk.c ****             }
1473:Generated_Source\PSoC4/CyLFClk.c ****         }
1474:Generated_Source\PSoC4/CyLFClk.c ****         else
1475:Generated_Source\PSoC4/CyLFClk.c ****         {
1476:Generated_Source\PSoC4/CyLFClk.c ****             CYASSERT(0u != 0u);
 2472              		.loc 2 1476 0 discriminator 1
 2473 0090 0020     		mov	r0, #0
 2474 0092 FFF7FEFF 		bl	CyHalt
 2475              	.L207:
1477:Generated_Source\PSoC4/CyLFClk.c ****         }
1478:Generated_Source\PSoC4/CyLFClk.c ****     }
 2476              		.loc 2 1478 0
 2477 0096 BD46     		mov	sp, r7
 2478 0098 06B0     		add	sp, sp, #24
 2479              		@ sp needed
 2480 009a 80BD     		pop	{r7, pc}
 2481              	.L215:
 2482              		.align	2
 2483              	.L214:
 2484 009c FFFF0000 		.word	65535
 2485 00a0 00000000 		.word	counterIntMaskTbl
 2486 00a4 08000000 		.word	disableServicedIsr
 2487 00a8 00000000 		.word	wdtIsrMask
 2488              		.cfi_endproc
 2489              	.LFE37:
 2490              		.size	CySysTimerDelayUntilMatch, .-CySysTimerDelayUntilMatch
 2491              		.section	.text.CySysWatchdogFeed,"ax",%progbits
 2492              		.align	2
 2493              		.global	CySysWatchdogFeed
 2494              		.code	16
 2495              		.thumb_func
 2496              		.type	CySysWatchdogFeed, %function
 2497              	CySysWatchdogFeed:
 2498              	.LFB38:
1479:Generated_Source\PSoC4/CyLFClk.c **** 
1480:Generated_Source\PSoC4/CyLFClk.c **** 
1481:Generated_Source\PSoC4/CyLFClk.c ****     /*******************************************************************************
1482:Generated_Source\PSoC4/CyLFClk.c ****     * Function Name: CySysWatchdogFeed
1483:Generated_Source\PSoC4/CyLFClk.c ****     ********************************************************************************
1484:Generated_Source\PSoC4/CyLFClk.c ****     *
1485:Generated_Source\PSoC4/CyLFClk.c ****     * Summary:
1486:Generated_Source\PSoC4/CyLFClk.c ****     *  Feeds the watchdog counter before it causes the device reset. Supported only
1487:Generated_Source\PSoC4/CyLFClk.c ****     *  for WDT0 and WDT1 in the "Watchdog" or "Watchdog w/ Interrupts" modes.
ARM GAS  C:\Users\TTSS\AppData\Local\Temp\ccBAPXR4.s 			page 78


1488:Generated_Source\PSoC4/CyLFClk.c ****     *
1489:Generated_Source\PSoC4/CyLFClk.c ****     * Parameters:
1490:Generated_Source\PSoC4/CyLFClk.c ****     *  counterNum:    The number of the WDT counter.
1491:Generated_Source\PSoC4/CyLFClk.c ****     *
1492:Generated_Source\PSoC4/CyLFClk.c ****     * Return:
1493:Generated_Source\PSoC4/CyLFClk.c ****     *  None.
1494:Generated_Source\PSoC4/CyLFClk.c ****     *
1495:Generated_Source\PSoC4/CyLFClk.c ****     * Side effects:
1496:Generated_Source\PSoC4/CyLFClk.c ****     *  Clears the WDT counter in the "Watchdog" mode or clears the WDT interrupt in
1497:Generated_Source\PSoC4/CyLFClk.c ****     *  "Watchdog w/ Interrupts" mode. Does nothing in other modes.
1498:Generated_Source\PSoC4/CyLFClk.c ****     *
1499:Generated_Source\PSoC4/CyLFClk.c ****     *******************************************************************************/
1500:Generated_Source\PSoC4/CyLFClk.c ****     void CySysWatchdogFeed(uint32 counterNum)
1501:Generated_Source\PSoC4/CyLFClk.c ****     {
 2499              		.loc 2 1501 0
 2500              		.cfi_startproc
 2501 0000 80B5     		push	{r7, lr}
 2502              		.cfi_def_cfa_offset 8
 2503              		.cfi_offset 7, -8
 2504              		.cfi_offset 14, -4
 2505 0002 82B0     		sub	sp, sp, #8
 2506              		.cfi_def_cfa_offset 16
 2507 0004 00AF     		add	r7, sp, #0
 2508              		.cfi_def_cfa_register 7
 2509 0006 7860     		str	r0, [r7, #4]
1502:Generated_Source\PSoC4/CyLFClk.c ****         if(counterNum == CY_SYS_WDT_COUNTER0)
 2510              		.loc 2 1502 0
 2511 0008 7B68     		ldr	r3, [r7, #4]
 2512 000a 002B     		cmp	r3, #0
 2513 000c 18D1     		bne	.L217
1503:Generated_Source\PSoC4/CyLFClk.c ****         {
1504:Generated_Source\PSoC4/CyLFClk.c ****             if(CY_SYS_WDT_MODE_INT_RESET == CySysWdtGetMode(counterNum))
 2514              		.loc 2 1504 0
 2515 000e 7B68     		ldr	r3, [r7, #4]
 2516 0010 181C     		mov	r0, r3
 2517 0012 FFF7FEFF 		bl	CySysWdtGetMode
 2518 0016 031E     		sub	r3, r0, #0
 2519 0018 032B     		cmp	r3, #3
 2520 001a 03D1     		bne	.L218
1505:Generated_Source\PSoC4/CyLFClk.c ****             {
1506:Generated_Source\PSoC4/CyLFClk.c ****                 CySysWdtClearInterrupt(CY_SYS_WDT_COUNTER0_MASK);
 2521              		.loc 2 1506 0
 2522 001c 0120     		mov	r0, #1
 2523 001e FFF7FEFF 		bl	CySysWdtClearInterrupt
 2524 0022 2EE0     		b	.L216
 2525              	.L218:
1507:Generated_Source\PSoC4/CyLFClk.c ****             }
1508:Generated_Source\PSoC4/CyLFClk.c ****             else if(CY_SYS_WDT_MODE_RESET == CySysWdtGetMode(counterNum))
 2526              		.loc 2 1508 0
 2527 0024 7B68     		ldr	r3, [r7, #4]
 2528 0026 181C     		mov	r0, r3
 2529 0028 FFF7FEFF 		bl	CySysWdtGetMode
 2530 002c 031E     		sub	r3, r0, #0
 2531 002e 022B     		cmp	r3, #2
 2532 0030 27D1     		bne	.L216
1509:Generated_Source\PSoC4/CyLFClk.c ****             {
1510:Generated_Source\PSoC4/CyLFClk.c ****                 CySysWdtResetCounters(CY_SYS_WDT_COUNTER0_RESET);
ARM GAS  C:\Users\TTSS\AppData\Local\Temp\ccBAPXR4.s 			page 79


 2533              		.loc 2 1510 0
 2534 0032 0820     		mov	r0, #8
 2535 0034 FFF7FEFF 		bl	CySysWdtResetCounters
1511:Generated_Source\PSoC4/CyLFClk.c ****                 CySysWdtClearInterrupt(CY_SYS_WDT_COUNTER0_MASK);
 2536              		.loc 2 1511 0
 2537 0038 0120     		mov	r0, #1
 2538 003a FFF7FEFF 		bl	CySysWdtClearInterrupt
 2539 003e 20E0     		b	.L216
 2540              	.L217:
1512:Generated_Source\PSoC4/CyLFClk.c ****             }
1513:Generated_Source\PSoC4/CyLFClk.c ****             else
1514:Generated_Source\PSoC4/CyLFClk.c ****             {
1515:Generated_Source\PSoC4/CyLFClk.c ****                 /* Do nothing. */
1516:Generated_Source\PSoC4/CyLFClk.c ****             }
1517:Generated_Source\PSoC4/CyLFClk.c ****         }
1518:Generated_Source\PSoC4/CyLFClk.c ****         else if(counterNum == CY_SYS_WDT_COUNTER1)
 2541              		.loc 2 1518 0
 2542 0040 7B68     		ldr	r3, [r7, #4]
 2543 0042 012B     		cmp	r3, #1
 2544 0044 1DD1     		bne	.L216
1519:Generated_Source\PSoC4/CyLFClk.c ****         {
1520:Generated_Source\PSoC4/CyLFClk.c ****             if(CY_SYS_WDT_MODE_INT_RESET == CySysWdtGetMode(counterNum))
 2545              		.loc 2 1520 0
 2546 0046 7B68     		ldr	r3, [r7, #4]
 2547 0048 181C     		mov	r0, r3
 2548 004a FFF7FEFF 		bl	CySysWdtGetMode
 2549 004e 031E     		sub	r3, r0, #0
 2550 0050 032B     		cmp	r3, #3
 2551 0052 05D1     		bne	.L220
1521:Generated_Source\PSoC4/CyLFClk.c ****             {
1522:Generated_Source\PSoC4/CyLFClk.c ****                 CySysWdtClearInterrupt(CY_SYS_WDT_COUNTER1_MASK);
 2552              		.loc 2 1522 0
 2553 0054 8023     		mov	r3, #128
 2554 0056 5B00     		lsl	r3, r3, #1
 2555 0058 181C     		mov	r0, r3
 2556 005a FFF7FEFF 		bl	CySysWdtClearInterrupt
 2557 005e 10E0     		b	.L216
 2558              	.L220:
1523:Generated_Source\PSoC4/CyLFClk.c ****             }
1524:Generated_Source\PSoC4/CyLFClk.c ****             else if(CY_SYS_WDT_MODE_RESET == CySysWdtGetMode(counterNum))
 2559              		.loc 2 1524 0
 2560 0060 7B68     		ldr	r3, [r7, #4]
 2561 0062 181C     		mov	r0, r3
 2562 0064 FFF7FEFF 		bl	CySysWdtGetMode
 2563 0068 031E     		sub	r3, r0, #0
 2564 006a 022B     		cmp	r3, #2
 2565 006c 09D1     		bne	.L216
1525:Generated_Source\PSoC4/CyLFClk.c ****             {
1526:Generated_Source\PSoC4/CyLFClk.c ****                 CySysWdtResetCounters(CY_SYS_WDT_COUNTER1_RESET);
 2566              		.loc 2 1526 0
 2567 006e 8023     		mov	r3, #128
 2568 0070 1B01     		lsl	r3, r3, #4
 2569 0072 181C     		mov	r0, r3
 2570 0074 FFF7FEFF 		bl	CySysWdtResetCounters
1527:Generated_Source\PSoC4/CyLFClk.c ****                 CySysWdtClearInterrupt(CY_SYS_WDT_COUNTER1_MASK);
 2571              		.loc 2 1527 0
 2572 0078 8023     		mov	r3, #128
ARM GAS  C:\Users\TTSS\AppData\Local\Temp\ccBAPXR4.s 			page 80


 2573 007a 5B00     		lsl	r3, r3, #1
 2574 007c 181C     		mov	r0, r3
 2575 007e FFF7FEFF 		bl	CySysWdtClearInterrupt
 2576              	.L216:
1528:Generated_Source\PSoC4/CyLFClk.c ****             }
1529:Generated_Source\PSoC4/CyLFClk.c ****             else
1530:Generated_Source\PSoC4/CyLFClk.c ****             {
1531:Generated_Source\PSoC4/CyLFClk.c ****                 /* Do nothing. */
1532:Generated_Source\PSoC4/CyLFClk.c ****             }
1533:Generated_Source\PSoC4/CyLFClk.c ****         }
1534:Generated_Source\PSoC4/CyLFClk.c ****         else
1535:Generated_Source\PSoC4/CyLFClk.c ****         {
1536:Generated_Source\PSoC4/CyLFClk.c ****             /* Do nothing. */
1537:Generated_Source\PSoC4/CyLFClk.c ****         }
1538:Generated_Source\PSoC4/CyLFClk.c ****     }
 2577              		.loc 2 1538 0
 2578 0082 BD46     		mov	sp, r7
 2579 0084 02B0     		add	sp, sp, #8
 2580              		@ sp needed
 2581 0086 80BD     		pop	{r7, pc}
 2582              		.cfi_endproc
 2583              	.LFE38:
 2584              		.size	CySysWatchdogFeed, .-CySysWatchdogFeed
 2585              		.section	.text.CySysClkLfclkPosedgeCatch,"ax",%progbits
 2586              		.align	2
 2587              		.code	16
 2588              		.thumb_func
 2589              		.type	CySysClkLfclkPosedgeCatch, %function
 2590              	CySysClkLfclkPosedgeCatch:
 2591              	.LFB39:
1539:Generated_Source\PSoC4/CyLFClk.c **** 
1540:Generated_Source\PSoC4/CyLFClk.c **** 
1541:Generated_Source\PSoC4/CyLFClk.c ****     /*******************************************************************************
1542:Generated_Source\PSoC4/CyLFClk.c ****     * Function Name: CySysClkLfclkPosedgeCatch
1543:Generated_Source\PSoC4/CyLFClk.c ****     ********************************************************************************
1544:Generated_Source\PSoC4/CyLFClk.c ****     *
1545:Generated_Source\PSoC4/CyLFClk.c ****     * Summary:
1546:Generated_Source\PSoC4/CyLFClk.c ****     *  Returns once the LFCLK positive edge occurred.
1547:Generated_Source\PSoC4/CyLFClk.c ****     *
1548:Generated_Source\PSoC4/CyLFClk.c ****     *  CySysClkLfclkPosedgeRestore() should be called after this function
1549:Generated_Source\PSoC4/CyLFClk.c ****     *  to restore the WDT configuration.
1550:Generated_Source\PSoC4/CyLFClk.c ****     *
1551:Generated_Source\PSoC4/CyLFClk.c ****     *  A pair of the CySysClkLfclkPosedgeCatch() and CySysClkLfclkPosedgeRestore()
1552:Generated_Source\PSoC4/CyLFClk.c ****     *  functions is expected to be called inside a critical section.
1553:Generated_Source\PSoC4/CyLFClk.c ****     *
1554:Generated_Source\PSoC4/CyLFClk.c ****     *  To ensure that the WDT counter value is read until it changes, the enabled
1555:Generated_Source\PSoC4/CyLFClk.c ****     *  WDT counter is used. If no counter is enabled, counter 0 is enabled.
1556:Generated_Source\PSoC4/CyLFClk.c ****     *  And after the LFCLK source is switched, the counter 0 configuration
1557:Generated_Source\PSoC4/CyLFClk.c ****     *  is restored.
1558:Generated_Source\PSoC4/CyLFClk.c ****     *
1559:Generated_Source\PSoC4/CyLFClk.c ****     *  Not applicable for the PSoC 4000 devices.
1560:Generated_Source\PSoC4/CyLFClk.c ****     *
1561:Generated_Source\PSoC4/CyLFClk.c ****     * Parameters:
1562:Generated_Source\PSoC4/CyLFClk.c ****     *  None.
1563:Generated_Source\PSoC4/CyLFClk.c ****     *
1564:Generated_Source\PSoC4/CyLFClk.c ****     * Return:
1565:Generated_Source\PSoC4/CyLFClk.c ****     *  None.
ARM GAS  C:\Users\TTSS\AppData\Local\Temp\ccBAPXR4.s 			page 81


1566:Generated_Source\PSoC4/CyLFClk.c ****     *
1567:Generated_Source\PSoC4/CyLFClk.c ****     * Side Effects:
1568:Generated_Source\PSoC4/CyLFClk.c ****     *  This function has no effect if WDT is locked (CySysWdtLock() is
1569:Generated_Source\PSoC4/CyLFClk.c ****     *  called). Call CySysWdtUnlock() to unlock WDT.
1570:Generated_Source\PSoC4/CyLFClk.c ****     *
1571:Generated_Source\PSoC4/CyLFClk.c ****     *******************************************************************************/
1572:Generated_Source\PSoC4/CyLFClk.c ****     static void CySysClkLfclkPosedgeCatch(void)
1573:Generated_Source\PSoC4/CyLFClk.c ****     {
 2592              		.loc 2 1573 0
 2593              		.cfi_startproc
 2594 0000 80B5     		push	{r7, lr}
 2595              		.cfi_def_cfa_offset 8
 2596              		.cfi_offset 7, -8
 2597              		.cfi_offset 14, -4
 2598 0002 82B0     		sub	sp, sp, #8
 2599              		.cfi_def_cfa_offset 16
 2600 0004 00AF     		add	r7, sp, #0
 2601              		.cfi_def_cfa_register 7
1574:Generated_Source\PSoC4/CyLFClk.c ****         uint32 firstCount;
1575:Generated_Source\PSoC4/CyLFClk.c ****         static uint32 lfclkPosedgeEnabledWdtCounter = 0u;
1576:Generated_Source\PSoC4/CyLFClk.c **** 
1577:Generated_Source\PSoC4/CyLFClk.c ****         if (0u != CySysWdtGetEnabledStatus(CY_SYS_WDT_COUNTER0))
 2602              		.loc 2 1577 0
 2603 0006 0020     		mov	r0, #0
 2604 0008 FFF7FEFF 		bl	CySysWdtGetEnabledStatus
 2605 000c 031E     		sub	r3, r0, #0
 2606 000e 03D0     		beq	.L222
1578:Generated_Source\PSoC4/CyLFClk.c ****         {
1579:Generated_Source\PSoC4/CyLFClk.c ****             lfclkPosedgeEnabledWdtCounter = CY_SYS_WDT_COUNTER0;
 2607              		.loc 2 1579 0
 2608 0010 1E4B     		ldr	r3, .L227
 2609 0012 0022     		mov	r2, #0
 2610 0014 1A60     		str	r2, [r3]
 2611 0016 24E0     		b	.L223
 2612              	.L222:
1580:Generated_Source\PSoC4/CyLFClk.c ****         }
1581:Generated_Source\PSoC4/CyLFClk.c ****         else if (0u != CySysWdtGetEnabledStatus(CY_SYS_WDT_COUNTER1))
 2613              		.loc 2 1581 0
 2614 0018 0120     		mov	r0, #1
 2615 001a FFF7FEFF 		bl	CySysWdtGetEnabledStatus
 2616 001e 031E     		sub	r3, r0, #0
 2617 0020 03D0     		beq	.L224
1582:Generated_Source\PSoC4/CyLFClk.c ****         {
1583:Generated_Source\PSoC4/CyLFClk.c ****             lfclkPosedgeEnabledWdtCounter = CY_SYS_WDT_COUNTER1;
 2618              		.loc 2 1583 0
 2619 0022 1A4B     		ldr	r3, .L227
 2620 0024 0122     		mov	r2, #1
 2621 0026 1A60     		str	r2, [r3]
 2622 0028 1BE0     		b	.L223
 2623              	.L224:
1584:Generated_Source\PSoC4/CyLFClk.c ****         }
1585:Generated_Source\PSoC4/CyLFClk.c ****         else if (0u != CySysWdtGetEnabledStatus(CY_SYS_WDT_COUNTER2))
 2624              		.loc 2 1585 0
 2625 002a 0220     		mov	r0, #2
 2626 002c FFF7FEFF 		bl	CySysWdtGetEnabledStatus
 2627 0030 031E     		sub	r3, r0, #0
 2628 0032 03D0     		beq	.L225
ARM GAS  C:\Users\TTSS\AppData\Local\Temp\ccBAPXR4.s 			page 82


1586:Generated_Source\PSoC4/CyLFClk.c ****         {
1587:Generated_Source\PSoC4/CyLFClk.c ****             lfclkPosedgeEnabledWdtCounter = CY_SYS_WDT_COUNTER2;
 2629              		.loc 2 1587 0
 2630 0034 154B     		ldr	r3, .L227
 2631 0036 0222     		mov	r2, #2
 2632 0038 1A60     		str	r2, [r3]
 2633 003a 12E0     		b	.L223
 2634              	.L225:
1588:Generated_Source\PSoC4/CyLFClk.c ****         }
1589:Generated_Source\PSoC4/CyLFClk.c ****         else /* All WDT counters are disabled */
1590:Generated_Source\PSoC4/CyLFClk.c ****         {
1591:Generated_Source\PSoC4/CyLFClk.c ****             /* Configure WDT counter # 0 */
1592:Generated_Source\PSoC4/CyLFClk.c ****             lfclkPosedgeWdtCounter0Enabled = 1u;
 2635              		.loc 2 1592 0
 2636 003c 144B     		ldr	r3, .L227+4
 2637 003e 0122     		mov	r2, #1
 2638 0040 1A60     		str	r2, [r3]
1593:Generated_Source\PSoC4/CyLFClk.c ****             lfclkPosedgeEnabledWdtCounter = CY_SYS_WDT_COUNTER0;
 2639              		.loc 2 1593 0
 2640 0042 124B     		ldr	r3, .L227
 2641 0044 0022     		mov	r2, #0
 2642 0046 1A60     		str	r2, [r3]
1594:Generated_Source\PSoC4/CyLFClk.c **** 
1595:Generated_Source\PSoC4/CyLFClk.c ****             lfclkPosedgeWdtCounter0Mode = CySysWdtGetMode(CY_SYS_WDT_COUNTER0);
 2643              		.loc 2 1595 0
 2644 0048 0020     		mov	r0, #0
 2645 004a FFF7FEFF 		bl	CySysWdtGetMode
 2646 004e 021C     		mov	r2, r0
 2647 0050 104B     		ldr	r3, .L227+8
 2648 0052 1A60     		str	r2, [r3]
1596:Generated_Source\PSoC4/CyLFClk.c ****             CySysWdtSetMode(CY_SYS_WDT_COUNTER0, CY_SYS_WDT_MODE_NONE);
 2649              		.loc 2 1596 0
 2650 0054 0020     		mov	r0, #0
 2651 0056 0021     		mov	r1, #0
 2652 0058 FFF7FEFF 		bl	CySysWdtSetMode
1597:Generated_Source\PSoC4/CyLFClk.c ****             CySysWdtEnable(CY_SYS_WDT_COUNTER0_MASK);
 2653              		.loc 2 1597 0
 2654 005c 0120     		mov	r0, #1
 2655 005e FFF7FEFF 		bl	CySysWdtEnable
 2656              	.L223:
1598:Generated_Source\PSoC4/CyLFClk.c ****         }
1599:Generated_Source\PSoC4/CyLFClk.c **** 
1600:Generated_Source\PSoC4/CyLFClk.c ****         firstCount = CySysWdtGetCount(lfclkPosedgeEnabledWdtCounter);
 2657              		.loc 2 1600 0
 2658 0062 0A4B     		ldr	r3, .L227
 2659 0064 1B68     		ldr	r3, [r3]
 2660 0066 181C     		mov	r0, r3
 2661 0068 FFF7FEFF 		bl	CySysWdtGetCount
 2662 006c 031C     		mov	r3, r0
 2663 006e 7B60     		str	r3, [r7, #4]
1601:Generated_Source\PSoC4/CyLFClk.c ****         while (CySysWdtGetCount(lfclkPosedgeEnabledWdtCounter) == firstCount)
 2664              		.loc 2 1601 0
 2665 0070 C046     		mov	r8, r8
 2666              	.L226:
 2667              		.loc 2 1601 0 is_stmt 0 discriminator 1
 2668 0072 064B     		ldr	r3, .L227
 2669 0074 1B68     		ldr	r3, [r3]
ARM GAS  C:\Users\TTSS\AppData\Local\Temp\ccBAPXR4.s 			page 83


 2670 0076 181C     		mov	r0, r3
 2671 0078 FFF7FEFF 		bl	CySysWdtGetCount
 2672 007c 021E     		sub	r2, r0, #0
 2673 007e 7B68     		ldr	r3, [r7, #4]
 2674 0080 9A42     		cmp	r2, r3
 2675 0082 F6D0     		beq	.L226
1602:Generated_Source\PSoC4/CyLFClk.c ****         {
1603:Generated_Source\PSoC4/CyLFClk.c ****             /* Wait for counter to increment */
1604:Generated_Source\PSoC4/CyLFClk.c ****         }
1605:Generated_Source\PSoC4/CyLFClk.c ****     }
 2676              		.loc 2 1605 0 is_stmt 1
 2677 0084 BD46     		mov	sp, r7
 2678 0086 02B0     		add	sp, sp, #8
 2679              		@ sp needed
 2680 0088 80BD     		pop	{r7, pc}
 2681              	.L228:
 2682 008a C046     		.align	2
 2683              	.L227:
 2684 008c 18000000 		.word	lfclkPosedgeEnabledWdtCounter.4892
 2685 0090 00000000 		.word	lfclkPosedgeWdtCounter0Enabled
 2686 0094 04000000 		.word	lfclkPosedgeWdtCounter0Mode
 2687              		.cfi_endproc
 2688              	.LFE39:
 2689              		.size	CySysClkLfclkPosedgeCatch, .-CySysClkLfclkPosedgeCatch
 2690              		.section	.text.CySysClkLfclkPosedgeRestore,"ax",%progbits
 2691              		.align	2
 2692              		.code	16
 2693              		.thumb_func
 2694              		.type	CySysClkLfclkPosedgeRestore, %function
 2695              	CySysClkLfclkPosedgeRestore:
 2696              	.LFB40:
1606:Generated_Source\PSoC4/CyLFClk.c **** 
1607:Generated_Source\PSoC4/CyLFClk.c **** 
1608:Generated_Source\PSoC4/CyLFClk.c ****     /*******************************************************************************
1609:Generated_Source\PSoC4/CyLFClk.c ****     * Function Name: CySysClkLfclkPosedgeRestore
1610:Generated_Source\PSoC4/CyLFClk.c ****     ********************************************************************************
1611:Generated_Source\PSoC4/CyLFClk.c ****     *
1612:Generated_Source\PSoC4/CyLFClk.c ****     * Summary:
1613:Generated_Source\PSoC4/CyLFClk.c ****     *  Restores the WDT configuration after a CySysClkLfclkPosedgeCatch() call.
1614:Generated_Source\PSoC4/CyLFClk.c ****     *
1615:Generated_Source\PSoC4/CyLFClk.c ****     *  A pair of the CySysClkLfclkPosedgeCatch() and CySysClkLfclkPosedgeRestore()
1616:Generated_Source\PSoC4/CyLFClk.c ****     *  functions is expected to be called inside a critical section.
1617:Generated_Source\PSoC4/CyLFClk.c ****     *
1618:Generated_Source\PSoC4/CyLFClk.c ****     *  Not applicable for the PSoC 4000 devices.
1619:Generated_Source\PSoC4/CyLFClk.c ****     *
1620:Generated_Source\PSoC4/CyLFClk.c ****     * Parameters:
1621:Generated_Source\PSoC4/CyLFClk.c ****     *  None.
1622:Generated_Source\PSoC4/CyLFClk.c ****     *
1623:Generated_Source\PSoC4/CyLFClk.c ****     * Return:
1624:Generated_Source\PSoC4/CyLFClk.c ****     *  None.
1625:Generated_Source\PSoC4/CyLFClk.c ****     *
1626:Generated_Source\PSoC4/CyLFClk.c ****     * Side Effects:
1627:Generated_Source\PSoC4/CyLFClk.c ****     *  This function has no effect if WDT is locked (CySysWdtLock() is
1628:Generated_Source\PSoC4/CyLFClk.c ****     *  called). Call CySysWdtUnlock() to unlock WDT.
1629:Generated_Source\PSoC4/CyLFClk.c ****     *
1630:Generated_Source\PSoC4/CyLFClk.c ****     *******************************************************************************/
1631:Generated_Source\PSoC4/CyLFClk.c ****     static void CySysClkLfclkPosedgeRestore(void)
ARM GAS  C:\Users\TTSS\AppData\Local\Temp\ccBAPXR4.s 			page 84


1632:Generated_Source\PSoC4/CyLFClk.c ****     {
 2697              		.loc 2 1632 0
 2698              		.cfi_startproc
 2699 0000 80B5     		push	{r7, lr}
 2700              		.cfi_def_cfa_offset 8
 2701              		.cfi_offset 7, -8
 2702              		.cfi_offset 14, -4
 2703 0002 00AF     		add	r7, sp, #0
 2704              		.cfi_def_cfa_register 7
1633:Generated_Source\PSoC4/CyLFClk.c ****         if (lfclkPosedgeWdtCounter0Enabled != 0u)
 2705              		.loc 2 1633 0
 2706 0004 0A4B     		ldr	r3, .L231
 2707 0006 1B68     		ldr	r3, [r3]
 2708 0008 002B     		cmp	r3, #0
 2709 000a 0ED0     		beq	.L229
1634:Generated_Source\PSoC4/CyLFClk.c ****         {
1635:Generated_Source\PSoC4/CyLFClk.c ****             /* Restore counter # 0 configuration and force its shutdown */
1636:Generated_Source\PSoC4/CyLFClk.c ****             CY_SYS_WDT_CONTROL_REG &= (uint32)(~CY_SYS_WDT_COUNTER0_MASK);
 2710              		.loc 2 1636 0
 2711 000c 094B     		ldr	r3, .L231+4
 2712 000e 094A     		ldr	r2, .L231+4
 2713 0010 1268     		ldr	r2, [r2]
 2714 0012 0121     		mov	r1, #1
 2715 0014 8A43     		bic	r2, r1
 2716 0016 1A60     		str	r2, [r3]
1637:Generated_Source\PSoC4/CyLFClk.c ****             CySysWdtSetMode(CY_SYS_WDT_COUNTER0, lfclkPosedgeWdtCounter0Mode);
 2717              		.loc 2 1637 0
 2718 0018 074B     		ldr	r3, .L231+8
 2719 001a 1B68     		ldr	r3, [r3]
 2720 001c 0020     		mov	r0, #0
 2721 001e 191C     		mov	r1, r3
 2722 0020 FFF7FEFF 		bl	CySysWdtSetMode
1638:Generated_Source\PSoC4/CyLFClk.c ****             lfclkPosedgeWdtCounter0Enabled = 0u;
 2723              		.loc 2 1638 0
 2724 0024 024B     		ldr	r3, .L231
 2725 0026 0022     		mov	r2, #0
 2726 0028 1A60     		str	r2, [r3]
 2727              	.L229:
1639:Generated_Source\PSoC4/CyLFClk.c ****         }
1640:Generated_Source\PSoC4/CyLFClk.c ****     }
 2728              		.loc 2 1640 0
 2729 002a BD46     		mov	sp, r7
 2730              		@ sp needed
 2731 002c 80BD     		pop	{r7, pc}
 2732              	.L232:
 2733 002e C046     		.align	2
 2734              	.L231:
 2735 0030 00000000 		.word	lfclkPosedgeWdtCounter0Enabled
 2736 0034 10020B40 		.word	1074463248
 2737 0038 04000000 		.word	lfclkPosedgeWdtCounter0Mode
 2738              		.cfi_endproc
 2739              	.LFE40:
 2740              		.size	CySysClkLfclkPosedgeRestore, .-CySysClkLfclkPosedgeRestore
 2741              		.bss
 2742              		.align	2
 2743              	lfclkPosedgeEnabledWdtCounter.4892:
 2744 0018 00000000 		.space	4
ARM GAS  C:\Users\TTSS\AppData\Local\Temp\ccBAPXR4.s 			page 85


 2745              		.text
 2746              	.Letext0:
 2747              		.file 3 "Generated_Source\\PSoC4\\cytypes.h"
 2748              		.section	.debug_info,"",%progbits
 2749              	.Ldebug_info0:
 2750 0000 49080000 		.4byte	0x849
 2751 0004 0400     		.2byte	0x4
 2752 0006 00000000 		.4byte	.Ldebug_abbrev0
 2753 000a 04       		.byte	0x4
 2754 000b 01       		.uleb128 0x1
 2755 000c 36060000 		.4byte	.LASF91
 2756 0010 01       		.byte	0x1
 2757 0011 01050000 		.4byte	.LASF92
 2758 0015 AD030000 		.4byte	.LASF93
 2759 0019 00000000 		.4byte	.Ldebug_ranges0+0
 2760 001d 00000000 		.4byte	0
 2761 0021 00000000 		.4byte	.Ldebug_line0
 2762 0025 02       		.uleb128 0x2
 2763 0026 01       		.byte	0x1
 2764 0027 06       		.byte	0x6
 2765 0028 29010000 		.4byte	.LASF0
 2766 002c 02       		.uleb128 0x2
 2767 002d 01       		.byte	0x1
 2768 002e 08       		.byte	0x8
 2769 002f 7D040000 		.4byte	.LASF1
 2770 0033 02       		.uleb128 0x2
 2771 0034 02       		.byte	0x2
 2772 0035 05       		.byte	0x5
 2773 0036 AF040000 		.4byte	.LASF2
 2774 003a 02       		.uleb128 0x2
 2775 003b 02       		.byte	0x2
 2776 003c 07       		.byte	0x7
 2777 003d FC020000 		.4byte	.LASF3
 2778 0041 02       		.uleb128 0x2
 2779 0042 04       		.byte	0x4
 2780 0043 05       		.byte	0x5
 2781 0044 7C010000 		.4byte	.LASF4
 2782 0048 02       		.uleb128 0x2
 2783 0049 04       		.byte	0x4
 2784 004a 07       		.byte	0x7
 2785 004b AA020000 		.4byte	.LASF5
 2786 004f 02       		.uleb128 0x2
 2787 0050 08       		.byte	0x8
 2788 0051 05       		.byte	0x5
 2789 0052 1B010000 		.4byte	.LASF6
 2790 0056 02       		.uleb128 0x2
 2791 0057 08       		.byte	0x8
 2792 0058 07       		.byte	0x7
 2793 0059 D5000000 		.4byte	.LASF7
 2794 005d 03       		.uleb128 0x3
 2795 005e 04       		.byte	0x4
 2796 005f 05       		.byte	0x5
 2797 0060 696E7400 		.ascii	"int\000"
 2798 0064 02       		.uleb128 0x2
 2799 0065 04       		.byte	0x4
 2800 0066 07       		.byte	0x7
 2801 0067 6F020000 		.4byte	.LASF8
ARM GAS  C:\Users\TTSS\AppData\Local\Temp\ccBAPXR4.s 			page 86


 2802 006b 04       		.uleb128 0x4
 2803 006c 8E010000 		.4byte	.LASF9
 2804 0070 03       		.byte	0x3
 2805 0071 3801     		.2byte	0x138
 2806 0073 2C000000 		.4byte	0x2c
 2807 0077 04       		.uleb128 0x4
 2808 0078 00000000 		.4byte	.LASF10
 2809 007c 03       		.byte	0x3
 2810 007d 3901     		.2byte	0x139
 2811 007f 3A000000 		.4byte	0x3a
 2812 0083 04       		.uleb128 0x4
 2813 0084 BF010000 		.4byte	.LASF11
 2814 0088 03       		.byte	0x3
 2815 0089 3A01     		.2byte	0x13a
 2816 008b 48000000 		.4byte	0x48
 2817 008f 02       		.uleb128 0x2
 2818 0090 04       		.byte	0x4
 2819 0091 04       		.byte	0x4
 2820 0092 3E040000 		.4byte	.LASF12
 2821 0096 02       		.uleb128 0x2
 2822 0097 08       		.byte	0x8
 2823 0098 04       		.byte	0x4
 2824 0099 9B010000 		.4byte	.LASF13
 2825 009d 02       		.uleb128 0x2
 2826 009e 01       		.byte	0x1
 2827 009f 08       		.byte	0x8
 2828 00a0 64050000 		.4byte	.LASF14
 2829 00a4 04       		.uleb128 0x4
 2830 00a5 77030000 		.4byte	.LASF15
 2831 00a9 03       		.byte	0x3
 2832 00aa E401     		.2byte	0x1e4
 2833 00ac B0000000 		.4byte	0xb0
 2834 00b0 05       		.uleb128 0x5
 2835 00b1 83000000 		.4byte	0x83
 2836 00b5 06       		.uleb128 0x6
 2837 00b6 04       		.byte	0x4
 2838 00b7 BB000000 		.4byte	0xbb
 2839 00bb 07       		.uleb128 0x7
 2840 00bc 08       		.uleb128 0x8
 2841 00bd 01       		.byte	0x1
 2842 00be 01       		.byte	0x1
 2843 00bf 16       		.byte	0x16
 2844 00c0 D1000000 		.4byte	0xd1
 2845 00c4 09       		.uleb128 0x9
 2846 00c5 FF030000 		.4byte	.LASF16
 2847 00c9 00       		.sleb128 0
 2848 00ca 09       		.uleb128 0x9
 2849 00cb D9060000 		.4byte	.LASF17
 2850 00cf 01       		.sleb128 1
 2851 00d0 00       		.byte	0
 2852 00d1 0A       		.uleb128 0xa
 2853 00d2 5B010000 		.4byte	.LASF18
 2854 00d6 01       		.byte	0x1
 2855 00d7 19       		.byte	0x19
 2856 00d8 BC000000 		.4byte	0xbc
 2857 00dc 0A       		.uleb128 0xa
 2858 00dd 4D010000 		.4byte	.LASF19
ARM GAS  C:\Users\TTSS\AppData\Local\Temp\ccBAPXR4.s 			page 87


 2859 00e1 01       		.byte	0x1
 2860 00e2 2D       		.byte	0x2d
 2861 00e3 B5000000 		.4byte	0xb5
 2862 00e7 02       		.uleb128 0x2
 2863 00e8 04       		.byte	0x4
 2864 00e9 07       		.byte	0x7
 2865 00ea 8D030000 		.4byte	.LASF20
 2866 00ee 0B       		.uleb128 0xb
 2867 00ef FF000000 		.4byte	.LASF21
 2868 00f3 01       		.byte	0x1
 2869 00f4 5801     		.2byte	0x158
 2870 00f6 00000000 		.4byte	.LFB0
 2871 00fa 48000000 		.4byte	.LFE0-.LFB0
 2872 00fe 01       		.uleb128 0x1
 2873 00ff 9C       		.byte	0x9c
 2874 0100 0B       		.uleb128 0xb
 2875 0101 C6010000 		.4byte	.LASF22
 2876 0105 01       		.byte	0x1
 2877 0106 7901     		.2byte	0x179
 2878 0108 00000000 		.4byte	.LFB1
 2879 010c 48000000 		.4byte	.LFE1-.LFB1
 2880 0110 01       		.uleb128 0x1
 2881 0111 9C       		.byte	0x9c
 2882 0112 0C       		.uleb128 0xc
 2883 0113 51030000 		.4byte	.LASF27
 2884 0117 02       		.byte	0x2
 2885 0118 41       		.byte	0x41
 2886 0119 00000000 		.4byte	.LFB2
 2887 011d 1C000000 		.4byte	.LFE2-.LFB2
 2888 0121 01       		.uleb128 0x1
 2889 0122 9C       		.byte	0x9c
 2890 0123 0D       		.uleb128 0xd
 2891 0124 A2010000 		.4byte	.LASF25
 2892 0128 02       		.byte	0x2
 2893 0129 60       		.byte	0x60
 2894 012a 00000000 		.4byte	.LFB3
 2895 012e 60000000 		.4byte	.LFE3-.LFB3
 2896 0132 01       		.uleb128 0x1
 2897 0133 9C       		.byte	0x9c
 2898 0134 47010000 		.4byte	0x147
 2899 0138 0E       		.uleb128 0xe
 2900 0139 3E010000 		.4byte	.LASF23
 2901 013d 02       		.byte	0x2
 2902 013e 63       		.byte	0x63
 2903 013f 6B000000 		.4byte	0x6b
 2904 0143 02       		.uleb128 0x2
 2905 0144 91       		.byte	0x91
 2906 0145 6F       		.sleb128 -17
 2907 0146 00       		.byte	0
 2908 0147 0F       		.uleb128 0xf
 2909 0148 D3040000 		.4byte	.LASF34
 2910 014c 02       		.byte	0x2
 2911 014d 94       		.byte	0x94
 2912 014e 83000000 		.4byte	0x83
 2913 0152 00000000 		.4byte	.LFB4
 2914 0156 1C000000 		.4byte	.LFE4-.LFB4
 2915 015a 01       		.uleb128 0x1
ARM GAS  C:\Users\TTSS\AppData\Local\Temp\ccBAPXR4.s 			page 88


 2916 015b 9C       		.byte	0x9c
 2917 015c 10       		.uleb128 0x10
 2918 015d 9F000000 		.4byte	.LASF94
 2919 0161 02       		.byte	0x2
 2920 0162 B0       		.byte	0xb0
 2921 0163 83000000 		.4byte	0x83
 2922 0167 00000000 		.4byte	.LFB5
 2923 016b 20000000 		.4byte	.LFE5-.LFB5
 2924 016f 01       		.uleb128 0x1
 2925 0170 9C       		.byte	0x9c
 2926 0171 84010000 		.4byte	0x184
 2927 0175 0E       		.uleb128 0xe
 2928 0176 07000000 		.4byte	.LASF24
 2929 017a 02       		.byte	0x2
 2930 017b B2       		.byte	0xb2
 2931 017c 83000000 		.4byte	0x83
 2932 0180 02       		.uleb128 0x2
 2933 0181 91       		.byte	0x91
 2934 0182 74       		.sleb128 -12
 2935 0183 00       		.byte	0
 2936 0184 0D       		.uleb128 0xd
 2937 0185 7C020000 		.4byte	.LASF26
 2938 0189 02       		.byte	0x2
 2939 018a E1       		.byte	0xe1
 2940 018b 00000000 		.4byte	.LFB6
 2941 018f 54000000 		.4byte	.LFE6-.LFB6
 2942 0193 01       		.uleb128 0x1
 2943 0194 9C       		.byte	0x9c
 2944 0195 B6010000 		.4byte	0x1b6
 2945 0199 11       		.uleb128 0x11
 2946 019a 86030000 		.4byte	.LASF30
 2947 019e 02       		.byte	0x2
 2948 019f E1       		.byte	0xe1
 2949 01a0 83000000 		.4byte	0x83
 2950 01a4 02       		.uleb128 0x2
 2951 01a5 91       		.byte	0x91
 2952 01a6 64       		.sleb128 -28
 2953 01a7 0E       		.uleb128 0xe
 2954 01a8 3E010000 		.4byte	.LASF23
 2955 01ac 02       		.byte	0x2
 2956 01ad E3       		.byte	0xe3
 2957 01ae 6B000000 		.4byte	0x6b
 2958 01b2 02       		.uleb128 0x2
 2959 01b3 91       		.byte	0x91
 2960 01b4 6F       		.sleb128 -17
 2961 01b5 00       		.byte	0
 2962 01b6 12       		.uleb128 0x12
 2963 01b7 DA050000 		.4byte	.LASF28
 2964 01bb 02       		.byte	0x2
 2965 01bc 0E01     		.2byte	0x10e
 2966 01be 00000000 		.4byte	.LFB7
 2967 01c2 20000000 		.4byte	.LFE7-.LFB7
 2968 01c6 01       		.uleb128 0x1
 2969 01c7 9C       		.byte	0x9c
 2970 01c8 13       		.uleb128 0x13
 2971 01c9 22050000 		.4byte	.LASF29
 2972 01cd 02       		.byte	0x2
ARM GAS  C:\Users\TTSS\AppData\Local\Temp\ccBAPXR4.s 			page 89


 2973 01ce 2301     		.2byte	0x123
 2974 01d0 00000000 		.4byte	.LFB8
 2975 01d4 5C000000 		.4byte	.LFE8-.LFB8
 2976 01d8 01       		.uleb128 0x1
 2977 01d9 9C       		.byte	0x9c
 2978 01da EE010000 		.4byte	0x1ee
 2979 01de 14       		.uleb128 0x14
 2980 01df 3E010000 		.4byte	.LASF23
 2981 01e3 02       		.byte	0x2
 2982 01e4 2501     		.2byte	0x125
 2983 01e6 6B000000 		.4byte	0x6b
 2984 01ea 02       		.uleb128 0x2
 2985 01eb 91       		.byte	0x91
 2986 01ec 6F       		.sleb128 -17
 2987 01ed 00       		.byte	0
 2988 01ee 15       		.uleb128 0x15
 2989 01ef EC000000 		.4byte	.LASF52
 2990 01f3 02       		.byte	0x2
 2991 01f4 4801     		.2byte	0x148
 2992 01f6 83000000 		.4byte	0x83
 2993 01fa 00000000 		.4byte	.LFB9
 2994 01fe 1C000000 		.4byte	.LFE9-.LFB9
 2995 0202 01       		.uleb128 0x1
 2996 0203 9C       		.byte	0x9c
 2997 0204 16       		.uleb128 0x16
 2998 0205 32050000 		.4byte	.LASF37
 2999 0209 02       		.byte	0x2
 3000 020a 6501     		.2byte	0x165
 3001 020c 83000000 		.4byte	0x83
 3002 0210 00000000 		.4byte	.LFB10
 3003 0214 40000000 		.4byte	.LFE10-.LFB10
 3004 0218 01       		.uleb128 0x1
 3005 0219 9C       		.byte	0x9c
 3006 021a 3D020000 		.4byte	0x23d
 3007 021e 17       		.uleb128 0x17
 3008 021f 69050000 		.4byte	.LASF31
 3009 0223 02       		.byte	0x2
 3010 0224 6501     		.2byte	0x165
 3011 0226 83000000 		.4byte	0x83
 3012 022a 02       		.uleb128 0x2
 3013 022b 91       		.byte	0x91
 3014 022c 6C       		.sleb128 -20
 3015 022d 14       		.uleb128 0x14
 3016 022e F8050000 		.4byte	.LASF32
 3017 0232 02       		.byte	0x2
 3018 0233 6701     		.2byte	0x167
 3019 0235 83000000 		.4byte	0x83
 3020 0239 02       		.uleb128 0x2
 3021 023a 91       		.byte	0x91
 3022 023b 74       		.sleb128 -12
 3023 023c 00       		.byte	0
 3024 023d 13       		.uleb128 0x13
 3025 023e 7F050000 		.4byte	.LASF33
 3026 0242 02       		.byte	0x2
 3027 0243 9801     		.2byte	0x198
 3028 0245 00000000 		.4byte	.LFB11
 3029 0249 34000000 		.4byte	.LFE11-.LFB11
ARM GAS  C:\Users\TTSS\AppData\Local\Temp\ccBAPXR4.s 			page 90


 3030 024d 01       		.uleb128 0x1
 3031 024e 9C       		.byte	0x9c
 3032 024f 63020000 		.4byte	0x263
 3033 0253 14       		.uleb128 0x14
 3034 0254 3E010000 		.4byte	.LASF23
 3035 0258 02       		.byte	0x2
 3036 0259 9A01     		.2byte	0x19a
 3037 025b 6B000000 		.4byte	0x6b
 3038 025f 02       		.uleb128 0x2
 3039 0260 91       		.byte	0x91
 3040 0261 6F       		.sleb128 -17
 3041 0262 00       		.byte	0
 3042 0263 18       		.uleb128 0x18
 3043 0264 6E040000 		.4byte	.LASF35
 3044 0268 02       		.byte	0x2
 3045 0269 B201     		.2byte	0x1b2
 3046 026b 83000000 		.4byte	0x83
 3047 026f 00000000 		.4byte	.LFB12
 3048 0273 20000000 		.4byte	.LFE12-.LFB12
 3049 0277 01       		.uleb128 0x1
 3050 0278 9C       		.byte	0x9c
 3051 0279 13       		.uleb128 0x13
 3052 027a 46000000 		.4byte	.LASF36
 3053 027e 02       		.byte	0x2
 3054 027f C701     		.2byte	0x1c7
 3055 0281 00000000 		.4byte	.LFB13
 3056 0285 4C000000 		.4byte	.LFE13-.LFB13
 3057 0289 01       		.uleb128 0x1
 3058 028a 9C       		.byte	0x9c
 3059 028b 9F020000 		.4byte	0x29f
 3060 028f 14       		.uleb128 0x14
 3061 0290 3E010000 		.4byte	.LASF23
 3062 0294 02       		.byte	0x2
 3063 0295 C901     		.2byte	0x1c9
 3064 0297 6B000000 		.4byte	0x6b
 3065 029b 02       		.uleb128 0x2
 3066 029c 91       		.byte	0x91
 3067 029d 6F       		.sleb128 -17
 3068 029e 00       		.byte	0
 3069 029f 16       		.uleb128 0x16
 3070 02a0 0F030000 		.4byte	.LASF38
 3071 02a4 02       		.byte	0x2
 3072 02a5 ED01     		.2byte	0x1ed
 3073 02a7 83000000 		.4byte	0x83
 3074 02ab 00000000 		.4byte	.LFB14
 3075 02af 30000000 		.4byte	.LFE14-.LFB14
 3076 02b3 01       		.uleb128 0x1
 3077 02b4 9C       		.byte	0x9c
 3078 02b5 C9020000 		.4byte	0x2c9
 3079 02b9 17       		.uleb128 0x17
 3080 02ba 67000000 		.4byte	.LASF39
 3081 02be 02       		.byte	0x2
 3082 02bf ED01     		.2byte	0x1ed
 3083 02c1 83000000 		.4byte	0x83
 3084 02c5 02       		.uleb128 0x2
 3085 02c6 91       		.byte	0x91
 3086 02c7 74       		.sleb128 -12
ARM GAS  C:\Users\TTSS\AppData\Local\Temp\ccBAPXR4.s 			page 91


 3087 02c8 00       		.byte	0
 3088 02c9 13       		.uleb128 0x13
 3089 02ca 36000000 		.4byte	.LASF40
 3090 02ce 02       		.byte	0x2
 3091 02cf 1102     		.2byte	0x211
 3092 02d1 00000000 		.4byte	.LFB15
 3093 02d5 58000000 		.4byte	.LFE15-.LFB15
 3094 02d9 01       		.uleb128 0x1
 3095 02da 9C       		.byte	0x9c
 3096 02db 0D030000 		.4byte	0x30d
 3097 02df 17       		.uleb128 0x17
 3098 02e0 67000000 		.4byte	.LASF39
 3099 02e4 02       		.byte	0x2
 3100 02e5 1102     		.2byte	0x211
 3101 02e7 83000000 		.4byte	0x83
 3102 02eb 02       		.uleb128 0x2
 3103 02ec 91       		.byte	0x91
 3104 02ed 6C       		.sleb128 -20
 3105 02ee 17       		.uleb128 0x17
 3106 02ef 69050000 		.4byte	.LASF31
 3107 02f3 02       		.byte	0x2
 3108 02f4 1102     		.2byte	0x211
 3109 02f6 83000000 		.4byte	0x83
 3110 02fa 02       		.uleb128 0x2
 3111 02fb 91       		.byte	0x91
 3112 02fc 68       		.sleb128 -24
 3113 02fd 14       		.uleb128 0x14
 3114 02fe FF050000 		.4byte	.LASF41
 3115 0302 02       		.byte	0x2
 3116 0303 1302     		.2byte	0x213
 3117 0305 83000000 		.4byte	0x83
 3118 0309 02       		.uleb128 0x2
 3119 030a 91       		.byte	0x91
 3120 030b 74       		.sleb128 -12
 3121 030c 00       		.byte	0
 3122 030d 19       		.uleb128 0x19
 3123 030e CA050000 		.4byte	.LASF42
 3124 0312 02       		.byte	0x2
 3125 0313 3002     		.2byte	0x230
 3126 0315 83000000 		.4byte	0x83
 3127 0319 00000000 		.4byte	.LFB16
 3128 031d 24000000 		.4byte	.LFE16-.LFB16
 3129 0321 01       		.uleb128 0x1
 3130 0322 9C       		.byte	0x9c
 3131 0323 37030000 		.4byte	0x337
 3132 0327 17       		.uleb128 0x17
 3133 0328 67000000 		.4byte	.LASF39
 3134 032c 02       		.byte	0x2
 3135 032d 3002     		.2byte	0x230
 3136 032f 83000000 		.4byte	0x83
 3137 0333 02       		.uleb128 0x2
 3138 0334 91       		.byte	0x91
 3139 0335 74       		.sleb128 -12
 3140 0336 00       		.byte	0
 3141 0337 13       		.uleb128 0x13
 3142 0338 9F050000 		.4byte	.LASF43
 3143 033c 02       		.byte	0x2
ARM GAS  C:\Users\TTSS\AppData\Local\Temp\ccBAPXR4.s 			page 92


 3144 033d 5102     		.2byte	0x251
 3145 033f 00000000 		.4byte	.LFB17
 3146 0343 6C000000 		.4byte	.LFE17-.LFB17
 3147 0347 01       		.uleb128 0x1
 3148 0348 9C       		.byte	0x9c
 3149 0349 7B030000 		.4byte	0x37b
 3150 034d 17       		.uleb128 0x17
 3151 034e 67000000 		.4byte	.LASF39
 3152 0352 02       		.byte	0x2
 3153 0353 5102     		.2byte	0x251
 3154 0355 83000000 		.4byte	0x83
 3155 0359 02       		.uleb128 0x2
 3156 035a 91       		.byte	0x91
 3157 035b 6C       		.sleb128 -20
 3158 035c 17       		.uleb128 0x17
 3159 035d 94010000 		.4byte	.LASF44
 3160 0361 02       		.byte	0x2
 3161 0362 5102     		.2byte	0x251
 3162 0364 83000000 		.4byte	0x83
 3163 0368 02       		.uleb128 0x2
 3164 0369 91       		.byte	0x91
 3165 036a 68       		.sleb128 -24
 3166 036b 14       		.uleb128 0x14
 3167 036c FF050000 		.4byte	.LASF41
 3168 0370 02       		.byte	0x2
 3169 0371 5302     		.2byte	0x253
 3170 0373 83000000 		.4byte	0x83
 3171 0377 02       		.uleb128 0x2
 3172 0378 91       		.byte	0x91
 3173 0379 74       		.sleb128 -12
 3174 037a 00       		.byte	0
 3175 037b 16       		.uleb128 0x16
 3176 037c 57020000 		.4byte	.LASF45
 3177 0380 02       		.byte	0x2
 3178 0381 7402     		.2byte	0x274
 3179 0383 83000000 		.4byte	0x83
 3180 0387 00000000 		.4byte	.LFB18
 3181 038b 40000000 		.4byte	.LFE18-.LFB18
 3182 038f 01       		.uleb128 0x1
 3183 0390 9C       		.byte	0x9c
 3184 0391 A5030000 		.4byte	0x3a5
 3185 0395 17       		.uleb128 0x17
 3186 0396 67000000 		.4byte	.LASF39
 3187 039a 02       		.byte	0x2
 3188 039b 7402     		.2byte	0x274
 3189 039d 83000000 		.4byte	0x83
 3190 03a1 02       		.uleb128 0x2
 3191 03a2 91       		.byte	0x91
 3192 03a3 74       		.sleb128 -12
 3193 03a4 00       		.byte	0
 3194 03a5 13       		.uleb128 0x13
 3195 03a6 1F020000 		.4byte	.LASF46
 3196 03aa 02       		.byte	0x2
 3197 03ab A202     		.2byte	0x2a2
 3198 03ad 00000000 		.4byte	.LFB19
 3199 03b1 60000000 		.4byte	.LFE19-.LFB19
 3200 03b5 01       		.uleb128 0x1
ARM GAS  C:\Users\TTSS\AppData\Local\Temp\ccBAPXR4.s 			page 93


 3201 03b6 9C       		.byte	0x9c
 3202 03b7 CB030000 		.4byte	0x3cb
 3203 03bb 17       		.uleb128 0x17
 3204 03bc 4B020000 		.4byte	.LASF47
 3205 03c0 02       		.byte	0x2
 3206 03c1 A202     		.2byte	0x2a2
 3207 03c3 83000000 		.4byte	0x83
 3208 03c7 02       		.uleb128 0x2
 3209 03c8 91       		.byte	0x91
 3210 03c9 74       		.sleb128 -12
 3211 03ca 00       		.byte	0
 3212 03cb 13       		.uleb128 0x13
 3213 03cc C3040000 		.4byte	.LASF48
 3214 03d0 02       		.byte	0x2
 3215 03d1 D702     		.2byte	0x2d7
 3216 03d3 00000000 		.4byte	.LFB20
 3217 03d7 68000000 		.4byte	.LFE20-.LFB20
 3218 03db 01       		.uleb128 0x1
 3219 03dc 9C       		.byte	0x9c
 3220 03dd F1030000 		.4byte	0x3f1
 3221 03e1 17       		.uleb128 0x17
 3222 03e2 4B020000 		.4byte	.LASF47
 3223 03e6 02       		.byte	0x2
 3224 03e7 D702     		.2byte	0x2d7
 3225 03e9 83000000 		.4byte	0x83
 3226 03ed 02       		.uleb128 0x2
 3227 03ee 91       		.byte	0x91
 3228 03ef 74       		.sleb128 -12
 3229 03f0 00       		.byte	0
 3230 03f1 13       		.uleb128 0x13
 3231 03f2 B7050000 		.4byte	.LASF49
 3232 03f6 02       		.byte	0x2
 3233 03f7 1903     		.2byte	0x319
 3234 03f9 00000000 		.4byte	.LFB21
 3235 03fd 58000000 		.4byte	.LFE21-.LFB21
 3236 0401 01       		.uleb128 0x1
 3237 0402 9C       		.byte	0x9c
 3238 0403 35040000 		.4byte	0x435
 3239 0407 17       		.uleb128 0x17
 3240 0408 2A060000 		.4byte	.LASF50
 3241 040c 02       		.byte	0x2
 3242 040d 1903     		.2byte	0x319
 3243 040f 83000000 		.4byte	0x83
 3244 0413 02       		.uleb128 0x2
 3245 0414 91       		.byte	0x91
 3246 0415 64       		.sleb128 -28
 3247 0416 14       		.uleb128 0x14
 3248 0417 FF050000 		.4byte	.LASF41
 3249 041b 02       		.byte	0x2
 3250 041c 1B03     		.2byte	0x31b
 3251 041e 83000000 		.4byte	0x83
 3252 0422 02       		.uleb128 0x2
 3253 0423 91       		.byte	0x91
 3254 0424 68       		.sleb128 -24
 3255 0425 14       		.uleb128 0x14
 3256 0426 FF010000 		.4byte	.LASF51
 3257 042a 02       		.byte	0x2
ARM GAS  C:\Users\TTSS\AppData\Local\Temp\ccBAPXR4.s 			page 94


 3258 042b 1C03     		.2byte	0x31c
 3259 042d 83000000 		.4byte	0x83
 3260 0431 02       		.uleb128 0x2
 3261 0432 91       		.byte	0x91
 3262 0433 6C       		.sleb128 -20
 3263 0434 00       		.byte	0
 3264 0435 15       		.uleb128 0x15
 3265 0436 8C000000 		.4byte	.LASF53
 3266 043a 02       		.byte	0x2
 3267 043b 3E03     		.2byte	0x33e
 3268 043d 83000000 		.4byte	0x83
 3269 0441 00000000 		.4byte	.LFB22
 3270 0445 1C000000 		.4byte	.LFE22-.LFB22
 3271 0449 01       		.uleb128 0x1
 3272 044a 9C       		.byte	0x9c
 3273 044b 13       		.uleb128 0x13
 3274 044c EE010000 		.4byte	.LASF54
 3275 0450 02       		.byte	0x2
 3276 0451 5703     		.2byte	0x357
 3277 0453 00000000 		.4byte	.LFB23
 3278 0457 90000000 		.4byte	.LFE23-.LFB23
 3279 045b 01       		.uleb128 0x1
 3280 045c 9C       		.byte	0x9c
 3281 045d 8F040000 		.4byte	0x48f
 3282 0461 17       		.uleb128 0x17
 3283 0462 67000000 		.4byte	.LASF39
 3284 0466 02       		.byte	0x2
 3285 0467 5703     		.2byte	0x357
 3286 0469 83000000 		.4byte	0x83
 3287 046d 02       		.uleb128 0x2
 3288 046e 91       		.byte	0x91
 3289 046f 6C       		.sleb128 -20
 3290 0470 17       		.uleb128 0x17
 3291 0471 A7030000 		.4byte	.LASF55
 3292 0475 02       		.byte	0x2
 3293 0476 5703     		.2byte	0x357
 3294 0478 83000000 		.4byte	0x83
 3295 047c 02       		.uleb128 0x2
 3296 047d 91       		.byte	0x91
 3297 047e 68       		.sleb128 -24
 3298 047f 14       		.uleb128 0x14
 3299 0480 85010000 		.4byte	.LASF56
 3300 0484 02       		.byte	0x2
 3301 0485 5903     		.2byte	0x359
 3302 0487 83000000 		.4byte	0x83
 3303 048b 02       		.uleb128 0x2
 3304 048c 91       		.byte	0x91
 3305 048d 74       		.sleb128 -12
 3306 048e 00       		.byte	0
 3307 048f 13       		.uleb128 0x13
 3308 0490 62030000 		.4byte	.LASF57
 3309 0494 02       		.byte	0x2
 3310 0495 8303     		.2byte	0x383
 3311 0497 00000000 		.4byte	.LFB24
 3312 049b 44000000 		.4byte	.LFE24-.LFB24
 3313 049f 01       		.uleb128 0x1
 3314 04a0 9C       		.byte	0x9c
ARM GAS  C:\Users\TTSS\AppData\Local\Temp\ccBAPXR4.s 			page 95


 3315 04a1 C4040000 		.4byte	0x4c4
 3316 04a5 17       		.uleb128 0x17
 3317 04a6 77010000 		.4byte	.LASF58
 3318 04aa 02       		.byte	0x2
 3319 04ab 8303     		.2byte	0x383
 3320 04ad 83000000 		.4byte	0x83
 3321 04b1 02       		.uleb128 0x2
 3322 04b2 91       		.byte	0x91
 3323 04b3 6C       		.sleb128 -20
 3324 04b4 14       		.uleb128 0x14
 3325 04b5 FF050000 		.4byte	.LASF41
 3326 04b9 02       		.byte	0x2
 3327 04ba 8503     		.2byte	0x385
 3328 04bc 83000000 		.4byte	0x83
 3329 04c0 02       		.uleb128 0x2
 3330 04c1 91       		.byte	0x91
 3331 04c2 74       		.sleb128 -12
 3332 04c3 00       		.byte	0
 3333 04c4 15       		.uleb128 0x15
 3334 04c5 C4060000 		.4byte	.LASF59
 3335 04c9 02       		.byte	0x2
 3336 04ca 9F03     		.2byte	0x39f
 3337 04cc 83000000 		.4byte	0x83
 3338 04d0 00000000 		.4byte	.LFB25
 3339 04d4 18000000 		.4byte	.LFE25-.LFB25
 3340 04d8 01       		.uleb128 0x1
 3341 04d9 9C       		.byte	0x9c
 3342 04da 16       		.uleb128 0x16
 3343 04db 96030000 		.4byte	.LASF60
 3344 04df 02       		.byte	0x2
 3345 04e0 B403     		.2byte	0x3b4
 3346 04e2 83000000 		.4byte	0x83
 3347 04e6 00000000 		.4byte	.LFB26
 3348 04ea 40000000 		.4byte	.LFE26-.LFB26
 3349 04ee 01       		.uleb128 0x1
 3350 04ef 9C       		.byte	0x9c
 3351 04f0 04050000 		.4byte	0x504
 3352 04f4 17       		.uleb128 0x17
 3353 04f5 67000000 		.4byte	.LASF39
 3354 04f9 02       		.byte	0x2
 3355 04fa B403     		.2byte	0x3b4
 3356 04fc 83000000 		.4byte	0x83
 3357 0500 02       		.uleb128 0x2
 3358 0501 91       		.byte	0x91
 3359 0502 74       		.sleb128 -12
 3360 0503 00       		.byte	0
 3361 0504 16       		.uleb128 0x16
 3362 0505 6E050000 		.4byte	.LASF61
 3363 0509 02       		.byte	0x2
 3364 050a CC03     		.2byte	0x3cc
 3365 050c 83000000 		.4byte	0x83
 3366 0510 00000000 		.4byte	.LFB27
 3367 0514 54000000 		.4byte	.LFE27-.LFB27
 3368 0518 01       		.uleb128 0x1
 3369 0519 9C       		.byte	0x9c
 3370 051a 3D050000 		.4byte	0x53d
 3371 051e 17       		.uleb128 0x17
ARM GAS  C:\Users\TTSS\AppData\Local\Temp\ccBAPXR4.s 			page 96


 3372 051f 67000000 		.4byte	.LASF39
 3373 0523 02       		.byte	0x2
 3374 0524 CC03     		.2byte	0x3cc
 3375 0526 83000000 		.4byte	0x83
 3376 052a 02       		.uleb128 0x2
 3377 052b 91       		.byte	0x91
 3378 052c 6C       		.sleb128 -20
 3379 052d 14       		.uleb128 0x14
 3380 052e 85010000 		.4byte	.LASF56
 3381 0532 02       		.byte	0x2
 3382 0533 CE03     		.2byte	0x3ce
 3383 0535 83000000 		.4byte	0x83
 3384 0539 02       		.uleb128 0x2
 3385 053a 91       		.byte	0x91
 3386 053b 74       		.sleb128 -12
 3387 053c 00       		.byte	0
 3388 053d 15       		.uleb128 0x15
 3389 053e E6040000 		.4byte	.LASF62
 3390 0542 02       		.byte	0x2
 3391 0543 FD03     		.2byte	0x3fd
 3392 0545 83000000 		.4byte	0x83
 3393 0549 00000000 		.4byte	.LFB28
 3394 054d 1C000000 		.4byte	.LFE28-.LFB28
 3395 0551 01       		.uleb128 0x1
 3396 0552 9C       		.byte	0x9c
 3397 0553 13       		.uleb128 0x13
 3398 0554 27040000 		.4byte	.LASF63
 3399 0558 02       		.byte	0x2
 3400 0559 1F04     		.2byte	0x41f
 3401 055b 00000000 		.4byte	.LFB29
 3402 055f 70000000 		.4byte	.LFE29-.LFB29
 3403 0563 01       		.uleb128 0x1
 3404 0564 9C       		.byte	0x9c
 3405 0565 97050000 		.4byte	0x597
 3406 0569 17       		.uleb128 0x17
 3407 056a 4B020000 		.4byte	.LASF47
 3408 056e 02       		.byte	0x2
 3409 056f 1F04     		.2byte	0x41f
 3410 0571 83000000 		.4byte	0x83
 3411 0575 02       		.uleb128 0x2
 3412 0576 91       		.byte	0x91
 3413 0577 64       		.sleb128 -28
 3414 0578 14       		.uleb128 0x14
 3415 0579 3E010000 		.4byte	.LASF23
 3416 057d 02       		.byte	0x2
 3417 057e 2104     		.2byte	0x421
 3418 0580 6B000000 		.4byte	0x6b
 3419 0584 02       		.uleb128 0x2
 3420 0585 91       		.byte	0x91
 3421 0586 6B       		.sleb128 -21
 3422 0587 14       		.uleb128 0x14
 3423 0588 EB050000 		.4byte	.LASF64
 3424 058c 02       		.byte	0x2
 3425 058d 2204     		.2byte	0x422
 3426 058f 83000000 		.4byte	0x83
 3427 0593 02       		.uleb128 0x2
 3428 0594 91       		.byte	0x91
ARM GAS  C:\Users\TTSS\AppData\Local\Temp\ccBAPXR4.s 			page 97


 3429 0595 6C       		.sleb128 -20
 3430 0596 00       		.byte	0
 3431 0597 1A       		.uleb128 0x1a
 3432 0598 11040000 		.4byte	.LASF65
 3433 059c 02       		.byte	0x2
 3434 059d 5F04     		.2byte	0x45f
 3435 059f 00000000 		.4byte	.LFB30
 3436 05a3 34000000 		.4byte	.LFE30-.LFB30
 3437 05a7 01       		.uleb128 0x1
 3438 05a8 9C       		.byte	0x9c
 3439 05a9 BD050000 		.4byte	0x5bd
 3440 05ad 17       		.uleb128 0x17
 3441 05ae B2010000 		.4byte	.LASF66
 3442 05b2 02       		.byte	0x2
 3443 05b3 5F04     		.2byte	0x45f
 3444 05b5 83000000 		.4byte	0x83
 3445 05b9 02       		.uleb128 0x2
 3446 05ba 91       		.byte	0x91
 3447 05bb 74       		.sleb128 -12
 3448 05bc 00       		.byte	0
 3449 05bd 16       		.uleb128 0x16
 3450 05be 2E020000 		.4byte	.LASF67
 3451 05c2 02       		.byte	0x2
 3452 05c3 7C04     		.2byte	0x47c
 3453 05c5 DC000000 		.4byte	0xdc
 3454 05c9 00000000 		.4byte	.LFB31
 3455 05cd 40000000 		.4byte	.LFE31-.LFB31
 3456 05d1 01       		.uleb128 0x1
 3457 05d2 9C       		.byte	0x9c
 3458 05d3 05060000 		.4byte	0x605
 3459 05d7 17       		.uleb128 0x17
 3460 05d8 67000000 		.4byte	.LASF39
 3461 05dc 02       		.byte	0x2
 3462 05dd 7C04     		.2byte	0x47c
 3463 05df 83000000 		.4byte	0x83
 3464 05e3 02       		.uleb128 0x2
 3465 05e4 91       		.byte	0x91
 3466 05e5 6C       		.sleb128 -20
 3467 05e6 17       		.uleb128 0x17
 3468 05e7 35010000 		.4byte	.LASF68
 3469 05eb 02       		.byte	0x2
 3470 05ec 7C04     		.2byte	0x47c
 3471 05ee DC000000 		.4byte	0xdc
 3472 05f2 02       		.uleb128 0x2
 3473 05f3 91       		.byte	0x91
 3474 05f4 68       		.sleb128 -24
 3475 05f5 14       		.uleb128 0x14
 3476 05f6 E1010000 		.4byte	.LASF69
 3477 05fa 02       		.byte	0x2
 3478 05fb 7E04     		.2byte	0x47e
 3479 05fd DC000000 		.4byte	0xdc
 3480 0601 02       		.uleb128 0x2
 3481 0602 91       		.byte	0x91
 3482 0603 74       		.sleb128 -12
 3483 0604 00       		.byte	0
 3484 0605 16       		.uleb128 0x16
 3485 0606 28030000 		.4byte	.LASF70
ARM GAS  C:\Users\TTSS\AppData\Local\Temp\ccBAPXR4.s 			page 98


 3486 060a 02       		.byte	0x2
 3487 060b 9D04     		.2byte	0x49d
 3488 060d DC000000 		.4byte	0xdc
 3489 0611 00000000 		.4byte	.LFB32
 3490 0615 34000000 		.4byte	.LFE32-.LFB32
 3491 0619 01       		.uleb128 0x1
 3492 061a 9C       		.byte	0x9c
 3493 061b 3E060000 		.4byte	0x63e
 3494 061f 17       		.uleb128 0x17
 3495 0620 67000000 		.4byte	.LASF39
 3496 0624 02       		.byte	0x2
 3497 0625 9D04     		.2byte	0x49d
 3498 0627 83000000 		.4byte	0x83
 3499 062b 02       		.uleb128 0x2
 3500 062c 91       		.byte	0x91
 3501 062d 6C       		.sleb128 -20
 3502 062e 14       		.uleb128 0x14
 3503 062f 9E020000 		.4byte	.LASF71
 3504 0633 02       		.byte	0x2
 3505 0634 9F04     		.2byte	0x49f
 3506 0636 DC000000 		.4byte	0xdc
 3507 063a 02       		.uleb128 0x2
 3508 063b 91       		.byte	0x91
 3509 063c 74       		.sleb128 -12
 3510 063d 00       		.byte	0
 3511 063e 13       		.uleb128 0x13
 3512 063f E3020000 		.4byte	.LASF72
 3513 0643 02       		.byte	0x2
 3514 0644 B904     		.2byte	0x4b9
 3515 0646 00000000 		.4byte	.LFB33
 3516 064a 50000000 		.4byte	.LFE33-.LFB33
 3517 064e 01       		.uleb128 0x1
 3518 064f 9C       		.byte	0x9c
 3519 0650 64060000 		.4byte	0x664
 3520 0654 17       		.uleb128 0x17
 3521 0655 67000000 		.4byte	.LASF39
 3522 0659 02       		.byte	0x2
 3523 065a B904     		.2byte	0x4b9
 3524 065c 83000000 		.4byte	0x83
 3525 0660 02       		.uleb128 0x2
 3526 0661 91       		.byte	0x91
 3527 0662 74       		.sleb128 -12
 3528 0663 00       		.byte	0
 3529 0664 13       		.uleb128 0x13
 3530 0665 4A050000 		.4byte	.LASF73
 3531 0669 02       		.byte	0x2
 3532 066a D204     		.2byte	0x4d2
 3533 066c 00000000 		.4byte	.LFB34
 3534 0670 38000000 		.4byte	.LFE34-.LFB34
 3535 0674 01       		.uleb128 0x1
 3536 0675 9C       		.byte	0x9c
 3537 0676 8A060000 		.4byte	0x68a
 3538 067a 17       		.uleb128 0x17
 3539 067b 67000000 		.4byte	.LASF39
 3540 067f 02       		.byte	0x2
 3541 0680 D204     		.2byte	0x4d2
 3542 0682 83000000 		.4byte	0x83
ARM GAS  C:\Users\TTSS\AppData\Local\Temp\ccBAPXR4.s 			page 99


 3543 0686 02       		.uleb128 0x2
 3544 0687 91       		.byte	0x91
 3545 0688 74       		.sleb128 -12
 3546 0689 00       		.byte	0
 3547 068a 12       		.uleb128 0x12
 3548 068b 45030000 		.4byte	.LASF74
 3549 068f 02       		.byte	0x2
 3550 0690 F804     		.2byte	0x4f8
 3551 0692 00000000 		.4byte	.LFB35
 3552 0696 E8000000 		.4byte	.LFE35-.LFB35
 3553 069a 01       		.uleb128 0x1
 3554 069b 9C       		.byte	0x9c
 3555 069c 13       		.uleb128 0x13
 3556 069d 5E040000 		.4byte	.LASF75
 3557 06a1 02       		.byte	0x2
 3558 06a2 5B05     		.2byte	0x55b
 3559 06a4 00000000 		.4byte	.LFB36
 3560 06a8 6C000000 		.4byte	.LFE36-.LFB36
 3561 06ac 01       		.uleb128 0x1
 3562 06ad 9C       		.byte	0x9c
 3563 06ae FE060000 		.4byte	0x6fe
 3564 06b2 17       		.uleb128 0x17
 3565 06b3 67000000 		.4byte	.LASF39
 3566 06b7 02       		.byte	0x2
 3567 06b8 5B05     		.2byte	0x55b
 3568 06ba 83000000 		.4byte	0x83
 3569 06be 02       		.uleb128 0x2
 3570 06bf 91       		.byte	0x91
 3571 06c0 6C       		.sleb128 -20
 3572 06c1 17       		.uleb128 0x17
 3573 06c2 B9040000 		.4byte	.LASF76
 3574 06c6 02       		.byte	0x2
 3575 06c7 5B05     		.2byte	0x55b
 3576 06c9 D1000000 		.4byte	0xd1
 3577 06cd 02       		.uleb128 0x2
 3578 06ce 91       		.byte	0x91
 3579 06cf 6B       		.sleb128 -21
 3580 06d0 17       		.uleb128 0x17
 3581 06d1 A9040000 		.4byte	.LASF77
 3582 06d5 02       		.byte	0x2
 3583 06d6 5B05     		.2byte	0x55b
 3584 06d8 83000000 		.4byte	0x83
 3585 06dc 02       		.uleb128 0x2
 3586 06dd 91       		.byte	0x91
 3587 06de 64       		.sleb128 -28
 3588 06df 14       		.uleb128 0x14
 3589 06e0 85010000 		.4byte	.LASF56
 3590 06e4 02       		.byte	0x2
 3591 06e5 5D05     		.2byte	0x55d
 3592 06e7 83000000 		.4byte	0x83
 3593 06eb 02       		.uleb128 0x2
 3594 06ec 91       		.byte	0x91
 3595 06ed 74       		.sleb128 -12
 3596 06ee 14       		.uleb128 0x14
 3597 06ef BC020000 		.4byte	.LASF78
 3598 06f3 02       		.byte	0x2
 3599 06f4 5E05     		.2byte	0x55e
ARM GAS  C:\Users\TTSS\AppData\Local\Temp\ccBAPXR4.s 			page 100


 3600 06f6 83000000 		.4byte	0x83
 3601 06fa 02       		.uleb128 0x2
 3602 06fb 91       		.byte	0x91
 3603 06fc 70       		.sleb128 -16
 3604 06fd 00       		.byte	0
 3605 06fe 13       		.uleb128 0x13
 3606 06ff 44040000 		.4byte	.LASF79
 3607 0703 02       		.byte	0x2
 3608 0704 A705     		.2byte	0x5a7
 3609 0706 00000000 		.4byte	.LFB37
 3610 070a AC000000 		.4byte	.LFE37-.LFB37
 3611 070e 01       		.uleb128 0x1
 3612 070f 9C       		.byte	0x9c
 3613 0710 51070000 		.4byte	0x751
 3614 0714 17       		.uleb128 0x17
 3615 0715 67000000 		.4byte	.LASF39
 3616 0719 02       		.byte	0x2
 3617 071a A705     		.2byte	0x5a7
 3618 071c 83000000 		.4byte	0x83
 3619 0720 02       		.uleb128 0x2
 3620 0721 91       		.byte	0x91
 3621 0722 6C       		.sleb128 -20
 3622 0723 17       		.uleb128 0x17
 3623 0724 B9040000 		.4byte	.LASF76
 3624 0728 02       		.byte	0x2
 3625 0729 A705     		.2byte	0x5a7
 3626 072b D1000000 		.4byte	0xd1
 3627 072f 02       		.uleb128 0x2
 3628 0730 91       		.byte	0x91
 3629 0731 6B       		.sleb128 -21
 3630 0732 17       		.uleb128 0x17
 3631 0733 A7030000 		.4byte	.LASF55
 3632 0737 02       		.byte	0x2
 3633 0738 A705     		.2byte	0x5a7
 3634 073a 83000000 		.4byte	0x83
 3635 073e 02       		.uleb128 0x2
 3636 073f 91       		.byte	0x91
 3637 0740 64       		.sleb128 -28
 3638 0741 14       		.uleb128 0x14
 3639 0742 7D030000 		.4byte	.LASF80
 3640 0746 02       		.byte	0x2
 3641 0747 A905     		.2byte	0x5a9
 3642 0749 83000000 		.4byte	0x83
 3643 074d 02       		.uleb128 0x2
 3644 074e 91       		.byte	0x91
 3645 074f 74       		.sleb128 -12
 3646 0750 00       		.byte	0
 3647 0751 13       		.uleb128 0x13
 3648 0752 55000000 		.4byte	.LASF81
 3649 0756 02       		.byte	0x2
 3650 0757 DC05     		.2byte	0x5dc
 3651 0759 00000000 		.4byte	.LFB38
 3652 075d 88000000 		.4byte	.LFE38-.LFB38
 3653 0761 01       		.uleb128 0x1
 3654 0762 9C       		.byte	0x9c
 3655 0763 77070000 		.4byte	0x777
 3656 0767 17       		.uleb128 0x17
ARM GAS  C:\Users\TTSS\AppData\Local\Temp\ccBAPXR4.s 			page 101


 3657 0768 67000000 		.4byte	.LASF39
 3658 076c 02       		.byte	0x2
 3659 076d DC05     		.2byte	0x5dc
 3660 076f 83000000 		.4byte	0x83
 3661 0773 02       		.uleb128 0x2
 3662 0774 91       		.byte	0x91
 3663 0775 74       		.sleb128 -12
 3664 0776 00       		.byte	0
 3665 0777 1B       		.uleb128 0x1b
 3666 0778 72000000 		.4byte	.LASF95
 3667 077c 02       		.byte	0x2
 3668 077d 2406     		.2byte	0x624
 3669 077f 00000000 		.4byte	.LFB39
 3670 0783 98000000 		.4byte	.LFE39-.LFB39
 3671 0787 01       		.uleb128 0x1
 3672 0788 9C       		.byte	0x9c
 3673 0789 AF070000 		.4byte	0x7af
 3674 078d 14       		.uleb128 0x14
 3675 078e 93020000 		.4byte	.LASF82
 3676 0792 02       		.byte	0x2
 3677 0793 2606     		.2byte	0x626
 3678 0795 83000000 		.4byte	0x83
 3679 0799 02       		.uleb128 0x2
 3680 079a 91       		.byte	0x91
 3681 079b 74       		.sleb128 -12
 3682 079c 14       		.uleb128 0x14
 3683 079d 8B040000 		.4byte	.LASF83
 3684 07a1 02       		.byte	0x2
 3685 07a2 2706     		.2byte	0x627
 3686 07a4 83000000 		.4byte	0x83
 3687 07a8 05       		.uleb128 0x5
 3688 07a9 03       		.byte	0x3
 3689 07aa 18000000 		.4byte	lfclkPosedgeEnabledWdtCounter.4892
 3690 07ae 00       		.byte	0
 3691 07af 1C       		.uleb128 0x1c
 3692 07b0 C7020000 		.4byte	.LASF84
 3693 07b4 02       		.byte	0x2
 3694 07b5 5F06     		.2byte	0x65f
 3695 07b7 00000000 		.4byte	.LFB40
 3696 07bb 3C000000 		.4byte	.LFE40-.LFB40
 3697 07bf 01       		.uleb128 0x1
 3698 07c0 9C       		.byte	0x9c
 3699 07c1 0E       		.uleb128 0xe
 3700 07c2 B6000000 		.4byte	.LASF85
 3701 07c6 02       		.byte	0x2
 3702 07c7 1A       		.byte	0x1a
 3703 07c8 83000000 		.4byte	0x83
 3704 07cc 05       		.uleb128 0x5
 3705 07cd 03       		.byte	0x3
 3706 07ce 00000000 		.4byte	lfclkPosedgeWdtCounter0Enabled
 3707 07d2 0E       		.uleb128 0xe
 3708 07d3 0E060000 		.4byte	.LASF86
 3709 07d7 02       		.byte	0x2
 3710 07d8 1B       		.byte	0x1b
 3711 07d9 83000000 		.4byte	0x83
 3712 07dd 05       		.uleb128 0x5
 3713 07de 03       		.byte	0x3
ARM GAS  C:\Users\TTSS\AppData\Local\Temp\ccBAPXR4.s 			page 102


 3714 07df 04000000 		.4byte	lfclkPosedgeWdtCounter0Mode
 3715 07e3 0E       		.uleb128 0xe
 3716 07e4 8C050000 		.4byte	.LASF87
 3717 07e8 02       		.byte	0x2
 3718 07e9 1D       		.byte	0x1d
 3719 07ea B0000000 		.4byte	0xb0
 3720 07ee 05       		.uleb128 0x5
 3721 07ef 03       		.byte	0x3
 3722 07f0 08000000 		.4byte	disableServicedIsr
 3723 07f4 0E       		.uleb128 0xe
 3724 07f5 14020000 		.4byte	.LASF88
 3725 07f9 02       		.byte	0x2
 3726 07fa 1E       		.byte	0x1e
 3727 07fb B0000000 		.4byte	0xb0
 3728 07ff 05       		.uleb128 0x5
 3729 0800 03       		.byte	0x3
 3730 0801 00000000 		.4byte	wdtIsrMask
 3731 0805 1D       		.uleb128 0x1d
 3732 0806 83000000 		.4byte	0x83
 3733 080a 15080000 		.4byte	0x815
 3734 080e 1E       		.uleb128 0x1e
 3735 080f E7000000 		.4byte	0xe7
 3736 0813 02       		.byte	0x2
 3737 0814 00       		.byte	0
 3738 0815 0E       		.uleb128 0xe
 3739 0816 13000000 		.4byte	.LASF89
 3740 081a 02       		.byte	0x2
 3741 081b 22       		.byte	0x22
 3742 081c 26080000 		.4byte	0x826
 3743 0820 05       		.uleb128 0x5
 3744 0821 03       		.byte	0x3
 3745 0822 00000000 		.4byte	counterIntMaskTbl
 3746 0826 1F       		.uleb128 0x1f
 3747 0827 05080000 		.4byte	0x805
 3748 082b 1D       		.uleb128 0x1d
 3749 082c DC000000 		.4byte	0xdc
 3750 0830 3B080000 		.4byte	0x83b
 3751 0834 1E       		.uleb128 0x1e
 3752 0835 E7000000 		.4byte	0xe7
 3753 0839 02       		.byte	0x2
 3754 083a 00       		.byte	0
 3755 083b 0E       		.uleb128 0xe
 3756 083c 25000000 		.4byte	.LASF90
 3757 0840 02       		.byte	0x2
 3758 0841 2E       		.byte	0x2e
 3759 0842 2B080000 		.4byte	0x82b
 3760 0846 05       		.uleb128 0x5
 3761 0847 03       		.byte	0x3
 3762 0848 0C000000 		.4byte	cySysWdtCallback
 3763 084c 00       		.byte	0
 3764              		.section	.debug_abbrev,"",%progbits
 3765              	.Ldebug_abbrev0:
 3766 0000 01       		.uleb128 0x1
 3767 0001 11       		.uleb128 0x11
 3768 0002 01       		.byte	0x1
 3769 0003 25       		.uleb128 0x25
 3770 0004 0E       		.uleb128 0xe
ARM GAS  C:\Users\TTSS\AppData\Local\Temp\ccBAPXR4.s 			page 103


 3771 0005 13       		.uleb128 0x13
 3772 0006 0B       		.uleb128 0xb
 3773 0007 03       		.uleb128 0x3
 3774 0008 0E       		.uleb128 0xe
 3775 0009 1B       		.uleb128 0x1b
 3776 000a 0E       		.uleb128 0xe
 3777 000b 55       		.uleb128 0x55
 3778 000c 17       		.uleb128 0x17
 3779 000d 11       		.uleb128 0x11
 3780 000e 01       		.uleb128 0x1
 3781 000f 10       		.uleb128 0x10
 3782 0010 17       		.uleb128 0x17
 3783 0011 00       		.byte	0
 3784 0012 00       		.byte	0
 3785 0013 02       		.uleb128 0x2
 3786 0014 24       		.uleb128 0x24
 3787 0015 00       		.byte	0
 3788 0016 0B       		.uleb128 0xb
 3789 0017 0B       		.uleb128 0xb
 3790 0018 3E       		.uleb128 0x3e
 3791 0019 0B       		.uleb128 0xb
 3792 001a 03       		.uleb128 0x3
 3793 001b 0E       		.uleb128 0xe
 3794 001c 00       		.byte	0
 3795 001d 00       		.byte	0
 3796 001e 03       		.uleb128 0x3
 3797 001f 24       		.uleb128 0x24
 3798 0020 00       		.byte	0
 3799 0021 0B       		.uleb128 0xb
 3800 0022 0B       		.uleb128 0xb
 3801 0023 3E       		.uleb128 0x3e
 3802 0024 0B       		.uleb128 0xb
 3803 0025 03       		.uleb128 0x3
 3804 0026 08       		.uleb128 0x8
 3805 0027 00       		.byte	0
 3806 0028 00       		.byte	0
 3807 0029 04       		.uleb128 0x4
 3808 002a 16       		.uleb128 0x16
 3809 002b 00       		.byte	0
 3810 002c 03       		.uleb128 0x3
 3811 002d 0E       		.uleb128 0xe
 3812 002e 3A       		.uleb128 0x3a
 3813 002f 0B       		.uleb128 0xb
 3814 0030 3B       		.uleb128 0x3b
 3815 0031 05       		.uleb128 0x5
 3816 0032 49       		.uleb128 0x49
 3817 0033 13       		.uleb128 0x13
 3818 0034 00       		.byte	0
 3819 0035 00       		.byte	0
 3820 0036 05       		.uleb128 0x5
 3821 0037 35       		.uleb128 0x35
 3822 0038 00       		.byte	0
 3823 0039 49       		.uleb128 0x49
 3824 003a 13       		.uleb128 0x13
 3825 003b 00       		.byte	0
 3826 003c 00       		.byte	0
 3827 003d 06       		.uleb128 0x6
ARM GAS  C:\Users\TTSS\AppData\Local\Temp\ccBAPXR4.s 			page 104


 3828 003e 0F       		.uleb128 0xf
 3829 003f 00       		.byte	0
 3830 0040 0B       		.uleb128 0xb
 3831 0041 0B       		.uleb128 0xb
 3832 0042 49       		.uleb128 0x49
 3833 0043 13       		.uleb128 0x13
 3834 0044 00       		.byte	0
 3835 0045 00       		.byte	0
 3836 0046 07       		.uleb128 0x7
 3837 0047 15       		.uleb128 0x15
 3838 0048 00       		.byte	0
 3839 0049 27       		.uleb128 0x27
 3840 004a 19       		.uleb128 0x19
 3841 004b 00       		.byte	0
 3842 004c 00       		.byte	0
 3843 004d 08       		.uleb128 0x8
 3844 004e 04       		.uleb128 0x4
 3845 004f 01       		.byte	0x1
 3846 0050 0B       		.uleb128 0xb
 3847 0051 0B       		.uleb128 0xb
 3848 0052 3A       		.uleb128 0x3a
 3849 0053 0B       		.uleb128 0xb
 3850 0054 3B       		.uleb128 0x3b
 3851 0055 0B       		.uleb128 0xb
 3852 0056 01       		.uleb128 0x1
 3853 0057 13       		.uleb128 0x13
 3854 0058 00       		.byte	0
 3855 0059 00       		.byte	0
 3856 005a 09       		.uleb128 0x9
 3857 005b 28       		.uleb128 0x28
 3858 005c 00       		.byte	0
 3859 005d 03       		.uleb128 0x3
 3860 005e 0E       		.uleb128 0xe
 3861 005f 1C       		.uleb128 0x1c
 3862 0060 0D       		.uleb128 0xd
 3863 0061 00       		.byte	0
 3864 0062 00       		.byte	0
 3865 0063 0A       		.uleb128 0xa
 3866 0064 16       		.uleb128 0x16
 3867 0065 00       		.byte	0
 3868 0066 03       		.uleb128 0x3
 3869 0067 0E       		.uleb128 0xe
 3870 0068 3A       		.uleb128 0x3a
 3871 0069 0B       		.uleb128 0xb
 3872 006a 3B       		.uleb128 0x3b
 3873 006b 0B       		.uleb128 0xb
 3874 006c 49       		.uleb128 0x49
 3875 006d 13       		.uleb128 0x13
 3876 006e 00       		.byte	0
 3877 006f 00       		.byte	0
 3878 0070 0B       		.uleb128 0xb
 3879 0071 2E       		.uleb128 0x2e
 3880 0072 00       		.byte	0
 3881 0073 03       		.uleb128 0x3
 3882 0074 0E       		.uleb128 0xe
 3883 0075 3A       		.uleb128 0x3a
 3884 0076 0B       		.uleb128 0xb
ARM GAS  C:\Users\TTSS\AppData\Local\Temp\ccBAPXR4.s 			page 105


 3885 0077 3B       		.uleb128 0x3b
 3886 0078 05       		.uleb128 0x5
 3887 0079 27       		.uleb128 0x27
 3888 007a 19       		.uleb128 0x19
 3889 007b 11       		.uleb128 0x11
 3890 007c 01       		.uleb128 0x1
 3891 007d 12       		.uleb128 0x12
 3892 007e 06       		.uleb128 0x6
 3893 007f 40       		.uleb128 0x40
 3894 0080 18       		.uleb128 0x18
 3895 0081 9742     		.uleb128 0x2117
 3896 0083 19       		.uleb128 0x19
 3897 0084 00       		.byte	0
 3898 0085 00       		.byte	0
 3899 0086 0C       		.uleb128 0xc
 3900 0087 2E       		.uleb128 0x2e
 3901 0088 00       		.byte	0
 3902 0089 3F       		.uleb128 0x3f
 3903 008a 19       		.uleb128 0x19
 3904 008b 03       		.uleb128 0x3
 3905 008c 0E       		.uleb128 0xe
 3906 008d 3A       		.uleb128 0x3a
 3907 008e 0B       		.uleb128 0xb
 3908 008f 3B       		.uleb128 0x3b
 3909 0090 0B       		.uleb128 0xb
 3910 0091 27       		.uleb128 0x27
 3911 0092 19       		.uleb128 0x19
 3912 0093 11       		.uleb128 0x11
 3913 0094 01       		.uleb128 0x1
 3914 0095 12       		.uleb128 0x12
 3915 0096 06       		.uleb128 0x6
 3916 0097 40       		.uleb128 0x40
 3917 0098 18       		.uleb128 0x18
 3918 0099 9742     		.uleb128 0x2117
 3919 009b 19       		.uleb128 0x19
 3920 009c 00       		.byte	0
 3921 009d 00       		.byte	0
 3922 009e 0D       		.uleb128 0xd
 3923 009f 2E       		.uleb128 0x2e
 3924 00a0 01       		.byte	0x1
 3925 00a1 3F       		.uleb128 0x3f
 3926 00a2 19       		.uleb128 0x19
 3927 00a3 03       		.uleb128 0x3
 3928 00a4 0E       		.uleb128 0xe
 3929 00a5 3A       		.uleb128 0x3a
 3930 00a6 0B       		.uleb128 0xb
 3931 00a7 3B       		.uleb128 0x3b
 3932 00a8 0B       		.uleb128 0xb
 3933 00a9 27       		.uleb128 0x27
 3934 00aa 19       		.uleb128 0x19
 3935 00ab 11       		.uleb128 0x11
 3936 00ac 01       		.uleb128 0x1
 3937 00ad 12       		.uleb128 0x12
 3938 00ae 06       		.uleb128 0x6
 3939 00af 40       		.uleb128 0x40
 3940 00b0 18       		.uleb128 0x18
 3941 00b1 9642     		.uleb128 0x2116
ARM GAS  C:\Users\TTSS\AppData\Local\Temp\ccBAPXR4.s 			page 106


 3942 00b3 19       		.uleb128 0x19
 3943 00b4 01       		.uleb128 0x1
 3944 00b5 13       		.uleb128 0x13
 3945 00b6 00       		.byte	0
 3946 00b7 00       		.byte	0
 3947 00b8 0E       		.uleb128 0xe
 3948 00b9 34       		.uleb128 0x34
 3949 00ba 00       		.byte	0
 3950 00bb 03       		.uleb128 0x3
 3951 00bc 0E       		.uleb128 0xe
 3952 00bd 3A       		.uleb128 0x3a
 3953 00be 0B       		.uleb128 0xb
 3954 00bf 3B       		.uleb128 0x3b
 3955 00c0 0B       		.uleb128 0xb
 3956 00c1 49       		.uleb128 0x49
 3957 00c2 13       		.uleb128 0x13
 3958 00c3 02       		.uleb128 0x2
 3959 00c4 18       		.uleb128 0x18
 3960 00c5 00       		.byte	0
 3961 00c6 00       		.byte	0
 3962 00c7 0F       		.uleb128 0xf
 3963 00c8 2E       		.uleb128 0x2e
 3964 00c9 00       		.byte	0
 3965 00ca 03       		.uleb128 0x3
 3966 00cb 0E       		.uleb128 0xe
 3967 00cc 3A       		.uleb128 0x3a
 3968 00cd 0B       		.uleb128 0xb
 3969 00ce 3B       		.uleb128 0x3b
 3970 00cf 0B       		.uleb128 0xb
 3971 00d0 27       		.uleb128 0x27
 3972 00d1 19       		.uleb128 0x19
 3973 00d2 49       		.uleb128 0x49
 3974 00d3 13       		.uleb128 0x13
 3975 00d4 11       		.uleb128 0x11
 3976 00d5 01       		.uleb128 0x1
 3977 00d6 12       		.uleb128 0x12
 3978 00d7 06       		.uleb128 0x6
 3979 00d8 40       		.uleb128 0x40
 3980 00d9 18       		.uleb128 0x18
 3981 00da 9742     		.uleb128 0x2117
 3982 00dc 19       		.uleb128 0x19
 3983 00dd 00       		.byte	0
 3984 00de 00       		.byte	0
 3985 00df 10       		.uleb128 0x10
 3986 00e0 2E       		.uleb128 0x2e
 3987 00e1 01       		.byte	0x1
 3988 00e2 03       		.uleb128 0x3
 3989 00e3 0E       		.uleb128 0xe
 3990 00e4 3A       		.uleb128 0x3a
 3991 00e5 0B       		.uleb128 0xb
 3992 00e6 3B       		.uleb128 0x3b
 3993 00e7 0B       		.uleb128 0xb
 3994 00e8 27       		.uleb128 0x27
 3995 00e9 19       		.uleb128 0x19
 3996 00ea 49       		.uleb128 0x49
 3997 00eb 13       		.uleb128 0x13
 3998 00ec 11       		.uleb128 0x11
ARM GAS  C:\Users\TTSS\AppData\Local\Temp\ccBAPXR4.s 			page 107


 3999 00ed 01       		.uleb128 0x1
 4000 00ee 12       		.uleb128 0x12
 4001 00ef 06       		.uleb128 0x6
 4002 00f0 40       		.uleb128 0x40
 4003 00f1 18       		.uleb128 0x18
 4004 00f2 9742     		.uleb128 0x2117
 4005 00f4 19       		.uleb128 0x19
 4006 00f5 01       		.uleb128 0x1
 4007 00f6 13       		.uleb128 0x13
 4008 00f7 00       		.byte	0
 4009 00f8 00       		.byte	0
 4010 00f9 11       		.uleb128 0x11
 4011 00fa 05       		.uleb128 0x5
 4012 00fb 00       		.byte	0
 4013 00fc 03       		.uleb128 0x3
 4014 00fd 0E       		.uleb128 0xe
 4015 00fe 3A       		.uleb128 0x3a
 4016 00ff 0B       		.uleb128 0xb
 4017 0100 3B       		.uleb128 0x3b
 4018 0101 0B       		.uleb128 0xb
 4019 0102 49       		.uleb128 0x49
 4020 0103 13       		.uleb128 0x13
 4021 0104 02       		.uleb128 0x2
 4022 0105 18       		.uleb128 0x18
 4023 0106 00       		.byte	0
 4024 0107 00       		.byte	0
 4025 0108 12       		.uleb128 0x12
 4026 0109 2E       		.uleb128 0x2e
 4027 010a 00       		.byte	0
 4028 010b 3F       		.uleb128 0x3f
 4029 010c 19       		.uleb128 0x19
 4030 010d 03       		.uleb128 0x3
 4031 010e 0E       		.uleb128 0xe
 4032 010f 3A       		.uleb128 0x3a
 4033 0110 0B       		.uleb128 0xb
 4034 0111 3B       		.uleb128 0x3b
 4035 0112 05       		.uleb128 0x5
 4036 0113 27       		.uleb128 0x27
 4037 0114 19       		.uleb128 0x19
 4038 0115 11       		.uleb128 0x11
 4039 0116 01       		.uleb128 0x1
 4040 0117 12       		.uleb128 0x12
 4041 0118 06       		.uleb128 0x6
 4042 0119 40       		.uleb128 0x40
 4043 011a 18       		.uleb128 0x18
 4044 011b 9642     		.uleb128 0x2116
 4045 011d 19       		.uleb128 0x19
 4046 011e 00       		.byte	0
 4047 011f 00       		.byte	0
 4048 0120 13       		.uleb128 0x13
 4049 0121 2E       		.uleb128 0x2e
 4050 0122 01       		.byte	0x1
 4051 0123 3F       		.uleb128 0x3f
 4052 0124 19       		.uleb128 0x19
 4053 0125 03       		.uleb128 0x3
 4054 0126 0E       		.uleb128 0xe
 4055 0127 3A       		.uleb128 0x3a
ARM GAS  C:\Users\TTSS\AppData\Local\Temp\ccBAPXR4.s 			page 108


 4056 0128 0B       		.uleb128 0xb
 4057 0129 3B       		.uleb128 0x3b
 4058 012a 05       		.uleb128 0x5
 4059 012b 27       		.uleb128 0x27
 4060 012c 19       		.uleb128 0x19
 4061 012d 11       		.uleb128 0x11
 4062 012e 01       		.uleb128 0x1
 4063 012f 12       		.uleb128 0x12
 4064 0130 06       		.uleb128 0x6
 4065 0131 40       		.uleb128 0x40
 4066 0132 18       		.uleb128 0x18
 4067 0133 9642     		.uleb128 0x2116
 4068 0135 19       		.uleb128 0x19
 4069 0136 01       		.uleb128 0x1
 4070 0137 13       		.uleb128 0x13
 4071 0138 00       		.byte	0
 4072 0139 00       		.byte	0
 4073 013a 14       		.uleb128 0x14
 4074 013b 34       		.uleb128 0x34
 4075 013c 00       		.byte	0
 4076 013d 03       		.uleb128 0x3
 4077 013e 0E       		.uleb128 0xe
 4078 013f 3A       		.uleb128 0x3a
 4079 0140 0B       		.uleb128 0xb
 4080 0141 3B       		.uleb128 0x3b
 4081 0142 05       		.uleb128 0x5
 4082 0143 49       		.uleb128 0x49
 4083 0144 13       		.uleb128 0x13
 4084 0145 02       		.uleb128 0x2
 4085 0146 18       		.uleb128 0x18
 4086 0147 00       		.byte	0
 4087 0148 00       		.byte	0
 4088 0149 15       		.uleb128 0x15
 4089 014a 2E       		.uleb128 0x2e
 4090 014b 00       		.byte	0
 4091 014c 3F       		.uleb128 0x3f
 4092 014d 19       		.uleb128 0x19
 4093 014e 03       		.uleb128 0x3
 4094 014f 0E       		.uleb128 0xe
 4095 0150 3A       		.uleb128 0x3a
 4096 0151 0B       		.uleb128 0xb
 4097 0152 3B       		.uleb128 0x3b
 4098 0153 05       		.uleb128 0x5
 4099 0154 27       		.uleb128 0x27
 4100 0155 19       		.uleb128 0x19
 4101 0156 49       		.uleb128 0x49
 4102 0157 13       		.uleb128 0x13
 4103 0158 11       		.uleb128 0x11
 4104 0159 01       		.uleb128 0x1
 4105 015a 12       		.uleb128 0x12
 4106 015b 06       		.uleb128 0x6
 4107 015c 40       		.uleb128 0x40
 4108 015d 18       		.uleb128 0x18
 4109 015e 9742     		.uleb128 0x2117
 4110 0160 19       		.uleb128 0x19
 4111 0161 00       		.byte	0
 4112 0162 00       		.byte	0
ARM GAS  C:\Users\TTSS\AppData\Local\Temp\ccBAPXR4.s 			page 109


 4113 0163 16       		.uleb128 0x16
 4114 0164 2E       		.uleb128 0x2e
 4115 0165 01       		.byte	0x1
 4116 0166 3F       		.uleb128 0x3f
 4117 0167 19       		.uleb128 0x19
 4118 0168 03       		.uleb128 0x3
 4119 0169 0E       		.uleb128 0xe
 4120 016a 3A       		.uleb128 0x3a
 4121 016b 0B       		.uleb128 0xb
 4122 016c 3B       		.uleb128 0x3b
 4123 016d 05       		.uleb128 0x5
 4124 016e 27       		.uleb128 0x27
 4125 016f 19       		.uleb128 0x19
 4126 0170 49       		.uleb128 0x49
 4127 0171 13       		.uleb128 0x13
 4128 0172 11       		.uleb128 0x11
 4129 0173 01       		.uleb128 0x1
 4130 0174 12       		.uleb128 0x12
 4131 0175 06       		.uleb128 0x6
 4132 0176 40       		.uleb128 0x40
 4133 0177 18       		.uleb128 0x18
 4134 0178 9642     		.uleb128 0x2116
 4135 017a 19       		.uleb128 0x19
 4136 017b 01       		.uleb128 0x1
 4137 017c 13       		.uleb128 0x13
 4138 017d 00       		.byte	0
 4139 017e 00       		.byte	0
 4140 017f 17       		.uleb128 0x17
 4141 0180 05       		.uleb128 0x5
 4142 0181 00       		.byte	0
 4143 0182 03       		.uleb128 0x3
 4144 0183 0E       		.uleb128 0xe
 4145 0184 3A       		.uleb128 0x3a
 4146 0185 0B       		.uleb128 0xb
 4147 0186 3B       		.uleb128 0x3b
 4148 0187 05       		.uleb128 0x5
 4149 0188 49       		.uleb128 0x49
 4150 0189 13       		.uleb128 0x13
 4151 018a 02       		.uleb128 0x2
 4152 018b 18       		.uleb128 0x18
 4153 018c 00       		.byte	0
 4154 018d 00       		.byte	0
 4155 018e 18       		.uleb128 0x18
 4156 018f 2E       		.uleb128 0x2e
 4157 0190 00       		.byte	0
 4158 0191 03       		.uleb128 0x3
 4159 0192 0E       		.uleb128 0xe
 4160 0193 3A       		.uleb128 0x3a
 4161 0194 0B       		.uleb128 0xb
 4162 0195 3B       		.uleb128 0x3b
 4163 0196 05       		.uleb128 0x5
 4164 0197 27       		.uleb128 0x27
 4165 0198 19       		.uleb128 0x19
 4166 0199 49       		.uleb128 0x49
 4167 019a 13       		.uleb128 0x13
 4168 019b 11       		.uleb128 0x11
 4169 019c 01       		.uleb128 0x1
ARM GAS  C:\Users\TTSS\AppData\Local\Temp\ccBAPXR4.s 			page 110


 4170 019d 12       		.uleb128 0x12
 4171 019e 06       		.uleb128 0x6
 4172 019f 40       		.uleb128 0x40
 4173 01a0 18       		.uleb128 0x18
 4174 01a1 9742     		.uleb128 0x2117
 4175 01a3 19       		.uleb128 0x19
 4176 01a4 00       		.byte	0
 4177 01a5 00       		.byte	0
 4178 01a6 19       		.uleb128 0x19
 4179 01a7 2E       		.uleb128 0x2e
 4180 01a8 01       		.byte	0x1
 4181 01a9 3F       		.uleb128 0x3f
 4182 01aa 19       		.uleb128 0x19
 4183 01ab 03       		.uleb128 0x3
 4184 01ac 0E       		.uleb128 0xe
 4185 01ad 3A       		.uleb128 0x3a
 4186 01ae 0B       		.uleb128 0xb
 4187 01af 3B       		.uleb128 0x3b
 4188 01b0 05       		.uleb128 0x5
 4189 01b1 27       		.uleb128 0x27
 4190 01b2 19       		.uleb128 0x19
 4191 01b3 49       		.uleb128 0x49
 4192 01b4 13       		.uleb128 0x13
 4193 01b5 11       		.uleb128 0x11
 4194 01b6 01       		.uleb128 0x1
 4195 01b7 12       		.uleb128 0x12
 4196 01b8 06       		.uleb128 0x6
 4197 01b9 40       		.uleb128 0x40
 4198 01ba 18       		.uleb128 0x18
 4199 01bb 9742     		.uleb128 0x2117
 4200 01bd 19       		.uleb128 0x19
 4201 01be 01       		.uleb128 0x1
 4202 01bf 13       		.uleb128 0x13
 4203 01c0 00       		.byte	0
 4204 01c1 00       		.byte	0
 4205 01c2 1A       		.uleb128 0x1a
 4206 01c3 2E       		.uleb128 0x2e
 4207 01c4 01       		.byte	0x1
 4208 01c5 3F       		.uleb128 0x3f
 4209 01c6 19       		.uleb128 0x19
 4210 01c7 03       		.uleb128 0x3
 4211 01c8 0E       		.uleb128 0xe
 4212 01c9 3A       		.uleb128 0x3a
 4213 01ca 0B       		.uleb128 0xb
 4214 01cb 3B       		.uleb128 0x3b
 4215 01cc 05       		.uleb128 0x5
 4216 01cd 27       		.uleb128 0x27
 4217 01ce 19       		.uleb128 0x19
 4218 01cf 11       		.uleb128 0x11
 4219 01d0 01       		.uleb128 0x1
 4220 01d1 12       		.uleb128 0x12
 4221 01d2 06       		.uleb128 0x6
 4222 01d3 40       		.uleb128 0x40
 4223 01d4 18       		.uleb128 0x18
 4224 01d5 9742     		.uleb128 0x2117
 4225 01d7 19       		.uleb128 0x19
 4226 01d8 01       		.uleb128 0x1
ARM GAS  C:\Users\TTSS\AppData\Local\Temp\ccBAPXR4.s 			page 111


 4227 01d9 13       		.uleb128 0x13
 4228 01da 00       		.byte	0
 4229 01db 00       		.byte	0
 4230 01dc 1B       		.uleb128 0x1b
 4231 01dd 2E       		.uleb128 0x2e
 4232 01de 01       		.byte	0x1
 4233 01df 03       		.uleb128 0x3
 4234 01e0 0E       		.uleb128 0xe
 4235 01e1 3A       		.uleb128 0x3a
 4236 01e2 0B       		.uleb128 0xb
 4237 01e3 3B       		.uleb128 0x3b
 4238 01e4 05       		.uleb128 0x5
 4239 01e5 27       		.uleb128 0x27
 4240 01e6 19       		.uleb128 0x19
 4241 01e7 11       		.uleb128 0x11
 4242 01e8 01       		.uleb128 0x1
 4243 01e9 12       		.uleb128 0x12
 4244 01ea 06       		.uleb128 0x6
 4245 01eb 40       		.uleb128 0x40
 4246 01ec 18       		.uleb128 0x18
 4247 01ed 9642     		.uleb128 0x2116
 4248 01ef 19       		.uleb128 0x19
 4249 01f0 01       		.uleb128 0x1
 4250 01f1 13       		.uleb128 0x13
 4251 01f2 00       		.byte	0
 4252 01f3 00       		.byte	0
 4253 01f4 1C       		.uleb128 0x1c
 4254 01f5 2E       		.uleb128 0x2e
 4255 01f6 00       		.byte	0
 4256 01f7 03       		.uleb128 0x3
 4257 01f8 0E       		.uleb128 0xe
 4258 01f9 3A       		.uleb128 0x3a
 4259 01fa 0B       		.uleb128 0xb
 4260 01fb 3B       		.uleb128 0x3b
 4261 01fc 05       		.uleb128 0x5
 4262 01fd 27       		.uleb128 0x27
 4263 01fe 19       		.uleb128 0x19
 4264 01ff 11       		.uleb128 0x11
 4265 0200 01       		.uleb128 0x1
 4266 0201 12       		.uleb128 0x12
 4267 0202 06       		.uleb128 0x6
 4268 0203 40       		.uleb128 0x40
 4269 0204 18       		.uleb128 0x18
 4270 0205 9642     		.uleb128 0x2116
 4271 0207 19       		.uleb128 0x19
 4272 0208 00       		.byte	0
 4273 0209 00       		.byte	0
 4274 020a 1D       		.uleb128 0x1d
 4275 020b 01       		.uleb128 0x1
 4276 020c 01       		.byte	0x1
 4277 020d 49       		.uleb128 0x49
 4278 020e 13       		.uleb128 0x13
 4279 020f 01       		.uleb128 0x1
 4280 0210 13       		.uleb128 0x13
 4281 0211 00       		.byte	0
 4282 0212 00       		.byte	0
 4283 0213 1E       		.uleb128 0x1e
ARM GAS  C:\Users\TTSS\AppData\Local\Temp\ccBAPXR4.s 			page 112


 4284 0214 21       		.uleb128 0x21
 4285 0215 00       		.byte	0
 4286 0216 49       		.uleb128 0x49
 4287 0217 13       		.uleb128 0x13
 4288 0218 2F       		.uleb128 0x2f
 4289 0219 0B       		.uleb128 0xb
 4290 021a 00       		.byte	0
 4291 021b 00       		.byte	0
 4292 021c 1F       		.uleb128 0x1f
 4293 021d 26       		.uleb128 0x26
 4294 021e 00       		.byte	0
 4295 021f 49       		.uleb128 0x49
 4296 0220 13       		.uleb128 0x13
 4297 0221 00       		.byte	0
 4298 0222 00       		.byte	0
 4299 0223 00       		.byte	0
 4300              		.section	.debug_aranges,"",%progbits
 4301 0000 5C010000 		.4byte	0x15c
 4302 0004 0200     		.2byte	0x2
 4303 0006 00000000 		.4byte	.Ldebug_info0
 4304 000a 04       		.byte	0x4
 4305 000b 00       		.byte	0
 4306 000c 0000     		.2byte	0
 4307 000e 0000     		.2byte	0
 4308 0010 00000000 		.4byte	.LFB0
 4309 0014 48000000 		.4byte	.LFE0-.LFB0
 4310 0018 00000000 		.4byte	.LFB1
 4311 001c 48000000 		.4byte	.LFE1-.LFB1
 4312 0020 00000000 		.4byte	.LFB2
 4313 0024 1C000000 		.4byte	.LFE2-.LFB2
 4314 0028 00000000 		.4byte	.LFB3
 4315 002c 60000000 		.4byte	.LFE3-.LFB3
 4316 0030 00000000 		.4byte	.LFB4
 4317 0034 1C000000 		.4byte	.LFE4-.LFB4
 4318 0038 00000000 		.4byte	.LFB5
 4319 003c 20000000 		.4byte	.LFE5-.LFB5
 4320 0040 00000000 		.4byte	.LFB6
 4321 0044 54000000 		.4byte	.LFE6-.LFB6
 4322 0048 00000000 		.4byte	.LFB7
 4323 004c 20000000 		.4byte	.LFE7-.LFB7
 4324 0050 00000000 		.4byte	.LFB8
 4325 0054 5C000000 		.4byte	.LFE8-.LFB8
 4326 0058 00000000 		.4byte	.LFB9
 4327 005c 1C000000 		.4byte	.LFE9-.LFB9
 4328 0060 00000000 		.4byte	.LFB10
 4329 0064 40000000 		.4byte	.LFE10-.LFB10
 4330 0068 00000000 		.4byte	.LFB11
 4331 006c 34000000 		.4byte	.LFE11-.LFB11
 4332 0070 00000000 		.4byte	.LFB12
 4333 0074 20000000 		.4byte	.LFE12-.LFB12
 4334 0078 00000000 		.4byte	.LFB13
 4335 007c 4C000000 		.4byte	.LFE13-.LFB13
 4336 0080 00000000 		.4byte	.LFB14
 4337 0084 30000000 		.4byte	.LFE14-.LFB14
 4338 0088 00000000 		.4byte	.LFB15
 4339 008c 58000000 		.4byte	.LFE15-.LFB15
 4340 0090 00000000 		.4byte	.LFB16
ARM GAS  C:\Users\TTSS\AppData\Local\Temp\ccBAPXR4.s 			page 113


 4341 0094 24000000 		.4byte	.LFE16-.LFB16
 4342 0098 00000000 		.4byte	.LFB17
 4343 009c 6C000000 		.4byte	.LFE17-.LFB17
 4344 00a0 00000000 		.4byte	.LFB18
 4345 00a4 40000000 		.4byte	.LFE18-.LFB18
 4346 00a8 00000000 		.4byte	.LFB19
 4347 00ac 60000000 		.4byte	.LFE19-.LFB19
 4348 00b0 00000000 		.4byte	.LFB20
 4349 00b4 68000000 		.4byte	.LFE20-.LFB20
 4350 00b8 00000000 		.4byte	.LFB21
 4351 00bc 58000000 		.4byte	.LFE21-.LFB21
 4352 00c0 00000000 		.4byte	.LFB22
 4353 00c4 1C000000 		.4byte	.LFE22-.LFB22
 4354 00c8 00000000 		.4byte	.LFB23
 4355 00cc 90000000 		.4byte	.LFE23-.LFB23
 4356 00d0 00000000 		.4byte	.LFB24
 4357 00d4 44000000 		.4byte	.LFE24-.LFB24
 4358 00d8 00000000 		.4byte	.LFB25
 4359 00dc 18000000 		.4byte	.LFE25-.LFB25
 4360 00e0 00000000 		.4byte	.LFB26
 4361 00e4 40000000 		.4byte	.LFE26-.LFB26
 4362 00e8 00000000 		.4byte	.LFB27
 4363 00ec 54000000 		.4byte	.LFE27-.LFB27
 4364 00f0 00000000 		.4byte	.LFB28
 4365 00f4 1C000000 		.4byte	.LFE28-.LFB28
 4366 00f8 00000000 		.4byte	.LFB29
 4367 00fc 70000000 		.4byte	.LFE29-.LFB29
 4368 0100 00000000 		.4byte	.LFB30
 4369 0104 34000000 		.4byte	.LFE30-.LFB30
 4370 0108 00000000 		.4byte	.LFB31
 4371 010c 40000000 		.4byte	.LFE31-.LFB31
 4372 0110 00000000 		.4byte	.LFB32
 4373 0114 34000000 		.4byte	.LFE32-.LFB32
 4374 0118 00000000 		.4byte	.LFB33
 4375 011c 50000000 		.4byte	.LFE33-.LFB33
 4376 0120 00000000 		.4byte	.LFB34
 4377 0124 38000000 		.4byte	.LFE34-.LFB34
 4378 0128 00000000 		.4byte	.LFB35
 4379 012c E8000000 		.4byte	.LFE35-.LFB35
 4380 0130 00000000 		.4byte	.LFB36
 4381 0134 6C000000 		.4byte	.LFE36-.LFB36
 4382 0138 00000000 		.4byte	.LFB37
 4383 013c AC000000 		.4byte	.LFE37-.LFB37
 4384 0140 00000000 		.4byte	.LFB38
 4385 0144 88000000 		.4byte	.LFE38-.LFB38
 4386 0148 00000000 		.4byte	.LFB39
 4387 014c 98000000 		.4byte	.LFE39-.LFB39
 4388 0150 00000000 		.4byte	.LFB40
 4389 0154 3C000000 		.4byte	.LFE40-.LFB40
 4390 0158 00000000 		.4byte	0
 4391 015c 00000000 		.4byte	0
 4392              		.section	.debug_ranges,"",%progbits
 4393              	.Ldebug_ranges0:
 4394 0000 00000000 		.4byte	.LFB0
 4395 0004 48000000 		.4byte	.LFE0
 4396 0008 00000000 		.4byte	.LFB1
 4397 000c 48000000 		.4byte	.LFE1
ARM GAS  C:\Users\TTSS\AppData\Local\Temp\ccBAPXR4.s 			page 114


 4398 0010 00000000 		.4byte	.LFB2
 4399 0014 1C000000 		.4byte	.LFE2
 4400 0018 00000000 		.4byte	.LFB3
 4401 001c 60000000 		.4byte	.LFE3
 4402 0020 00000000 		.4byte	.LFB4
 4403 0024 1C000000 		.4byte	.LFE4
 4404 0028 00000000 		.4byte	.LFB5
 4405 002c 20000000 		.4byte	.LFE5
 4406 0030 00000000 		.4byte	.LFB6
 4407 0034 54000000 		.4byte	.LFE6
 4408 0038 00000000 		.4byte	.LFB7
 4409 003c 20000000 		.4byte	.LFE7
 4410 0040 00000000 		.4byte	.LFB8
 4411 0044 5C000000 		.4byte	.LFE8
 4412 0048 00000000 		.4byte	.LFB9
 4413 004c 1C000000 		.4byte	.LFE9
 4414 0050 00000000 		.4byte	.LFB10
 4415 0054 40000000 		.4byte	.LFE10
 4416 0058 00000000 		.4byte	.LFB11
 4417 005c 34000000 		.4byte	.LFE11
 4418 0060 00000000 		.4byte	.LFB12
 4419 0064 20000000 		.4byte	.LFE12
 4420 0068 00000000 		.4byte	.LFB13
 4421 006c 4C000000 		.4byte	.LFE13
 4422 0070 00000000 		.4byte	.LFB14
 4423 0074 30000000 		.4byte	.LFE14
 4424 0078 00000000 		.4byte	.LFB15
 4425 007c 58000000 		.4byte	.LFE15
 4426 0080 00000000 		.4byte	.LFB16
 4427 0084 24000000 		.4byte	.LFE16
 4428 0088 00000000 		.4byte	.LFB17
 4429 008c 6C000000 		.4byte	.LFE17
 4430 0090 00000000 		.4byte	.LFB18
 4431 0094 40000000 		.4byte	.LFE18
 4432 0098 00000000 		.4byte	.LFB19
 4433 009c 60000000 		.4byte	.LFE19
 4434 00a0 00000000 		.4byte	.LFB20
 4435 00a4 68000000 		.4byte	.LFE20
 4436 00a8 00000000 		.4byte	.LFB21
 4437 00ac 58000000 		.4byte	.LFE21
 4438 00b0 00000000 		.4byte	.LFB22
 4439 00b4 1C000000 		.4byte	.LFE22
 4440 00b8 00000000 		.4byte	.LFB23
 4441 00bc 90000000 		.4byte	.LFE23
 4442 00c0 00000000 		.4byte	.LFB24
 4443 00c4 44000000 		.4byte	.LFE24
 4444 00c8 00000000 		.4byte	.LFB25
 4445 00cc 18000000 		.4byte	.LFE25
 4446 00d0 00000000 		.4byte	.LFB26
 4447 00d4 40000000 		.4byte	.LFE26
 4448 00d8 00000000 		.4byte	.LFB27
 4449 00dc 54000000 		.4byte	.LFE27
 4450 00e0 00000000 		.4byte	.LFB28
 4451 00e4 1C000000 		.4byte	.LFE28
 4452 00e8 00000000 		.4byte	.LFB29
 4453 00ec 70000000 		.4byte	.LFE29
 4454 00f0 00000000 		.4byte	.LFB30
ARM GAS  C:\Users\TTSS\AppData\Local\Temp\ccBAPXR4.s 			page 115


 4455 00f4 34000000 		.4byte	.LFE30
 4456 00f8 00000000 		.4byte	.LFB31
 4457 00fc 40000000 		.4byte	.LFE31
 4458 0100 00000000 		.4byte	.LFB32
 4459 0104 34000000 		.4byte	.LFE32
 4460 0108 00000000 		.4byte	.LFB33
 4461 010c 50000000 		.4byte	.LFE33
 4462 0110 00000000 		.4byte	.LFB34
 4463 0114 38000000 		.4byte	.LFE34
 4464 0118 00000000 		.4byte	.LFB35
 4465 011c E8000000 		.4byte	.LFE35
 4466 0120 00000000 		.4byte	.LFB36
 4467 0124 6C000000 		.4byte	.LFE36
 4468 0128 00000000 		.4byte	.LFB37
 4469 012c AC000000 		.4byte	.LFE37
 4470 0130 00000000 		.4byte	.LFB38
 4471 0134 88000000 		.4byte	.LFE38
 4472 0138 00000000 		.4byte	.LFB39
 4473 013c 98000000 		.4byte	.LFE39
 4474 0140 00000000 		.4byte	.LFB40
 4475 0144 3C000000 		.4byte	.LFE40
 4476 0148 00000000 		.4byte	0
 4477 014c 00000000 		.4byte	0
 4478              		.section	.debug_line,"",%progbits
 4479              	.Ldebug_line0:
 4480 0000 A7050000 		.section	.debug_str,"MS",%progbits,1
 4480      02005100 
 4480      00000201 
 4480      FB0E0D00 
 4480      01010101 
 4481              	.LASF10:
 4482 0000 75696E74 		.ascii	"uint16\000"
 4482      313600
 4483              	.LASF24:
 4484 0007 6C66636C 		.ascii	"lfclkSource\000"
 4484      6B536F75 
 4484      72636500 
 4485              	.LASF89:
 4486 0013 636F756E 		.ascii	"counterIntMaskTbl\000"
 4486      74657249 
 4486      6E744D61 
 4486      736B5462 
 4486      6C00
 4487              	.LASF90:
 4488 0025 63795379 		.ascii	"cySysWdtCallback\000"
 4488      73576474 
 4488      43616C6C 
 4488      6261636B 
 4488      00
 4489              	.LASF40:
 4490 0036 43795379 		.ascii	"CySysWdtSetMode\000"
 4490      73576474 
 4490      5365744D 
 4490      6F646500 
 4491              	.LASF36:
 4492 0046 43795379 		.ascii	"CySysWdtUnlock\000"
 4492      73576474 
ARM GAS  C:\Users\TTSS\AppData\Local\Temp\ccBAPXR4.s 			page 116


 4492      556E6C6F 
 4492      636B00
 4493              	.LASF81:
 4494 0055 43795379 		.ascii	"CySysWatchdogFeed\000"
 4494      73576174 
 4494      6368646F 
 4494      67466565 
 4494      6400
 4495              	.LASF39:
 4496 0067 636F756E 		.ascii	"counterNum\000"
 4496      7465724E 
 4496      756D00
 4497              	.LASF95:
 4498 0072 43795379 		.ascii	"CySysClkLfclkPosedgeCatch\000"
 4498      73436C6B 
 4498      4C66636C 
 4498      6B506F73 
 4498      65646765 
 4499              	.LASF53:
 4500 008c 43795379 		.ascii	"CySysWdtGetCascade\000"
 4500      73576474 
 4500      47657443 
 4500      61736361 
 4500      646500
 4501              	.LASF94:
 4502 009f 43795379 		.ascii	"CySysClkGetLfclkSource\000"
 4502      73436C6B 
 4502      4765744C 
 4502      66636C6B 
 4502      536F7572 
 4503              	.LASF85:
 4504 00b6 6C66636C 		.ascii	"lfclkPosedgeWdtCounter0Enabled\000"
 4504      6B506F73 
 4504      65646765 
 4504      57647443 
 4504      6F756E74 
 4505              	.LASF7:
 4506 00d5 6C6F6E67 		.ascii	"long long unsigned int\000"
 4506      206C6F6E 
 4506      6720756E 
 4506      7369676E 
 4506      65642069 
 4507              	.LASF52:
 4508 00ec 43795379 		.ascii	"CySysClkWcoEnabled\000"
 4508      73436C6B 
 4508      57636F45 
 4508      6E61626C 
 4508      656400
 4509              	.LASF21:
 4510 00ff 43795379 		.ascii	"CySysClkWcoSetHighPowerMode\000"
 4510      73436C6B 
 4510      57636F53 
 4510      65744869 
 4510      6768506F 
 4511              	.LASF6:
 4512 011b 6C6F6E67 		.ascii	"long long int\000"
 4512      206C6F6E 
ARM GAS  C:\Users\TTSS\AppData\Local\Temp\ccBAPXR4.s 			page 117


 4512      6720696E 
 4512      7400
 4513              	.LASF0:
 4514 0129 7369676E 		.ascii	"signed char\000"
 4514      65642063 
 4514      68617200 
 4515              	.LASF68:
 4516 0135 66756E63 		.ascii	"function\000"
 4516      74696F6E 
 4516      00
 4517              	.LASF23:
 4518 013e 696E7465 		.ascii	"interruptState\000"
 4518      72727570 
 4518      74537461 
 4518      746500
 4519              	.LASF19:
 4520 014d 63795764 		.ascii	"cyWdtCallback\000"
 4520      7443616C 
 4520      6C626163 
 4520      6B00
 4521              	.LASF18:
 4522 015b 63795F73 		.ascii	"cy_sys_timer_delaytype_enum\000"
 4522      79735F74 
 4522      696D6572 
 4522      5F64656C 
 4522      61797479 
 4523              	.LASF58:
 4524 0177 62697473 		.ascii	"bits\000"
 4524      00
 4525              	.LASF4:
 4526 017c 6C6F6E67 		.ascii	"long int\000"
 4526      20696E74 
 4526      00
 4527              	.LASF56:
 4528 0185 72656756 		.ascii	"regValue\000"
 4528      616C7565 
 4528      00
 4529              	.LASF9:
 4530 018e 75696E74 		.ascii	"uint8\000"
 4530      3800
 4531              	.LASF44:
 4532 0194 656E6162 		.ascii	"enable\000"
 4532      6C6500
 4533              	.LASF13:
 4534 019b 646F7562 		.ascii	"double\000"
 4534      6C6500
 4535              	.LASF25:
 4536 01a2 43795379 		.ascii	"CySysClkIloStop\000"
 4536      73436C6B 
 4536      496C6F53 
 4536      746F7000 
 4537              	.LASF66:
 4538 01b2 636F756E 		.ascii	"countersMask\000"
 4538      74657273 
 4538      4D61736B 
 4538      00
 4539              	.LASF11:
ARM GAS  C:\Users\TTSS\AppData\Local\Temp\ccBAPXR4.s 			page 118


 4540 01bf 75696E74 		.ascii	"uint32\000"
 4540      333200
 4541              	.LASF22:
 4542 01c6 43795379 		.ascii	"CySysClkWcoSetLowPowerMode\000"
 4542      73436C6B 
 4542      57636F53 
 4542      65744C6F 
 4542      77506F77 
 4543              	.LASF69:
 4544 01e1 70726576 		.ascii	"prevCallback\000"
 4544      43616C6C 
 4544      6261636B 
 4544      00
 4545              	.LASF54:
 4546 01ee 43795379 		.ascii	"CySysWdtSetMatch\000"
 4546      73576474 
 4546      5365744D 
 4546      61746368 
 4546      00
 4547              	.LASF51:
 4548 01ff 636F756E 		.ascii	"countersEnableStatus\000"
 4548      74657273 
 4548      456E6162 
 4548      6C655374 
 4548      61747573 
 4549              	.LASF88:
 4550 0214 77647449 		.ascii	"wdtIsrMask\000"
 4550      73724D61 
 4550      736B00
 4551              	.LASF46:
 4552 021f 43795379 		.ascii	"CySysWdtEnable\000"
 4552      73576474 
 4552      456E6162 
 4552      6C6500
 4553              	.LASF67:
 4554 022e 43795379 		.ascii	"CySysWdtSetInterruptCallback\000"
 4554      73576474 
 4554      53657449 
 4554      6E746572 
 4554      72757074 
 4555              	.LASF47:
 4556 024b 636F756E 		.ascii	"counterMask\000"
 4556      7465724D 
 4556      61736B00 
 4557              	.LASF45:
 4558 0257 43795379 		.ascii	"CySysWdtGetClearOnMatch\000"
 4558      73576474 
 4558      47657443 
 4558      6C656172 
 4558      4F6E4D61 
 4559              	.LASF8:
 4560 026f 756E7369 		.ascii	"unsigned int\000"
 4560      676E6564 
 4560      20696E74 
 4560      00
 4561              	.LASF26:
 4562 027c 43795379 		.ascii	"CySysClkSetLfclkSource\000"
ARM GAS  C:\Users\TTSS\AppData\Local\Temp\ccBAPXR4.s 			page 119


 4562      73436C6B 
 4562      5365744C 
 4562      66636C6B 
 4562      536F7572 
 4563              	.LASF82:
 4564 0293 66697273 		.ascii	"firstCount\000"
 4564      74436F75 
 4564      6E7400
 4565              	.LASF71:
 4566 029e 72657443 		.ascii	"retCallback\000"
 4566      616C6C62 
 4566      61636B00 
 4567              	.LASF5:
 4568 02aa 6C6F6E67 		.ascii	"long unsigned int\000"
 4568      20756E73 
 4568      69676E65 
 4568      6420696E 
 4568      7400
 4569              	.LASF78:
 4570 02bc 6D617463 		.ascii	"matchValue\000"
 4570      6856616C 
 4570      756500
 4571              	.LASF84:
 4572 02c7 43795379 		.ascii	"CySysClkLfclkPosedgeRestore\000"
 4572      73436C6B 
 4572      4C66636C 
 4572      6B506F73 
 4572      65646765 
 4573              	.LASF72:
 4574 02e3 43795379 		.ascii	"CySysWdtEnableCounterIsr\000"
 4574      73576474 
 4574      456E6162 
 4574      6C65436F 
 4574      756E7465 
 4575              	.LASF3:
 4576 02fc 73686F72 		.ascii	"short unsigned int\000"
 4576      7420756E 
 4576      7369676E 
 4576      65642069 
 4576      6E7400
 4577              	.LASF38:
 4578 030f 43795379 		.ascii	"CySysWdtGetEnabledStatus\000"
 4578      73576474 
 4578      47657445 
 4578      6E61626C 
 4578      65645374 
 4579              	.LASF70:
 4580 0328 43795379 		.ascii	"CySysWdtGetInterruptCallback\000"
 4580      73576474 
 4580      47657449 
 4580      6E746572 
 4580      72757074 
 4581              	.LASF74:
 4582 0345 43795379 		.ascii	"CySysWdtIsr\000"
 4582      73576474 
 4582      49737200 
 4583              	.LASF27:
ARM GAS  C:\Users\TTSS\AppData\Local\Temp\ccBAPXR4.s 			page 120


 4584 0351 43795379 		.ascii	"CySysClkIloStart\000"
 4584      73436C6B 
 4584      496C6F53 
 4584      74617274 
 4584      00
 4585              	.LASF57:
 4586 0362 43795379 		.ascii	"CySysWdtSetToggleBit\000"
 4586      73576474 
 4586      53657454 
 4586      6F67676C 
 4586      65426974 
 4587              	.LASF15:
 4588 0377 72656733 		.ascii	"reg32\000"
 4588      3200
 4589              	.LASF80:
 4590 037d 746D7056 		.ascii	"tmpValue\000"
 4590      616C7565 
 4590      00
 4591              	.LASF30:
 4592 0386 736F7572 		.ascii	"source\000"
 4592      636500
 4593              	.LASF20:
 4594 038d 73697A65 		.ascii	"sizetype\000"
 4594      74797065 
 4594      00
 4595              	.LASF60:
 4596 0396 43795379 		.ascii	"CySysWdtGetMatch\000"
 4596      73576474 
 4596      4765744D 
 4596      61746368 
 4596      00
 4597              	.LASF55:
 4598 03a7 6D617463 		.ascii	"match\000"
 4598      6800
 4599              	.LASF93:
 4600 03ad 433A5C55 		.ascii	"C:\\Users\\TTSS\\Dropbox\\Projects\\hackAIR\\AirQua"
 4600      73657273 
 4600      5C545453 
 4600      535C4472 
 4600      6F70626F 
 4601 03da 6C697479 		.ascii	"lityBeacons\\PwmLedSensor_PPD42.cydsn\000"
 4601      42656163 
 4601      6F6E735C 
 4601      50776D4C 
 4601      65645365 
 4602              	.LASF16:
 4603 03ff 43595F53 		.ascii	"CY_SYS_TIMER_WAIT\000"
 4603      59535F54 
 4603      494D4552 
 4603      5F574149 
 4603      5400
 4604              	.LASF65:
 4605 0411 43795379 		.ascii	"CySysWdtResetCounters\000"
 4605      73576474 
 4605      52657365 
 4605      74436F75 
 4605      6E746572 
ARM GAS  C:\Users\TTSS\AppData\Local\Temp\ccBAPXR4.s 			page 121


 4606              	.LASF63:
 4607 0427 43795379 		.ascii	"CySysWdtClearInterrupt\000"
 4607      73576474 
 4607      436C6561 
 4607      72496E74 
 4607      65727275 
 4608              	.LASF12:
 4609 043e 666C6F61 		.ascii	"float\000"
 4609      7400
 4610              	.LASF79:
 4611 0444 43795379 		.ascii	"CySysTimerDelayUntilMatch\000"
 4611      7354696D 
 4611      65724465 
 4611      6C617955 
 4611      6E74696C 
 4612              	.LASF75:
 4613 045e 43795379 		.ascii	"CySysTimerDelay\000"
 4613      7354696D 
 4613      65724465 
 4613      6C617900 
 4614              	.LASF35:
 4615 046e 43795379 		.ascii	"CySysWdtLocked\000"
 4615      73576474 
 4615      4C6F636B 
 4615      656400
 4616              	.LASF1:
 4617 047d 756E7369 		.ascii	"unsigned char\000"
 4617      676E6564 
 4617      20636861 
 4617      7200
 4618              	.LASF83:
 4619 048b 6C66636C 		.ascii	"lfclkPosedgeEnabledWdtCounter\000"
 4619      6B506F73 
 4619      65646765 
 4619      456E6162 
 4619      6C656457 
 4620              	.LASF77:
 4621 04a9 64656C61 		.ascii	"delay\000"
 4621      7900
 4622              	.LASF2:
 4623 04af 73686F72 		.ascii	"short int\000"
 4623      7420696E 
 4623      7400
 4624              	.LASF76:
 4625 04b9 64656C61 		.ascii	"delayType\000"
 4625      79547970 
 4625      6500
 4626              	.LASF48:
 4627 04c3 43795379 		.ascii	"CySysWdtDisable\000"
 4627      73576474 
 4627      44697361 
 4627      626C6500 
 4628              	.LASF34:
 4629 04d3 43795379 		.ascii	"CySysClkIloEnabled\000"
 4629      73436C6B 
 4629      496C6F45 
 4629      6E61626C 
ARM GAS  C:\Users\TTSS\AppData\Local\Temp\ccBAPXR4.s 			page 122


 4629      656400
 4630              	.LASF62:
 4631 04e6 43795379 		.ascii	"CySysWdtGetInterruptSource\000"
 4631      73576474 
 4631      47657449 
 4631      6E746572 
 4631      72757074 
 4632              	.LASF92:
 4633 0501 47656E65 		.ascii	"Generated_Source\\PSoC4\\CyLFClk.c\000"
 4633      72617465 
 4633      645F536F 
 4633      75726365 
 4633      5C50536F 
 4634              	.LASF29:
 4635 0522 43795379 		.ascii	"CySysClkWcoStop\000"
 4635      73436C6B 
 4635      57636F53 
 4635      746F7000 
 4636              	.LASF37:
 4637 0532 43795379 		.ascii	"CySysClkWcoSetPowerMode\000"
 4637      73436C6B 
 4637      57636F53 
 4637      6574506F 
 4637      7765724D 
 4638              	.LASF73:
 4639 054a 43795379 		.ascii	"CySysWdtDisableCounterIsr\000"
 4639      73576474 
 4639      44697361 
 4639      626C6543 
 4639      6F756E74 
 4640              	.LASF14:
 4641 0564 63686172 		.ascii	"char\000"
 4641      00
 4642              	.LASF31:
 4643 0569 6D6F6465 		.ascii	"mode\000"
 4643      00
 4644              	.LASF61:
 4645 056e 43795379 		.ascii	"CySysWdtGetCount\000"
 4645      73576474 
 4645      47657443 
 4645      6F756E74 
 4645      00
 4646              	.LASF33:
 4647 057f 43795379 		.ascii	"CySysWdtLock\000"
 4647      73576474 
 4647      4C6F636B 
 4647      00
 4648              	.LASF87:
 4649 058c 64697361 		.ascii	"disableServicedIsr\000"
 4649      626C6553 
 4649      65727669 
 4649      63656449 
 4649      737200
 4650              	.LASF43:
 4651 059f 43795379 		.ascii	"CySysWdtSetClearOnMatch\000"
 4651      73576474 
 4651      53657443 
ARM GAS  C:\Users\TTSS\AppData\Local\Temp\ccBAPXR4.s 			page 123


 4651      6C656172 
 4651      4F6E4D61 
 4652              	.LASF49:
 4653 05b7 43795379 		.ascii	"CySysWdtSetCascade\000"
 4653      73576474 
 4653      53657443 
 4653      61736361 
 4653      646500
 4654              	.LASF42:
 4655 05ca 43795379 		.ascii	"CySysWdtGetMode\000"
 4655      73576474 
 4655      4765744D 
 4655      6F646500 
 4656              	.LASF28:
 4657 05da 43795379 		.ascii	"CySysClkWcoStart\000"
 4657      73436C6B 
 4657      57636F53 
 4657      74617274 
 4657      00
 4658              	.LASF64:
 4659 05eb 7764744C 		.ascii	"wdtLockState\000"
 4659      6F636B53 
 4659      74617465 
 4659      00
 4660              	.LASF32:
 4661 05f8 73746174 		.ascii	"status\000"
 4661      757300
 4662              	.LASF41:
 4663 05ff 636F6E66 		.ascii	"configRegValue\000"
 4663      69675265 
 4663      6756616C 
 4663      756500
 4664              	.LASF86:
 4665 060e 6C66636C 		.ascii	"lfclkPosedgeWdtCounter0Mode\000"
 4665      6B506F73 
 4665      65646765 
 4665      57647443 
 4665      6F756E74 
 4666              	.LASF50:
 4667 062a 63617363 		.ascii	"cascadeMask\000"
 4667      6164654D 
 4667      61736B00 
 4668              	.LASF91:
 4669 0636 474E5520 		.ascii	"GNU C 4.9.3 20150303 (release) [ARM/embedded-4_9-br"
 4669      4320342E 
 4669      392E3320 
 4669      32303135 
 4669      30333033 
 4670 0669 616E6368 		.ascii	"anch revision 221220] -mcpu=cortex-m0 -mthumb -g -O"
 4670      20726576 
 4670      6973696F 
 4670      6E203232 
 4670      31323230 
 4671 069c 30202D66 		.ascii	"0 -ffunction-sections -ffat-lto-objects\000"
 4671      66756E63 
 4671      74696F6E 
 4671      2D736563 
ARM GAS  C:\Users\TTSS\AppData\Local\Temp\ccBAPXR4.s 			page 124


 4671      74696F6E 
 4672              	.LASF59:
 4673 06c4 43795379 		.ascii	"CySysWdtGetToggleBit\000"
 4673      73576474 
 4673      47657454 
 4673      6F67676C 
 4673      65426974 
 4674              	.LASF17:
 4675 06d9 43595F53 		.ascii	"CY_SYS_TIMER_INTERRUPT\000"
 4675      59535F54 
 4675      494D4552 
 4675      5F494E54 
 4675      45525255 
 4676              		.ident	"GCC: (GNU Tools for ARM Embedded Processors) 4.9.3 20150303 (release) [ARM/embedded-4_9-br
