ARM GAS  C:\Users\TTSS\AppData\Local\Temp\cc3lLdhK.s 			page 1


   1              		.cpu cortex-m0
   2              		.fpu softvfp
   3              		.eabi_attribute 20, 1
   4              		.eabi_attribute 21, 1
   5              		.eabi_attribute 23, 3
   6              		.eabi_attribute 24, 1
   7              		.eabi_attribute 25, 1
   8              		.eabi_attribute 26, 1
   9              		.eabi_attribute 30, 6
  10              		.eabi_attribute 34, 0
  11              		.eabi_attribute 18, 4
  12              		.code	16
  13              		.file	"main.c"
  14              		.text
  15              	.Ltext0:
  16              		.cfi_sections	.debug_frame
  17              		.section	.text.main,"ax",%progbits
  18              		.align	2
  19              		.global	main
  20              		.code	16
  21              		.thumb_func
  22              		.type	main, %function
  23              	main:
  24              	.LFB37:
  25              		.file 1 "main.c"
   1:main.c        **** /* ========================================
   2:main.c        ****  * Air Quality Beacon, part of the hackAIR project.
   3:main.c        ****  * Freely available under CC BY 4.0
   4:main.c        ****  *
   5:main.c        ****  *
   6:main.c        ****  * Author: George Doxastakis gdoxastakis.ee@gmail.com
   7:main.c        ****  * Technology Transfer & Smart Solutions
   8:main.c        ****  * TEI of Athens
   9:main.c        ****  * http://research.ee.teiath.gr/ttss/
  10:main.c        ****  *
  11:main.c        ****  * http://www.hackair.eu/
  12:main.c        **** */
  13:main.c        **** #include <project.h>
  14:main.c        **** #include <math.h>
  15:main.c        **** /* Function prototypes */  
  16:main.c        **** void StackEventHandler(uint32 event, void* eventParam);
  17:main.c        **** int16 readParticles();
  18:main.c        **** 
  19:main.c        **** /* ADV payload dta structure */  
  20:main.c        **** extern CYBLE_GAPP_DISC_MODE_INFO_T cyBle_discoveryModeInfo;
  21:main.c        **** #define advPayload   (cyBle_discoveryModeInfo.advData->advData) 
  22:main.c        **** 
  23:main.c        **** 
  24:main.c        **** int main()
  25:main.c        **** {
  26              		.loc 1 25 0
  27              		.cfi_startproc
  28 0000 90B5     		push	{r4, r7, lr}
  29              		.cfi_def_cfa_offset 12
  30              		.cfi_offset 4, -12
  31              		.cfi_offset 7, -8
  32              		.cfi_offset 14, -4
ARM GAS  C:\Users\TTSS\AppData\Local\Temp\cc3lLdhK.s 			page 2


  33 0002 83B0     		sub	sp, sp, #12
  34              		.cfi_def_cfa_offset 24
  35 0004 00AF     		add	r7, sp, #0
  36              		.cfi_def_cfa_register 7
  26:main.c        ****     CyGlobalIntEnable; /* Enable global interrupts. */
  37              		.loc 1 26 0
  38              	@ 26 "main.c" 1
  39 0006 62B6     		CPSIE   i
  40              	@ 0 "" 2
  27:main.c        **** 
  28:main.c        ****     /* Start CYBLE component and register the generic event handler */
  29:main.c        ****     CyBle_Start(StackEventHandler);
  41              		.loc 1 29 0
  42              		.code	16
  43 0008 1B4B     		ldr	r3, .L3
  44 000a 181C     		mov	r0, r3
  45 000c FFF7FEFF 		bl	CyBle_Start
  46              	.L2:
  47              	.LBB2:
  30:main.c        ****     for(;;)
  31:main.c        ****     {
  32:main.c        ****         STATUS_Write(1);CyDelay(300);STATUS_Write(0);
  48              		.loc 1 32 0 discriminator 1
  49 0010 0120     		mov	r0, #1
  50 0012 FFF7FEFF 		bl	STATUS_Write
  51 0016 9623     		mov	r3, #150
  52 0018 5B00     		lsl	r3, r3, #1
  53 001a 181C     		mov	r0, r3
  54 001c FFF7FEFF 		bl	CyDelay
  55 0020 0020     		mov	r0, #0
  56 0022 FFF7FEFF 		bl	STATUS_Write
  33:main.c        ****         int16 val=readParticles(); //Perform sensor measurement
  57              		.loc 1 33 0 discriminator 1
  58 0026 BC1D     		add	r4, r7, #6
  59 0028 FFF7FEFF 		bl	readParticles
  60 002c 031C     		mov	r3, r0
  61 002e 2380     		strh	r3, [r4]
  34:main.c        ****         
  35:main.c        ****         /* Dynamic payload will be continuously updated */
  36:main.c        ****         advPayload[19] =  0x05; //Sensor ID: 0x05 for PPD42
  62              		.loc 1 36 0 discriminator 1
  63 0030 124B     		ldr	r3, .L3+4
  64 0032 9B68     		ldr	r3, [r3, #8]
  65 0034 0522     		mov	r2, #5
  66 0036 DA74     		strb	r2, [r3, #19]
  37:main.c        ****         advPayload[23] =  val>>8; //High byte of sensor measurement
  67              		.loc 1 37 0 discriminator 1
  68 0038 104B     		ldr	r3, .L3+4
  69 003a 9B68     		ldr	r3, [r3, #8]
  70 003c BA1D     		add	r2, r7, #6
  71 003e 0021     		mov	r1, #0
  72 0040 525E     		ldrsh	r2, [r2, r1]
  73 0042 1212     		asr	r2, r2, #8
  74 0044 92B2     		uxth	r2, r2
  75 0046 D2B2     		uxtb	r2, r2
  76 0048 DA75     		strb	r2, [r3, #23]
  38:main.c        ****         advPayload[24] =  val&0xFF; //Low byte of sensor measurement
ARM GAS  C:\Users\TTSS\AppData\Local\Temp\cc3lLdhK.s 			page 3


  77              		.loc 1 38 0 discriminator 1
  78 004a 0C4B     		ldr	r3, .L3+4
  79 004c 9B68     		ldr	r3, [r3, #8]
  80 004e BA1D     		add	r2, r7, #6
  81 0050 1288     		ldrh	r2, [r2]
  82 0052 D2B2     		uxtb	r2, r2
  83 0054 1A76     		strb	r2, [r3, #24]
  39:main.c        ****         CyBle_GapUpdateAdvData(cyBle_discoveryModeInfo.advData, cyBle_discoveryModeInfo.scanRspData
  84              		.loc 1 39 0 discriminator 1
  85 0056 094B     		ldr	r3, .L3+4
  86 0058 9A68     		ldr	r2, [r3, #8]
  87 005a 084B     		ldr	r3, .L3+4
  88 005c DB68     		ldr	r3, [r3, #12]
  89 005e 101C     		mov	r0, r2
  90 0060 191C     		mov	r1, r3
  91 0062 FFF7FEFF 		bl	CyBle_GapUpdateAdvData
  40:main.c        ****         
  41:main.c        ****         CyBle_ProcessEvents(); 
  92              		.loc 1 41 0 discriminator 1
  93 0066 FFF7FEFF 		bl	CyBle_ProcessEvents
  42:main.c        ****         
  43:main.c        ****         CyDelay(500); //Measurement delay 
  94              		.loc 1 43 0 discriminator 1
  95 006a FA23     		mov	r3, #250
  96 006c 5B00     		lsl	r3, r3, #1
  97 006e 181C     		mov	r0, r3
  98 0070 FFF7FEFF 		bl	CyDelay
  99              	.LBE2:
  44:main.c        ****     }
 100              		.loc 1 44 0 discriminator 1
 101 0074 CCE7     		b	.L2
 102              	.L4:
 103 0076 C046     		.align	2
 104              	.L3:
 105 0078 00000000 		.word	StackEventHandler
 106 007c 00000000 		.word	cyBle_discoveryModeInfo
 107              		.cfi_endproc
 108              	.LFE37:
 109              		.size	main, .-main
 110              		.section	.text.StackEventHandler,"ax",%progbits
 111              		.align	2
 112              		.global	StackEventHandler
 113              		.code	16
 114              		.thumb_func
 115              		.type	StackEventHandler, %function
 116              	StackEventHandler:
 117              	.LFB38:
  45:main.c        **** }
  46:main.c        **** 
  47:main.c        **** void StackEventHandler(uint32 event, void *eventParam)
  48:main.c        **** {
 118              		.loc 1 48 0
 119              		.cfi_startproc
 120 0000 80B5     		push	{r7, lr}
 121              		.cfi_def_cfa_offset 8
 122              		.cfi_offset 7, -8
 123              		.cfi_offset 14, -4
ARM GAS  C:\Users\TTSS\AppData\Local\Temp\cc3lLdhK.s 			page 4


 124 0002 82B0     		sub	sp, sp, #8
 125              		.cfi_def_cfa_offset 16
 126 0004 00AF     		add	r7, sp, #0
 127              		.cfi_def_cfa_register 7
 128 0006 7860     		str	r0, [r7, #4]
 129 0008 3960     		str	r1, [r7]
  49:main.c        ****     switch(event)
 130              		.loc 1 49 0
 131 000a 7B68     		ldr	r3, [r7, #4]
 132 000c 012B     		cmp	r3, #1
 133 000e 00D0     		beq	.L7
  50:main.c        ****     {
  51:main.c        ****         
  52:main.c        **** 		case CYBLE_EVT_STACK_ON:
  53:main.c        **** 			/* BLE stack is on. Start BLE advertisement */   
  54:main.c        **** 			CyBle_GappStartAdvertisement(CYBLE_ADVERTISING_FAST);
  55:main.c        **** 		    break;
  56:main.c        **** 		
  57:main.c        ****         default:
  58:main.c        ****             break;
 134              		.loc 1 58 0
 135 0010 03E0     		b	.L5
 136              	.L7:
  54:main.c        **** 		    break;
 137              		.loc 1 54 0
 138 0012 0020     		mov	r0, #0
 139 0014 FFF7FEFF 		bl	CyBle_GappStartAdvertisement
  55:main.c        **** 		
 140              		.loc 1 55 0
 141 0018 C046     		mov	r8, r8
 142              	.L5:
  59:main.c        ****     }   	
  60:main.c        **** 
  61:main.c        **** }
 143              		.loc 1 61 0
 144 001a BD46     		mov	sp, r7
 145 001c 02B0     		add	sp, sp, #8
 146              		@ sp needed
 147 001e 80BD     		pop	{r7, pc}
 148              		.cfi_endproc
 149              	.LFE38:
 150              		.size	StackEventHandler, .-StackEventHandler
 151              		.global	__aeabi_idiv
 152              		.global	__aeabi_i2d
 153              		.global	__aeabi_dmul
 154              		.global	__aeabi_dsub
 155              		.global	__aeabi_dadd
 156              		.global	__aeabi_d2uiz
 157              		.section	.text.readParticles,"ax",%progbits
 158              		.align	2
 159              		.global	readParticles
 160              		.code	16
 161              		.thumb_func
 162              		.type	readParticles, %function
 163              	readParticles:
 164              	.LFB39:
  62:main.c        **** 
ARM GAS  C:\Users\TTSS\AppData\Local\Temp\cc3lLdhK.s 			page 5


  63:main.c        **** /*******************************************************************
  64:main.c        **** * NAME :            int16 readParticles()
  65:main.c        **** *
  66:main.c        **** * DESCRIPTION :     Read sensor measurement
  67:main.c        **** * OUTPUTS :
  68:main.c        **** *       int16 Dust concentration in pcs/0.01cf
  69:main.c        **** */
  70:main.c        **** int16 readParticles(){
 165              		.loc 1 70 0
 166              		.cfi_startproc
 167 0000 F0B5     		push	{r4, r5, r6, r7, lr}
 168              		.cfi_def_cfa_offset 20
 169              		.cfi_offset 4, -20
 170              		.cfi_offset 5, -16
 171              		.cfi_offset 6, -12
 172              		.cfi_offset 7, -8
 173              		.cfi_offset 14, -4
 174 0002 85B0     		sub	sp, sp, #20
 175              		.cfi_def_cfa_offset 40
 176 0004 00AF     		add	r7, sp, #0
 177              		.cfi_def_cfa_register 7
  71:main.c        ****     int i; 
  72:main.c        ****     int dur=0;
 178              		.loc 1 72 0
 179 0006 0023     		mov	r3, #0
 180 0008 BB60     		str	r3, [r7, #8]
  73:main.c        ****     
  74:main.c        ****     for(i=0;i<2000000;i++){
 181              		.loc 1 74 0
 182 000a 0023     		mov	r3, #0
 183 000c FB60     		str	r3, [r7, #12]
 184 000e 0FE0     		b	.L10
 185              	.L11:
  75:main.c        ****       CyDelayUs(1);
 186              		.loc 1 75 0 discriminator 3
 187 0010 0120     		mov	r0, #1
 188 0012 FFF7FEFF 		bl	CyDelayUs
  76:main.c        ****       dur+=!PWM_IN_Read();//Count low pulse Duration
 189              		.loc 1 76 0 discriminator 3
 190 0016 FFF7FEFF 		bl	PWM_IN_Read
 191 001a 031C     		mov	r3, r0
 192 001c 5A42     		neg	r2, r3
 193 001e 5341     		adc	r3, r3, r2
 194 0020 DBB2     		uxtb	r3, r3
 195 0022 1A1C     		mov	r2, r3
 196 0024 BB68     		ldr	r3, [r7, #8]
 197 0026 9B18     		add	r3, r3, r2
 198 0028 BB60     		str	r3, [r7, #8]
  74:main.c        ****       CyDelayUs(1);
 199              		.loc 1 74 0 discriminator 3
 200 002a FB68     		ldr	r3, [r7, #12]
 201 002c 0133     		add	r3, r3, #1
 202 002e FB60     		str	r3, [r7, #12]
 203              	.L10:
  74:main.c        ****       CyDelayUs(1);
 204              		.loc 1 74 0 is_stmt 0 discriminator 1
 205 0030 FB68     		ldr	r3, [r7, #12]
ARM GAS  C:\Users\TTSS\AppData\Local\Temp\cc3lLdhK.s 			page 6


 206 0032 374A     		ldr	r2, .L13
 207 0034 9342     		cmp	r3, r2
 208 0036 EBDD     		ble	.L11
  77:main.c        ****     }
  78:main.c        ****     int ratio = dur/20000;
 209              		.loc 1 78 0 is_stmt 1
 210 0038 BB68     		ldr	r3, [r7, #8]
 211 003a 181C     		mov	r0, r3
 212 003c 3549     		ldr	r1, .L13+4
 213 003e FFF7FEFF 		bl	__aeabi_idiv
 214 0042 031C     		mov	r3, r0
 215 0044 7B60     		str	r3, [r7, #4]
  79:main.c        ****     uint16 senDat = (uint16)(1.1 * pow(ratio, 3.0) - 3.8 * pow(ratio, 2.0) + 520 * ratio + 0.62); /
 216              		.loc 1 79 0
 217 0046 7868     		ldr	r0, [r7, #4]
 218 0048 FFF7FEFF 		bl	__aeabi_i2d
 219 004c 0A1C     		mov	r2, r1
 220 004e 011C     		mov	r1, r0
 221 0050 0023     		mov	r3, #0
 222 0052 314C     		ldr	r4, .L13+8
 223 0054 081C     		mov	r0, r1
 224 0056 111C     		mov	r1, r2
 225 0058 1A1C     		mov	r2, r3
 226 005a 231C     		mov	r3, r4
 227 005c FFF7FEFF 		bl	pow
 228 0060 031C     		mov	r3, r0
 229 0062 0C1C     		mov	r4, r1
 230 0064 181C     		mov	r0, r3
 231 0066 211C     		mov	r1, r4
 232 0068 2C4A     		ldr	r2, .L13+12
 233 006a 2D4B     		ldr	r3, .L13+16
 234 006c FFF7FEFF 		bl	__aeabi_dmul
 235 0070 031C     		mov	r3, r0
 236 0072 0C1C     		mov	r4, r1
 237 0074 1D1C     		mov	r5, r3
 238 0076 261C     		mov	r6, r4
 239 0078 7868     		ldr	r0, [r7, #4]
 240 007a FFF7FEFF 		bl	__aeabi_i2d
 241 007e 0A1C     		mov	r2, r1
 242 0080 011C     		mov	r1, r0
 243 0082 0023     		mov	r3, #0
 244 0084 8024     		mov	r4, #128
 245 0086 E405     		lsl	r4, r4, #23
 246 0088 081C     		mov	r0, r1
 247 008a 111C     		mov	r1, r2
 248 008c 1A1C     		mov	r2, r3
 249 008e 231C     		mov	r3, r4
 250 0090 FFF7FEFF 		bl	pow
 251 0094 031C     		mov	r3, r0
 252 0096 0C1C     		mov	r4, r1
 253 0098 181C     		mov	r0, r3
 254 009a 211C     		mov	r1, r4
 255 009c 214A     		ldr	r2, .L13+20
 256 009e 224B     		ldr	r3, .L13+24
 257 00a0 FFF7FEFF 		bl	__aeabi_dmul
 258 00a4 031C     		mov	r3, r0
 259 00a6 0C1C     		mov	r4, r1
ARM GAS  C:\Users\TTSS\AppData\Local\Temp\cc3lLdhK.s 			page 7


 260 00a8 281C     		mov	r0, r5
 261 00aa 311C     		mov	r1, r6
 262 00ac 1A1C     		mov	r2, r3
 263 00ae 231C     		mov	r3, r4
 264 00b0 FFF7FEFF 		bl	__aeabi_dsub
 265 00b4 031C     		mov	r3, r0
 266 00b6 0C1C     		mov	r4, r1
 267 00b8 1D1C     		mov	r5, r3
 268 00ba 261C     		mov	r6, r4
 269 00bc 7A68     		ldr	r2, [r7, #4]
 270 00be 131C     		mov	r3, r2
 271 00c0 9B01     		lsl	r3, r3, #6
 272 00c2 9B18     		add	r3, r3, r2
 273 00c4 DB00     		lsl	r3, r3, #3
 274 00c6 181C     		mov	r0, r3
 275 00c8 FFF7FEFF 		bl	__aeabi_i2d
 276 00cc 031C     		mov	r3, r0
 277 00ce 0C1C     		mov	r4, r1
 278 00d0 281C     		mov	r0, r5
 279 00d2 311C     		mov	r1, r6
 280 00d4 1A1C     		mov	r2, r3
 281 00d6 231C     		mov	r3, r4
 282 00d8 FFF7FEFF 		bl	__aeabi_dadd
 283 00dc 031C     		mov	r3, r0
 284 00de 0C1C     		mov	r4, r1
 285 00e0 181C     		mov	r0, r3
 286 00e2 211C     		mov	r1, r4
 287 00e4 114A     		ldr	r2, .L13+28
 288 00e6 124B     		ldr	r3, .L13+32
 289 00e8 FFF7FEFF 		bl	__aeabi_dadd
 290 00ec 031C     		mov	r3, r0
 291 00ee 0C1C     		mov	r4, r1
 292 00f0 1A1C     		mov	r2, r3
 293 00f2 231C     		mov	r3, r4
 294 00f4 BC1C     		add	r4, r7, #2
 295 00f6 101C     		mov	r0, r2
 296 00f8 191C     		mov	r1, r3
 297 00fa FFF7FEFF 		bl	__aeabi_d2uiz
 298 00fe 031C     		mov	r3, r0
 299 0100 2380     		strh	r3, [r4]
  80:main.c        ****     
  81:main.c        ****     return senDat;
 300              		.loc 1 81 0
 301 0102 BB1C     		add	r3, r7, #2
 302 0104 1B88     		ldrh	r3, [r3]
 303 0106 1BB2     		sxth	r3, r3
  82:main.c        **** }
 304              		.loc 1 82 0
 305 0108 181C     		mov	r0, r3
 306 010a BD46     		mov	sp, r7
 307 010c 05B0     		add	sp, sp, #20
 308              		@ sp needed
 309 010e F0BD     		pop	{r4, r5, r6, r7, pc}
 310              	.L14:
 311              		.align	2
 312              	.L13:
 313 0110 7F841E00 		.word	1999999
ARM GAS  C:\Users\TTSS\AppData\Local\Temp\cc3lLdhK.s 			page 8


 314 0114 204E0000 		.word	20000
 315 0118 00000840 		.word	1074266112
 316 011c 9A999999 		.word	-1717986918
 317 0120 9999F13F 		.word	1072798105
 318 0124 66666666 		.word	1717986918
 319 0128 66660E40 		.word	1074685542
 320 012c D7A3703D 		.word	1030792151
 321 0130 0AD7E33F 		.word	1071896330
 322              		.cfi_endproc
 323              	.LFE39:
 324              		.size	readParticles, .-readParticles
 325              		.text
 326              	.Letext0:
 327              		.file 2 "Generated_Source\\PSoC4/cytypes.h"
 328              		.file 3 "Generated_Source\\PSoC4/BLE_Stack.h"
 329              		.file 4 "Generated_Source\\PSoC4/BLE_StackGap.h"