ARM GAS  C:\Users\George\AppData\Local\Temp\cc4XNLsc.s 			page 1


   1              		.cpu cortex-m0
   2              		.fpu softvfp
   3              		.eabi_attribute 20, 1
   4              		.eabi_attribute 21, 1
   5              		.eabi_attribute 23, 3
   6              		.eabi_attribute 24, 1
   7              		.eabi_attribute 25, 1
   8              		.eabi_attribute 26, 1
   9              		.eabi_attribute 30, 6
  10              		.eabi_attribute 34, 0
  11              		.eabi_attribute 18, 4
  12              		.code	16
  13              		.file	"Timeout.c"
  14              		.text
  15              	.Ltext0:
  16              		.cfi_sections	.debug_frame
  17              		.section	.text.Timeout_Start,"ax",%progbits
  18              		.align	2
  19              		.global	Timeout_Start
  20              		.code	16
  21              		.thumb_func
  22              		.type	Timeout_Start, %function
  23              	Timeout_Start:
  24              	.LFB2:
  25              		.file 1 ".\\Generated_Source\\PSoC4\\Timeout.c"
   1:.\Generated_Source\PSoC4/Timeout.c **** /*******************************************************************************
   2:.\Generated_Source\PSoC4/Timeout.c **** * File Name: Timeout.c  
   3:.\Generated_Source\PSoC4/Timeout.c **** * Version 1.70
   4:.\Generated_Source\PSoC4/Timeout.c **** *
   5:.\Generated_Source\PSoC4/Timeout.c **** *  Description:
   6:.\Generated_Source\PSoC4/Timeout.c **** *   API for controlling the state of an interrupt.
   7:.\Generated_Source\PSoC4/Timeout.c **** *
   8:.\Generated_Source\PSoC4/Timeout.c **** *
   9:.\Generated_Source\PSoC4/Timeout.c **** *  Note:
  10:.\Generated_Source\PSoC4/Timeout.c **** *
  11:.\Generated_Source\PSoC4/Timeout.c **** ********************************************************************************
  12:.\Generated_Source\PSoC4/Timeout.c **** * Copyright 2008-2015, Cypress Semiconductor Corporation.  All rights reserved.
  13:.\Generated_Source\PSoC4/Timeout.c **** * You may use this file only in accordance with the license, terms, conditions, 
  14:.\Generated_Source\PSoC4/Timeout.c **** * disclaimers, and limitations in the end user license agreement accompanying 
  15:.\Generated_Source\PSoC4/Timeout.c **** * the software package with which this file was provided.
  16:.\Generated_Source\PSoC4/Timeout.c **** *******************************************************************************/
  17:.\Generated_Source\PSoC4/Timeout.c **** 
  18:.\Generated_Source\PSoC4/Timeout.c **** 
  19:.\Generated_Source\PSoC4/Timeout.c **** #include <cydevice_trm.h>
  20:.\Generated_Source\PSoC4/Timeout.c **** #include <CyLib.h>
  21:.\Generated_Source\PSoC4/Timeout.c **** #include <Timeout.h>
  22:.\Generated_Source\PSoC4/Timeout.c **** #include "cyapicallbacks.h"
  23:.\Generated_Source\PSoC4/Timeout.c **** 
  24:.\Generated_Source\PSoC4/Timeout.c **** #if !defined(Timeout__REMOVED) /* Check for removal by optimization */
  25:.\Generated_Source\PSoC4/Timeout.c **** 
  26:.\Generated_Source\PSoC4/Timeout.c **** /*******************************************************************************
  27:.\Generated_Source\PSoC4/Timeout.c **** *  Place your includes, defines and code here 
  28:.\Generated_Source\PSoC4/Timeout.c **** ********************************************************************************/
  29:.\Generated_Source\PSoC4/Timeout.c **** /* `#START Timeout_intc` */
  30:.\Generated_Source\PSoC4/Timeout.c **** 
  31:.\Generated_Source\PSoC4/Timeout.c **** /* `#END` */
  32:.\Generated_Source\PSoC4/Timeout.c **** 
ARM GAS  C:\Users\George\AppData\Local\Temp\cc4XNLsc.s 			page 2


  33:.\Generated_Source\PSoC4/Timeout.c **** extern cyisraddress CyRamVectors[CYINT_IRQ_BASE + CY_NUM_INTERRUPTS];
  34:.\Generated_Source\PSoC4/Timeout.c **** 
  35:.\Generated_Source\PSoC4/Timeout.c **** /* Declared in startup, used to set unused interrupts to. */
  36:.\Generated_Source\PSoC4/Timeout.c **** CY_ISR_PROTO(IntDefaultHandler);
  37:.\Generated_Source\PSoC4/Timeout.c **** 
  38:.\Generated_Source\PSoC4/Timeout.c **** 
  39:.\Generated_Source\PSoC4/Timeout.c **** /*******************************************************************************
  40:.\Generated_Source\PSoC4/Timeout.c **** * Function Name: Timeout_Start
  41:.\Generated_Source\PSoC4/Timeout.c **** ********************************************************************************
  42:.\Generated_Source\PSoC4/Timeout.c **** *
  43:.\Generated_Source\PSoC4/Timeout.c **** * Summary:
  44:.\Generated_Source\PSoC4/Timeout.c **** *  Set up the interrupt and enable it. This function disables the interrupt, 
  45:.\Generated_Source\PSoC4/Timeout.c **** *  sets the default interrupt vector, sets the priority from the value in the
  46:.\Generated_Source\PSoC4/Timeout.c **** *  Design Wide Resources Interrupt Editor, then enables the interrupt to the 
  47:.\Generated_Source\PSoC4/Timeout.c **** *  interrupt controller.
  48:.\Generated_Source\PSoC4/Timeout.c **** *
  49:.\Generated_Source\PSoC4/Timeout.c **** * Parameters:  
  50:.\Generated_Source\PSoC4/Timeout.c **** *   None
  51:.\Generated_Source\PSoC4/Timeout.c **** *
  52:.\Generated_Source\PSoC4/Timeout.c **** * Return:
  53:.\Generated_Source\PSoC4/Timeout.c **** *   None
  54:.\Generated_Source\PSoC4/Timeout.c **** *
  55:.\Generated_Source\PSoC4/Timeout.c **** *******************************************************************************/
  56:.\Generated_Source\PSoC4/Timeout.c **** void Timeout_Start(void)
  57:.\Generated_Source\PSoC4/Timeout.c **** {
  26              		.loc 1 57 0
  27              		.cfi_startproc
  28 0000 80B5     		push	{r7, lr}
  29              		.cfi_def_cfa_offset 8
  30              		.cfi_offset 7, -8
  31              		.cfi_offset 14, -4
  32 0002 00AF     		add	r7, sp, #0
  33              		.cfi_def_cfa_register 7
  58:.\Generated_Source\PSoC4/Timeout.c ****     /* For all we know the interrupt is active. */
  59:.\Generated_Source\PSoC4/Timeout.c ****     Timeout_Disable();
  34              		.loc 1 59 0
  35 0004 FFF7FEFF 		bl	Timeout_Disable
  60:.\Generated_Source\PSoC4/Timeout.c **** 
  61:.\Generated_Source\PSoC4/Timeout.c ****     /* Set the ISR to point to the Timeout Interrupt. */
  62:.\Generated_Source\PSoC4/Timeout.c ****     Timeout_SetVector(&Timeout_Interrupt);
  36              		.loc 1 62 0
  37 0008 054B     		ldr	r3, .L2
  38 000a 181C     		mov	r0, r3
  39 000c FFF7FEFF 		bl	Timeout_SetVector
  63:.\Generated_Source\PSoC4/Timeout.c **** 
  64:.\Generated_Source\PSoC4/Timeout.c ****     /* Set the priority. */
  65:.\Generated_Source\PSoC4/Timeout.c ****     Timeout_SetPriority((uint8)Timeout_INTC_PRIOR_NUMBER);
  40              		.loc 1 65 0
  41 0010 0320     		mov	r0, #3
  42 0012 FFF7FEFF 		bl	Timeout_SetPriority
  66:.\Generated_Source\PSoC4/Timeout.c **** 
  67:.\Generated_Source\PSoC4/Timeout.c ****     /* Enable it. */
  68:.\Generated_Source\PSoC4/Timeout.c ****     Timeout_Enable();
  43              		.loc 1 68 0
  44 0016 FFF7FEFF 		bl	Timeout_Enable
  69:.\Generated_Source\PSoC4/Timeout.c **** }
  45              		.loc 1 69 0
ARM GAS  C:\Users\George\AppData\Local\Temp\cc4XNLsc.s 			page 3


  46 001a BD46     		mov	sp, r7
  47              		@ sp needed
  48 001c 80BD     		pop	{r7, pc}
  49              	.L3:
  50 001e C046     		.align	2
  51              	.L2:
  52 0020 00000000 		.word	Timeout_Interrupt
  53              		.cfi_endproc
  54              	.LFE2:
  55              		.size	Timeout_Start, .-Timeout_Start
  56              		.section	.text.Timeout_StartEx,"ax",%progbits
  57              		.align	2
  58              		.global	Timeout_StartEx
  59              		.code	16
  60              		.thumb_func
  61              		.type	Timeout_StartEx, %function
  62              	Timeout_StartEx:
  63              	.LFB3:
  70:.\Generated_Source\PSoC4/Timeout.c **** 
  71:.\Generated_Source\PSoC4/Timeout.c **** 
  72:.\Generated_Source\PSoC4/Timeout.c **** /*******************************************************************************
  73:.\Generated_Source\PSoC4/Timeout.c **** * Function Name: Timeout_StartEx
  74:.\Generated_Source\PSoC4/Timeout.c **** ********************************************************************************
  75:.\Generated_Source\PSoC4/Timeout.c **** *
  76:.\Generated_Source\PSoC4/Timeout.c **** * Summary:
  77:.\Generated_Source\PSoC4/Timeout.c **** *  Sets up the interrupt and enables it. This function disables the interrupt,
  78:.\Generated_Source\PSoC4/Timeout.c **** *  sets the interrupt vector based on the address passed in, sets the priority 
  79:.\Generated_Source\PSoC4/Timeout.c **** *  from the value in the Design Wide Resources Interrupt Editor, then enables 
  80:.\Generated_Source\PSoC4/Timeout.c **** *  the interrupt to the interrupt controller.
  81:.\Generated_Source\PSoC4/Timeout.c **** *  
  82:.\Generated_Source\PSoC4/Timeout.c **** *  When defining ISR functions, the CY_ISR and CY_ISR_PROTO macros should be 
  83:.\Generated_Source\PSoC4/Timeout.c **** *  used to provide consistent definition across compilers:
  84:.\Generated_Source\PSoC4/Timeout.c **** *  
  85:.\Generated_Source\PSoC4/Timeout.c **** *  Function definition example:
  86:.\Generated_Source\PSoC4/Timeout.c **** *   CY_ISR(MyISR)
  87:.\Generated_Source\PSoC4/Timeout.c **** *   {
  88:.\Generated_Source\PSoC4/Timeout.c **** *   }
  89:.\Generated_Source\PSoC4/Timeout.c **** *   Function prototype example:
  90:.\Generated_Source\PSoC4/Timeout.c **** *   CY_ISR_PROTO(MyISR);
  91:.\Generated_Source\PSoC4/Timeout.c **** *
  92:.\Generated_Source\PSoC4/Timeout.c **** * Parameters:  
  93:.\Generated_Source\PSoC4/Timeout.c **** *   address: Address of the ISR to set in the interrupt vector table.
  94:.\Generated_Source\PSoC4/Timeout.c **** *
  95:.\Generated_Source\PSoC4/Timeout.c **** * Return:
  96:.\Generated_Source\PSoC4/Timeout.c **** *   None
  97:.\Generated_Source\PSoC4/Timeout.c **** *
  98:.\Generated_Source\PSoC4/Timeout.c **** *******************************************************************************/
  99:.\Generated_Source\PSoC4/Timeout.c **** void Timeout_StartEx(cyisraddress address)
 100:.\Generated_Source\PSoC4/Timeout.c **** {
  64              		.loc 1 100 0
  65              		.cfi_startproc
  66 0000 80B5     		push	{r7, lr}
  67              		.cfi_def_cfa_offset 8
  68              		.cfi_offset 7, -8
  69              		.cfi_offset 14, -4
  70 0002 82B0     		sub	sp, sp, #8
  71              		.cfi_def_cfa_offset 16
ARM GAS  C:\Users\George\AppData\Local\Temp\cc4XNLsc.s 			page 4


  72 0004 00AF     		add	r7, sp, #0
  73              		.cfi_def_cfa_register 7
  74 0006 7860     		str	r0, [r7, #4]
 101:.\Generated_Source\PSoC4/Timeout.c ****     /* For all we know the interrupt is active. */
 102:.\Generated_Source\PSoC4/Timeout.c ****     Timeout_Disable();
  75              		.loc 1 102 0
  76 0008 FFF7FEFF 		bl	Timeout_Disable
 103:.\Generated_Source\PSoC4/Timeout.c **** 
 104:.\Generated_Source\PSoC4/Timeout.c ****     /* Set the ISR to point to the Timeout Interrupt. */
 105:.\Generated_Source\PSoC4/Timeout.c ****     Timeout_SetVector(address);
  77              		.loc 1 105 0
  78 000c 7B68     		ldr	r3, [r7, #4]
  79 000e 181C     		mov	r0, r3
  80 0010 FFF7FEFF 		bl	Timeout_SetVector
 106:.\Generated_Source\PSoC4/Timeout.c **** 
 107:.\Generated_Source\PSoC4/Timeout.c ****     /* Set the priority. */
 108:.\Generated_Source\PSoC4/Timeout.c ****     Timeout_SetPriority((uint8)Timeout_INTC_PRIOR_NUMBER);
  81              		.loc 1 108 0
  82 0014 0320     		mov	r0, #3
  83 0016 FFF7FEFF 		bl	Timeout_SetPriority
 109:.\Generated_Source\PSoC4/Timeout.c **** 
 110:.\Generated_Source\PSoC4/Timeout.c ****     /* Enable it. */
 111:.\Generated_Source\PSoC4/Timeout.c ****     Timeout_Enable();
  84              		.loc 1 111 0
  85 001a FFF7FEFF 		bl	Timeout_Enable
 112:.\Generated_Source\PSoC4/Timeout.c **** }
  86              		.loc 1 112 0
  87 001e BD46     		mov	sp, r7
  88 0020 02B0     		add	sp, sp, #8
  89              		@ sp needed
  90 0022 80BD     		pop	{r7, pc}
  91              		.cfi_endproc
  92              	.LFE3:
  93              		.size	Timeout_StartEx, .-Timeout_StartEx
  94              		.section	.text.Timeout_Stop,"ax",%progbits
  95              		.align	2
  96              		.global	Timeout_Stop
  97              		.code	16
  98              		.thumb_func
  99              		.type	Timeout_Stop, %function
 100              	Timeout_Stop:
 101              	.LFB4:
 113:.\Generated_Source\PSoC4/Timeout.c **** 
 114:.\Generated_Source\PSoC4/Timeout.c **** 
 115:.\Generated_Source\PSoC4/Timeout.c **** /*******************************************************************************
 116:.\Generated_Source\PSoC4/Timeout.c **** * Function Name: Timeout_Stop
 117:.\Generated_Source\PSoC4/Timeout.c **** ********************************************************************************
 118:.\Generated_Source\PSoC4/Timeout.c **** *
 119:.\Generated_Source\PSoC4/Timeout.c **** * Summary:
 120:.\Generated_Source\PSoC4/Timeout.c **** *   Disables and removes the interrupt.
 121:.\Generated_Source\PSoC4/Timeout.c **** *
 122:.\Generated_Source\PSoC4/Timeout.c **** * Parameters:  
 123:.\Generated_Source\PSoC4/Timeout.c **** *   None
 124:.\Generated_Source\PSoC4/Timeout.c **** *
 125:.\Generated_Source\PSoC4/Timeout.c **** * Return:
 126:.\Generated_Source\PSoC4/Timeout.c **** *   None
 127:.\Generated_Source\PSoC4/Timeout.c **** *
ARM GAS  C:\Users\George\AppData\Local\Temp\cc4XNLsc.s 			page 5


 128:.\Generated_Source\PSoC4/Timeout.c **** *******************************************************************************/
 129:.\Generated_Source\PSoC4/Timeout.c **** void Timeout_Stop(void)
 130:.\Generated_Source\PSoC4/Timeout.c **** {
 102              		.loc 1 130 0
 103              		.cfi_startproc
 104 0000 80B5     		push	{r7, lr}
 105              		.cfi_def_cfa_offset 8
 106              		.cfi_offset 7, -8
 107              		.cfi_offset 14, -4
 108 0002 00AF     		add	r7, sp, #0
 109              		.cfi_def_cfa_register 7
 131:.\Generated_Source\PSoC4/Timeout.c ****     /* Disable this interrupt. */
 132:.\Generated_Source\PSoC4/Timeout.c ****     Timeout_Disable();
 110              		.loc 1 132 0
 111 0004 FFF7FEFF 		bl	Timeout_Disable
 133:.\Generated_Source\PSoC4/Timeout.c **** 
 134:.\Generated_Source\PSoC4/Timeout.c ****     /* Set the ISR to point to the passive one. */
 135:.\Generated_Source\PSoC4/Timeout.c ****     Timeout_SetVector(&IntDefaultHandler);
 112              		.loc 1 135 0
 113 0008 024B     		ldr	r3, .L6
 114 000a 181C     		mov	r0, r3
 115 000c FFF7FEFF 		bl	Timeout_SetVector
 136:.\Generated_Source\PSoC4/Timeout.c **** }
 116              		.loc 1 136 0
 117 0010 BD46     		mov	sp, r7
 118              		@ sp needed
 119 0012 80BD     		pop	{r7, pc}
 120              	.L7:
 121              		.align	2
 122              	.L6:
 123 0014 00000000 		.word	IntDefaultHandler
 124              		.cfi_endproc
 125              	.LFE4:
 126              		.size	Timeout_Stop, .-Timeout_Stop
 127              		.section	.text.Timeout_Interrupt,"ax",%progbits
 128              		.align	2
 129              		.global	Timeout_Interrupt
 130              		.code	16
 131              		.thumb_func
 132              		.type	Timeout_Interrupt, %function
 133              	Timeout_Interrupt:
 134              	.LFB5:
 137:.\Generated_Source\PSoC4/Timeout.c **** 
 138:.\Generated_Source\PSoC4/Timeout.c **** 
 139:.\Generated_Source\PSoC4/Timeout.c **** /*******************************************************************************
 140:.\Generated_Source\PSoC4/Timeout.c **** * Function Name: Timeout_Interrupt
 141:.\Generated_Source\PSoC4/Timeout.c **** ********************************************************************************
 142:.\Generated_Source\PSoC4/Timeout.c **** *
 143:.\Generated_Source\PSoC4/Timeout.c **** * Summary:
 144:.\Generated_Source\PSoC4/Timeout.c **** *   The default Interrupt Service Routine for Timeout.
 145:.\Generated_Source\PSoC4/Timeout.c **** *
 146:.\Generated_Source\PSoC4/Timeout.c **** *   Add custom code between the START and END comments to keep the next version
 147:.\Generated_Source\PSoC4/Timeout.c **** *   of this file from over-writing your code.
 148:.\Generated_Source\PSoC4/Timeout.c **** *
 149:.\Generated_Source\PSoC4/Timeout.c **** *   Note You may use either the default ISR by using this API, or you may define
 150:.\Generated_Source\PSoC4/Timeout.c **** *   your own separate ISR through ISR_StartEx().
 151:.\Generated_Source\PSoC4/Timeout.c **** *
ARM GAS  C:\Users\George\AppData\Local\Temp\cc4XNLsc.s 			page 6


 152:.\Generated_Source\PSoC4/Timeout.c **** * Parameters:  
 153:.\Generated_Source\PSoC4/Timeout.c **** *   None
 154:.\Generated_Source\PSoC4/Timeout.c **** *
 155:.\Generated_Source\PSoC4/Timeout.c **** * Return:
 156:.\Generated_Source\PSoC4/Timeout.c **** *   None
 157:.\Generated_Source\PSoC4/Timeout.c **** *
 158:.\Generated_Source\PSoC4/Timeout.c **** *******************************************************************************/
 159:.\Generated_Source\PSoC4/Timeout.c **** CY_ISR(Timeout_Interrupt)
 160:.\Generated_Source\PSoC4/Timeout.c **** {
 135              		.loc 1 160 0
 136              		.cfi_startproc
 137 0000 80B5     		push	{r7, lr}
 138              		.cfi_def_cfa_offset 8
 139              		.cfi_offset 7, -8
 140              		.cfi_offset 14, -4
 141 0002 00AF     		add	r7, sp, #0
 142              		.cfi_def_cfa_register 7
 161:.\Generated_Source\PSoC4/Timeout.c ****     #ifdef Timeout_INTERRUPT_INTERRUPT_CALLBACK
 162:.\Generated_Source\PSoC4/Timeout.c ****         Timeout_Interrupt_InterruptCallback();
 163:.\Generated_Source\PSoC4/Timeout.c ****     #endif /* Timeout_INTERRUPT_INTERRUPT_CALLBACK */ 
 164:.\Generated_Source\PSoC4/Timeout.c **** 
 165:.\Generated_Source\PSoC4/Timeout.c ****     /*  Place your Interrupt code here. */
 166:.\Generated_Source\PSoC4/Timeout.c ****     /* `#START Timeout_Interrupt` */
 167:.\Generated_Source\PSoC4/Timeout.c **** 
 168:.\Generated_Source\PSoC4/Timeout.c ****     /* `#END` */
 169:.\Generated_Source\PSoC4/Timeout.c **** }
 143              		.loc 1 169 0
 144 0004 BD46     		mov	sp, r7
 145              		@ sp needed
 146 0006 80BD     		pop	{r7, pc}
 147              		.cfi_endproc
 148              	.LFE5:
 149              		.size	Timeout_Interrupt, .-Timeout_Interrupt
 150              		.section	.text.Timeout_SetVector,"ax",%progbits
 151              		.align	2
 152              		.global	Timeout_SetVector
 153              		.code	16
 154              		.thumb_func
 155              		.type	Timeout_SetVector, %function
 156              	Timeout_SetVector:
 157              	.LFB6:
 170:.\Generated_Source\PSoC4/Timeout.c **** 
 171:.\Generated_Source\PSoC4/Timeout.c **** 
 172:.\Generated_Source\PSoC4/Timeout.c **** /*******************************************************************************
 173:.\Generated_Source\PSoC4/Timeout.c **** * Function Name: Timeout_SetVector
 174:.\Generated_Source\PSoC4/Timeout.c **** ********************************************************************************
 175:.\Generated_Source\PSoC4/Timeout.c **** *
 176:.\Generated_Source\PSoC4/Timeout.c **** * Summary:
 177:.\Generated_Source\PSoC4/Timeout.c **** *   Change the ISR vector for the Interrupt. Note calling Timeout_Start
 178:.\Generated_Source\PSoC4/Timeout.c **** *   will override any effect this method would have had. To set the vector 
 179:.\Generated_Source\PSoC4/Timeout.c **** *   before the component has been started use Timeout_StartEx instead.
 180:.\Generated_Source\PSoC4/Timeout.c **** * 
 181:.\Generated_Source\PSoC4/Timeout.c **** *   When defining ISR functions, the CY_ISR and CY_ISR_PROTO macros should be 
 182:.\Generated_Source\PSoC4/Timeout.c **** *   used to provide consistent definition across compilers:
 183:.\Generated_Source\PSoC4/Timeout.c **** *
 184:.\Generated_Source\PSoC4/Timeout.c **** *   Function definition example:
 185:.\Generated_Source\PSoC4/Timeout.c **** *   CY_ISR(MyISR)
ARM GAS  C:\Users\George\AppData\Local\Temp\cc4XNLsc.s 			page 7


 186:.\Generated_Source\PSoC4/Timeout.c **** *   {
 187:.\Generated_Source\PSoC4/Timeout.c **** *   }
 188:.\Generated_Source\PSoC4/Timeout.c **** *
 189:.\Generated_Source\PSoC4/Timeout.c **** *   Function prototype example:
 190:.\Generated_Source\PSoC4/Timeout.c **** *     CY_ISR_PROTO(MyISR);
 191:.\Generated_Source\PSoC4/Timeout.c **** *
 192:.\Generated_Source\PSoC4/Timeout.c **** * Parameters:
 193:.\Generated_Source\PSoC4/Timeout.c **** *   address: Address of the ISR to set in the interrupt vector table.
 194:.\Generated_Source\PSoC4/Timeout.c **** *
 195:.\Generated_Source\PSoC4/Timeout.c **** * Return:
 196:.\Generated_Source\PSoC4/Timeout.c **** *   None
 197:.\Generated_Source\PSoC4/Timeout.c **** *
 198:.\Generated_Source\PSoC4/Timeout.c **** *******************************************************************************/
 199:.\Generated_Source\PSoC4/Timeout.c **** void Timeout_SetVector(cyisraddress address)
 200:.\Generated_Source\PSoC4/Timeout.c **** {
 158              		.loc 1 200 0
 159              		.cfi_startproc
 160 0000 80B5     		push	{r7, lr}
 161              		.cfi_def_cfa_offset 8
 162              		.cfi_offset 7, -8
 163              		.cfi_offset 14, -4
 164 0002 82B0     		sub	sp, sp, #8
 165              		.cfi_def_cfa_offset 16
 166 0004 00AF     		add	r7, sp, #0
 167              		.cfi_def_cfa_register 7
 168 0006 7860     		str	r0, [r7, #4]
 201:.\Generated_Source\PSoC4/Timeout.c ****     CyRamVectors[CYINT_IRQ_BASE + Timeout__INTC_NUMBER] = address;
 169              		.loc 1 201 0
 170 0008 034B     		ldr	r3, .L10
 171 000a 8421     		mov	r1, #132
 172 000c 7A68     		ldr	r2, [r7, #4]
 173 000e 5A50     		str	r2, [r3, r1]
 202:.\Generated_Source\PSoC4/Timeout.c **** }
 174              		.loc 1 202 0
 175 0010 BD46     		mov	sp, r7
 176 0012 02B0     		add	sp, sp, #8
 177              		@ sp needed
 178 0014 80BD     		pop	{r7, pc}
 179              	.L11:
 180 0016 C046     		.align	2
 181              	.L10:
 182 0018 00000000 		.word	CyRamVectors
 183              		.cfi_endproc
 184              	.LFE6:
 185              		.size	Timeout_SetVector, .-Timeout_SetVector
 186              		.section	.text.Timeout_GetVector,"ax",%progbits
 187              		.align	2
 188              		.global	Timeout_GetVector
 189              		.code	16
 190              		.thumb_func
 191              		.type	Timeout_GetVector, %function
 192              	Timeout_GetVector:
 193              	.LFB7:
 203:.\Generated_Source\PSoC4/Timeout.c **** 
 204:.\Generated_Source\PSoC4/Timeout.c **** 
 205:.\Generated_Source\PSoC4/Timeout.c **** /*******************************************************************************
 206:.\Generated_Source\PSoC4/Timeout.c **** * Function Name: Timeout_GetVector
ARM GAS  C:\Users\George\AppData\Local\Temp\cc4XNLsc.s 			page 8


 207:.\Generated_Source\PSoC4/Timeout.c **** ********************************************************************************
 208:.\Generated_Source\PSoC4/Timeout.c **** *
 209:.\Generated_Source\PSoC4/Timeout.c **** * Summary:
 210:.\Generated_Source\PSoC4/Timeout.c **** *   Gets the "address" of the current ISR vector for the Interrupt.
 211:.\Generated_Source\PSoC4/Timeout.c **** *
 212:.\Generated_Source\PSoC4/Timeout.c **** * Parameters:
 213:.\Generated_Source\PSoC4/Timeout.c **** *   None
 214:.\Generated_Source\PSoC4/Timeout.c **** *
 215:.\Generated_Source\PSoC4/Timeout.c **** * Return:
 216:.\Generated_Source\PSoC4/Timeout.c **** *   Address of the ISR in the interrupt vector table.
 217:.\Generated_Source\PSoC4/Timeout.c **** *
 218:.\Generated_Source\PSoC4/Timeout.c **** *******************************************************************************/
 219:.\Generated_Source\PSoC4/Timeout.c **** cyisraddress Timeout_GetVector(void)
 220:.\Generated_Source\PSoC4/Timeout.c **** {
 194              		.loc 1 220 0
 195              		.cfi_startproc
 196 0000 80B5     		push	{r7, lr}
 197              		.cfi_def_cfa_offset 8
 198              		.cfi_offset 7, -8
 199              		.cfi_offset 14, -4
 200 0002 00AF     		add	r7, sp, #0
 201              		.cfi_def_cfa_register 7
 221:.\Generated_Source\PSoC4/Timeout.c ****     return CyRamVectors[CYINT_IRQ_BASE + Timeout__INTC_NUMBER];
 202              		.loc 1 221 0
 203 0004 024B     		ldr	r3, .L14
 204 0006 8422     		mov	r2, #132
 205 0008 9B58     		ldr	r3, [r3, r2]
 222:.\Generated_Source\PSoC4/Timeout.c **** }
 206              		.loc 1 222 0
 207 000a 181C     		mov	r0, r3
 208 000c BD46     		mov	sp, r7
 209              		@ sp needed
 210 000e 80BD     		pop	{r7, pc}
 211              	.L15:
 212              		.align	2
 213              	.L14:
 214 0010 00000000 		.word	CyRamVectors
 215              		.cfi_endproc
 216              	.LFE7:
 217              		.size	Timeout_GetVector, .-Timeout_GetVector
 218              		.section	.text.Timeout_SetPriority,"ax",%progbits
 219              		.align	2
 220              		.global	Timeout_SetPriority
 221              		.code	16
 222              		.thumb_func
 223              		.type	Timeout_SetPriority, %function
 224              	Timeout_SetPriority:
 225              	.LFB8:
 223:.\Generated_Source\PSoC4/Timeout.c **** 
 224:.\Generated_Source\PSoC4/Timeout.c **** 
 225:.\Generated_Source\PSoC4/Timeout.c **** /*******************************************************************************
 226:.\Generated_Source\PSoC4/Timeout.c **** * Function Name: Timeout_SetPriority
 227:.\Generated_Source\PSoC4/Timeout.c **** ********************************************************************************
 228:.\Generated_Source\PSoC4/Timeout.c **** *
 229:.\Generated_Source\PSoC4/Timeout.c **** * Summary:
 230:.\Generated_Source\PSoC4/Timeout.c **** *   Sets the Priority of the Interrupt. 
 231:.\Generated_Source\PSoC4/Timeout.c **** *
ARM GAS  C:\Users\George\AppData\Local\Temp\cc4XNLsc.s 			page 9


 232:.\Generated_Source\PSoC4/Timeout.c **** *   Note calling Timeout_Start or Timeout_StartEx will 
 233:.\Generated_Source\PSoC4/Timeout.c **** *   override any effect this API would have had. This API should only be called
 234:.\Generated_Source\PSoC4/Timeout.c **** *   after Timeout_Start or Timeout_StartEx has been called. 
 235:.\Generated_Source\PSoC4/Timeout.c **** *   To set the initial priority for the component, use the Design-Wide Resources
 236:.\Generated_Source\PSoC4/Timeout.c **** *   Interrupt Editor.
 237:.\Generated_Source\PSoC4/Timeout.c **** *
 238:.\Generated_Source\PSoC4/Timeout.c **** *   Note This API has no effect on Non-maskable interrupt NMI).
 239:.\Generated_Source\PSoC4/Timeout.c **** *
 240:.\Generated_Source\PSoC4/Timeout.c **** * Parameters:
 241:.\Generated_Source\PSoC4/Timeout.c **** *   priority: Priority of the interrupt, 0 being the highest priority
 242:.\Generated_Source\PSoC4/Timeout.c **** *             PSoC 3 and PSoC 5LP: Priority is from 0 to 7.
 243:.\Generated_Source\PSoC4/Timeout.c **** *             PSoC 4: Priority is from 0 to 3.
 244:.\Generated_Source\PSoC4/Timeout.c **** *
 245:.\Generated_Source\PSoC4/Timeout.c **** * Return:
 246:.\Generated_Source\PSoC4/Timeout.c **** *   None
 247:.\Generated_Source\PSoC4/Timeout.c **** *
 248:.\Generated_Source\PSoC4/Timeout.c **** *******************************************************************************/
 249:.\Generated_Source\PSoC4/Timeout.c **** void Timeout_SetPriority(uint8 priority)
 250:.\Generated_Source\PSoC4/Timeout.c **** {
 226              		.loc 1 250 0
 227              		.cfi_startproc
 228 0000 90B5     		push	{r4, r7, lr}
 229              		.cfi_def_cfa_offset 12
 230              		.cfi_offset 4, -12
 231              		.cfi_offset 7, -8
 232              		.cfi_offset 14, -4
 233 0002 85B0     		sub	sp, sp, #20
 234              		.cfi_def_cfa_offset 32
 235 0004 00AF     		add	r7, sp, #0
 236              		.cfi_def_cfa_register 7
 237 0006 021C     		mov	r2, r0
 238 0008 FB1D     		add	r3, r7, #7
 239 000a 1A70     		strb	r2, [r3]
 251:.\Generated_Source\PSoC4/Timeout.c **** 	uint8 interruptState;
 252:.\Generated_Source\PSoC4/Timeout.c ****     uint32 priorityOffset = ((Timeout__INTC_NUMBER % 4u) * 8u) + 6u;
 240              		.loc 1 252 0
 241 000c 0E23     		mov	r3, #14
 242 000e FB60     		str	r3, [r7, #12]
 253:.\Generated_Source\PSoC4/Timeout.c ****     
 254:.\Generated_Source\PSoC4/Timeout.c **** 	interruptState = CyEnterCriticalSection();
 243              		.loc 1 254 0
 244 0010 0B23     		mov	r3, #11
 245 0012 FC18     		add	r4, r7, r3
 246 0014 FFF7FEFF 		bl	CyEnterCriticalSection
 247 0018 031C     		mov	r3, r0
 248 001a 2370     		strb	r3, [r4]
 255:.\Generated_Source\PSoC4/Timeout.c ****     *Timeout_INTC_PRIOR = (*Timeout_INTC_PRIOR & (uint32)(~Timeout__INTC_PRIOR_MASK)) |
 249              		.loc 1 255 0
 250 001c 0A4B     		ldr	r3, .L17
 251 001e 0A4A     		ldr	r2, .L17
 252 0020 1268     		ldr	r2, [r2]
 253 0022 0A49     		ldr	r1, .L17+4
 254 0024 1140     		and	r1, r2
 256:.\Generated_Source\PSoC4/Timeout.c ****                                     ((uint32)priority << priorityOffset);
 255              		.loc 1 256 0
 256 0026 FA1D     		add	r2, r7, #7
 257 0028 1078     		ldrb	r0, [r2]
ARM GAS  C:\Users\George\AppData\Local\Temp\cc4XNLsc.s 			page 10


 258 002a FA68     		ldr	r2, [r7, #12]
 259 002c 9040     		lsl	r0, r0, r2
 260 002e 021C     		mov	r2, r0
 255:.\Generated_Source\PSoC4/Timeout.c ****     *Timeout_INTC_PRIOR = (*Timeout_INTC_PRIOR & (uint32)(~Timeout__INTC_PRIOR_MASK)) |
 261              		.loc 1 255 0
 262 0030 0A43     		orr	r2, r1
 263 0032 1A60     		str	r2, [r3]
 257:.\Generated_Source\PSoC4/Timeout.c **** 	CyExitCriticalSection(interruptState);
 264              		.loc 1 257 0
 265 0034 0B23     		mov	r3, #11
 266 0036 FB18     		add	r3, r7, r3
 267 0038 1B78     		ldrb	r3, [r3]
 268 003a 181C     		mov	r0, r3
 269 003c FFF7FEFF 		bl	CyExitCriticalSection
 258:.\Generated_Source\PSoC4/Timeout.c **** }
 270              		.loc 1 258 0
 271 0040 BD46     		mov	sp, r7
 272 0042 05B0     		add	sp, sp, #20
 273              		@ sp needed
 274 0044 90BD     		pop	{r4, r7, pc}
 275              	.L18:
 276 0046 C046     		.align	2
 277              	.L17:
 278 0048 10E400E0 		.word	-536812528
 279 004c FF3FFFFF 		.word	-49153
 280              		.cfi_endproc
 281              	.LFE8:
 282              		.size	Timeout_SetPriority, .-Timeout_SetPriority
 283              		.section	.text.Timeout_GetPriority,"ax",%progbits
 284              		.align	2
 285              		.global	Timeout_GetPriority
 286              		.code	16
 287              		.thumb_func
 288              		.type	Timeout_GetPriority, %function
 289              	Timeout_GetPriority:
 290              	.LFB9:
 259:.\Generated_Source\PSoC4/Timeout.c **** 
 260:.\Generated_Source\PSoC4/Timeout.c **** 
 261:.\Generated_Source\PSoC4/Timeout.c **** /*******************************************************************************
 262:.\Generated_Source\PSoC4/Timeout.c **** * Function Name: Timeout_GetPriority
 263:.\Generated_Source\PSoC4/Timeout.c **** ********************************************************************************
 264:.\Generated_Source\PSoC4/Timeout.c **** *
 265:.\Generated_Source\PSoC4/Timeout.c **** * Summary:
 266:.\Generated_Source\PSoC4/Timeout.c **** *   Gets the Priority of the Interrupt.
 267:.\Generated_Source\PSoC4/Timeout.c **** *
 268:.\Generated_Source\PSoC4/Timeout.c **** * Parameters:
 269:.\Generated_Source\PSoC4/Timeout.c **** *   None
 270:.\Generated_Source\PSoC4/Timeout.c **** *
 271:.\Generated_Source\PSoC4/Timeout.c **** * Return:
 272:.\Generated_Source\PSoC4/Timeout.c **** *   Priority of the interrupt, 0 being the highest priority
 273:.\Generated_Source\PSoC4/Timeout.c **** *    PSoC 3 and PSoC 5LP: Priority is from 0 to 7.
 274:.\Generated_Source\PSoC4/Timeout.c **** *    PSoC 4: Priority is from 0 to 3.
 275:.\Generated_Source\PSoC4/Timeout.c **** *
 276:.\Generated_Source\PSoC4/Timeout.c **** *******************************************************************************/
 277:.\Generated_Source\PSoC4/Timeout.c **** uint8 Timeout_GetPriority(void)
 278:.\Generated_Source\PSoC4/Timeout.c **** {
 291              		.loc 1 278 0
ARM GAS  C:\Users\George\AppData\Local\Temp\cc4XNLsc.s 			page 11


 292              		.cfi_startproc
 293 0000 80B5     		push	{r7, lr}
 294              		.cfi_def_cfa_offset 8
 295              		.cfi_offset 7, -8
 296              		.cfi_offset 14, -4
 297 0002 82B0     		sub	sp, sp, #8
 298              		.cfi_def_cfa_offset 16
 299 0004 00AF     		add	r7, sp, #0
 300              		.cfi_def_cfa_register 7
 279:.\Generated_Source\PSoC4/Timeout.c ****     uint32 priority;
 280:.\Generated_Source\PSoC4/Timeout.c **** 	uint32 priorityOffset = ((Timeout__INTC_NUMBER % 4u) * 8u) + 6u;
 301              		.loc 1 280 0
 302 0006 0E23     		mov	r3, #14
 303 0008 7B60     		str	r3, [r7, #4]
 281:.\Generated_Source\PSoC4/Timeout.c **** 
 282:.\Generated_Source\PSoC4/Timeout.c ****     priority = (*Timeout_INTC_PRIOR & Timeout__INTC_PRIOR_MASK) >> priorityOffset;
 304              		.loc 1 282 0
 305 000a 074B     		ldr	r3, .L21
 306 000c 1A68     		ldr	r2, [r3]
 307 000e C023     		mov	r3, #192
 308 0010 1B02     		lsl	r3, r3, #8
 309 0012 1A40     		and	r2, r3
 310 0014 7B68     		ldr	r3, [r7, #4]
 311 0016 DA40     		lsr	r2, r2, r3
 312 0018 131C     		mov	r3, r2
 313 001a 3B60     		str	r3, [r7]
 283:.\Generated_Source\PSoC4/Timeout.c **** 
 284:.\Generated_Source\PSoC4/Timeout.c ****     return (uint8)priority;
 314              		.loc 1 284 0
 315 001c 3B68     		ldr	r3, [r7]
 316 001e DBB2     		uxtb	r3, r3
 285:.\Generated_Source\PSoC4/Timeout.c **** }
 317              		.loc 1 285 0
 318 0020 181C     		mov	r0, r3
 319 0022 BD46     		mov	sp, r7
 320 0024 02B0     		add	sp, sp, #8
 321              		@ sp needed
 322 0026 80BD     		pop	{r7, pc}
 323              	.L22:
 324              		.align	2
 325              	.L21:
 326 0028 10E400E0 		.word	-536812528
 327              		.cfi_endproc
 328              	.LFE9:
 329              		.size	Timeout_GetPriority, .-Timeout_GetPriority
 330              		.section	.text.Timeout_Enable,"ax",%progbits
 331              		.align	2
 332              		.global	Timeout_Enable
 333              		.code	16
 334              		.thumb_func
 335              		.type	Timeout_Enable, %function
 336              	Timeout_Enable:
 337              	.LFB10:
 286:.\Generated_Source\PSoC4/Timeout.c **** 
 287:.\Generated_Source\PSoC4/Timeout.c **** 
 288:.\Generated_Source\PSoC4/Timeout.c **** /*******************************************************************************
 289:.\Generated_Source\PSoC4/Timeout.c **** * Function Name: Timeout_Enable
ARM GAS  C:\Users\George\AppData\Local\Temp\cc4XNLsc.s 			page 12


 290:.\Generated_Source\PSoC4/Timeout.c **** ********************************************************************************
 291:.\Generated_Source\PSoC4/Timeout.c **** *
 292:.\Generated_Source\PSoC4/Timeout.c **** * Summary:
 293:.\Generated_Source\PSoC4/Timeout.c **** *   Enables the interrupt to the interrupt controller. Do not call this function
 294:.\Generated_Source\PSoC4/Timeout.c **** *   unless ISR_Start() has been called or the functionality of the ISR_Start() 
 295:.\Generated_Source\PSoC4/Timeout.c **** *   function, which sets the vector and the priority, has been called.
 296:.\Generated_Source\PSoC4/Timeout.c **** *
 297:.\Generated_Source\PSoC4/Timeout.c **** * Parameters:
 298:.\Generated_Source\PSoC4/Timeout.c **** *   None
 299:.\Generated_Source\PSoC4/Timeout.c **** *
 300:.\Generated_Source\PSoC4/Timeout.c **** * Return:
 301:.\Generated_Source\PSoC4/Timeout.c **** *   None
 302:.\Generated_Source\PSoC4/Timeout.c **** *
 303:.\Generated_Source\PSoC4/Timeout.c **** *******************************************************************************/
 304:.\Generated_Source\PSoC4/Timeout.c **** void Timeout_Enable(void)
 305:.\Generated_Source\PSoC4/Timeout.c **** {
 338              		.loc 1 305 0
 339              		.cfi_startproc
 340 0000 80B5     		push	{r7, lr}
 341              		.cfi_def_cfa_offset 8
 342              		.cfi_offset 7, -8
 343              		.cfi_offset 14, -4
 344 0002 00AF     		add	r7, sp, #0
 345              		.cfi_def_cfa_register 7
 306:.\Generated_Source\PSoC4/Timeout.c ****     /* Enable the general interrupt. */
 307:.\Generated_Source\PSoC4/Timeout.c ****     *Timeout_INTC_SET_EN = Timeout__INTC_MASK;
 346              		.loc 1 307 0
 347 0004 024B     		ldr	r3, .L24
 348 0006 8022     		mov	r2, #128
 349 0008 9202     		lsl	r2, r2, #10
 350 000a 1A60     		str	r2, [r3]
 308:.\Generated_Source\PSoC4/Timeout.c **** }
 351              		.loc 1 308 0
 352 000c BD46     		mov	sp, r7
 353              		@ sp needed
 354 000e 80BD     		pop	{r7, pc}
 355              	.L25:
 356              		.align	2
 357              	.L24:
 358 0010 00E100E0 		.word	-536813312
 359              		.cfi_endproc
 360              	.LFE10:
 361              		.size	Timeout_Enable, .-Timeout_Enable
 362              		.section	.text.Timeout_GetState,"ax",%progbits
 363              		.align	2
 364              		.global	Timeout_GetState
 365              		.code	16
 366              		.thumb_func
 367              		.type	Timeout_GetState, %function
 368              	Timeout_GetState:
 369              	.LFB11:
 309:.\Generated_Source\PSoC4/Timeout.c **** 
 310:.\Generated_Source\PSoC4/Timeout.c **** 
 311:.\Generated_Source\PSoC4/Timeout.c **** /*******************************************************************************
 312:.\Generated_Source\PSoC4/Timeout.c **** * Function Name: Timeout_GetState
 313:.\Generated_Source\PSoC4/Timeout.c **** ********************************************************************************
 314:.\Generated_Source\PSoC4/Timeout.c **** *
ARM GAS  C:\Users\George\AppData\Local\Temp\cc4XNLsc.s 			page 13


 315:.\Generated_Source\PSoC4/Timeout.c **** * Summary:
 316:.\Generated_Source\PSoC4/Timeout.c **** *   Gets the state (enabled, disabled) of the Interrupt.
 317:.\Generated_Source\PSoC4/Timeout.c **** *
 318:.\Generated_Source\PSoC4/Timeout.c **** * Parameters:
 319:.\Generated_Source\PSoC4/Timeout.c **** *   None
 320:.\Generated_Source\PSoC4/Timeout.c **** *
 321:.\Generated_Source\PSoC4/Timeout.c **** * Return:
 322:.\Generated_Source\PSoC4/Timeout.c **** *   1 if enabled, 0 if disabled.
 323:.\Generated_Source\PSoC4/Timeout.c **** *
 324:.\Generated_Source\PSoC4/Timeout.c **** *******************************************************************************/
 325:.\Generated_Source\PSoC4/Timeout.c **** uint8 Timeout_GetState(void)
 326:.\Generated_Source\PSoC4/Timeout.c **** {
 370              		.loc 1 326 0
 371              		.cfi_startproc
 372 0000 80B5     		push	{r7, lr}
 373              		.cfi_def_cfa_offset 8
 374              		.cfi_offset 7, -8
 375              		.cfi_offset 14, -4
 376 0002 00AF     		add	r7, sp, #0
 377              		.cfi_def_cfa_register 7
 327:.\Generated_Source\PSoC4/Timeout.c ****     /* Get the state of the general interrupt. */
 328:.\Generated_Source\PSoC4/Timeout.c ****     return ((*Timeout_INTC_SET_EN & (uint32)Timeout__INTC_MASK) != 0u) ? 1u:0u;
 378              		.loc 1 328 0
 379 0004 054B     		ldr	r3, .L30
 380 0006 1A68     		ldr	r2, [r3]
 381 0008 8023     		mov	r3, #128
 382 000a 9B02     		lsl	r3, r3, #10
 383 000c 1340     		and	r3, r2
 384 000e 01D0     		beq	.L27
 385              		.loc 1 328 0 is_stmt 0 discriminator 1
 386 0010 0123     		mov	r3, #1
 387 0012 00E0     		b	.L28
 388              	.L27:
 389              		.loc 1 328 0 discriminator 2
 390 0014 0023     		mov	r3, #0
 391              	.L28:
 329:.\Generated_Source\PSoC4/Timeout.c **** }
 392              		.loc 1 329 0 is_stmt 1 discriminator 4
 393 0016 181C     		mov	r0, r3
 394 0018 BD46     		mov	sp, r7
 395              		@ sp needed
 396 001a 80BD     		pop	{r7, pc}
 397              	.L31:
 398              		.align	2
 399              	.L30:
 400 001c 00E100E0 		.word	-536813312
 401              		.cfi_endproc
 402              	.LFE11:
 403              		.size	Timeout_GetState, .-Timeout_GetState
 404              		.section	.text.Timeout_Disable,"ax",%progbits
 405              		.align	2
 406              		.global	Timeout_Disable
 407              		.code	16
 408              		.thumb_func
 409              		.type	Timeout_Disable, %function
 410              	Timeout_Disable:
 411              	.LFB12:
ARM GAS  C:\Users\George\AppData\Local\Temp\cc4XNLsc.s 			page 14


 330:.\Generated_Source\PSoC4/Timeout.c **** 
 331:.\Generated_Source\PSoC4/Timeout.c **** 
 332:.\Generated_Source\PSoC4/Timeout.c **** /*******************************************************************************
 333:.\Generated_Source\PSoC4/Timeout.c **** * Function Name: Timeout_Disable
 334:.\Generated_Source\PSoC4/Timeout.c **** ********************************************************************************
 335:.\Generated_Source\PSoC4/Timeout.c **** *
 336:.\Generated_Source\PSoC4/Timeout.c **** * Summary:
 337:.\Generated_Source\PSoC4/Timeout.c **** *   Disables the Interrupt in the interrupt controller.
 338:.\Generated_Source\PSoC4/Timeout.c **** *
 339:.\Generated_Source\PSoC4/Timeout.c **** * Parameters:
 340:.\Generated_Source\PSoC4/Timeout.c **** *   None
 341:.\Generated_Source\PSoC4/Timeout.c **** *
 342:.\Generated_Source\PSoC4/Timeout.c **** * Return:
 343:.\Generated_Source\PSoC4/Timeout.c **** *   None
 344:.\Generated_Source\PSoC4/Timeout.c **** *
 345:.\Generated_Source\PSoC4/Timeout.c **** *******************************************************************************/
 346:.\Generated_Source\PSoC4/Timeout.c **** void Timeout_Disable(void)
 347:.\Generated_Source\PSoC4/Timeout.c **** {
 412              		.loc 1 347 0
 413              		.cfi_startproc
 414 0000 80B5     		push	{r7, lr}
 415              		.cfi_def_cfa_offset 8
 416              		.cfi_offset 7, -8
 417              		.cfi_offset 14, -4
 418 0002 00AF     		add	r7, sp, #0
 419              		.cfi_def_cfa_register 7
 348:.\Generated_Source\PSoC4/Timeout.c ****     /* Disable the general interrupt. */
 349:.\Generated_Source\PSoC4/Timeout.c ****     *Timeout_INTC_CLR_EN = Timeout__INTC_MASK;
 420              		.loc 1 349 0
 421 0004 024B     		ldr	r3, .L33
 422 0006 8022     		mov	r2, #128
 423 0008 9202     		lsl	r2, r2, #10
 424 000a 1A60     		str	r2, [r3]
 350:.\Generated_Source\PSoC4/Timeout.c **** }
 425              		.loc 1 350 0
 426 000c BD46     		mov	sp, r7
 427              		@ sp needed
 428 000e 80BD     		pop	{r7, pc}
 429              	.L34:
 430              		.align	2
 431              	.L33:
 432 0010 80E100E0 		.word	-536813184
 433              		.cfi_endproc
 434              	.LFE12:
 435              		.size	Timeout_Disable, .-Timeout_Disable
 436              		.section	.text.Timeout_SetPending,"ax",%progbits
 437              		.align	2
 438              		.global	Timeout_SetPending
 439              		.code	16
 440              		.thumb_func
 441              		.type	Timeout_SetPending, %function
 442              	Timeout_SetPending:
 443              	.LFB13:
 351:.\Generated_Source\PSoC4/Timeout.c **** 
 352:.\Generated_Source\PSoC4/Timeout.c **** 
 353:.\Generated_Source\PSoC4/Timeout.c **** /*******************************************************************************
 354:.\Generated_Source\PSoC4/Timeout.c **** * Function Name: Timeout_SetPending
ARM GAS  C:\Users\George\AppData\Local\Temp\cc4XNLsc.s 			page 15


 355:.\Generated_Source\PSoC4/Timeout.c **** ********************************************************************************
 356:.\Generated_Source\PSoC4/Timeout.c **** *
 357:.\Generated_Source\PSoC4/Timeout.c **** * Summary:
 358:.\Generated_Source\PSoC4/Timeout.c **** *   Causes the Interrupt to enter the pending state, a software method of
 359:.\Generated_Source\PSoC4/Timeout.c **** *   generating the interrupt.
 360:.\Generated_Source\PSoC4/Timeout.c **** *
 361:.\Generated_Source\PSoC4/Timeout.c **** * Parameters:
 362:.\Generated_Source\PSoC4/Timeout.c **** *   None
 363:.\Generated_Source\PSoC4/Timeout.c **** *
 364:.\Generated_Source\PSoC4/Timeout.c **** * Return:
 365:.\Generated_Source\PSoC4/Timeout.c **** *   None
 366:.\Generated_Source\PSoC4/Timeout.c **** *
 367:.\Generated_Source\PSoC4/Timeout.c **** * Side Effects:
 368:.\Generated_Source\PSoC4/Timeout.c **** *   If interrupts are enabled and the interrupt is set up properly, the ISR is
 369:.\Generated_Source\PSoC4/Timeout.c **** *   entered (depending on the priority of this interrupt and other pending 
 370:.\Generated_Source\PSoC4/Timeout.c **** *   interrupts).
 371:.\Generated_Source\PSoC4/Timeout.c **** *
 372:.\Generated_Source\PSoC4/Timeout.c **** *******************************************************************************/
 373:.\Generated_Source\PSoC4/Timeout.c **** void Timeout_SetPending(void)
 374:.\Generated_Source\PSoC4/Timeout.c **** {
 444              		.loc 1 374 0
 445              		.cfi_startproc
 446 0000 80B5     		push	{r7, lr}
 447              		.cfi_def_cfa_offset 8
 448              		.cfi_offset 7, -8
 449              		.cfi_offset 14, -4
 450 0002 00AF     		add	r7, sp, #0
 451              		.cfi_def_cfa_register 7
 375:.\Generated_Source\PSoC4/Timeout.c ****     *Timeout_INTC_SET_PD = Timeout__INTC_MASK;
 452              		.loc 1 375 0
 453 0004 024B     		ldr	r3, .L36
 454 0006 8022     		mov	r2, #128
 455 0008 9202     		lsl	r2, r2, #10
 456 000a 1A60     		str	r2, [r3]
 376:.\Generated_Source\PSoC4/Timeout.c **** }
 457              		.loc 1 376 0
 458 000c BD46     		mov	sp, r7
 459              		@ sp needed
 460 000e 80BD     		pop	{r7, pc}
 461              	.L37:
 462              		.align	2
 463              	.L36:
 464 0010 00E200E0 		.word	-536813056
 465              		.cfi_endproc
 466              	.LFE13:
 467              		.size	Timeout_SetPending, .-Timeout_SetPending
 468              		.section	.text.Timeout_ClearPending,"ax",%progbits
 469              		.align	2
 470              		.global	Timeout_ClearPending
 471              		.code	16
 472              		.thumb_func
 473              		.type	Timeout_ClearPending, %function
 474              	Timeout_ClearPending:
 475              	.LFB14:
 377:.\Generated_Source\PSoC4/Timeout.c **** 
 378:.\Generated_Source\PSoC4/Timeout.c **** 
 379:.\Generated_Source\PSoC4/Timeout.c **** /*******************************************************************************
ARM GAS  C:\Users\George\AppData\Local\Temp\cc4XNLsc.s 			page 16


 380:.\Generated_Source\PSoC4/Timeout.c **** * Function Name: Timeout_ClearPending
 381:.\Generated_Source\PSoC4/Timeout.c **** ********************************************************************************
 382:.\Generated_Source\PSoC4/Timeout.c **** *
 383:.\Generated_Source\PSoC4/Timeout.c **** * Summary:
 384:.\Generated_Source\PSoC4/Timeout.c **** *   Clears a pending interrupt in the interrupt controller.
 385:.\Generated_Source\PSoC4/Timeout.c **** *
 386:.\Generated_Source\PSoC4/Timeout.c **** *   Note Some interrupt sources are clear-on-read and require the block 
 387:.\Generated_Source\PSoC4/Timeout.c **** *   interrupt/status register to be read/cleared with the appropriate block API 
 388:.\Generated_Source\PSoC4/Timeout.c **** *   (GPIO, UART, and so on). Otherwise the ISR will continue to remain in 
 389:.\Generated_Source\PSoC4/Timeout.c **** *   pending state even though the interrupt itself is cleared using this API.
 390:.\Generated_Source\PSoC4/Timeout.c **** *
 391:.\Generated_Source\PSoC4/Timeout.c **** * Parameters:
 392:.\Generated_Source\PSoC4/Timeout.c **** *   None
 393:.\Generated_Source\PSoC4/Timeout.c **** *
 394:.\Generated_Source\PSoC4/Timeout.c **** * Return:
 395:.\Generated_Source\PSoC4/Timeout.c **** *   None
 396:.\Generated_Source\PSoC4/Timeout.c **** *
 397:.\Generated_Source\PSoC4/Timeout.c **** *******************************************************************************/
 398:.\Generated_Source\PSoC4/Timeout.c **** void Timeout_ClearPending(void)
 399:.\Generated_Source\PSoC4/Timeout.c **** {
 476              		.loc 1 399 0
 477              		.cfi_startproc
 478 0000 80B5     		push	{r7, lr}
 479              		.cfi_def_cfa_offset 8
 480              		.cfi_offset 7, -8
 481              		.cfi_offset 14, -4
 482 0002 00AF     		add	r7, sp, #0
 483              		.cfi_def_cfa_register 7
 400:.\Generated_Source\PSoC4/Timeout.c ****     *Timeout_INTC_CLR_PD = Timeout__INTC_MASK;
 484              		.loc 1 400 0
 485 0004 024B     		ldr	r3, .L39
 486 0006 8022     		mov	r2, #128
 487 0008 9202     		lsl	r2, r2, #10
 488 000a 1A60     		str	r2, [r3]
 401:.\Generated_Source\PSoC4/Timeout.c **** }
 489              		.loc 1 401 0
 490 000c BD46     		mov	sp, r7
 491              		@ sp needed
 492 000e 80BD     		pop	{r7, pc}
 493              	.L40:
 494              		.align	2
 495              	.L39:
 496 0010 80E200E0 		.word	-536812928
 497              		.cfi_endproc
 498              	.LFE14:
 499              		.size	Timeout_ClearPending, .-Timeout_ClearPending
 500              		.text
 501              	.Letext0:
 502              		.file 2 "Generated_Source\\PSoC4/cytypes.h"