ARM GAS  C:\Users\TTSS\AppData\Local\Temp\ccKqB1vQ.s 			page 1


   1              		.syntax unified
   2              		.cpu cortex-m0
   3              		.fpu softvfp
   4              		.eabi_attribute 20, 1
   5              		.eabi_attribute 21, 1
   6              		.eabi_attribute 23, 3
   7              		.eabi_attribute 24, 1
   8              		.eabi_attribute 25, 1
   9              		.eabi_attribute 26, 1
  10              		.eabi_attribute 30, 6
  11              		.eabi_attribute 34, 0
  12              		.eabi_attribute 18, 4
  13              		.thumb
  14              		.syntax unified
  15              		.file	"BLE.c"
  16              		.text
  17              	.Ltext0:
  18              		.cfi_sections	.debug_frame
  19              		.global	cyBle_initVar
  20              		.bss
  21              		.type	cyBle_initVar, %object
  22              		.size	cyBle_initVar, 1
  23              	cyBle_initVar:
  24 0000 00       		.space	1
  25              		.global	cyBle_stackMemoryRam
  26              		.section	.noinit,"aw",%progbits
  27              		.align	3
  28              		.type	cyBle_stackMemoryRam, %object
  29              		.size	cyBle_stackMemoryRam, 2784
  30              	cyBle_stackMemoryRam:
  31 0000 00000000 		.space	2784
  31      00000000 
  31      00000000 
  31      00000000 
  31      00000000 
  32              		.global	cyBle_discoveryParam
  33              		.data
  34              		.align	2
  35              		.type	cyBle_discoveryParam, %object
  36              		.size	cyBle_discoveryParam, 16
  37              	cyBle_discoveryParam:
  38 0000 4006     		.short	1600
  39 0002 4006     		.short	1600
  40 0004 03       		.byte	3
  41 0005 00       		.byte	0
  42 0006 00       		.byte	0
  43 0007 00       		.byte	0
  44 0008 00       		.byte	0
  45 0009 00       		.byte	0
  46 000a 50       		.byte	80
  47 000b A0       		.byte	-96
  48 000c 00       		.byte	0
  49 000d 07       		.byte	7
  50 000e 00       		.byte	0
  51 000f 00       		.space	1
  52              		.global	cyBle_discoveryData
  53              		.align	2
ARM GAS  C:\Users\TTSS\AppData\Local\Temp\ccKqB1vQ.s 			page 2


  54              		.type	cyBle_discoveryData, %object
  55              		.size	cyBle_discoveryData, 32
  56              	cyBle_discoveryData:
  57 0010 02       		.byte	2
  58 0011 01       		.byte	1
  59 0012 04       		.byte	4
  60 0013 0B       		.byte	11
  61 0014 09       		.byte	9
  62 0015 41       		.byte	65
  63 0016 69       		.byte	105
  64 0017 72       		.byte	114
  65 0018 20       		.byte	32
  66 0019 42       		.byte	66
  67 001a 65       		.byte	101
  68 001b 61       		.byte	97
  69 001c 63       		.byte	99
  70 001d 6F       		.byte	111
  71 001e 6E       		.byte	110
  72 001f 0B       		.byte	11
  73 0020 FF       		.byte	-1
  74 0021 31       		.byte	49
  75 0022 01       		.byte	1
  76 0023 00       		.byte	0
  77 0024 00       		.byte	0
  78 0025 00       		.byte	0
  79 0026 00       		.byte	0
  80 0027 00       		.byte	0
  81 0028 00       		.byte	0
  82 0029 00       		.byte	0
  83 002a 00       		.byte	0
  84 002b 00       		.byte	0
  85 002c 00       		.byte	0
  86 002d 00       		.byte	0
  87 002e 00       		.byte	0
  88 002f 1B       		.byte	27
  89              		.global	cyBle_scanRspData
  90              		.bss
  91 0001 000000   		.align	2
  92              		.type	cyBle_scanRspData, %object
  93              		.size	cyBle_scanRspData, 32
  94              	cyBle_scanRspData:
  95 0004 00000000 		.space	32
  95      00000000 
  95      00000000 
  95      00000000 
  95      00000000 
  96              		.global	cyBle_discoveryModeInfo
  97              		.data
  98              		.align	2
  99              		.type	cyBle_discoveryModeInfo, %object
 100              		.size	cyBle_discoveryModeInfo, 20
 101              	cyBle_discoveryModeInfo:
 102 0030 00       		.byte	0
 103 0031 000000   		.space	3
 104 0034 00000000 		.word	cyBle_discoveryParam
 105 0038 00000000 		.word	cyBle_discoveryData
 106 003c 00000000 		.word	cyBle_scanRspData
ARM GAS  C:\Users\TTSS\AppData\Local\Temp\ccKqB1vQ.s 			page 3


 107 0040 0000     		.short	0
 108 0042 0000     		.space	2
 109              		.comm	CyBle_ApplCallback,4,4
 110              		.global	cyBle_deviceAddress
 111              		.align	2
 112              		.type	cyBle_deviceAddress, %object
 113              		.size	cyBle_deviceAddress, 7
 114              	cyBle_deviceAddress:
 115 0044 00       		.byte	0
 116 0045 00       		.byte	0
 117 0046 00       		.byte	0
 118 0047 50       		.byte	80
 119 0048 A0       		.byte	-96
 120 0049 00       		.byte	0
 121 004a 00       		.byte	0
 122              		.global	cyBle_sflashDeviceAddress
 123 004b 00       		.align	2
 124              		.type	cyBle_sflashDeviceAddress, %object
 125              		.size	cyBle_sflashDeviceAddress, 4
 126              	cyBle_sflashDeviceAddress:
 127 004c 00F4FF0F 		.word	268432384
 128              		.section	.text.CyBle_Init,"ax",%progbits
 129              		.align	2
 130              		.global	CyBle_Init
 131              		.code	16
 132              		.thumb_func
 133              		.type	CyBle_Init, %function
 134              	CyBle_Init:
 135              	.LFB2:
 136              		.file 1 "Generated_Source\\PSoC4\\BLE.c"
   1:Generated_Source\PSoC4/BLE.c **** /***************************************************************************//**
   2:Generated_Source\PSoC4/BLE.c **** * \file CYBLE.c
   3:Generated_Source\PSoC4/BLE.c **** * \version 3.40
   4:Generated_Source\PSoC4/BLE.c **** * 
   5:Generated_Source\PSoC4/BLE.c **** * \brief
   6:Generated_Source\PSoC4/BLE.c **** *  This file contains the source code for the Common APIs of the BLE Component.
   7:Generated_Source\PSoC4/BLE.c **** * 
   8:Generated_Source\PSoC4/BLE.c **** ********************************************************************************
   9:Generated_Source\PSoC4/BLE.c **** * \copyright
  10:Generated_Source\PSoC4/BLE.c **** * Copyright 2014-2016, Cypress Semiconductor Corporation.  All rights reserved.
  11:Generated_Source\PSoC4/BLE.c **** * You may use this file only in accordance with the license, terms, conditions,
  12:Generated_Source\PSoC4/BLE.c **** * disclaimers, and limitations in the end user license agreement accompanying
  13:Generated_Source\PSoC4/BLE.c **** * the software package with which this file was provided.
  14:Generated_Source\PSoC4/BLE.c **** *******************************************************************************/
  15:Generated_Source\PSoC4/BLE.c **** 
  16:Generated_Source\PSoC4/BLE.c **** #include "BLE_eventHandler.h"
  17:Generated_Source\PSoC4/BLE.c **** #include "BLE_HAL_PVT.h"
  18:Generated_Source\PSoC4/BLE.c **** #include <stdlib.h>
  19:Generated_Source\PSoC4/BLE.c **** 
  20:Generated_Source\PSoC4/BLE.c **** 
  21:Generated_Source\PSoC4/BLE.c **** /***************************************
  22:Generated_Source\PSoC4/BLE.c **** * Function Prototypes
  23:Generated_Source\PSoC4/BLE.c **** ***************************************/
  24:Generated_Source\PSoC4/BLE.c **** 
  25:Generated_Source\PSoC4/BLE.c **** #if(CYBLE_GATT_ROLE_SERVER)
  26:Generated_Source\PSoC4/BLE.c ****     #if(CYBLE_GAP_ROLE_PERIPHERAL)
  27:Generated_Source\PSoC4/BLE.c ****         static void CyBle_ChangeAdLocalName(const char8 name[], uint8 dest);
ARM GAS  C:\Users\TTSS\AppData\Local\Temp\ccKqB1vQ.s 			page 4


  28:Generated_Source\PSoC4/BLE.c ****     #endif /* (CYBLE_GAP_ROLE_PERIPHERAL) */
  29:Generated_Source\PSoC4/BLE.c **** #endif /* (CYBLE_GATT_ROLE_SERVER) */
  30:Generated_Source\PSoC4/BLE.c ****     
  31:Generated_Source\PSoC4/BLE.c **** 
  32:Generated_Source\PSoC4/BLE.c **** /***************************************
  33:Generated_Source\PSoC4/BLE.c **** * Global Variables
  34:Generated_Source\PSoC4/BLE.c **** ***************************************/
  35:Generated_Source\PSoC4/BLE.c **** 
  36:Generated_Source\PSoC4/BLE.c **** /* Indicates whether the BLE has been initialized. The variable is initialized to
  37:Generated_Source\PSoC4/BLE.c ****    0 and set to 1 the first time CyBle_Start() is called. This allows the component
  38:Generated_Source\PSoC4/BLE.c ****    to restart without reinitialization after the first call to the CyBle_Start() 
  39:Generated_Source\PSoC4/BLE.c ****    routine. If reinitialization of the component is required, the variable should 
  40:Generated_Source\PSoC4/BLE.c ****    be set to 0 before the CyBle_Start() routine is called. Alternatively, the BLE
  41:Generated_Source\PSoC4/BLE.c ****    can be reinitialized by calling the CyBle_Init() function.
  42:Generated_Source\PSoC4/BLE.c **** */
  43:Generated_Source\PSoC4/BLE.c **** uint8  cyBle_initVar = 0u;
  44:Generated_Source\PSoC4/BLE.c **** 
  45:Generated_Source\PSoC4/BLE.c **** /* Allocate RAM memory for stack. This buffer could be reused by application when 
  46:Generated_Source\PSoC4/BLE.c ****    BLE component is stopped. For export mode buffer is allocated in heap.
  47:Generated_Source\PSoC4/BLE.c **** */
  48:Generated_Source\PSoC4/BLE.c **** #if(CYBLE_SHARING_MODE_EXPORT)
  49:Generated_Source\PSoC4/BLE.c ****     
  50:Generated_Source\PSoC4/BLE.c **** uint8 *cyBle_stackMemoryRam = NULL;
  51:Generated_Source\PSoC4/BLE.c **** 
  52:Generated_Source\PSoC4/BLE.c **** #else
  53:Generated_Source\PSoC4/BLE.c **** 
  54:Generated_Source\PSoC4/BLE.c **** CYBLE_CYALIGNED_BEGIN CY_NOINIT uint8 cyBle_stackMemoryRam[CYBLE_STACK_RAM_SIZE] CYBLE_CYALIGNED_EN
  55:Generated_Source\PSoC4/BLE.c **** 
  56:Generated_Source\PSoC4/BLE.c **** #endif  /* CYBLE_SHARING_MODE_EXPORT */
  57:Generated_Source\PSoC4/BLE.c **** 
  58:Generated_Source\PSoC4/BLE.c **** #if(CYBLE_GAP_ROLE_PERIPHERAL || CYBLE_GAP_ROLE_BROADCASTER)
  59:Generated_Source\PSoC4/BLE.c **** 
  60:Generated_Source\PSoC4/BLE.c **** CYBLE_GAPP_DISC_PARAM_T cyBle_discoveryParam =
  61:Generated_Source\PSoC4/BLE.c **** {
  62:Generated_Source\PSoC4/BLE.c ****     0x0640u,    /* uint16 advertising_interval_min */
  63:Generated_Source\PSoC4/BLE.c ****     0x0640u,    /* uint16 advertising_interval_max */
  64:Generated_Source\PSoC4/BLE.c ****     CYBLE_GAPP_NON_CONNECTABLE_UNDIRECTED_ADV, /* uint8 advertising_type */
  65:Generated_Source\PSoC4/BLE.c ****     0x00u,      /* uint8 own_addr_type */
  66:Generated_Source\PSoC4/BLE.c ****     0x00u,      /* uint8 direct_addr_type */
  67:Generated_Source\PSoC4/BLE.c ****     {0x00u, 0x00u, 0x00u, 0x50u, 0xA0u, 0x00u}, /* uint8* direct_addr */
  68:Generated_Source\PSoC4/BLE.c ****     0x07u,      /* uint8 advertising_channel_map */
  69:Generated_Source\PSoC4/BLE.c ****     0x00u,      /* uint8 advertising_filter_policy */
  70:Generated_Source\PSoC4/BLE.c **** };
  71:Generated_Source\PSoC4/BLE.c **** 
  72:Generated_Source\PSoC4/BLE.c **** CYBLE_GAPP_DISC_DATA_T cyBle_discoveryData =
  73:Generated_Source\PSoC4/BLE.c **** {
  74:Generated_Source\PSoC4/BLE.c ****     { 0x02u, 0x01u, 0x04u, 0x0Bu, 0x09u, 0x41u, 0x69u,
  75:Generated_Source\PSoC4/BLE.c ****     0x72u, 0x20u, 0x42u, 0x65u, 0x61u, 0x63u, 0x6Fu, 0x6Eu,
  76:Generated_Source\PSoC4/BLE.c ****     0x0Bu, 0xFFu, 0x31u, 0x01u, 0x00u, 0x00u, 0x00u, 0x00u,
  77:Generated_Source\PSoC4/BLE.c ****     0x00u, 0x00u, 0x00u, 0x00u, 0x00u, 0x00u, 0x00u, 0x00u }, /* uint8 advertising_data[CYBLE_MAX_A
  78:Generated_Source\PSoC4/BLE.c ****     0x1Bu,      /* uint8 adv_data_length */
  79:Generated_Source\PSoC4/BLE.c **** };
  80:Generated_Source\PSoC4/BLE.c **** 
  81:Generated_Source\PSoC4/BLE.c **** CYBLE_GAPP_SCAN_RSP_DATA_T cyBle_scanRspData =
  82:Generated_Source\PSoC4/BLE.c **** {
  83:Generated_Source\PSoC4/BLE.c ****     { 0x00u, 0x00u, 0x00u, 0x00u, 0x00u, 0x00u, 0x00u,
  84:Generated_Source\PSoC4/BLE.c ****     0x00u, 0x00u, 0x00u, 0x00u, 0x00u, 0x00u, 0x00u, 0x00u,
ARM GAS  C:\Users\TTSS\AppData\Local\Temp\ccKqB1vQ.s 			page 5


  85:Generated_Source\PSoC4/BLE.c ****     0x00u, 0x00u, 0x00u, 0x00u, 0x00u, 0x00u, 0x00u, 0x00u,
  86:Generated_Source\PSoC4/BLE.c ****     0x00u, 0x00u, 0x00u, 0x00u, 0x00u, 0x00u, 0x00u, 0x00u }, /* uint8 scan_rsp_data[CYBLE_MAX_SCAN
  87:Generated_Source\PSoC4/BLE.c ****     0x00u,      /* uint8 scan_rsp_data_length */
  88:Generated_Source\PSoC4/BLE.c **** };
  89:Generated_Source\PSoC4/BLE.c **** 
  90:Generated_Source\PSoC4/BLE.c **** /* This variable of type CYBLE_GAPP_DISC_MODE_INFO_T is present only when 
  91:Generated_Source\PSoC4/BLE.c ****    the BLE component is configured for Peripheral GAP role or Central and 
  92:Generated_Source\PSoC4/BLE.c ****    Peripheral GAP role. It contains the Advertisement settings and also the 
  93:Generated_Source\PSoC4/BLE.c ****    Advertisement and Scan response data parameters entered in the customizer.
  94:Generated_Source\PSoC4/BLE.c ****    This variable can be used by advanced users to change Advertisement settings,
  95:Generated_Source\PSoC4/BLE.c ****    Advertisement or Scan response data in runtime. 
  96:Generated_Source\PSoC4/BLE.c **** */
  97:Generated_Source\PSoC4/BLE.c **** CYBLE_GAPP_DISC_MODE_INFO_T cyBle_discoveryModeInfo =
  98:Generated_Source\PSoC4/BLE.c **** {
  99:Generated_Source\PSoC4/BLE.c ****     0x00u,      /* uint8 discMode */
 100:Generated_Source\PSoC4/BLE.c ****     &cyBle_discoveryParam,
 101:Generated_Source\PSoC4/BLE.c ****     &cyBle_discoveryData,
 102:Generated_Source\PSoC4/BLE.c ****     &cyBle_scanRspData,
 103:Generated_Source\PSoC4/BLE.c ****     0x0000u,    /* uint16 advTo */
 104:Generated_Source\PSoC4/BLE.c **** };
 105:Generated_Source\PSoC4/BLE.c **** 
 106:Generated_Source\PSoC4/BLE.c **** 
 107:Generated_Source\PSoC4/BLE.c **** #endif /* CYBLE_GAP_ROLE_PERIPHERAL || CYBLE_GAP_ROLE_BROADCASTER */
 108:Generated_Source\PSoC4/BLE.c **** 
 109:Generated_Source\PSoC4/BLE.c **** #if(CYBLE_GAP_ROLE_CENTRAL)
 110:Generated_Source\PSoC4/BLE.c ****     
 111:Generated_Source\PSoC4/BLE.c **** CYBLE_GAPC_CONN_PARAM_T cyBle_connectionParameters;
 112:Generated_Source\PSoC4/BLE.c **** 
 113:Generated_Source\PSoC4/BLE.c **** /* Connecting timeout is set to 30 seconds in CyBle_Init function. 
 114:Generated_Source\PSoC4/BLE.c ****    Not zero value starts timer in CyBle_GapcConnectDevice() API fucntion.
 115:Generated_Source\PSoC4/BLE.c **** */
 116:Generated_Source\PSoC4/BLE.c **** uint16 cyBle_connectingTimeout;
 117:Generated_Source\PSoC4/BLE.c ****     
 118:Generated_Source\PSoC4/BLE.c **** #endif /* CYBLE_GAP_ROLE_CENTRAL */
 119:Generated_Source\PSoC4/BLE.c **** 
 120:Generated_Source\PSoC4/BLE.c **** #if(CYBLE_GAP_ROLE_CENTRAL || CYBLE_GAP_ROLE_OBSERVER)
 121:Generated_Source\PSoC4/BLE.c ****     
 122:Generated_Source\PSoC4/BLE.c **** 
 123:Generated_Source\PSoC4/BLE.c ****     
 124:Generated_Source\PSoC4/BLE.c **** #endif /* CYBLE_GAP_ROLE_CENTRAL || CYBLE_GAP_ROLE_OBSERVER */
 125:Generated_Source\PSoC4/BLE.c **** 
 126:Generated_Source\PSoC4/BLE.c **** #if((CYBLE_GAP_ROLE_PERIPHERAL || CYBLE_GAP_ROLE_CENTRAL) && (CYBLE_BONDING_REQUIREMENT == CYBLE_BO
 127:Generated_Source\PSoC4/BLE.c **** 
 128:Generated_Source\PSoC4/BLE.c **** uint8 cyBle_peerBonding;
 129:Generated_Source\PSoC4/BLE.c **** uint8 cyBle_pendingFlashWrite;
 130:Generated_Source\PSoC4/BLE.c ****     
 131:Generated_Source\PSoC4/BLE.c **** #if(CYBLE_GATT_DB_CCCD_COUNT != 0u)
 132:Generated_Source\PSoC4/BLE.c ****     static uint8 cyBle_pendingFlashClearCccdHandle;
 133:Generated_Source\PSoC4/BLE.c **** #endif /* CYBLE_GATT_DB_CCCD_COUNT != 0u */
 134:Generated_Source\PSoC4/BLE.c ****     
 135:Generated_Source\PSoC4/BLE.c **** #endif  /* (CYBLE_BONDING_REQUIREMENT == CYBLE_BONDING_YES) */
 136:Generated_Source\PSoC4/BLE.c **** 
 137:Generated_Source\PSoC4/BLE.c **** CYBLE_CALLBACK_T CyBle_ApplCallback;
 138:Generated_Source\PSoC4/BLE.c **** CYBLE_GAP_BD_ADDR_T cyBle_deviceAddress = {{0x00u, 0x00u, 0x00u, 0x50u, 0xA0u, 0x00u}, 0x00u };
 139:Generated_Source\PSoC4/BLE.c **** CYBLE_GAP_BD_ADDR_T * cyBle_sflashDeviceAddress = CYBLE_SFLASH_DEVICE_ADDRESS_PTR;
 140:Generated_Source\PSoC4/BLE.c **** 
 141:Generated_Source\PSoC4/BLE.c **** 
ARM GAS  C:\Users\TTSS\AppData\Local\Temp\ccKqB1vQ.s 			page 6


 142:Generated_Source\PSoC4/BLE.c **** /******************************************************************************
 143:Generated_Source\PSoC4/BLE.c **** * Function Name: CyBle_Init
 144:Generated_Source\PSoC4/BLE.c **** ***************************************************************************//**
 145:Generated_Source\PSoC4/BLE.c **** *
 146:Generated_Source\PSoC4/BLE.c **** *   Initializes the component with the parameters set in the customizer.
 147:Generated_Source\PSoC4/BLE.c **** * 
 148:Generated_Source\PSoC4/BLE.c **** *  \return
 149:Generated_Source\PSoC4/BLE.c **** *   None
 150:Generated_Source\PSoC4/BLE.c **** * 
 151:Generated_Source\PSoC4/BLE.c **** ******************************************************************************/
 152:Generated_Source\PSoC4/BLE.c **** void CyBle_Init(void)
 153:Generated_Source\PSoC4/BLE.c **** {
 137              		.loc 1 153 0
 138              		.cfi_startproc
 139              		@ args = 0, pretend = 0, frame = 0
 140              		@ frame_needed = 1, uses_anonymous_args = 0
 141 0000 80B5     		push	{r7, lr}
 142              		.cfi_def_cfa_offset 8
 143              		.cfi_offset 7, -8
 144              		.cfi_offset 14, -4
 145 0002 00AF     		add	r7, sp, #0
 146              		.cfi_def_cfa_register 7
 154:Generated_Source\PSoC4/BLE.c ****     cyBle_eventHandlerFlag = 0u;
 147              		.loc 1 154 0
 148 0004 064B     		ldr	r3, .L2
 149 0006 0022     		movs	r2, #0
 150 0008 1A70     		strb	r2, [r3]
 155:Generated_Source\PSoC4/BLE.c ****     cyBle_busyStatus = CYBLE_STACK_STATE_FREE;
 151              		.loc 1 155 0
 152 000a 064B     		ldr	r3, .L2+4
 153 000c 0022     		movs	r2, #0
 154 000e 1A70     		strb	r2, [r3]
 156:Generated_Source\PSoC4/BLE.c **** 
 157:Generated_Source\PSoC4/BLE.c ****     #if(CYBLE_GAP_ROLE_PERIPHERAL || CYBLE_GAP_ROLE_BROADCASTER) 
 158:Generated_Source\PSoC4/BLE.c ****         cyBle_advertisingIntervalType = CYBLE_ADVERTISING_FAST; 
 155              		.loc 1 158 0
 156 0010 054B     		ldr	r3, .L2+8
 157 0012 0022     		movs	r2, #0
 158 0014 1A70     		strb	r2, [r3]
 159:Generated_Source\PSoC4/BLE.c ****     #endif /* (CYBLE_GAP_ROLE_PERIPHERAL || CYBLE_GAP_ROLE_BROADCASTER)  */
 160:Generated_Source\PSoC4/BLE.c ****     #if(CYBLE_GAP_ROLE_CENTRAL || CYBLE_GAP_ROLE_OBSERVER)
 161:Generated_Source\PSoC4/BLE.c ****         cyBle_scanningIntervalType = CYBLE_SCANNING_FAST; 
 162:Generated_Source\PSoC4/BLE.c ****     #endif /* (CYBLE_GAP_ROLE_CENTRAL || CYBLE_GAP_ROLE_OBSERVER) */
 163:Generated_Source\PSoC4/BLE.c ****         
 164:Generated_Source\PSoC4/BLE.c ****     /* Init default connection parameters. 
 165:Generated_Source\PSoC4/BLE.c ****        Application may change it before initiating a connection */
 166:Generated_Source\PSoC4/BLE.c ****     #if(CYBLE_GAP_ROLE_CENTRAL)
 167:Generated_Source\PSoC4/BLE.c ****         cyBle_connectionParameters.scanIntv = cyBle_discoveryInfo.scanIntv;
 168:Generated_Source\PSoC4/BLE.c ****         cyBle_connectionParameters.scanWindow = cyBle_discoveryInfo.scanWindow;
 169:Generated_Source\PSoC4/BLE.c ****         cyBle_connectionParameters.ownAddrType = cyBle_discoveryInfo.ownAddrType;
 170:Generated_Source\PSoC4/BLE.c ****         cyBle_connectionParameters.initiatorFilterPolicy = cyBle_discoveryInfo.scanFilterPolicy;
 171:Generated_Source\PSoC4/BLE.c ****         cyBle_connectionParameters.connIntvMin = CYBLE_GAPC_CONNECTION_INTERVAL_MIN;
 172:Generated_Source\PSoC4/BLE.c ****         cyBle_connectionParameters.connIntvMax = CYBLE_GAPC_CONNECTION_INTERVAL_MAX;
 173:Generated_Source\PSoC4/BLE.c ****         cyBle_connectionParameters.connLatency = CYBLE_GAPC_CONNECTION_SLAVE_LATENCY;
 174:Generated_Source\PSoC4/BLE.c ****         cyBle_connectionParameters.supervisionTO = CYBLE_GAPC_CONNECTION_TIME_OUT;
 175:Generated_Source\PSoC4/BLE.c ****         cyBle_connectionParameters.minCeLength = 0x0000u;
 176:Generated_Source\PSoC4/BLE.c ****         cyBle_connectionParameters.maxCeLength = 0xFFFFu;
ARM GAS  C:\Users\TTSS\AppData\Local\Temp\ccKqB1vQ.s 			page 7


 177:Generated_Source\PSoC4/BLE.c ****         
 178:Generated_Source\PSoC4/BLE.c ****         cyBle_connectingTimeout = CYBLE_GAPC_CONNECTING_TIMEOUT;
 179:Generated_Source\PSoC4/BLE.c ****     #endif /* CYBLE_GAP_ROLE_CENTRAL */
 180:Generated_Source\PSoC4/BLE.c **** 
 181:Generated_Source\PSoC4/BLE.c ****     CyBle_ServiceInit();
 159              		.loc 1 181 0
 160 0016 FFF7FEFF 		bl	CyBle_ServiceInit
 182:Generated_Source\PSoC4/BLE.c **** 
 183:Generated_Source\PSoC4/BLE.c ****     #if((CYBLE_GAP_ROLE_PERIPHERAL || CYBLE_GAP_ROLE_CENTRAL) && (CYBLE_BONDING_REQUIREMENT == CYBL
 184:Generated_Source\PSoC4/BLE.c ****         cyBle_pendingFlashWrite = 0u;
 185:Generated_Source\PSoC4/BLE.c ****         cyBle_peerBonding = CYBLE_GAP_BONDING_NONE;
 186:Generated_Source\PSoC4/BLE.c ****     #endif  /* (CYBLE_BONDING_REQUIREMENT == CYBLE_BONDING_YES) */
 187:Generated_Source\PSoC4/BLE.c **** 
 188:Generated_Source\PSoC4/BLE.c **** }
 161              		.loc 1 188 0
 162 001a C046     		nop
 163 001c BD46     		mov	sp, r7
 164              		@ sp needed
 165 001e 80BD     		pop	{r7, pc}
 166              	.L3:
 167              		.align	2
 168              	.L2:
 169 0020 00000000 		.word	cyBle_eventHandlerFlag
 170 0024 00000000 		.word	cyBle_busyStatus
 171 0028 00000000 		.word	cyBle_advertisingIntervalType
 172              		.cfi_endproc
 173              	.LFE2:
 174              		.size	CyBle_Init, .-CyBle_Init
 175              		.section	.text.CyBle_ServiceInit,"ax",%progbits
 176              		.align	2
 177              		.global	CyBle_ServiceInit
 178              		.code	16
 179              		.thumb_func
 180              		.type	CyBle_ServiceInit, %function
 181              	CyBle_ServiceInit:
 182              	.LFB3:
 189:Generated_Source\PSoC4/BLE.c **** 
 190:Generated_Source\PSoC4/BLE.c **** 
 191:Generated_Source\PSoC4/BLE.c **** /******************************************************************************
 192:Generated_Source\PSoC4/BLE.c **** * Function Name: CyBle_ServiceInit
 193:Generated_Source\PSoC4/BLE.c **** ***************************************************************************//**
 194:Generated_Source\PSoC4/BLE.c **** * 
 195:Generated_Source\PSoC4/BLE.c **** *  Initializes all included services.
 196:Generated_Source\PSoC4/BLE.c **** * 
 197:Generated_Source\PSoC4/BLE.c **** * \return
 198:Generated_Source\PSoC4/BLE.c **** *  None
 199:Generated_Source\PSoC4/BLE.c **** * 
 200:Generated_Source\PSoC4/BLE.c **** ******************************************************************************/
 201:Generated_Source\PSoC4/BLE.c **** void CyBle_ServiceInit(void)
 202:Generated_Source\PSoC4/BLE.c **** {
 183              		.loc 1 202 0
 184              		.cfi_startproc
 185              		@ args = 0, pretend = 0, frame = 0
 186              		@ frame_needed = 1, uses_anonymous_args = 0
 187 0000 80B5     		push	{r7, lr}
 188              		.cfi_def_cfa_offset 8
 189              		.cfi_offset 7, -8
ARM GAS  C:\Users\TTSS\AppData\Local\Temp\ccKqB1vQ.s 			page 8


 190              		.cfi_offset 14, -4
 191 0002 00AF     		add	r7, sp, #0
 192              		.cfi_def_cfa_register 7
 203:Generated_Source\PSoC4/BLE.c ****     #if(CYBLE_GATT_ROLE_CLIENT)
 204:Generated_Source\PSoC4/BLE.c ****         /* Check service range before clearing to support partial discovery */
 205:Generated_Source\PSoC4/BLE.c ****         if(cyBle_serverInfo[CYBLE_SRVI_GAP].range.startHandle == CYBLE_GATT_INVALID_ATTR_HANDLE_VAL
 206:Generated_Source\PSoC4/BLE.c ****         {
 207:Generated_Source\PSoC4/BLE.c ****             (void)memset(&cyBle_gapc, 0, sizeof(cyBle_gapc));
 208:Generated_Source\PSoC4/BLE.c ****         }
 209:Generated_Source\PSoC4/BLE.c ****         if(cyBle_serverInfo[CYBLE_SRVI_GATT].range.startHandle == CYBLE_GATT_INVALID_ATTR_HANDLE_VA
 210:Generated_Source\PSoC4/BLE.c ****         {
 211:Generated_Source\PSoC4/BLE.c ****             (void)memset(&cyBle_gattc, 0, sizeof(cyBle_gattc));
 212:Generated_Source\PSoC4/BLE.c ****         }
 213:Generated_Source\PSoC4/BLE.c ****     #endif /* CYBLE_GATT_ROLE_CLIENT */
 214:Generated_Source\PSoC4/BLE.c **** 
 215:Generated_Source\PSoC4/BLE.c ****    	#ifdef CYBLE_AIOS
 216:Generated_Source\PSoC4/BLE.c ****         CyBle_AiosInit();
 217:Generated_Source\PSoC4/BLE.c ****     #endif /* CYBLE_AIOS */
 218:Generated_Source\PSoC4/BLE.c **** 
 219:Generated_Source\PSoC4/BLE.c **** 	#ifdef CYBLE_ANCS
 220:Generated_Source\PSoC4/BLE.c ****         CyBle_AncsInit();
 221:Generated_Source\PSoC4/BLE.c ****     #endif /* CYBLE_ANCS */
 222:Generated_Source\PSoC4/BLE.c **** 	
 223:Generated_Source\PSoC4/BLE.c ****     #ifdef CYBLE_ANS
 224:Generated_Source\PSoC4/BLE.c ****         CyBle_AnsInit();
 225:Generated_Source\PSoC4/BLE.c ****     #endif /* CYBLE_ANS */
 226:Generated_Source\PSoC4/BLE.c ****     
 227:Generated_Source\PSoC4/BLE.c ****     #ifdef CYBLE_BAS
 228:Generated_Source\PSoC4/BLE.c ****         CyBle_BasInit();
 229:Generated_Source\PSoC4/BLE.c ****     #endif /* CYBLE_BAS */
 230:Generated_Source\PSoC4/BLE.c ****     
 231:Generated_Source\PSoC4/BLE.c ****     #ifdef CYBLE_BCS
 232:Generated_Source\PSoC4/BLE.c ****         CyBle_BcsInit();
 233:Generated_Source\PSoC4/BLE.c ****     #endif /* CYBLE_BCS */
 234:Generated_Source\PSoC4/BLE.c **** 
 235:Generated_Source\PSoC4/BLE.c ****     #ifdef CYBLE_BLS
 236:Generated_Source\PSoC4/BLE.c ****         CyBle_BlsInit();
 237:Generated_Source\PSoC4/BLE.c ****     #endif /* CYBLE_BLS */
 238:Generated_Source\PSoC4/BLE.c ****     
 239:Generated_Source\PSoC4/BLE.c ****     #ifdef CYBLE_BMS
 240:Generated_Source\PSoC4/BLE.c ****         CyBle_BmsInit();
 241:Generated_Source\PSoC4/BLE.c ****     #endif /* CYBLE_BMS */
 242:Generated_Source\PSoC4/BLE.c ****     
 243:Generated_Source\PSoC4/BLE.c ****     #ifdef CYBLE_CGMS
 244:Generated_Source\PSoC4/BLE.c ****         CyBle_CgmsInit();
 245:Generated_Source\PSoC4/BLE.c ****     #endif /* CYBLE_CGMS */
 246:Generated_Source\PSoC4/BLE.c **** 
 247:Generated_Source\PSoC4/BLE.c ****     #ifdef CYBLE_CPS
 248:Generated_Source\PSoC4/BLE.c ****         CyBle_CpsInit();
 249:Generated_Source\PSoC4/BLE.c ****     #endif /* CYBLE_CPS */
 250:Generated_Source\PSoC4/BLE.c **** 
 251:Generated_Source\PSoC4/BLE.c ****     #ifdef CYBLE_CSCS
 252:Generated_Source\PSoC4/BLE.c ****         CyBle_CscsInit();
 253:Generated_Source\PSoC4/BLE.c ****     #endif /* CYBLE_CSCS */
 254:Generated_Source\PSoC4/BLE.c ****     
 255:Generated_Source\PSoC4/BLE.c ****     #ifdef CYBLE_CTS
 256:Generated_Source\PSoC4/BLE.c ****         CyBle_CtsInit();
ARM GAS  C:\Users\TTSS\AppData\Local\Temp\ccKqB1vQ.s 			page 9


 257:Generated_Source\PSoC4/BLE.c ****     #endif /* CYBLE_CTS */
 258:Generated_Source\PSoC4/BLE.c **** 
 259:Generated_Source\PSoC4/BLE.c ****     #ifdef CYBLE_CUSTOM
 260:Generated_Source\PSoC4/BLE.c ****         CyBle_CustomInit();
 261:Generated_Source\PSoC4/BLE.c ****     #endif /* CYBLE_CUSTOM */
 262:Generated_Source\PSoC4/BLE.c **** 
 263:Generated_Source\PSoC4/BLE.c ****     #ifdef CYBLE_DIS
 264:Generated_Source\PSoC4/BLE.c ****         CyBle_DisInit();
 265:Generated_Source\PSoC4/BLE.c ****     #endif /* CYBLE_DIS */
 266:Generated_Source\PSoC4/BLE.c **** 
 267:Generated_Source\PSoC4/BLE.c ****     #ifdef CYBLE_ESS
 268:Generated_Source\PSoC4/BLE.c ****         CyBle_EssInit();
 269:Generated_Source\PSoC4/BLE.c ****     #endif /* CYBLE_ESS */
 270:Generated_Source\PSoC4/BLE.c ****     
 271:Generated_Source\PSoC4/BLE.c ****     #ifdef CYBLE_GLS
 272:Generated_Source\PSoC4/BLE.c ****         CyBle_GlsInit();
 273:Generated_Source\PSoC4/BLE.c ****     #endif /* CYBLE_GLS */
 274:Generated_Source\PSoC4/BLE.c ****     
 275:Generated_Source\PSoC4/BLE.c ****     #ifdef CYBLE_HIDS
 276:Generated_Source\PSoC4/BLE.c ****         CyBle_HidsInit();
 277:Generated_Source\PSoC4/BLE.c ****     #endif /* CYBLE_HIDS */
 278:Generated_Source\PSoC4/BLE.c **** 
 279:Generated_Source\PSoC4/BLE.c ****     #ifdef CYBLE_HPS
 280:Generated_Source\PSoC4/BLE.c ****         CyBle_HpsInit();
 281:Generated_Source\PSoC4/BLE.c ****     #endif /* CYBLE_HPS */
 282:Generated_Source\PSoC4/BLE.c **** 
 283:Generated_Source\PSoC4/BLE.c ****     #ifdef CYBLE_HRS
 284:Generated_Source\PSoC4/BLE.c ****         CyBle_HrsInit();
 285:Generated_Source\PSoC4/BLE.c ****     #endif /* CYBLE_HRS */
 286:Generated_Source\PSoC4/BLE.c ****     
 287:Generated_Source\PSoC4/BLE.c ****     #ifdef CYBLE_HTS
 288:Generated_Source\PSoC4/BLE.c ****         CyBle_HtsInit();
 289:Generated_Source\PSoC4/BLE.c ****     #endif /* CYBLE_RSCS */
 290:Generated_Source\PSoC4/BLE.c **** 
 291:Generated_Source\PSoC4/BLE.c ****     #ifdef CYBLE_IAS
 292:Generated_Source\PSoC4/BLE.c ****         CyBle_IasInit();
 293:Generated_Source\PSoC4/BLE.c ****     #endif /* CYBLE_IAS */
 294:Generated_Source\PSoC4/BLE.c **** 
 295:Generated_Source\PSoC4/BLE.c ****     #ifdef CYBLE_IPS
 296:Generated_Source\PSoC4/BLE.c ****         CyBle_IpsInit();
 297:Generated_Source\PSoC4/BLE.c ****     #endif /* CYBLE_IPS */
 298:Generated_Source\PSoC4/BLE.c ****     
 299:Generated_Source\PSoC4/BLE.c ****     #ifdef CYBLE_LLS
 300:Generated_Source\PSoC4/BLE.c ****         CyBle_LlsInit();
 301:Generated_Source\PSoC4/BLE.c ****     #endif /* CYBLE_LLS */
 302:Generated_Source\PSoC4/BLE.c **** 
 303:Generated_Source\PSoC4/BLE.c ****     #ifdef CYBLE_LNS
 304:Generated_Source\PSoC4/BLE.c ****         CyBle_LnsInit();
 305:Generated_Source\PSoC4/BLE.c ****     #endif /* CYBLE_LNS */
 306:Generated_Source\PSoC4/BLE.c ****     
 307:Generated_Source\PSoC4/BLE.c ****     #ifdef CYBLE_NDCS
 308:Generated_Source\PSoC4/BLE.c ****         CyBle_NdcsInit();
 309:Generated_Source\PSoC4/BLE.c ****     #endif /* CYBLE_NDCS */
 310:Generated_Source\PSoC4/BLE.c ****     
 311:Generated_Source\PSoC4/BLE.c ****     #ifdef CYBLE_PASS
 312:Generated_Source\PSoC4/BLE.c ****         CyBle_PassInit();
 313:Generated_Source\PSoC4/BLE.c ****     #endif /* CYBLE_PASS */
ARM GAS  C:\Users\TTSS\AppData\Local\Temp\ccKqB1vQ.s 			page 10


 314:Generated_Source\PSoC4/BLE.c ****     
 315:Generated_Source\PSoC4/BLE.c ****     #ifdef CYBLE_PLXS
 316:Generated_Source\PSoC4/BLE.c ****         CyBle_PlxsInit();
 317:Generated_Source\PSoC4/BLE.c ****     #endif /* CYBLE_PLXS */
 318:Generated_Source\PSoC4/BLE.c ****     
 319:Generated_Source\PSoC4/BLE.c ****     #ifdef CYBLE_RSCS
 320:Generated_Source\PSoC4/BLE.c ****         CyBle_RscsInit();
 321:Generated_Source\PSoC4/BLE.c ****     #endif /* CYBLE_RSCS */
 322:Generated_Source\PSoC4/BLE.c **** 
 323:Generated_Source\PSoC4/BLE.c ****     #ifdef CYBLE_RTUS
 324:Generated_Source\PSoC4/BLE.c ****         CyBle_RtusInit();
 325:Generated_Source\PSoC4/BLE.c ****     #endif /* CYBLE_RTUS */
 326:Generated_Source\PSoC4/BLE.c **** 
 327:Generated_Source\PSoC4/BLE.c ****     #ifdef CYBLE_SCPS
 328:Generated_Source\PSoC4/BLE.c ****         CyBle_ScpsInit();
 329:Generated_Source\PSoC4/BLE.c ****     #endif /* CYBLE_SCPS */
 330:Generated_Source\PSoC4/BLE.c ****     
 331:Generated_Source\PSoC4/BLE.c ****     #ifdef CYBLE_TPS
 332:Generated_Source\PSoC4/BLE.c ****         CyBle_TpsInit();
 333:Generated_Source\PSoC4/BLE.c ****     #endif /* CYBLE_TPS */
 334:Generated_Source\PSoC4/BLE.c ****     
 335:Generated_Source\PSoC4/BLE.c ****     #ifdef CYBLE_UDS
 336:Generated_Source\PSoC4/BLE.c ****         CyBle_UdsInit();
 337:Generated_Source\PSoC4/BLE.c ****     #endif /* CYBLE_UDS */
 338:Generated_Source\PSoC4/BLE.c **** 
 339:Generated_Source\PSoC4/BLE.c ****     #ifdef CYBLE_WPTS
 340:Generated_Source\PSoC4/BLE.c ****         CyBle_WptsInit();
 341:Generated_Source\PSoC4/BLE.c ****     #endif /* CYBLE_WPTS */
 342:Generated_Source\PSoC4/BLE.c **** 
 343:Generated_Source\PSoC4/BLE.c ****     #ifdef CYBLE_WSS
 344:Generated_Source\PSoC4/BLE.c ****         CyBle_WssInit();
 345:Generated_Source\PSoC4/BLE.c ****     #endif /* CYBLE_WSS */
 346:Generated_Source\PSoC4/BLE.c **** }
 193              		.loc 1 346 0
 194 0004 C046     		nop
 195 0006 BD46     		mov	sp, r7
 196              		@ sp needed
 197 0008 80BD     		pop	{r7, pc}
 198              		.cfi_endproc
 199              	.LFE3:
 200              		.size	CyBle_ServiceInit, .-CyBle_ServiceInit
 201              		.section	.rodata
 202              		.align	2
 203              	.LC0:
 204 0000 2400     		.short	36
 205 0002 03       		.byte	3
 206 0003 00       		.space	1
 207 0004 3000     		.short	48
 208 0006 01       		.byte	1
 209 0007 00       		.space	1
 210 0008 2800     		.short	40
 211 000a 02       		.byte	2
 212 000b 00       		.space	1
 213 000c 2400     		.short	36
 214 000e 01       		.byte	1
 215 000f 00       		.space	1
 216 0010 2400     		.short	36
ARM GAS  C:\Users\TTSS\AppData\Local\Temp\ccKqB1vQ.s 			page 11


 217 0012 01       		.byte	1
 218 0013 00       		.space	1
 219              		.section	.text.CyBle_Start,"ax",%progbits
 220              		.align	2
 221              		.global	CyBle_Start
 222              		.code	16
 223              		.thumb_func
 224              		.type	CyBle_Start, %function
 225              	CyBle_Start:
 226              	.LFB4:
 347:Generated_Source\PSoC4/BLE.c **** 
 348:Generated_Source\PSoC4/BLE.c **** 
 349:Generated_Source\PSoC4/BLE.c **** /******************************************************************************
 350:Generated_Source\PSoC4/BLE.c **** * Function Name: CyBle_Start
 351:Generated_Source\PSoC4/BLE.c **** ***************************************************************************//**
 352:Generated_Source\PSoC4/BLE.c **** * 
 353:Generated_Source\PSoC4/BLE.c **** *  This function initializes the BLE Stack, which consists of the BLE Stack 
 354:Generated_Source\PSoC4/BLE.c **** *  Manager, BLE Controller, and BLE Host modules. It takes care of initializing
 355:Generated_Source\PSoC4/BLE.c **** *  the Profile layer, schedulers, Timer and other platform related
 356:Generated_Source\PSoC4/BLE.c **** *  resources required for the BLE component. It also registers the callback 
 357:Generated_Source\PSoC4/BLE.c **** *  function for BLE events that will be registered in the BLE stack.
 358:Generated_Source\PSoC4/BLE.c **** * 
 359:Generated_Source\PSoC4/BLE.c **** *  Note that this function does not reset the BLE Stack.
 360:Generated_Source\PSoC4/BLE.c **** * 
 361:Generated_Source\PSoC4/BLE.c **** *  For HCI-Mode of operation, this function will not initialize the BLE Host 
 362:Generated_Source\PSoC4/BLE.c **** *  module.
 363:Generated_Source\PSoC4/BLE.c **** * 
 364:Generated_Source\PSoC4/BLE.c **** *  Calling this function results in the generation of CYBLE_EVT_STACK_ON event
 365:Generated_Source\PSoC4/BLE.c **** *  on successful initialization of the BLE Stack.
 366:Generated_Source\PSoC4/BLE.c **** * 
 367:Generated_Source\PSoC4/BLE.c **** *  \param callbackFunc: Event callback function to receive events from BLE stack.
 368:Generated_Source\PSoC4/BLE.c **** *   CYBLE_CALLBACK_T is a function pointer type.
 369:Generated_Source\PSoC4/BLE.c **** * 
 370:Generated_Source\PSoC4/BLE.c **** * \return
 371:Generated_Source\PSoC4/BLE.c **** *  CYBLE_API_RESULT_T : Return value indicates if the function succeeded or 
 372:Generated_Source\PSoC4/BLE.c **** *  failed. Following are the possible error codes.
 373:Generated_Source\PSoC4/BLE.c **** * 
 374:Generated_Source\PSoC4/BLE.c **** *   <table>
 375:Generated_Source\PSoC4/BLE.c **** *  	  <tr>
 376:Generated_Source\PSoC4/BLE.c **** *       <th>Error codes</th>
 377:Generated_Source\PSoC4/BLE.c **** *       <th>Description</th>
 378:Generated_Source\PSoC4/BLE.c **** *     </tr>
 379:Generated_Source\PSoC4/BLE.c **** *     <tr>
 380:Generated_Source\PSoC4/BLE.c **** *       <td>CYBLE_ERROR_OK</td>
 381:Generated_Source\PSoC4/BLE.c **** *       <td>On successful operation.</td>
 382:Generated_Source\PSoC4/BLE.c **** *     </tr>
 383:Generated_Source\PSoC4/BLE.c **** *     <tr>
 384:Generated_Source\PSoC4/BLE.c **** *       <td>CYBLE_ERROR_INVALID_PARAMETER</td>
 385:Generated_Source\PSoC4/BLE.c **** *       <td>On passing a NULL pointer to the function. 
 386:Generated_Source\PSoC4/BLE.c **** *		</td>
 387:Generated_Source\PSoC4/BLE.c **** *     </tr>
 388:Generated_Source\PSoC4/BLE.c **** *     <tr>
 389:Generated_Source\PSoC4/BLE.c **** *       <td>CYBLE_ERROR_REPEATED_ATTEMPTS</td>
 390:Generated_Source\PSoC4/BLE.c **** *       <td>On invoking this function more than once without calling CyBle_Shutdown() 
 391:Generated_Source\PSoC4/BLE.c **** *           function between calls to this function.</td>
 392:Generated_Source\PSoC4/BLE.c **** *     </tr>
 393:Generated_Source\PSoC4/BLE.c **** *     <tr>
ARM GAS  C:\Users\TTSS\AppData\Local\Temp\ccKqB1vQ.s 			page 12


 394:Generated_Source\PSoC4/BLE.c **** *       <td>CYBLE_ERROR_MEMORY_ALLOCATION_FAILED</td>
 395:Generated_Source\PSoC4/BLE.c **** *       <td>There is insufficient memory available.</td>
 396:Generated_Source\PSoC4/BLE.c **** *     </tr>
 397:Generated_Source\PSoC4/BLE.c **** *   </table>
 398:Generated_Source\PSoC4/BLE.c **** * 
 399:Generated_Source\PSoC4/BLE.c **** *  \globalvars
 400:Generated_Source\PSoC4/BLE.c **** *   The CyBle_initVar variable is used to indicate initial
 401:Generated_Source\PSoC4/BLE.c **** *   configuration of this component. The variable is initialized to zero (0u)
 402:Generated_Source\PSoC4/BLE.c **** *   and set to one (1u) the first time CyBle_Start() is called. This
 403:Generated_Source\PSoC4/BLE.c **** *   allows for component initialization without re-initialization in all
 404:Generated_Source\PSoC4/BLE.c **** *   subsequent calls to the CyBle_Start() routine.
 405:Generated_Source\PSoC4/BLE.c **** * 
 406:Generated_Source\PSoC4/BLE.c **** ******************************************************************************/
 407:Generated_Source\PSoC4/BLE.c **** CYBLE_API_RESULT_T CyBle_Start(CYBLE_CALLBACK_T callbackFunc)
 408:Generated_Source\PSoC4/BLE.c **** {
 227              		.loc 1 408 0
 228              		.cfi_startproc
 229              		@ args = 0, pretend = 0, frame = 64
 230              		@ frame_needed = 1, uses_anonymous_args = 0
 231 0000 B0B5     		push	{r4, r5, r7, lr}
 232              		.cfi_def_cfa_offset 16
 233              		.cfi_offset 4, -16
 234              		.cfi_offset 5, -12
 235              		.cfi_offset 7, -8
 236              		.cfi_offset 14, -4
 237 0002 94B0     		sub	sp, sp, #80
 238              		.cfi_def_cfa_offset 96
 239 0004 04AF     		add	r7, sp, #16
 240              		.cfi_def_cfa 7, 80
 241 0006 7860     		str	r0, [r7, #4]
 409:Generated_Source\PSoC4/BLE.c ****     CYBLE_API_RESULT_T apiResult = CYBLE_ERROR_OK;
 242              		.loc 1 409 0
 243 0008 3E23     		movs	r3, #62
 244 000a FB18     		adds	r3, r7, r3
 245 000c 0022     		movs	r2, #0
 246 000e 1A80     		strh	r2, [r3]
 410:Generated_Source\PSoC4/BLE.c ****     
 411:Generated_Source\PSoC4/BLE.c ****     #if(CYBLE_MODE_PROFILE)
 412:Generated_Source\PSoC4/BLE.c ****     
 413:Generated_Source\PSoC4/BLE.c ****     CYBLE_STK_APP_DATA_BUFF_T cyBle_stackDataBuff[CYBLE_STACK_APP_MIN_POOL] = 
 247              		.loc 1 413 0
 248 0010 2823     		movs	r3, #40
 249 0012 FA18     		adds	r2, r7, r3
 250 0014 3D4B     		ldr	r3, .L12
 251 0016 1000     		movs	r0, r2
 252 0018 1900     		movs	r1, r3
 253 001a 1423     		movs	r3, #20
 254 001c 1A00     		movs	r2, r3
 255 001e FFF7FEFF 		bl	memcpy
 414:Generated_Source\PSoC4/BLE.c ****     {
 415:Generated_Source\PSoC4/BLE.c ****         {CYBLE_GATT_MTU_PLUS_L2CAP_MEM_EXT, CYBLE_GATT_MTU_BUFF_COUNT + CYBLE_GATT_MAX_ATTR_BUFF_CO
 416:Generated_Source\PSoC4/BLE.c ****         {CYBLE_L2CAP_PSM_PLUS_L2CAP_MEM_EXT, CYBLE_L2CAP_PSM_COUNT},
 417:Generated_Source\PSoC4/BLE.c ****         {CYBLE_L2CAP_CBFC_PLUS_L2CAP_MEM_EXT, 2u * CYBLE_L2CAP_LOGICAL_CHANNEL_COUNT},
 418:Generated_Source\PSoC4/BLE.c ****         {CYBLE_L2CAP_MTU_PLUS_L2CAP_MEM_EXT, CYBLE_L2CAP_LOGICAL_CHANNEL_COUNT},
 419:Generated_Source\PSoC4/BLE.c ****         {CYBLE_L2CAP_MPS_PLUS_L2CAP_MEM_EXT, CYBLE_L2CAP_LOGICAL_CHANNEL_COUNT * (CYBLE_L2CAP_MTU_M
 420:Generated_Source\PSoC4/BLE.c ****     }; 
 421:Generated_Source\PSoC4/BLE.c **** 
ARM GAS  C:\Users\TTSS\AppData\Local\Temp\ccKqB1vQ.s 			page 13


 422:Generated_Source\PSoC4/BLE.c ****     #endif /* CYBLE_MODE_PROFILE */
 423:Generated_Source\PSoC4/BLE.c ****     
 424:Generated_Source\PSoC4/BLE.c ****     /* If not initialized then initialize all the required hardware and software */
 425:Generated_Source\PSoC4/BLE.c ****     if(cyBle_initVar == 0u)
 256              		.loc 1 425 0
 257 0022 3B4B     		ldr	r3, .L12+4
 258 0024 1B78     		ldrb	r3, [r3]
 259 0026 002B     		cmp	r3, #0
 260 0028 04D1     		bne	.L6
 426:Generated_Source\PSoC4/BLE.c ****     {
 427:Generated_Source\PSoC4/BLE.c ****         CyBle_Init();
 261              		.loc 1 427 0
 262 002a FFF7FEFF 		bl	CyBle_Init
 428:Generated_Source\PSoC4/BLE.c ****         cyBle_initVar = 1u;
 263              		.loc 1 428 0
 264 002e 384B     		ldr	r3, .L12+4
 265 0030 0122     		movs	r2, #1
 266 0032 1A70     		strb	r2, [r3]
 267              	.L6:
 429:Generated_Source\PSoC4/BLE.c ****     }
 430:Generated_Source\PSoC4/BLE.c ****     
 431:Generated_Source\PSoC4/BLE.c ****     if(callbackFunc != NULL)
 268              		.loc 1 431 0
 269 0034 7B68     		ldr	r3, [r7, #4]
 270 0036 002B     		cmp	r3, #0
 271 0038 5CD0     		beq	.L7
 432:Generated_Source\PSoC4/BLE.c ****     {
 433:Generated_Source\PSoC4/BLE.c ****         CyBle_ApplCallback = callbackFunc;
 272              		.loc 1 433 0
 273 003a 364B     		ldr	r3, .L12+8
 274 003c 7A68     		ldr	r2, [r7, #4]
 275 003e 1A60     		str	r2, [r3]
 434:Generated_Source\PSoC4/BLE.c ****         
 435:Generated_Source\PSoC4/BLE.c ****     #if(CYBLE_SHARING_MODE_EXPORT)
 436:Generated_Source\PSoC4/BLE.c ****         if(cyBle_stackMemoryRam == NULL)
 437:Generated_Source\PSoC4/BLE.c ****         {
 438:Generated_Source\PSoC4/BLE.c ****             cyBle_stackMemoryRam = (uint8 *)malloc(CYBLE_STACK_RAM_SIZE);
 439:Generated_Source\PSoC4/BLE.c ****             if(cyBle_stackMemoryRam == NULL)
 440:Generated_Source\PSoC4/BLE.c ****             {
 441:Generated_Source\PSoC4/BLE.c ****                 apiResult = CYBLE_ERROR_MEMORY_ALLOCATION_FAILED;
 442:Generated_Source\PSoC4/BLE.c ****             }
 443:Generated_Source\PSoC4/BLE.c ****         }
 444:Generated_Source\PSoC4/BLE.c ****     #endif /* CYBLE_SHARING_MODE_EXPORT */
 445:Generated_Source\PSoC4/BLE.c ****         if(apiResult == CYBLE_ERROR_OK)
 276              		.loc 1 445 0
 277 0040 3E23     		movs	r3, #62
 278 0042 FB18     		adds	r3, r7, r3
 279 0044 1B88     		ldrh	r3, [r3]
 280 0046 002B     		cmp	r3, #0
 281 0048 29D1     		bne	.L8
 282              	.LBB2:
 446:Generated_Source\PSoC4/BLE.c ****         {
 447:Generated_Source\PSoC4/BLE.c ****             CYBLE_DLE_CONFIG_PARAM_T dleConfigParams;
 448:Generated_Source\PSoC4/BLE.c ****             CYBLE_PRIVACY_1_2_CONFIG_PARAM_T privacyConfigParams;
 449:Generated_Source\PSoC4/BLE.c ****             CYBLE_STACK_CONFIG_PARAM_T stackConfig;
 450:Generated_Source\PSoC4/BLE.c ****             uint16 featureHeapReq;
 451:Generated_Source\PSoC4/BLE.c ****             
ARM GAS  C:\Users\TTSS\AppData\Local\Temp\ccKqB1vQ.s 			page 14


 452:Generated_Source\PSoC4/BLE.c ****             stackConfig.privacyConfig = &privacyConfigParams;
 283              		.loc 1 452 0
 284 004a 1023     		movs	r3, #16
 285 004c FB18     		adds	r3, r7, r3
 286 004e 1C22     		movs	r2, #28
 287 0050 BA18     		adds	r2, r7, r2
 288 0052 5A60     		str	r2, [r3, #4]
 453:Generated_Source\PSoC4/BLE.c ****             stackConfig.dleConfig = &dleConfigParams;
 289              		.loc 1 453 0
 290 0054 1023     		movs	r3, #16
 291 0056 FB18     		adds	r3, r7, r3
 292 0058 2022     		movs	r2, #32
 293 005a BA18     		adds	r2, r7, r2
 294 005c 1A60     		str	r2, [r3]
 454:Generated_Source\PSoC4/BLE.c ****             
 455:Generated_Source\PSoC4/BLE.c ****             /* Configure default BLE 4.1 features and enabled 4.2 features */
 456:Generated_Source\PSoC4/BLE.c ****             stackConfig.feature_mask = CYBLE_DLE_FEATURE | CYBLE_LL_PRIVACY_FEATURE | 
 295              		.loc 1 456 0
 296 005e 1023     		movs	r3, #16
 297 0060 FB18     		adds	r3, r7, r3
 298 0062 0022     		movs	r2, #0
 299 0064 1A81     		strh	r2, [r3, #8]
 457:Generated_Source\PSoC4/BLE.c ****                                        CYBLE_SECURE_CONN_FEATURE;
 458:Generated_Source\PSoC4/BLE.c **** 
 459:Generated_Source\PSoC4/BLE.c ****             /* Configure DLE */
 460:Generated_Source\PSoC4/BLE.c ****             dleConfigParams.dleMaxTxCapability = CYBLE_LL_MAX_TX_PAYLOAD_SIZE;
 300              		.loc 1 460 0
 301 0066 2023     		movs	r3, #32
 302 0068 FB18     		adds	r3, r7, r3
 303 006a 1B22     		movs	r2, #27
 304 006c 1A80     		strh	r2, [r3]
 461:Generated_Source\PSoC4/BLE.c ****             dleConfigParams.dleMaxRxCapability = CYBLE_LL_MAX_RX_PAYLOAD_SIZE;
 305              		.loc 1 461 0
 306 006e 2023     		movs	r3, #32
 307 0070 FB18     		adds	r3, r7, r3
 308 0072 1B22     		movs	r2, #27
 309 0074 5A80     		strh	r2, [r3, #2]
 462:Generated_Source\PSoC4/BLE.c ****             dleConfigParams.dleNumTxBuffer = CYBLE_LL_DEFAULT_NUM_ACL_TX_PACKETS;
 310              		.loc 1 462 0
 311 0076 2023     		movs	r3, #32
 312 0078 FB18     		adds	r3, r7, r3
 313 007a 0422     		movs	r2, #4
 314 007c 1A71     		strb	r2, [r3, #4]
 463:Generated_Source\PSoC4/BLE.c ****         #if(CYBLE_DLE_FEATURE_ENABLED)
 464:Generated_Source\PSoC4/BLE.c ****             CyBle_EnableDleFeature();              /* Enable DLE code in stack */
 465:Generated_Source\PSoC4/BLE.c ****         #endif /* CYBLE_DLE_FEATURE_ENABLED */
 466:Generated_Source\PSoC4/BLE.c ****         
 467:Generated_Source\PSoC4/BLE.c ****             /* Configure LL Privacy */
 468:Generated_Source\PSoC4/BLE.c ****             privacyConfigParams.resolvingListSize = CYBLE_MAX_RESOLVABLE_DEVICES;
 315              		.loc 1 468 0
 316 007e 1C23     		movs	r3, #28
 317 0080 FB18     		adds	r3, r7, r3
 318 0082 0022     		movs	r2, #0
 319 0084 1A70     		strb	r2, [r3]
 469:Generated_Source\PSoC4/BLE.c ****         #if(CYBLE_LL_PRIVACY_FEATURE_ENABLED)
 470:Generated_Source\PSoC4/BLE.c ****             CyBle_EnablePrivacyFeature();          /* Enable LL Privacy code in stack */
 471:Generated_Source\PSoC4/BLE.c ****         #endif /* CYBLE_LL_PRIVACY_FEATURE_ENABLED */
ARM GAS  C:\Users\TTSS\AppData\Local\Temp\ccKqB1vQ.s 			page 15


 472:Generated_Source\PSoC4/BLE.c **** 
 473:Generated_Source\PSoC4/BLE.c ****             apiResult = CyBle_StackSetFeatureConfig(&stackConfig, &featureHeapReq);
 320              		.loc 1 473 0
 321 0086 3E23     		movs	r3, #62
 322 0088 FC18     		adds	r4, r7, r3
 323 008a 0E23     		movs	r3, #14
 324 008c FA18     		adds	r2, r7, r3
 325 008e 1023     		movs	r3, #16
 326 0090 FB18     		adds	r3, r7, r3
 327 0092 1100     		movs	r1, r2
 328 0094 1800     		movs	r0, r3
 329 0096 FFF7FEFF 		bl	CyBle_StackSetFeatureConfig
 330 009a 0300     		movs	r3, r0
 331 009c 2380     		strh	r3, [r4]
 332              	.L8:
 333              	.LBE2:
 474:Generated_Source\PSoC4/BLE.c ****             }
 475:Generated_Source\PSoC4/BLE.c ****     
 476:Generated_Source\PSoC4/BLE.c ****         if(apiResult == CYBLE_ERROR_OK)
 334              		.loc 1 476 0
 335 009e 3E23     		movs	r3, #62
 336 00a0 FB18     		adds	r3, r7, r3
 337 00a2 1B88     		ldrh	r3, [r3]
 338 00a4 002B     		cmp	r3, #0
 339 00a6 29D1     		bne	.L10
 477:Generated_Source\PSoC4/BLE.c ****         {
 478:Generated_Source\PSoC4/BLE.c ****         
 479:Generated_Source\PSoC4/BLE.c ****         #if(CYBLE_MODE_PROFILE)
 480:Generated_Source\PSoC4/BLE.c ****             #if(CYBLE_BONDING_REQUIREMENT == CYBLE_BONDING_YES)
 481:Generated_Source\PSoC4/BLE.c ****                 apiResult = CyBle_StackInit(&CyBle_EventHandler, cyBle_stackMemoryRam, 
 340              		.loc 1 481 0
 341 00a8 3E23     		movs	r3, #62
 342 00aa FC18     		adds	r4, r7, r3
 343 00ac 2823     		movs	r3, #40
 344 00ae FD18     		adds	r5, r7, r3
 345 00b0 AE23     		movs	r3, #174
 346 00b2 1A01     		lsls	r2, r3, #4
 347 00b4 1849     		ldr	r1, .L12+12
 348 00b6 1948     		ldr	r0, .L12+16
 349 00b8 194B     		ldr	r3, .L12+20
 350 00ba 0293     		str	r3, [sp, #8]
 351 00bc 194B     		ldr	r3, .L12+24
 352 00be 0193     		str	r3, [sp, #4]
 353 00c0 0523     		movs	r3, #5
 354 00c2 0093     		str	r3, [sp]
 355 00c4 2B00     		movs	r3, r5
 356 00c6 FFF7FEFF 		bl	CyBle_StackInit
 357 00ca 0300     		movs	r3, r0
 358 00cc 2380     		strh	r3, [r4]
 482:Generated_Source\PSoC4/BLE.c ****                     CYBLE_STACK_RAM_SIZE - CYBLE_GATT_PREPARE_WRITE_BUFF_LEN, cyBle_stackDataBuff, 
 483:Generated_Source\PSoC4/BLE.c ****                     CYBLE_STACK_APP_MIN_POOL, cyBle_flashStorage.stackFlashptr, CYBLE_STACK_FLASH_S
 484:Generated_Source\PSoC4/BLE.c ****             #else
 485:Generated_Source\PSoC4/BLE.c ****                 apiResult = CyBle_StackInit(&CyBle_EventHandler, cyBle_stackMemoryRam, 
 486:Generated_Source\PSoC4/BLE.c ****                     CYBLE_STACK_RAM_SIZE - CYBLE_GATT_PREPARE_WRITE_BUFF_LEN, cyBle_stackDataBuff, 
 487:Generated_Source\PSoC4/BLE.c ****                     CYBLE_STACK_APP_MIN_POOL, NULL, 0u);
 488:Generated_Source\PSoC4/BLE.c ****             #endif  /* CYBLE_BONDING_REQUIREMENT == CYBLE_BONDING_YES */
 489:Generated_Source\PSoC4/BLE.c ****         #else /* HCI mode */
ARM GAS  C:\Users\TTSS\AppData\Local\Temp\ccKqB1vQ.s 			page 16


 490:Generated_Source\PSoC4/BLE.c ****             /* The following will perform preparation to use HCI over UART or over
 491:Generated_Source\PSoC4/BLE.c ****                software. But the following fucntions will not initialize the HCI
 492:Generated_Source\PSoC4/BLE.c ****                Transport. This will be done as part of Stack initialization, so
 493:Generated_Source\PSoC4/BLE.c ****                the functions should be called prior CyBle_StackInit().
 494:Generated_Source\PSoC4/BLE.c ****             */
 495:Generated_Source\PSoC4/BLE.c ****             #if (CYBLE_HCI_TYPE == CYBLE_HCI_OVER_UART)
 496:Generated_Source\PSoC4/BLE.c ****                 CyBle_HciUartTransportEnable();
 497:Generated_Source\PSoC4/BLE.c ****             #else
 498:Generated_Source\PSoC4/BLE.c ****                 CyBle_HciSoftTransportEnable();
 499:Generated_Source\PSoC4/BLE.c ****             #endif /* (CYBLE_HCI_TYPE == CYBLE_HCI_OVER_UART) */
 500:Generated_Source\PSoC4/BLE.c ****             /* This will initialize BLE stack for HCI mode operation */
 501:Generated_Source\PSoC4/BLE.c ****             apiResult = CyBle_StackInit(&CyBle_EventHandler, cyBle_stackMemoryRam, CYBLE_STACK_RAM_
 502:Generated_Source\PSoC4/BLE.c ****                 NULL, 0u, NULL, 0u);
 503:Generated_Source\PSoC4/BLE.c ****         #endif /* CYBLE_MODE_PROFILE */
 504:Generated_Source\PSoC4/BLE.c **** 
 505:Generated_Source\PSoC4/BLE.c ****             if(apiResult == CYBLE_ERROR_OK)
 359              		.loc 1 505 0
 360 00ce 3E23     		movs	r3, #62
 361 00d0 FB18     		adds	r3, r7, r3
 362 00d2 1B88     		ldrh	r3, [r3]
 363 00d4 002B     		cmp	r3, #0
 364 00d6 11D1     		bne	.L10
 506:Generated_Source\PSoC4/BLE.c ****             {
 507:Generated_Source\PSoC4/BLE.c ****                 CyBle_SetState(CYBLE_STATE_INITIALIZING);
 365              		.loc 1 507 0
 366 00d8 134B     		ldr	r3, .L12+28
 367 00da 0122     		movs	r2, #1
 368 00dc 1A70     		strb	r2, [r3]
 508:Generated_Source\PSoC4/BLE.c ****                 
 509:Generated_Source\PSoC4/BLE.c ****             #if (CYBLE_GATT_ROLE_CLIENT)
 510:Generated_Source\PSoC4/BLE.c ****                 CyBle_SetClientState(CYBLE_CLIENT_STATE_DISCONNECTED);
 511:Generated_Source\PSoC4/BLE.c ****             #endif /* CYBLE_GATT_ROLE_CLIENT */
 512:Generated_Source\PSoC4/BLE.c ****                 
 513:Generated_Source\PSoC4/BLE.c ****             #if(CYBLE_GATT_ROLE_SERVER)
 514:Generated_Source\PSoC4/BLE.c ****                 apiResult = CyBle_GattsDbRegister(cyBle_gattDB, CYBLE_GATT_DB_INDEX_COUNT, CYBLE_GA
 369              		.loc 1 514 0
 370 00de 3E23     		movs	r3, #62
 371 00e0 FC18     		adds	r4, r7, r3
 372 00e2 124B     		ldr	r3, .L12+32
 373 00e4 0A22     		movs	r2, #10
 374 00e6 0D21     		movs	r1, #13
 375 00e8 1800     		movs	r0, r3
 376 00ea FFF7FEFF 		bl	CyBle_GattsDbRegister
 377 00ee 0300     		movs	r3, r0
 378 00f0 2380     		strh	r3, [r4]
 379 00f2 03E0     		b	.L10
 380              	.L7:
 515:Generated_Source\PSoC4/BLE.c ****             #endif /* CYBLE_GATT_ROLE_SERVER */
 516:Generated_Source\PSoC4/BLE.c ****             }
 517:Generated_Source\PSoC4/BLE.c ****         }
 518:Generated_Source\PSoC4/BLE.c ****     }
 519:Generated_Source\PSoC4/BLE.c ****     else
 520:Generated_Source\PSoC4/BLE.c ****     {
 521:Generated_Source\PSoC4/BLE.c ****         apiResult = CYBLE_ERROR_INVALID_PARAMETER;
 381              		.loc 1 521 0
 382 00f4 3E23     		movs	r3, #62
 383 00f6 FB18     		adds	r3, r7, r3
ARM GAS  C:\Users\TTSS\AppData\Local\Temp\ccKqB1vQ.s 			page 17


 384 00f8 0122     		movs	r2, #1
 385 00fa 1A80     		strh	r2, [r3]
 386              	.L10:
 522:Generated_Source\PSoC4/BLE.c ****     }
 523:Generated_Source\PSoC4/BLE.c **** 
 524:Generated_Source\PSoC4/BLE.c ****     return (apiResult);
 387              		.loc 1 524 0
 388 00fc 3E23     		movs	r3, #62
 389 00fe FB18     		adds	r3, r7, r3
 390 0100 1B88     		ldrh	r3, [r3]
 525:Generated_Source\PSoC4/BLE.c **** }
 391              		.loc 1 525 0
 392 0102 1800     		movs	r0, r3
 393 0104 BD46     		mov	sp, r7
 394 0106 10B0     		add	sp, sp, #64
 395              		@ sp needed
 396 0108 B0BD     		pop	{r4, r5, r7, pc}
 397              	.L13:
 398 010a C046     		.align	2
 399              	.L12:
 400 010c 00000000 		.word	.LC0
 401 0110 00000000 		.word	cyBle_initVar
 402 0114 00000000 		.word	CyBle_ApplCallback
 403 0118 00000000 		.word	cyBle_stackMemoryRam
 404 011c 00000000 		.word	CyBle_EventHandler
 405 0120 79020000 		.word	633
 406 0124 00000000 		.word	cyBle_flashStorage
 407 0128 00000000 		.word	cyBle_state
 408 012c 00000000 		.word	cyBle_gattDB
 409              		.cfi_endproc
 410              	.LFE4:
 411              		.size	CyBle_Start, .-CyBle_Start
 412              		.section	.text.CyBle_Stop,"ax",%progbits
 413              		.align	2
 414              		.global	CyBle_Stop
 415              		.code	16
 416              		.thumb_func
 417              		.type	CyBle_Stop, %function
 418              	CyBle_Stop:
 419              	.LFB5:
 526:Generated_Source\PSoC4/BLE.c **** 
 527:Generated_Source\PSoC4/BLE.c **** 
 528:Generated_Source\PSoC4/BLE.c **** /******************************************************************************
 529:Generated_Source\PSoC4/BLE.c **** * Function Name: CyBle_Stop
 530:Generated_Source\PSoC4/BLE.c **** ***************************************************************************//**
 531:Generated_Source\PSoC4/BLE.c **** * 
 532:Generated_Source\PSoC4/BLE.c **** *  This function stops any ongoing operation in the BLE Stack and forces the 
 533:Generated_Source\PSoC4/BLE.c **** *  BLE Stack to shut down. The only function that can be called after calling
 534:Generated_Source\PSoC4/BLE.c **** *  this function is CyBle_Start(). 
 535:Generated_Source\PSoC4/BLE.c **** * 
 536:Generated_Source\PSoC4/BLE.c **** * \return
 537:Generated_Source\PSoC4/BLE.c **** *  None
 538:Generated_Source\PSoC4/BLE.c **** * 
 539:Generated_Source\PSoC4/BLE.c **** ******************************************************************************/
 540:Generated_Source\PSoC4/BLE.c **** void CyBle_Stop(void)
 541:Generated_Source\PSoC4/BLE.c **** {
 420              		.loc 1 541 0
ARM GAS  C:\Users\TTSS\AppData\Local\Temp\ccKqB1vQ.s 			page 18


 421              		.cfi_startproc
 422              		@ args = 0, pretend = 0, frame = 0
 423              		@ frame_needed = 1, uses_anonymous_args = 0
 424 0000 80B5     		push	{r7, lr}
 425              		.cfi_def_cfa_offset 8
 426              		.cfi_offset 7, -8
 427              		.cfi_offset 14, -4
 428 0002 00AF     		add	r7, sp, #0
 429              		.cfi_def_cfa_register 7
 542:Generated_Source\PSoC4/BLE.c ****     CyBle_Shutdown();                         /* Stop all ongoing activities */
 430              		.loc 1 542 0
 431 0004 FFF7FEFF 		bl	CyBle_Shutdown
 543:Generated_Source\PSoC4/BLE.c ****     CyBle_SetState(CYBLE_STATE_STOPPED);
 432              		.loc 1 543 0
 433 0008 024B     		ldr	r3, .L15
 434 000a 0022     		movs	r2, #0
 435 000c 1A70     		strb	r2, [r3]
 544:Generated_Source\PSoC4/BLE.c ****     #if(CYBLE_SHARING_MODE_EXPORT)
 545:Generated_Source\PSoC4/BLE.c ****         if(cyBle_stackMemoryRam != NULL)
 546:Generated_Source\PSoC4/BLE.c ****         {
 547:Generated_Source\PSoC4/BLE.c ****             free(cyBle_stackMemoryRam);
 548:Generated_Source\PSoC4/BLE.c ****         }
 549:Generated_Source\PSoC4/BLE.c ****     #endif /* CYBLE_SHARING_MODE_EXPORT */
 550:Generated_Source\PSoC4/BLE.c **** }
 436              		.loc 1 550 0
 437 000e C046     		nop
 438 0010 BD46     		mov	sp, r7
 439              		@ sp needed
 440 0012 80BD     		pop	{r7, pc}
 441              	.L16:
 442              		.align	2
 443              	.L15:
 444 0014 00000000 		.word	cyBle_state
 445              		.cfi_endproc
 446              	.LFE5:
 447              		.size	CyBle_Stop, .-CyBle_Stop
 448              		.section	.text.CyBle_GappStartAdvertisement,"ax",%progbits
 449              		.align	2
 450              		.global	CyBle_GappStartAdvertisement
 451              		.code	16
 452              		.thumb_func
 453              		.type	CyBle_GappStartAdvertisement, %function
 454              	CyBle_GappStartAdvertisement:
 455              	.LFB6:
 551:Generated_Source\PSoC4/BLE.c **** 
 552:Generated_Source\PSoC4/BLE.c **** 
 553:Generated_Source\PSoC4/BLE.c **** #if((CYBLE_GAP_ROLE_PERIPHERAL || CYBLE_GAP_ROLE_CENTRAL) && (CYBLE_BONDING_REQUIREMENT == CYBLE_BO
 554:Generated_Source\PSoC4/BLE.c **** 
 555:Generated_Source\PSoC4/BLE.c ****     
 556:Generated_Source\PSoC4/BLE.c **** /******************************************************************************
 557:Generated_Source\PSoC4/BLE.c **** * Function Name: CyBle_StoreBondingData
 558:Generated_Source\PSoC4/BLE.c **** ***************************************************************************//**
 559:Generated_Source\PSoC4/BLE.c **** * 
 560:Generated_Source\PSoC4/BLE.c **** *  This function writes the new bonding data from RAM to the dedicated Flash 
 561:Generated_Source\PSoC4/BLE.c **** *  location as defined by the component. It performs data comparing between RAM
 562:Generated_Source\PSoC4/BLE.c **** *  and Flash before writing to Flash. If there is no change between RAM and Flash
 563:Generated_Source\PSoC4/BLE.c **** *  data, then no write is performed. It writes only one flash row in one call.
ARM GAS  C:\Users\TTSS\AppData\Local\Temp\ccKqB1vQ.s 			page 19


 564:Generated_Source\PSoC4/BLE.c **** *  Application should keep calling this function till it return CYBLE_ERROR_OK. 
 565:Generated_Source\PSoC4/BLE.c **** *  This function is available only when Bonding requirement is selected in
 566:Generated_Source\PSoC4/BLE.c **** *  Security settings.    
 567:Generated_Source\PSoC4/BLE.c **** * 
 568:Generated_Source\PSoC4/BLE.c **** *  \param isForceWrite:  If value is set to 0, then stack will check if flash write 
 569:Generated_Source\PSoC4/BLE.c **** *                 is permissible. 
 570:Generated_Source\PSoC4/BLE.c **** *  
 571:Generated_Source\PSoC4/BLE.c **** * \return
 572:Generated_Source\PSoC4/BLE.c **** *  Return value is of type CYBLE_API_RESULT_T.
 573:Generated_Source\PSoC4/BLE.c **** *
 574:Generated_Source\PSoC4/BLE.c **** *   Errors codes                         | Description
 575:Generated_Source\PSoC4/BLE.c **** *   ----------------------------------   | ------------------------------------
 576:Generated_Source\PSoC4/BLE.c **** *   CYBLE_ERROR_OK                       | On successful operation
 577:Generated_Source\PSoC4/BLE.c **** *   CYBLE_ERROR_FLASH_WRITE_NOT_PERMITED | Flash Write is not complete
 578:Generated_Source\PSoC4/BLE.c **** *   CYBLE_ERROR_INVALID_PARAMETER        | Invalid input parameter  
 579:Generated_Source\PSoC4/BLE.c **** *   CYBLE_ERROR_FLASH_WRITE              | Error in flash Write	
 580:Generated_Source\PSoC4/BLE.c ****     
 581:Generated_Source\PSoC4/BLE.c **** *  \sideeffect
 582:Generated_Source\PSoC4/BLE.c **** *   For BLE devices with 128K of Flash memory this function will automatically 
 583:Generated_Source\PSoC4/BLE.c **** *   modify the clock settings for the device.
 584:Generated_Source\PSoC4/BLE.c **** *   Writing to flash requires changes to be done to the IMO (set to 48 MHz)
 585:Generated_Source\PSoC4/BLE.c **** *   and HFCLK (source set to IMO) settings. The configuration is restored before
 586:Generated_Source\PSoC4/BLE.c **** *   returning. This will impact the operation of most of the hardware in the
 587:Generated_Source\PSoC4/BLE.c **** *   device.
 588:Generated_Source\PSoC4/BLE.c **** * 
 589:Generated_Source\PSoC4/BLE.c **** *  \globalvars
 590:Generated_Source\PSoC4/BLE.c **** *   The cyBle_pendingFlashWrite variable is used to detect status
 591:Generated_Source\PSoC4/BLE.c **** *   of pending write to flash operation for stack data and CCCD.
 592:Generated_Source\PSoC4/BLE.c **** *   This function automatically clears pending bits after write operation 
 593:Generated_Source\PSoC4/BLE.c **** *   complete.
 594:Generated_Source\PSoC4/BLE.c **** *     
 595:Generated_Source\PSoC4/BLE.c **** ******************************************************************************/
 596:Generated_Source\PSoC4/BLE.c **** CYBLE_API_RESULT_T CyBle_StoreBondingData(uint8 isForceWrite)
 597:Generated_Source\PSoC4/BLE.c **** {
 598:Generated_Source\PSoC4/BLE.c ****     CYBLE_API_RESULT_T apiResult = CYBLE_ERROR_OK;
 599:Generated_Source\PSoC4/BLE.c ****     
 600:Generated_Source\PSoC4/BLE.c ****     /* Store Stack data */
 601:Generated_Source\PSoC4/BLE.c ****     if((cyBle_pendingFlashWrite & CYBLE_PENDING_STACK_FLASH_WRITE_BIT) != 0u)
 602:Generated_Source\PSoC4/BLE.c ****     {
 603:Generated_Source\PSoC4/BLE.c ****         apiResult = CyBle_StoreStackData(isForceWrite);
 604:Generated_Source\PSoC4/BLE.c ****         if(apiResult == CYBLE_ERROR_OK)
 605:Generated_Source\PSoC4/BLE.c ****         {
 606:Generated_Source\PSoC4/BLE.c ****             cyBle_pendingFlashWrite &= (uint8)~CYBLE_PENDING_STACK_FLASH_WRITE_BIT;
 607:Generated_Source\PSoC4/BLE.c ****             /* Change apiResult if there are more pending data to store */
 608:Generated_Source\PSoC4/BLE.c ****             if((cyBle_pendingFlashWrite & CYBLE_PENDING_CCCD_FLASH_WRITE_BIT) != 0u)
 609:Generated_Source\PSoC4/BLE.c ****             {
 610:Generated_Source\PSoC4/BLE.c ****                 apiResult = CYBLE_ERROR_FLASH_WRITE_NOT_PERMITED;
 611:Generated_Source\PSoC4/BLE.c ****             }
 612:Generated_Source\PSoC4/BLE.c ****         }
 613:Generated_Source\PSoC4/BLE.c ****     }
 614:Generated_Source\PSoC4/BLE.c **** #if(CYBLE_GATT_DB_CCCD_COUNT != 0u)
 615:Generated_Source\PSoC4/BLE.c ****     /* Store CCCD values */
 616:Generated_Source\PSoC4/BLE.c ****     if( ((apiResult == CYBLE_ERROR_OK) || (isForceWrite != 0u)) && 
 617:Generated_Source\PSoC4/BLE.c ****         ((cyBle_pendingFlashWrite & CYBLE_PENDING_CCCD_FLASH_WRITE_BIT) != 0u) &&
 618:Generated_Source\PSoC4/BLE.c ****         (cyBle_connHandle.bdHandle <= CYBLE_GAP_MAX_BONDED_DEVICE))
 619:Generated_Source\PSoC4/BLE.c ****     {
 620:Generated_Source\PSoC4/BLE.c ****         apiResult = CyBle_StoreAppData(cyBle_attValuesCCCD, cyBle_flashStorage.attValuesCCCDFlashMe
ARM GAS  C:\Users\TTSS\AppData\Local\Temp\ccKqB1vQ.s 			page 20


 621:Generated_Source\PSoC4/BLE.c ****                         cyBle_connHandle.bdHandle], CYBLE_GATT_DB_CCCD_COUNT, isForceWrite);
 622:Generated_Source\PSoC4/BLE.c ****         if(apiResult == CYBLE_ERROR_OK)
 623:Generated_Source\PSoC4/BLE.c ****         {
 624:Generated_Source\PSoC4/BLE.c ****             cyBle_pendingFlashWrite &= (uint8)~CYBLE_PENDING_CCCD_FLASH_WRITE_BIT;
 625:Generated_Source\PSoC4/BLE.c ****         }
 626:Generated_Source\PSoC4/BLE.c ****     }
 627:Generated_Source\PSoC4/BLE.c ****     /* Clear requested CCCD values */
 628:Generated_Source\PSoC4/BLE.c ****     if( ((apiResult == CYBLE_ERROR_OK) || (isForceWrite != 0u)) && 
 629:Generated_Source\PSoC4/BLE.c ****         ((cyBle_pendingFlashWrite & CYBLE_PENDING_CCCD_FLASH_CLEAR_MASK) != 0u) )
 630:Generated_Source\PSoC4/BLE.c ****     {
 631:Generated_Source\PSoC4/BLE.c ****         if((cyBle_pendingFlashWrite & CYBLE_PENDING_CCCD_FLASH_CLEAR_ALL_BIT) != 0u)
 632:Generated_Source\PSoC4/BLE.c ****         {
 633:Generated_Source\PSoC4/BLE.c ****             /* Remove cccd values for all bonded devices */
 634:Generated_Source\PSoC4/BLE.c ****             uint8 defaultValuesCCCD[CYBLE_GAP_MAX_BONDED_DEVICE + 1u][CYBLE_GATT_DB_CCCD_COUNT];
 635:Generated_Source\PSoC4/BLE.c ****             
 636:Generated_Source\PSoC4/BLE.c ****             (void)memset(defaultValuesCCCD, 0, sizeof(defaultValuesCCCD));
 637:Generated_Source\PSoC4/BLE.c **** 
 638:Generated_Source\PSoC4/BLE.c ****             apiResult = CyBle_StoreAppData((uint8 *)defaultValuesCCCD, 
 639:Generated_Source\PSoC4/BLE.c ****                 (const uint8 *)cyBle_flashStorage.attValuesCCCDFlashMemory, sizeof(defaultValuesCCC
 640:Generated_Source\PSoC4/BLE.c ****             if(apiResult == CYBLE_ERROR_OK)
 641:Generated_Source\PSoC4/BLE.c ****             {
 642:Generated_Source\PSoC4/BLE.c ****                 cyBle_pendingFlashWrite &= (uint8)~CYBLE_PENDING_CCCD_FLASH_CLEAR_ALL_BIT;
 643:Generated_Source\PSoC4/BLE.c ****             }
 644:Generated_Source\PSoC4/BLE.c ****         }
 645:Generated_Source\PSoC4/BLE.c ****         else /* Remove cccd values for particular device */
 646:Generated_Source\PSoC4/BLE.c ****         {
 647:Generated_Source\PSoC4/BLE.c ****             uint8 defaultValuesCCCD[CYBLE_GATT_DB_CCCD_COUNT] = {0u};
 648:Generated_Source\PSoC4/BLE.c ****             
 649:Generated_Source\PSoC4/BLE.c ****             apiResult = CyBle_StoreAppData(defaultValuesCCCD, cyBle_flashStorage.attValuesCCCDFlash
 650:Generated_Source\PSoC4/BLE.c ****                                     cyBle_pendingFlashClearCccdHandle], CYBLE_GATT_DB_CCCD_COUNT, i
 651:Generated_Source\PSoC4/BLE.c ****             if(apiResult == CYBLE_ERROR_OK)
 652:Generated_Source\PSoC4/BLE.c ****             {
 653:Generated_Source\PSoC4/BLE.c ****                 cyBle_pendingFlashWrite &= (uint8)~CYBLE_PENDING_CCCD_FLASH_CLEAR_BIT;
 654:Generated_Source\PSoC4/BLE.c ****             }
 655:Generated_Source\PSoC4/BLE.c ****         }
 656:Generated_Source\PSoC4/BLE.c ****     }
 657:Generated_Source\PSoC4/BLE.c **** #endif /* CYBLE_GATT_DB_CCCD_COUNT != 0u */
 658:Generated_Source\PSoC4/BLE.c ****     return(apiResult);
 659:Generated_Source\PSoC4/BLE.c **** }
 660:Generated_Source\PSoC4/BLE.c **** 
 661:Generated_Source\PSoC4/BLE.c **** 
 662:Generated_Source\PSoC4/BLE.c **** /******************************************************************************
 663:Generated_Source\PSoC4/BLE.c **** * Function Name: CyBle_GapRemoveBondedDevice
 664:Generated_Source\PSoC4/BLE.c **** ***************************************************************************//**
 665:Generated_Source\PSoC4/BLE.c **** * 
 666:Generated_Source\PSoC4/BLE.c **** *  This function marks the device untrusted. It removes the bonding information
 667:Generated_Source\PSoC4/BLE.c **** *  of the device including CCCD values. This function removes device from the
 668:Generated_Source\PSoC4/BLE.c **** *  white list also when autopopulate white list with bonded devices option is
 669:Generated_Source\PSoC4/BLE.c **** *  enabled.
 670:Generated_Source\PSoC4/BLE.c **** * 
 671:Generated_Source\PSoC4/BLE.c **** *  This function is available only when Bonding requirement is selected in
 672:Generated_Source\PSoC4/BLE.c **** *  Security settings.    
 673:Generated_Source\PSoC4/BLE.c **** *
 674:Generated_Source\PSoC4/BLE.c **** *  \param bdAddr: Pointer to peer device address, of type CYBLE_GAP_BD_ADDR_T.
 675:Generated_Source\PSoC4/BLE.c **** *                 If device address is set to 0, then all devices shall be
 676:Generated_Source\PSoC4/BLE.c **** *                 removed from trusted list and white list.
 677:Generated_Source\PSoC4/BLE.c **** *
ARM GAS  C:\Users\TTSS\AppData\Local\Temp\ccKqB1vQ.s 			page 21


 678:Generated_Source\PSoC4/BLE.c **** * \return
 679:Generated_Source\PSoC4/BLE.c **** *  CYBLE_API_RESULT_T : Return value indicates if the function succeeded or
 680:Generated_Source\PSoC4/BLE.c **** *  failed. Following are the possible error codes.
 681:Generated_Source\PSoC4/BLE.c **** *
 682:Generated_Source\PSoC4/BLE.c **** *   Errors codes                     | Description
 683:Generated_Source\PSoC4/BLE.c **** *   ---------------------------------| ------------------------------------
 684:Generated_Source\PSoC4/BLE.c **** *   CYBLE_ERROR_OK                   | On successful operation.
 685:Generated_Source\PSoC4/BLE.c **** *   CYBLE_ERROR_INVALID_PARAMETER    | On specifying NULL as input parameter for 'bdAddr'.
 686:Generated_Source\PSoC4/BLE.c **** *   CYBLE_ERROR_INVALID_OPERATION    | Whitelist is already in use or there is pending write to fla
 687:Generated_Source\PSoC4/BLE.c **** *   CYBLE_ERROR_NO_DEVICE_ENTITY     | Device does not exist in the bond list.
 688:Generated_Source\PSoC4/BLE.c **** *
 689:Generated_Source\PSoC4/BLE.c **** *  \globalvars
 690:Generated_Source\PSoC4/BLE.c **** *   The bdHandle is set in cyBle_pendingFlashWrite variable to indicate that
 691:Generated_Source\PSoC4/BLE.c **** *   data should be stored to flash by CyBle_StoreBondingData() afterwards. 
 692:Generated_Source\PSoC4/BLE.c **** *     
 693:Generated_Source\PSoC4/BLE.c **** ******************************************************************************/
 694:Generated_Source\PSoC4/BLE.c **** CYBLE_API_RESULT_T CyBle_GapRemoveBondedDevice(CYBLE_GAP_BD_ADDR_T* bdAddr)
 695:Generated_Source\PSoC4/BLE.c **** {
 696:Generated_Source\PSoC4/BLE.c ****     CYBLE_API_RESULT_T apiResult = CYBLE_ERROR_OK;
 697:Generated_Source\PSoC4/BLE.c ****     
 698:Generated_Source\PSoC4/BLE.c ****     if(cyBle_pendingFlashWrite == 0u)
 699:Generated_Source\PSoC4/BLE.c ****     {
 700:Generated_Source\PSoC4/BLE.c ****         
 701:Generated_Source\PSoC4/BLE.c ****     #if(CYBLE_GATT_DB_CCCD_COUNT != 0u)
 702:Generated_Source\PSoC4/BLE.c ****         /* Request to clear CCCD values which will be done by CyBle_StoreBondingData() */
 703:Generated_Source\PSoC4/BLE.c ****         uint8 bDevHandle;
 704:Generated_Source\PSoC4/BLE.c ****         CYBLE_GAP_BD_ADDR_T invalidBdAddr = {{0u,0u,0u,0u,0u,0u}, 0u};
 705:Generated_Source\PSoC4/BLE.c **** 
 706:Generated_Source\PSoC4/BLE.c ****         if(memcmp(((uint8 *) &(bdAddr->bdAddr)), ((uint8 *) &(invalidBdAddr.bdAddr)), CYBLE_GAP_BD_
 707:Generated_Source\PSoC4/BLE.c **** 	    {
 708:Generated_Source\PSoC4/BLE.c ****             /* Request to remove all bonded devices by CyBle_StoreBondingData() */
 709:Generated_Source\PSoC4/BLE.c ****             cyBle_pendingFlashWrite |= CYBLE_PENDING_CCCD_FLASH_CLEAR_ALL_BIT;
 710:Generated_Source\PSoC4/BLE.c ****         }
 711:Generated_Source\PSoC4/BLE.c ****         else
 712:Generated_Source\PSoC4/BLE.c ****         {
 713:Generated_Source\PSoC4/BLE.c ****             /* Get the BD handle from Address */
 714:Generated_Source\PSoC4/BLE.c ****             apiResult = CyBle_GapGetPeerBdHandle(&bDevHandle, bdAddr);
 715:Generated_Source\PSoC4/BLE.c ****             if(apiResult == CYBLE_ERROR_OK)
 716:Generated_Source\PSoC4/BLE.c ****             {
 717:Generated_Source\PSoC4/BLE.c ****                 /* Store BD handle to clear cccd values by CyBle_StoreBondingData() */
 718:Generated_Source\PSoC4/BLE.c ****                 cyBle_pendingFlashWrite |= CYBLE_PENDING_CCCD_FLASH_CLEAR_BIT;
 719:Generated_Source\PSoC4/BLE.c ****                 cyBle_pendingFlashClearCccdHandle = bDevHandle;
 720:Generated_Source\PSoC4/BLE.c ****             }
 721:Generated_Source\PSoC4/BLE.c ****         }
 722:Generated_Source\PSoC4/BLE.c ****     #endif /* CYBLE_GATT_DB_CCCD_COUNT != 0u */
 723:Generated_Source\PSoC4/BLE.c ****         if(apiResult == CYBLE_ERROR_OK)
 724:Generated_Source\PSoC4/BLE.c ****         {
 725:Generated_Source\PSoC4/BLE.c ****             apiResult = CyBle_GapRemoveDeviceFromWhiteList(bdAddr);
 726:Generated_Source\PSoC4/BLE.c ****         }
 727:Generated_Source\PSoC4/BLE.c ****     }
 728:Generated_Source\PSoC4/BLE.c ****     else
 729:Generated_Source\PSoC4/BLE.c ****     {
 730:Generated_Source\PSoC4/BLE.c ****         apiResult = CYBLE_ERROR_INVALID_OPERATION;
 731:Generated_Source\PSoC4/BLE.c ****     }
 732:Generated_Source\PSoC4/BLE.c ****     
 733:Generated_Source\PSoC4/BLE.c ****     return(apiResult);
 734:Generated_Source\PSoC4/BLE.c **** }
ARM GAS  C:\Users\TTSS\AppData\Local\Temp\ccKqB1vQ.s 			page 22


 735:Generated_Source\PSoC4/BLE.c **** 
 736:Generated_Source\PSoC4/BLE.c **** 
 737:Generated_Source\PSoC4/BLE.c **** #endif /* (CYBLE_GAP_ROLE_PERIPHERAL || CYBLE_GAP_ROLE_CENTRAL) && (CYBLE_BONDING_REQUIREMENT == CY
 738:Generated_Source\PSoC4/BLE.c **** 
 739:Generated_Source\PSoC4/BLE.c **** 
 740:Generated_Source\PSoC4/BLE.c **** #if(CYBLE_GAP_ROLE_PERIPHERAL || CYBLE_GAP_ROLE_BROADCASTER)
 741:Generated_Source\PSoC4/BLE.c **** 
 742:Generated_Source\PSoC4/BLE.c ****     /******************************************************************************
 743:Generated_Source\PSoC4/BLE.c ****     *  Function Name: CyBle_GappStartAdvertisement
 744:Generated_Source\PSoC4/BLE.c ****     ***************************************************************************//**
 745:Generated_Source\PSoC4/BLE.c ****     *     
 746:Generated_Source\PSoC4/BLE.c ****     *  This function is used to start the advertisement using the advertisement data 
 747:Generated_Source\PSoC4/BLE.c ****     *  set in the component customizer's GUI. After invoking this function, the 
 748:Generated_Source\PSoC4/BLE.c ****     *  device will be available for connection by the devices configured for GAP 
 749:Generated_Source\PSoC4/BLE.c ****     *  central role. It is only included if the device is configured for GAP 
 750:Generated_Source\PSoC4/BLE.c ****     *  Peripheral or GAP Peripheral + Central role.
 751:Generated_Source\PSoC4/BLE.c ****     *  
 752:Generated_Source\PSoC4/BLE.c ****     *  On start of advertisement, GAP Peripheral receives the
 753:Generated_Source\PSoC4/BLE.c ****     *  CYBLE_EVT_GAPP_ADVERTISEMENT_START_STOP event. The following events are 
 754:Generated_Source\PSoC4/BLE.c ****     *  possible on invoking this function:
 755:Generated_Source\PSoC4/BLE.c ****     *  
 756:Generated_Source\PSoC4/BLE.c ****     *  * CYBLE_EVT_GAP_DEVICE_CONNECTED - If the device connects to a GAP Central and 
 757:Generated_Source\PSoC4/BLE.c ****     *    Link Layer Privacy is disabled in component customizer.
 758:Generated_Source\PSoC4/BLE.c ****     *  * CYBLE_EVT_GAP_ENHANCE_CONN_COMPLETE - If the device connects to a GAP Central and 
 759:Generated_Source\PSoC4/BLE.c ****     *    Link Layer Privacy is enabled in component customizer.
 760:Generated_Source\PSoC4/BLE.c ****     *  * CYBLE_EVT_TIMEOUT: If no device in GAP Central mode connects to this 
 761:Generated_Source\PSoC4/BLE.c ****     *                       device within the specified timeout limit. Stack 
 762:Generated_Source\PSoC4/BLE.c ****     *                       automatically initiate stop advertising when Slow 
 763:Generated_Source\PSoC4/BLE.c ****     *                       advertising was initiated, or starts Slow advertising
 764:Generated_Source\PSoC4/BLE.c ****     *                       after Fast advertising timeout occur.
 765:Generated_Source\PSoC4/BLE.c ****     *  * CYBLE_EVT_GAPP_ADVERTISEMENT_START_STOP: If device started or stopped
 766:Generated_Source\PSoC4/BLE.c ****     *                                               advertising. Use CyBle_GetState()
 767:Generated_Source\PSoC4/BLE.c ****     *                                               to determine the state. Sequential 
 768:Generated_Source\PSoC4/BLE.c ****     *                                               advertising could be started when
 769:Generated_Source\PSoC4/BLE.c ****     *                                               CYBLE_STATE_DISCONNECTED state is
 770:Generated_Source\PSoC4/BLE.c ****     *                                               returned.
 771:Generated_Source\PSoC4/BLE.c ****     * 
 772:Generated_Source\PSoC4/BLE.c ****     *  \param advertisingIntervalType: Fast or slow advertising interval with timings
 773:Generated_Source\PSoC4/BLE.c ****     *                                 entered in Advertising settings section of the
 774:Generated_Source\PSoC4/BLE.c ****     *                                 customizer.
 775:Generated_Source\PSoC4/BLE.c ****     *  * CYBLE_ADVERTISING_FAST   0x00u
 776:Generated_Source\PSoC4/BLE.c ****     *  * CYBLE_ADVERTISING_SLOW   0x01u
 777:Generated_Source\PSoC4/BLE.c ****     *  * CYBLE_ADVERTISING_CUSTOM 0x02u
 778:Generated_Source\PSoC4/BLE.c ****     * 
 779:Generated_Source\PSoC4/BLE.c ****     * \return
 780:Generated_Source\PSoC4/BLE.c ****     *  CYBLE_API_RESULT_T : Return value indicates if the function succeeded or
 781:Generated_Source\PSoC4/BLE.c ****     *  failed. Following are the possible error codes.
 782:Generated_Source\PSoC4/BLE.c ****     * 
 783:Generated_Source\PSoC4/BLE.c ****     *   Errors codes                      |  Description
 784:Generated_Source\PSoC4/BLE.c ****     *   --------------------------------- |  --------------------------------
 785:Generated_Source\PSoC4/BLE.c ****     *   CYBLE_ERROR_OK                    |  On successful operation.
 786:Generated_Source\PSoC4/BLE.c ****     *   CYBLE_ERROR_INVALID_PARAMETER     |  On passing an invalid parameter.
 787:Generated_Source\PSoC4/BLE.c ****     *   CYBLE_ERROR_INVALID_STATE         |  On calling this function not in Disconnected state.
 788:Generated_Source\PSoC4/BLE.c ****     *
 789:Generated_Source\PSoC4/BLE.c ****     * 
 790:Generated_Source\PSoC4/BLE.c ****     *******************************************************************************/
 791:Generated_Source\PSoC4/BLE.c ****     CYBLE_API_RESULT_T CyBle_GappStartAdvertisement(uint8 advertisingIntervalType)
ARM GAS  C:\Users\TTSS\AppData\Local\Temp\ccKqB1vQ.s 			page 23


 792:Generated_Source\PSoC4/BLE.c ****     {
 456              		.loc 1 792 0
 457              		.cfi_startproc
 458              		@ args = 0, pretend = 0, frame = 16
 459              		@ frame_needed = 1, uses_anonymous_args = 0
 460 0000 90B5     		push	{r4, r7, lr}
 461              		.cfi_def_cfa_offset 12
 462              		.cfi_offset 4, -12
 463              		.cfi_offset 7, -8
 464              		.cfi_offset 14, -4
 465 0002 85B0     		sub	sp, sp, #20
 466              		.cfi_def_cfa_offset 32
 467 0004 00AF     		add	r7, sp, #0
 468              		.cfi_def_cfa_register 7
 469 0006 0200     		movs	r2, r0
 470 0008 FB1D     		adds	r3, r7, #7
 471 000a 1A70     		strb	r2, [r3]
 793:Generated_Source\PSoC4/BLE.c ****         CYBLE_API_RESULT_T apiResult;
 794:Generated_Source\PSoC4/BLE.c ****         
 795:Generated_Source\PSoC4/BLE.c ****         if(advertisingIntervalType > CYBLE_ADVERTISING_CUSTOM)
 472              		.loc 1 795 0
 473 000c FB1D     		adds	r3, r7, #7
 474 000e 1B78     		ldrb	r3, [r3]
 475 0010 022B     		cmp	r3, #2
 476 0012 04D9     		bls	.L18
 796:Generated_Source\PSoC4/BLE.c ****         {
 797:Generated_Source\PSoC4/BLE.c ****             apiResult = CYBLE_ERROR_INVALID_PARAMETER;
 477              		.loc 1 797 0
 478 0014 0E23     		movs	r3, #14
 479 0016 FB18     		adds	r3, r7, r3
 480 0018 0122     		movs	r2, #1
 481 001a 1A80     		strh	r2, [r3]
 482 001c 4CE0     		b	.L19
 483              	.L18:
 798:Generated_Source\PSoC4/BLE.c ****         }
 799:Generated_Source\PSoC4/BLE.c ****         else if((CYBLE_STATE_DISCONNECTED == CyBle_GetState()) && ((cyBle_eventHandlerFlag & CYBLE_
 484              		.loc 1 799 0
 485 001e 2A4B     		ldr	r3, .L25
 486 0020 1B78     		ldrb	r3, [r3]
 487 0022 042B     		cmp	r3, #4
 488 0024 43D1     		bne	.L20
 489              		.loc 1 799 0 is_stmt 0 discriminator 1
 490 0026 294B     		ldr	r3, .L25+4
 491 0028 1B78     		ldrb	r3, [r3]
 492 002a DBB2     		uxtb	r3, r3
 493 002c 1A00     		movs	r2, r3
 494 002e 0423     		movs	r3, #4
 495 0030 1340     		ands	r3, r2
 496 0032 3CD1     		bne	.L20
 800:Generated_Source\PSoC4/BLE.c ****         {   
 801:Generated_Source\PSoC4/BLE.c ****             if(advertisingIntervalType == CYBLE_ADVERTISING_FAST)
 497              		.loc 1 801 0 is_stmt 1
 498 0034 FB1D     		adds	r3, r7, #7
 499 0036 1B78     		ldrb	r3, [r3]
 500 0038 002B     		cmp	r3, #0
 501 003a 0DD1     		bne	.L21
 802:Generated_Source\PSoC4/BLE.c ****             {
ARM GAS  C:\Users\TTSS\AppData\Local\Temp\ccKqB1vQ.s 			page 24


 803:Generated_Source\PSoC4/BLE.c ****                 cyBle_discoveryModeInfo.advTo = CYBLE_FAST_ADV_TIMEOUT;
 502              		.loc 1 803 0
 503 003c 244B     		ldr	r3, .L25+8
 504 003e 0022     		movs	r2, #0
 505 0040 1A82     		strh	r2, [r3, #16]
 804:Generated_Source\PSoC4/BLE.c ****                 cyBle_discoveryModeInfo.advParam->advIntvMin = CYBLE_FAST_ADV_INT_MIN;
 506              		.loc 1 804 0
 507 0042 234B     		ldr	r3, .L25+8
 508 0044 5B68     		ldr	r3, [r3, #4]
 509 0046 C822     		movs	r2, #200
 510 0048 D200     		lsls	r2, r2, #3
 511 004a 1A80     		strh	r2, [r3]
 805:Generated_Source\PSoC4/BLE.c ****                 cyBle_discoveryModeInfo.advParam->advIntvMax = CYBLE_FAST_ADV_INT_MAX;
 512              		.loc 1 805 0
 513 004c 204B     		ldr	r3, .L25+8
 514 004e 5B68     		ldr	r3, [r3, #4]
 515 0050 C822     		movs	r2, #200
 516 0052 D200     		lsls	r2, r2, #3
 517 0054 5A80     		strh	r2, [r3, #2]
 518 0056 10E0     		b	.L22
 519              	.L21:
 806:Generated_Source\PSoC4/BLE.c ****             }
 807:Generated_Source\PSoC4/BLE.c ****             else if(advertisingIntervalType == CYBLE_ADVERTISING_SLOW)
 520              		.loc 1 807 0
 521 0058 FB1D     		adds	r3, r7, #7
 522 005a 1B78     		ldrb	r3, [r3]
 523 005c 012B     		cmp	r3, #1
 524 005e 0CD1     		bne	.L22
 808:Generated_Source\PSoC4/BLE.c ****             {
 809:Generated_Source\PSoC4/BLE.c ****                 cyBle_discoveryModeInfo.advTo = CYBLE_SLOW_ADV_TIMEOUT;
 525              		.loc 1 809 0
 526 0060 1B4B     		ldr	r3, .L25+8
 527 0062 9622     		movs	r2, #150
 528 0064 1A82     		strh	r2, [r3, #16]
 810:Generated_Source\PSoC4/BLE.c ****                 cyBle_discoveryModeInfo.advParam->advIntvMin = CYBLE_SLOW_ADV_INT_MIN;
 529              		.loc 1 810 0
 530 0066 1A4B     		ldr	r3, .L25+8
 531 0068 5B68     		ldr	r3, [r3, #4]
 532 006a C822     		movs	r2, #200
 533 006c D200     		lsls	r2, r2, #3
 534 006e 1A80     		strh	r2, [r3]
 811:Generated_Source\PSoC4/BLE.c ****                 cyBle_discoveryModeInfo.advParam->advIntvMax = CYBLE_SLOW_ADV_INT_MAX;
 535              		.loc 1 811 0
 536 0070 174B     		ldr	r3, .L25+8
 537 0072 5B68     		ldr	r3, [r3, #4]
 538 0074 8022     		movs	r2, #128
 539 0076 D201     		lsls	r2, r2, #7
 540 0078 5A80     		strh	r2, [r3, #2]
 541              	.L22:
 812:Generated_Source\PSoC4/BLE.c ****             }       
 813:Generated_Source\PSoC4/BLE.c ****             else /* Do not update advertising intervals */
 814:Generated_Source\PSoC4/BLE.c ****             {
 815:Generated_Source\PSoC4/BLE.c ****             }
 816:Generated_Source\PSoC4/BLE.c ****             cyBle_advertisingIntervalType = advertisingIntervalType;
 542              		.loc 1 816 0
 543 007a 164B     		ldr	r3, .L25+12
 544 007c FA1D     		adds	r2, r7, #7
ARM GAS  C:\Users\TTSS\AppData\Local\Temp\ccKqB1vQ.s 			page 25


 545 007e 1278     		ldrb	r2, [r2]
 546 0080 1A70     		strb	r2, [r3]
 817:Generated_Source\PSoC4/BLE.c ****             apiResult = CyBle_GappEnterDiscoveryMode(&cyBle_discoveryModeInfo);
 547              		.loc 1 817 0
 548 0082 0E23     		movs	r3, #14
 549 0084 FC18     		adds	r4, r7, r3
 550 0086 124B     		ldr	r3, .L25+8
 551 0088 1800     		movs	r0, r3
 552 008a FFF7FEFF 		bl	CyBle_GappEnterDiscoveryMode
 553 008e 0300     		movs	r3, r0
 554 0090 2380     		strh	r3, [r4]
 818:Generated_Source\PSoC4/BLE.c ****         
 819:Generated_Source\PSoC4/BLE.c ****             if(apiResult == CYBLE_ERROR_OK)
 555              		.loc 1 819 0
 556 0092 0E23     		movs	r3, #14
 557 0094 FB18     		adds	r3, r7, r3
 558 0096 1B88     		ldrh	r3, [r3]
 559 0098 002B     		cmp	r3, #0
 560 009a 0DD1     		bne	.L19
 820:Generated_Source\PSoC4/BLE.c ****             {
 821:Generated_Source\PSoC4/BLE.c ****                 cyBle_eventHandlerFlag |= CYBLE_START_FLAG;
 561              		.loc 1 821 0
 562 009c 0B4B     		ldr	r3, .L25+4
 563 009e 1B78     		ldrb	r3, [r3]
 564 00a0 DBB2     		uxtb	r3, r3
 565 00a2 0422     		movs	r2, #4
 566 00a4 1343     		orrs	r3, r2
 567 00a6 DAB2     		uxtb	r2, r3
 568 00a8 084B     		ldr	r3, .L25+4
 569 00aa 1A70     		strb	r2, [r3]
 819:Generated_Source\PSoC4/BLE.c ****             {
 570              		.loc 1 819 0
 571 00ac 04E0     		b	.L19
 572              	.L20:
 822:Generated_Source\PSoC4/BLE.c ****             }
 823:Generated_Source\PSoC4/BLE.c ****         }
 824:Generated_Source\PSoC4/BLE.c ****         else
 825:Generated_Source\PSoC4/BLE.c ****         {
 826:Generated_Source\PSoC4/BLE.c ****             apiResult = CYBLE_ERROR_INVALID_STATE;
 573              		.loc 1 826 0
 574 00ae 0E23     		movs	r3, #14
 575 00b0 FB18     		adds	r3, r7, r3
 576 00b2 0422     		movs	r2, #4
 577 00b4 FF32     		adds	r2, r2, #255
 578 00b6 1A80     		strh	r2, [r3]
 579              	.L19:
 827:Generated_Source\PSoC4/BLE.c ****         }
 828:Generated_Source\PSoC4/BLE.c **** 
 829:Generated_Source\PSoC4/BLE.c ****         return (apiResult);
 580              		.loc 1 829 0
 581 00b8 0E23     		movs	r3, #14
 582 00ba FB18     		adds	r3, r7, r3
 583 00bc 1B88     		ldrh	r3, [r3]
 830:Generated_Source\PSoC4/BLE.c ****     }
 584              		.loc 1 830 0
 585 00be 1800     		movs	r0, r3
 586 00c0 BD46     		mov	sp, r7
ARM GAS  C:\Users\TTSS\AppData\Local\Temp\ccKqB1vQ.s 			page 26


 587 00c2 05B0     		add	sp, sp, #20
 588              		@ sp needed
 589 00c4 90BD     		pop	{r4, r7, pc}
 590              	.L26:
 591 00c6 C046     		.align	2
 592              	.L25:
 593 00c8 00000000 		.word	cyBle_state
 594 00cc 00000000 		.word	cyBle_eventHandlerFlag
 595 00d0 00000000 		.word	cyBle_discoveryModeInfo
 596 00d4 00000000 		.word	cyBle_advertisingIntervalType
 597              		.cfi_endproc
 598              	.LFE6:
 599              		.size	CyBle_GappStartAdvertisement, .-CyBle_GappStartAdvertisement
 600              		.section	.text.CyBle_GappStopAdvertisement,"ax",%progbits
 601              		.align	2
 602              		.global	CyBle_GappStopAdvertisement
 603              		.code	16
 604              		.thumb_func
 605              		.type	CyBle_GappStopAdvertisement, %function
 606              	CyBle_GappStopAdvertisement:
 607              	.LFB7:
 831:Generated_Source\PSoC4/BLE.c **** 
 832:Generated_Source\PSoC4/BLE.c ****     
 833:Generated_Source\PSoC4/BLE.c ****     /******************************************************************************
 834:Generated_Source\PSoC4/BLE.c ****     * Function Name: CyBle_GappStopAdvertisement
 835:Generated_Source\PSoC4/BLE.c ****     ***************************************************************************//**
 836:Generated_Source\PSoC4/BLE.c ****     * 
 837:Generated_Source\PSoC4/BLE.c ****     *   This function can be used to exit from discovery mode. After the execution 
 838:Generated_Source\PSoC4/BLE.c ****     *   of this function, there will no longer be any advertisements. On stopping 
 839:Generated_Source\PSoC4/BLE.c ****     *   advertising, GAP Peripheral receives CYBLE_EVT_GAPP_ADVERTISEMENT_START_STOP
 840:Generated_Source\PSoC4/BLE.c ****     *   event. It is expected that the application layer tracks the function call 
 841:Generated_Source\PSoC4/BLE.c ****     *   performed before occurrence of this event as this event can occur on making 
 842:Generated_Source\PSoC4/BLE.c ****     *   a call to Cy_BleGappStartAdvertisement(), CyBle_GappEnterDiscoveryMode(), 
 843:Generated_Source\PSoC4/BLE.c ****     *   or CyBle_GappStartAdvertisement() functions as well.
 844:Generated_Source\PSoC4/BLE.c ****     *   
 845:Generated_Source\PSoC4/BLE.c ****     *   The following event occurs on invoking this function:
 846:Generated_Source\PSoC4/BLE.c ****     *   * CYBLE_EVT_GAPP_ADVERTISEMENT_START_STOP
 847:Generated_Source\PSoC4/BLE.c ****     * 
 848:Generated_Source\PSoC4/BLE.c ****     *  \return
 849:Generated_Source\PSoC4/BLE.c ****     *   None
 850:Generated_Source\PSoC4/BLE.c ****     * 
 851:Generated_Source\PSoC4/BLE.c ****     *******************************************************************************/
 852:Generated_Source\PSoC4/BLE.c ****     void CyBle_GappStopAdvertisement(void)
 853:Generated_Source\PSoC4/BLE.c ****     {
 608              		.loc 1 853 0
 609              		.cfi_startproc
 610              		@ args = 0, pretend = 0, frame = 0
 611              		@ frame_needed = 1, uses_anonymous_args = 0
 612 0000 80B5     		push	{r7, lr}
 613              		.cfi_def_cfa_offset 8
 614              		.cfi_offset 7, -8
 615              		.cfi_offset 14, -4
 616 0002 00AF     		add	r7, sp, #0
 617              		.cfi_def_cfa_register 7
 854:Generated_Source\PSoC4/BLE.c ****         CyBle_GappExitDiscoveryMode();
 618              		.loc 1 854 0
 619 0004 FFF7FEFF 		bl	CyBle_GappExitDiscoveryMode
ARM GAS  C:\Users\TTSS\AppData\Local\Temp\ccKqB1vQ.s 			page 27


 855:Generated_Source\PSoC4/BLE.c ****         cyBle_eventHandlerFlag |= CYBLE_STOP_FLAG;
 620              		.loc 1 855 0
 621 0008 054B     		ldr	r3, .L28
 622 000a 1B78     		ldrb	r3, [r3]
 623 000c DBB2     		uxtb	r3, r3
 624 000e 0822     		movs	r2, #8
 625 0010 1343     		orrs	r3, r2
 626 0012 DAB2     		uxtb	r2, r3
 627 0014 024B     		ldr	r3, .L28
 628 0016 1A70     		strb	r2, [r3]
 856:Generated_Source\PSoC4/BLE.c ****     }
 629              		.loc 1 856 0
 630 0018 C046     		nop
 631 001a BD46     		mov	sp, r7
 632              		@ sp needed
 633 001c 80BD     		pop	{r7, pc}
 634              	.L29:
 635 001e C046     		.align	2
 636              	.L28:
 637 0020 00000000 		.word	cyBle_eventHandlerFlag
 638              		.cfi_endproc
 639              	.LFE7:
 640              		.size	CyBle_GappStopAdvertisement, .-CyBle_GappStopAdvertisement
 641              		.section	.text.CyBle_ChangeAdDeviceAddress,"ax",%progbits
 642              		.align	2
 643              		.global	CyBle_ChangeAdDeviceAddress
 644              		.code	16
 645              		.thumb_func
 646              		.type	CyBle_ChangeAdDeviceAddress, %function
 647              	CyBle_ChangeAdDeviceAddress:
 648              	.LFB8:
 857:Generated_Source\PSoC4/BLE.c ****     
 858:Generated_Source\PSoC4/BLE.c ****     
 859:Generated_Source\PSoC4/BLE.c ****     /******************************************************************************
 860:Generated_Source\PSoC4/BLE.c ****     * Function Name: CyBle_ChangeAdDeviceAddress
 861:Generated_Source\PSoC4/BLE.c ****     ***************************************************************************//**
 862:Generated_Source\PSoC4/BLE.c ****     * 
 863:Generated_Source\PSoC4/BLE.c ****     *  This function is used to set the Bluetooth device address into the 
 864:Generated_Source\PSoC4/BLE.c ****     *  advertisement or scan response data structure.
 865:Generated_Source\PSoC4/BLE.c ****     * 
 866:Generated_Source\PSoC4/BLE.c ****     *  \param bdAddr: Bluetooth Device address. The variable is of type CYBLE_GAP_BD_ADDR_T
 867:Generated_Source\PSoC4/BLE.c ****     *  \param dest: 0 - selects advertisement structure, not zero value selects scan 
 868:Generated_Source\PSoC4/BLE.c ****     *               response structure.
 869:Generated_Source\PSoC4/BLE.c ****     * 
 870:Generated_Source\PSoC4/BLE.c ****     * \return
 871:Generated_Source\PSoC4/BLE.c ****     *  None
 872:Generated_Source\PSoC4/BLE.c ****     *  
 873:Generated_Source\PSoC4/BLE.c ****     *******************************************************************************/
 874:Generated_Source\PSoC4/BLE.c ****     void CyBle_ChangeAdDeviceAddress(const CYBLE_GAP_BD_ADDR_T* bdAddr, uint8 dest)
 875:Generated_Source\PSoC4/BLE.c ****     {
 649              		.loc 1 875 0
 650              		.cfi_startproc
 651              		@ args = 0, pretend = 0, frame = 16
 652              		@ frame_needed = 1, uses_anonymous_args = 0
 653 0000 80B5     		push	{r7, lr}
 654              		.cfi_def_cfa_offset 8
 655              		.cfi_offset 7, -8
ARM GAS  C:\Users\TTSS\AppData\Local\Temp\ccKqB1vQ.s 			page 28


 656              		.cfi_offset 14, -4
 657 0002 84B0     		sub	sp, sp, #16
 658              		.cfi_def_cfa_offset 24
 659 0004 00AF     		add	r7, sp, #0
 660              		.cfi_def_cfa_register 7
 661 0006 7860     		str	r0, [r7, #4]
 662 0008 0A00     		movs	r2, r1
 663 000a FB1C     		adds	r3, r7, #3
 664 000c 1A70     		strb	r2, [r3]
 876:Generated_Source\PSoC4/BLE.c ****         uint8 i;
 877:Generated_Source\PSoC4/BLE.c ****         uint8 *destBuffer = NULL;
 665              		.loc 1 877 0
 666 000e 0023     		movs	r3, #0
 667 0010 BB60     		str	r3, [r7, #8]
 878:Generated_Source\PSoC4/BLE.c ****         
 879:Generated_Source\PSoC4/BLE.c ****         if(dest == 0u)      /* Destination - advertising structure */
 880:Generated_Source\PSoC4/BLE.c ****         {
 881:Generated_Source\PSoC4/BLE.c ****             #ifdef CYBLE_ADV_PKT_INDEX_BLUETOOTH_DEVICE_ADDRESS
 882:Generated_Source\PSoC4/BLE.c ****                 destBuffer = &cyBle_discoveryData.advData[CYBLE_ADV_PKT_INDEX_BLUETOOTH_DEVICE_ADDR
 883:Generated_Source\PSoC4/BLE.c ****             #endif /* CYBLE_ADV_PKT_INDEX_BLUETOOTH_DEVICE_ADDRESS */
 884:Generated_Source\PSoC4/BLE.c ****         }
 885:Generated_Source\PSoC4/BLE.c ****         else                /* Destination - scan response structure */
 886:Generated_Source\PSoC4/BLE.c ****         {
 887:Generated_Source\PSoC4/BLE.c ****             #ifdef CYBLE_SCN_PKT_INDEX_BLUETOOTH_DEVICE_ADDRESS
 888:Generated_Source\PSoC4/BLE.c ****                 destBuffer = &cyBle_scanRspData.scanRspData[CYBLE_SCN_PKT_INDEX_BLUETOOTH_DEVICE_AD
 889:Generated_Source\PSoC4/BLE.c ****             #endif /* CYBLE_SCN_PKT_INDEX_BLUETOOTH_DEVICE_ADDRESS */    
 890:Generated_Source\PSoC4/BLE.c ****         }
 891:Generated_Source\PSoC4/BLE.c ****         
 892:Generated_Source\PSoC4/BLE.c ****         if(destBuffer != NULL)
 668              		.loc 1 892 0
 669 0012 BB68     		ldr	r3, [r7, #8]
 670 0014 002B     		cmp	r3, #0
 671 0016 20D0     		beq	.L34
 893:Generated_Source\PSoC4/BLE.c ****         {
 894:Generated_Source\PSoC4/BLE.c ****             /* Update Device Address type */
 895:Generated_Source\PSoC4/BLE.c ****             destBuffer[0u] = bdAddr->type;
 672              		.loc 1 895 0
 673 0018 7B68     		ldr	r3, [r7, #4]
 674 001a 9A79     		ldrb	r2, [r3, #6]
 675 001c BB68     		ldr	r3, [r7, #8]
 676 001e 1A70     		strb	r2, [r3]
 896:Generated_Source\PSoC4/BLE.c ****             
 897:Generated_Source\PSoC4/BLE.c ****             for(i = 0u; i < CYBLE_GAP_BD_ADDR_SIZE; i++)
 677              		.loc 1 897 0
 678 0020 0F23     		movs	r3, #15
 679 0022 FB18     		adds	r3, r7, r3
 680 0024 0022     		movs	r2, #0
 681 0026 1A70     		strb	r2, [r3]
 682 0028 12E0     		b	.L32
 683              	.L33:
 898:Generated_Source\PSoC4/BLE.c ****             {
 899:Generated_Source\PSoC4/BLE.c ****                 destBuffer[i + 1u] = bdAddr->bdAddr[i];
 684              		.loc 1 899 0 discriminator 3
 685 002a 0F23     		movs	r3, #15
 686 002c FB18     		adds	r3, r7, r3
 687 002e 1B78     		ldrb	r3, [r3]
 688 0030 0133     		adds	r3, r3, #1
ARM GAS  C:\Users\TTSS\AppData\Local\Temp\ccKqB1vQ.s 			page 29


 689 0032 BA68     		ldr	r2, [r7, #8]
 690 0034 D318     		adds	r3, r2, r3
 691 0036 0F22     		movs	r2, #15
 692 0038 BA18     		adds	r2, r7, r2
 693 003a 1278     		ldrb	r2, [r2]
 694 003c 7968     		ldr	r1, [r7, #4]
 695 003e 8A5C     		ldrb	r2, [r1, r2]
 696 0040 1A70     		strb	r2, [r3]
 897:Generated_Source\PSoC4/BLE.c ****             {
 697              		.loc 1 897 0 discriminator 3
 698 0042 0F23     		movs	r3, #15
 699 0044 FB18     		adds	r3, r7, r3
 700 0046 1A78     		ldrb	r2, [r3]
 701 0048 0F23     		movs	r3, #15
 702 004a FB18     		adds	r3, r7, r3
 703 004c 0132     		adds	r2, r2, #1
 704 004e 1A70     		strb	r2, [r3]
 705              	.L32:
 897:Generated_Source\PSoC4/BLE.c ****             {
 706              		.loc 1 897 0 is_stmt 0 discriminator 1
 707 0050 0F23     		movs	r3, #15
 708 0052 FB18     		adds	r3, r7, r3
 709 0054 1B78     		ldrb	r3, [r3]
 710 0056 052B     		cmp	r3, #5
 711 0058 E7D9     		bls	.L33
 712              	.L34:
 900:Generated_Source\PSoC4/BLE.c ****             }
 901:Generated_Source\PSoC4/BLE.c ****         }
 902:Generated_Source\PSoC4/BLE.c ****     }
 713              		.loc 1 902 0 is_stmt 1
 714 005a C046     		nop
 715 005c BD46     		mov	sp, r7
 716 005e 04B0     		add	sp, sp, #16
 717              		@ sp needed
 718 0060 80BD     		pop	{r7, pc}
 719              		.cfi_endproc
 720              	.LFE8:
 721              		.size	CyBle_ChangeAdDeviceAddress, .-CyBle_ChangeAdDeviceAddress
 722 0062 C046     		.section	.text.CyBle_GapSetLocalName,"ax",%progbits
 723              		.align	2
 724              		.global	CyBle_GapSetLocalName
 725              		.code	16
 726              		.thumb_func
 727              		.type	CyBle_GapSetLocalName, %function
 728              	CyBle_GapSetLocalName:
 729              	.LFB9:
 903:Generated_Source\PSoC4/BLE.c ****   
 904:Generated_Source\PSoC4/BLE.c **** #endif /* CYBLE_GAP_ROLE_PERIPHERAL || CYBLE_GAP_ROLE_BROADCASTER */
 905:Generated_Source\PSoC4/BLE.c **** 
 906:Generated_Source\PSoC4/BLE.c **** 
 907:Generated_Source\PSoC4/BLE.c **** #if(CYBLE_GAP_ROLE_CENTRAL || CYBLE_GAP_ROLE_OBSERVER)
 908:Generated_Source\PSoC4/BLE.c **** 
 909:Generated_Source\PSoC4/BLE.c ****     /******************************************************************************
 910:Generated_Source\PSoC4/BLE.c ****     * Function Name: CyBle_GapcStartScan
 911:Generated_Source\PSoC4/BLE.c ****     ***************************************************************************//**
 912:Generated_Source\PSoC4/BLE.c ****     * 
 913:Generated_Source\PSoC4/BLE.c ****     *   This function is used for discovering GAP peripheral devices that are 
ARM GAS  C:\Users\TTSS\AppData\Local\Temp\ccKqB1vQ.s 			page 30


 914:Generated_Source\PSoC4/BLE.c ****     *   available for connection. It performs the scanning routine using the 
 915:Generated_Source\PSoC4/BLE.c ****     *   parameters entered in the component's customizer.
 916:Generated_Source\PSoC4/BLE.c ****     *   
 917:Generated_Source\PSoC4/BLE.c ****     *   As soon as the discovery operation starts, CYBLE_EVT_GAPC_SCAN_START_STOP 
 918:Generated_Source\PSoC4/BLE.c ****     *   event is generated. The CYBLE_EVT_GAPC_SCAN_PROGRESS_RESULT event is 
 919:Generated_Source\PSoC4/BLE.c ****     *   generated when a GAP peripheral device is located. There are three discovery
 920:Generated_Source\PSoC4/BLE.c ****     *   procedures can be selected in the customizer's GUI:
 921:Generated_Source\PSoC4/BLE.c ****     *   
 922:Generated_Source\PSoC4/BLE.c ****     *   * Observation procedure: A device performing the observer role receives only
 923:Generated_Source\PSoC4/BLE.c ****     *                            advertisement data from devices irrespective of 
 924:Generated_Source\PSoC4/BLE.c ****     *                            their discoverable mode settings. Advertisement 
 925:Generated_Source\PSoC4/BLE.c ****     *                            data received is provided by the event,      
 926:Generated_Source\PSoC4/BLE.c ****     *                            CYBLE_EVT_GAPC_SCAN_PROGRESS_RESULT. This procedure
 927:Generated_Source\PSoC4/BLE.c ****     *                            requires the scanType sub parameter to be passive
 928:Generated_Source\PSoC4/BLE.c ****     *                            scanning. 
 929:Generated_Source\PSoC4/BLE.c ****     *   
 930:Generated_Source\PSoC4/BLE.c ****     *   * Limited Discovery procedure: A device performing the limited discovery
 931:Generated_Source\PSoC4/BLE.c ****     *                                  procedure receives advertisement data and 
 932:Generated_Source\PSoC4/BLE.c ****     *                                  scan# response data from devices in the 
 933:Generated_Source\PSoC4/BLE.c ****     *                                  limited discoverable mode only. Received data
 934:Generated_Source\PSoC4/BLE.c ****     *                                  is provided by the event, 
 935:Generated_Source\PSoC4/BLE.c ****     *                                  CYBLE_EVT_GAPC_SCAN_PROGRESS_RESULT. This 
 936:Generated_Source\PSoC4/BLE.c ****     *                                  procedure requires the scanType sub-parameter 
 937:Generated_Source\PSoC4/BLE.c ****     *                                  to be active scanning.
 938:Generated_Source\PSoC4/BLE.c ****     *   
 939:Generated_Source\PSoC4/BLE.c ****     *   * General Discovery procedure: A device performing the general discovery 
 940:Generated_Source\PSoC4/BLE.c ****     *                                  procedure receives the advertisement data and
 941:Generated_Source\PSoC4/BLE.c ****     *                                  scan response data from devices in both 
 942:Generated_Source\PSoC4/BLE.c ****     *                                  limited discoverable mode and the general 
 943:Generated_Source\PSoC4/BLE.c ****     *                                  discoverable mode. Received data is provided
 944:Generated_Source\PSoC4/BLE.c ****     *                                  by the event,
 945:Generated_Source\PSoC4/BLE.c ****     *                                  CYBLE_EVT_GAPC_SCAN_PROGRESS_RESULT. This 
 946:Generated_Source\PSoC4/BLE.c ****     *                                  procedure requires the scanType sub-parameter
 947:Generated_Source\PSoC4/BLE.c ****     *                                  to be active scanning.
 948:Generated_Source\PSoC4/BLE.c ****     *   
 949:Generated_Source\PSoC4/BLE.c ****     *   Every Advertisement / Scan response packet received results in a new event, 
 950:Generated_Source\PSoC4/BLE.c ****     *   CYBLE_EVT_GAPC_SCAN_PROGRESS_RESULT.
 951:Generated_Source\PSoC4/BLE.c ****     *   If 'scanTo' sub-parameter is a non-zero value, then upon commencement of 
 952:Generated_Source\PSoC4/BLE.c ****     *   discovery procedure and elapsed time = 'scanTo', CYBLE_EVT_TIMEOUT event
 953:Generated_Source\PSoC4/BLE.c ****     *   is generated with the event parameter indicating CYBLE_GAP_SCAN_TO.
 954:Generated_Source\PSoC4/BLE.c ****     *   Possible generated events are:
 955:Generated_Source\PSoC4/BLE.c ****     *   * CYBLE_EVT_GAPC_SCAN_START_STOP: If a device started or stopped scanning. 
 956:Generated_Source\PSoC4/BLE.c ****     *                                     Use CyBle_GetState() to determine the 
 957:Generated_Source\PSoC4/BLE.c ****     *                                     state. Sequential scanning could be 
 958:Generated_Source\PSoC4/BLE.c ****     *                                     started when CYBLE_STATE_DISCONNECTED 
 959:Generated_Source\PSoC4/BLE.c ****     *                                     state is returned. 
 960:Generated_Source\PSoC4/BLE.c ****     *   * CYBLE_EVT_GAPC_SCAN_PROGRESS_RESULT 
 961:Generated_Source\PSoC4/BLE.c ****     *   * CYBLE_EVT_TIMEOUT (CYBLE_GAP_SCAN_TO)
 962:Generated_Source\PSoC4/BLE.c ****     * 
 963:Generated_Source\PSoC4/BLE.c ****     *   \param scanningIntervalType:  Fast or slow scanning interval with
 964:Generated_Source\PSoC4/BLE.c ****     *       timings entered in Scan settings section of the customizer.
 965:Generated_Source\PSoC4/BLE.c ****     * 	  * CYBLE_SCANNING_FAST   0x00u
 966:Generated_Source\PSoC4/BLE.c ****     * 	  * CYBLE_SCANNING_SLOW   0x01u
 967:Generated_Source\PSoC4/BLE.c ****     * 	  * CYBLE_SCANNING_CUSTOM 0x02u
 968:Generated_Source\PSoC4/BLE.c ****     * 
 969:Generated_Source\PSoC4/BLE.c ****     * \return
 970:Generated_Source\PSoC4/BLE.c ****     *  CYBLE_API_RESULT_T : Return value indicates if the function succeeded or
ARM GAS  C:\Users\TTSS\AppData\Local\Temp\ccKqB1vQ.s 			page 31


 971:Generated_Source\PSoC4/BLE.c ****     *  failed. Following are the possible error codes.
 972:Generated_Source\PSoC4/BLE.c ****     *
 973:Generated_Source\PSoC4/BLE.c ****     *   Errors codes                       | Description
 974:Generated_Source\PSoC4/BLE.c ****     *   ---------------------------------- | -----------------------------------
 975:Generated_Source\PSoC4/BLE.c ****     *   CYBLE_ERROR_OK                     | On successful operation.
 976:Generated_Source\PSoC4/BLE.c ****     *   CYBLE_ERROR_STACK_INTERNAL         | An error occurred in the BLE stack.
 977:Generated_Source\PSoC4/BLE.c ****     *   CYBLE_ERROR_INVALID_PARAMETER      | On passing an invalid parameter.
 978:Generated_Source\PSoC4/BLE.c ****     *  
 979:Generated_Source\PSoC4/BLE.c ****     *******************************************************************************/
 980:Generated_Source\PSoC4/BLE.c ****     CYBLE_API_RESULT_T CyBle_GapcStartScan(uint8 scanningIntervalType)
 981:Generated_Source\PSoC4/BLE.c ****     {
 982:Generated_Source\PSoC4/BLE.c ****         CYBLE_API_RESULT_T apiResult;
 983:Generated_Source\PSoC4/BLE.c **** 
 984:Generated_Source\PSoC4/BLE.c ****         if(scanningIntervalType > CYBLE_SCANNING_CUSTOM)
 985:Generated_Source\PSoC4/BLE.c ****         {
 986:Generated_Source\PSoC4/BLE.c ****             apiResult = CYBLE_ERROR_INVALID_PARAMETER;
 987:Generated_Source\PSoC4/BLE.c ****         }
 988:Generated_Source\PSoC4/BLE.c ****         else
 989:Generated_Source\PSoC4/BLE.c ****         {
 990:Generated_Source\PSoC4/BLE.c ****             if(scanningIntervalType == CYBLE_SCANNING_FAST)
 991:Generated_Source\PSoC4/BLE.c ****             {
 992:Generated_Source\PSoC4/BLE.c ****                 cyBle_discoveryInfo.scanTo = CYBLE_FAST_SCAN_TIMEOUT;
 993:Generated_Source\PSoC4/BLE.c ****                 cyBle_discoveryInfo.scanIntv = CYBLE_FAST_SCAN_INTERVAL;
 994:Generated_Source\PSoC4/BLE.c ****                 cyBle_discoveryInfo.scanWindow = CYBLE_FAST_SCAN_WINDOW;
 995:Generated_Source\PSoC4/BLE.c ****             }
 996:Generated_Source\PSoC4/BLE.c ****             else if(scanningIntervalType == CYBLE_SCANNING_SLOW)
 997:Generated_Source\PSoC4/BLE.c ****             {
 998:Generated_Source\PSoC4/BLE.c ****                 cyBle_discoveryInfo.scanTo = CYBLE_SLOW_SCAN_TIMEOUT;
 999:Generated_Source\PSoC4/BLE.c ****                 cyBle_discoveryInfo.scanIntv = CYBLE_SLOW_SCAN_INTERVAL;
1000:Generated_Source\PSoC4/BLE.c ****                 cyBle_discoveryInfo.scanWindow = CYBLE_SLOW_SCAN_WINDOW;
1001:Generated_Source\PSoC4/BLE.c ****             }       
1002:Generated_Source\PSoC4/BLE.c ****             else /* Do not update scanning intervals */
1003:Generated_Source\PSoC4/BLE.c ****             {
1004:Generated_Source\PSoC4/BLE.c ****             }
1005:Generated_Source\PSoC4/BLE.c ****             
1006:Generated_Source\PSoC4/BLE.c ****             cyBle_scanningIntervalType = scanningIntervalType;
1007:Generated_Source\PSoC4/BLE.c ****             apiResult = CyBle_GapcStartDiscovery(&cyBle_discoveryInfo);
1008:Generated_Source\PSoC4/BLE.c ****         
1009:Generated_Source\PSoC4/BLE.c ****             if(apiResult == CYBLE_ERROR_OK)
1010:Generated_Source\PSoC4/BLE.c ****             {
1011:Generated_Source\PSoC4/BLE.c ****                 cyBle_eventHandlerFlag |= CYBLE_START_FLAG;
1012:Generated_Source\PSoC4/BLE.c ****             }
1013:Generated_Source\PSoC4/BLE.c ****         }
1014:Generated_Source\PSoC4/BLE.c ****        
1015:Generated_Source\PSoC4/BLE.c ****         return (apiResult);
1016:Generated_Source\PSoC4/BLE.c ****     }
1017:Generated_Source\PSoC4/BLE.c ****     
1018:Generated_Source\PSoC4/BLE.c ****     
1019:Generated_Source\PSoC4/BLE.c ****     /******************************************************************************
1020:Generated_Source\PSoC4/BLE.c ****     * Function Name: CyBle_GapcStopScan
1021:Generated_Source\PSoC4/BLE.c ****     ***************************************************************************//**
1022:Generated_Source\PSoC4/BLE.c ****     * 
1023:Generated_Source\PSoC4/BLE.c ****     *   This function used to stop the discovery of devices. On stopping discovery
1024:Generated_Source\PSoC4/BLE.c ****     *   operation, CYBLE_EVT_GAPC_SCAN_START_STOP event is generated. Application
1025:Generated_Source\PSoC4/BLE.c ****     *   layer needs to keep track of the function call made before receiving this
1026:Generated_Source\PSoC4/BLE.c ****     *   event to associate this event with either the start or stop discovery
1027:Generated_Source\PSoC4/BLE.c ****     *   function.
ARM GAS  C:\Users\TTSS\AppData\Local\Temp\ccKqB1vQ.s 			page 32


1028:Generated_Source\PSoC4/BLE.c ****     * 
1029:Generated_Source\PSoC4/BLE.c ****     *   Possible events generated are:
1030:Generated_Source\PSoC4/BLE.c ****     *    * CYBLE_EVT_GAPC_SCAN_START_STOP
1031:Generated_Source\PSoC4/BLE.c ****     * 
1032:Generated_Source\PSoC4/BLE.c ****     *  \return
1033:Generated_Source\PSoC4/BLE.c ****     *   None
1034:Generated_Source\PSoC4/BLE.c ****     * 
1035:Generated_Source\PSoC4/BLE.c ****     *******************************************************************************/
1036:Generated_Source\PSoC4/BLE.c ****     void CyBle_GapcStopScan(void)
1037:Generated_Source\PSoC4/BLE.c ****     {
1038:Generated_Source\PSoC4/BLE.c ****         CyBle_GapcStopDiscovery();
1039:Generated_Source\PSoC4/BLE.c ****         
1040:Generated_Source\PSoC4/BLE.c ****         cyBle_eventHandlerFlag |= CYBLE_STOP_FLAG;
1041:Generated_Source\PSoC4/BLE.c ****     }
1042:Generated_Source\PSoC4/BLE.c **** 
1043:Generated_Source\PSoC4/BLE.c ****     
1044:Generated_Source\PSoC4/BLE.c **** #endif /* CYBLE_GAP_ROLE_CENTRAL || CYBLE_GAP_ROLE_OBSERVER */
1045:Generated_Source\PSoC4/BLE.c **** 
1046:Generated_Source\PSoC4/BLE.c **** 
1047:Generated_Source\PSoC4/BLE.c **** #if(CYBLE_GAP_ROLE_CENTRAL)
1048:Generated_Source\PSoC4/BLE.c **** 
1049:Generated_Source\PSoC4/BLE.c ****     /******************************************************************************
1050:Generated_Source\PSoC4/BLE.c ****     * Function Name: CyBle_GapcConnectDevice
1051:Generated_Source\PSoC4/BLE.c ****     ***************************************************************************//**
1052:Generated_Source\PSoC4/BLE.c ****     * 
1053:Generated_Source\PSoC4/BLE.c ****     *  This function is used to send a connection request to the remote device with
1054:Generated_Source\PSoC4/BLE.c ****     *  the connection parameters set in the component customizer. This function needs
1055:Generated_Source\PSoC4/BLE.c ****     *  to be called only once after the target device is discovered by 
1056:Generated_Source\PSoC4/BLE.c ****     *  CyBle_GapcStartScan() and further scanning has stopped. Scanning is 
1057:Generated_Source\PSoC4/BLE.c ****     *  successfully stopped on invoking CyBle_GapcStopScan() and then receiving the
1058:Generated_Source\PSoC4/BLE.c ****     *  event CYBLE_EVT_GAPC_SCAN_START_STOP with sub-parameter 'success' = 0x01u.
1059:Generated_Source\PSoC4/BLE.c ****     *  
1060:Generated_Source\PSoC4/BLE.c ****     *  On successful connection, the following events are generated at the GAP 
1061:Generated_Source\PSoC4/BLE.c ****     *  Central device (as well as the GAP Peripheral device), in the following order.
1062:Generated_Source\PSoC4/BLE.c ****     *  * CYBLE_EVT_GATT_CONNECT_IND
1063:Generated_Source\PSoC4/BLE.c ****     *  * CYBLE_EVT_GAP_DEVICE_CONNECTED - If the device connects to a GAP Central and 
1064:Generated_Source\PSoC4/BLE.c ****     *    Link Layer Privacy is disabled in component customizer.
1065:Generated_Source\PSoC4/BLE.c ****     *  * CYBLE_EVT_GAP_ENHANCE_CONN_COMPLETE - If the device connects to a GAP Central and 
1066:Generated_Source\PSoC4/BLE.c ****     *    Link Layer Privacy is enabled in component customizer.
1067:Generated_Source\PSoC4/BLE.c ****     *  * CYBLE_EVT_GAP_DEVICE_CONNECTED
1068:Generated_Source\PSoC4/BLE.c ****     *  
1069:Generated_Source\PSoC4/BLE.c ****     *  A procedure is considered to have timed out if a connection response packet is 
1070:Generated_Source\PSoC4/BLE.c ****     *  not received within time set by cyBle_connectingTimeout global variable
1071:Generated_Source\PSoC4/BLE.c ****     *  (30 seconds by default). CYBLE_EVT_TIMEOUT event with CYBLE_GENERIC_TO parameter
1072:Generated_Source\PSoC4/BLE.c ****     *  will indicate about connection procedure timeout. Connection will automatically
1073:Generated_Source\PSoC4/BLE.c ****     *  be canceled and state will be changed to CYBLE_STATE_DISCONNECTED.
1074:Generated_Source\PSoC4/BLE.c ****     * 
1075:Generated_Source\PSoC4/BLE.c ****     *  \param address: The device address of the remote device to connect to. 
1076:Generated_Source\PSoC4/BLE.c ****     *  
1077:Generated_Source\PSoC4/BLE.c ****     * \return
1078:Generated_Source\PSoC4/BLE.c ****     *  CYBLE_API_RESULT_T : Return value indicates if the function succeeded or 
1079:Generated_Source\PSoC4/BLE.c ****     *  failed. Following are the possible error codes.
1080:Generated_Source\PSoC4/BLE.c ****     *
1081:Generated_Source\PSoC4/BLE.c ****     *   Errors codes                       | Description
1082:Generated_Source\PSoC4/BLE.c ****     *   ------------                       | -----------
1083:Generated_Source\PSoC4/BLE.c ****     *   CYBLE_ERROR_OK                     | On successful operation.
1084:Generated_Source\PSoC4/BLE.c ****     *   CYBLE_ERROR_STACK_INTERNAL         | On error occurred in the BLE stack.
ARM GAS  C:\Users\TTSS\AppData\Local\Temp\ccKqB1vQ.s 			page 33


1085:Generated_Source\PSoC4/BLE.c ****     *   CYBLE_ERROR_INVALID_PARAMETER      | On passing an invalid parameter.
1086:Generated_Source\PSoC4/BLE.c ****     *   CYBLE_ERROR_INVALID_STATE          | On calling this function not in Disconnected state.
1087:Generated_Source\PSoC4/BLE.c ****     *  
1088:Generated_Source\PSoC4/BLE.c ****     ******************************************************************************/
1089:Generated_Source\PSoC4/BLE.c ****     CYBLE_API_RESULT_T CyBle_GapcConnectDevice(const CYBLE_GAP_BD_ADDR_T * address)
1090:Generated_Source\PSoC4/BLE.c ****     {
1091:Generated_Source\PSoC4/BLE.c ****         CYBLE_API_RESULT_T apiResult;
1092:Generated_Source\PSoC4/BLE.c ****         uint8 i;
1093:Generated_Source\PSoC4/BLE.c **** 
1094:Generated_Source\PSoC4/BLE.c ****         if(CyBle_GetState() != CYBLE_STATE_DISCONNECTED)
1095:Generated_Source\PSoC4/BLE.c ****         {
1096:Generated_Source\PSoC4/BLE.c ****             apiResult = CYBLE_ERROR_INVALID_STATE;
1097:Generated_Source\PSoC4/BLE.c ****         }
1098:Generated_Source\PSoC4/BLE.c ****         else if(address == NULL)
1099:Generated_Source\PSoC4/BLE.c ****         {
1100:Generated_Source\PSoC4/BLE.c ****             apiResult = CYBLE_ERROR_INVALID_PARAMETER;
1101:Generated_Source\PSoC4/BLE.c ****         }
1102:Generated_Source\PSoC4/BLE.c ****         else
1103:Generated_Source\PSoC4/BLE.c ****         {
1104:Generated_Source\PSoC4/BLE.c ****             for(i = 0u; i < CYBLE_GAP_BD_ADDR_SIZE; i++)
1105:Generated_Source\PSoC4/BLE.c ****             {
1106:Generated_Source\PSoC4/BLE.c ****                 cyBle_connectionParameters.peerBdAddr[i] = address->bdAddr[i];
1107:Generated_Source\PSoC4/BLE.c ****             }
1108:Generated_Source\PSoC4/BLE.c ****             cyBle_connectionParameters.peerAddrType = address -> type;
1109:Generated_Source\PSoC4/BLE.c ****             apiResult = CyBle_GapcInitConnection(&cyBle_connectionParameters);
1110:Generated_Source\PSoC4/BLE.c ****             
1111:Generated_Source\PSoC4/BLE.c ****             if(apiResult == CYBLE_ERROR_OK)
1112:Generated_Source\PSoC4/BLE.c ****             {
1113:Generated_Source\PSoC4/BLE.c ****                 CyBle_SetState(CYBLE_STATE_CONNECTING);
1114:Generated_Source\PSoC4/BLE.c ****                 if(cyBle_connectingTimeout != 0u)
1115:Generated_Source\PSoC4/BLE.c ****                 {
1116:Generated_Source\PSoC4/BLE.c ****                     (void)CyBle_StartTimer(cyBle_connectingTimeout);
1117:Generated_Source\PSoC4/BLE.c ****                 }
1118:Generated_Source\PSoC4/BLE.c ****             }
1119:Generated_Source\PSoC4/BLE.c ****         }
1120:Generated_Source\PSoC4/BLE.c ****         return (apiResult);
1121:Generated_Source\PSoC4/BLE.c ****     }
1122:Generated_Source\PSoC4/BLE.c ****     
1123:Generated_Source\PSoC4/BLE.c **** 
1124:Generated_Source\PSoC4/BLE.c ****     /******************************************************************************
1125:Generated_Source\PSoC4/BLE.c ****     * Function Name: CyBle_GapcCancelDeviceConnection
1126:Generated_Source\PSoC4/BLE.c ****     ***************************************************************************//**
1127:Generated_Source\PSoC4/BLE.c ****     * 
1128:Generated_Source\PSoC4/BLE.c ****     *  This function cancels a previously initiated connection with the remote 
1129:Generated_Source\PSoC4/BLE.c ****     *  device. It is a blocking function. No event is generated on calling this 
1130:Generated_Source\PSoC4/BLE.c ****     *  function. If the devices are already connected then this function should not
1131:Generated_Source\PSoC4/BLE.c ****     *  be used. If you intend to disconnect from an existing connection, the function
1132:Generated_Source\PSoC4/BLE.c ****     *  CyBle_GapDisconnect() should be used.
1133:Generated_Source\PSoC4/BLE.c ****     * 
1134:Generated_Source\PSoC4/BLE.c ****     * \return
1135:Generated_Source\PSoC4/BLE.c ****     *  CYBLE_API_RESULT_T : Return value indicates if the function succeeded or 
1136:Generated_Source\PSoC4/BLE.c ****     *  failed. Following are the possible error codes.
1137:Generated_Source\PSoC4/BLE.c ****     *
1138:Generated_Source\PSoC4/BLE.c ****     *   Errors codes                       | Description
1139:Generated_Source\PSoC4/BLE.c ****     *   ---------------------------------- | --------------------------------------
1140:Generated_Source\PSoC4/BLE.c ****     *   CYBLE_ERROR_OK                     | On successful operation.
1141:Generated_Source\PSoC4/BLE.c ****     *   CYBLE_ERROR_STACK_INTERNAL         | An error occurred in the BLE stack.
ARM GAS  C:\Users\TTSS\AppData\Local\Temp\ccKqB1vQ.s 			page 34


1142:Generated_Source\PSoC4/BLE.c ****     *   CYBLE_ERROR_INVALID_STATE          | On calling this function not in Connecting state.
1143:Generated_Source\PSoC4/BLE.c ****     *  
1144:Generated_Source\PSoC4/BLE.c ****     *******************************************************************************/
1145:Generated_Source\PSoC4/BLE.c ****     CYBLE_API_RESULT_T CyBle_GapcCancelDeviceConnection(void)
1146:Generated_Source\PSoC4/BLE.c ****     {
1147:Generated_Source\PSoC4/BLE.c ****         CYBLE_API_RESULT_T apiResult;
1148:Generated_Source\PSoC4/BLE.c ****         
1149:Generated_Source\PSoC4/BLE.c ****         if(CyBle_GetState() != CYBLE_STATE_CONNECTING)
1150:Generated_Source\PSoC4/BLE.c ****         {
1151:Generated_Source\PSoC4/BLE.c ****             apiResult = CYBLE_ERROR_INVALID_STATE;
1152:Generated_Source\PSoC4/BLE.c ****         }
1153:Generated_Source\PSoC4/BLE.c ****         else 
1154:Generated_Source\PSoC4/BLE.c ****         {
1155:Generated_Source\PSoC4/BLE.c ****             apiResult = CyBle_GapcCancelConnection();
1156:Generated_Source\PSoC4/BLE.c ****             
1157:Generated_Source\PSoC4/BLE.c ****             if(cyBle_connectingTimeout != 0u)
1158:Generated_Source\PSoC4/BLE.c ****             {
1159:Generated_Source\PSoC4/BLE.c ****                 (void)CyBle_StopTimer();
1160:Generated_Source\PSoC4/BLE.c ****             }
1161:Generated_Source\PSoC4/BLE.c **** 
1162:Generated_Source\PSoC4/BLE.c ****             if(apiResult == CYBLE_ERROR_OK)
1163:Generated_Source\PSoC4/BLE.c ****             {
1164:Generated_Source\PSoC4/BLE.c ****                 CyBle_SetState(CYBLE_STATE_DISCONNECTED);
1165:Generated_Source\PSoC4/BLE.c ****             }
1166:Generated_Source\PSoC4/BLE.c ****         }
1167:Generated_Source\PSoC4/BLE.c ****         return (apiResult);
1168:Generated_Source\PSoC4/BLE.c ****     }    
1169:Generated_Source\PSoC4/BLE.c **** 
1170:Generated_Source\PSoC4/BLE.c ****     
1171:Generated_Source\PSoC4/BLE.c **** #endif /* CYBLE_GAP_ROLE_CENTRAL */
1172:Generated_Source\PSoC4/BLE.c **** 
1173:Generated_Source\PSoC4/BLE.c **** 
1174:Generated_Source\PSoC4/BLE.c **** #if(CYBLE_GATT_ROLE_SERVER)
1175:Generated_Source\PSoC4/BLE.c **** 
1176:Generated_Source\PSoC4/BLE.c **** #if(CYBLE_GAP_ROLE_PERIPHERAL)
1177:Generated_Source\PSoC4/BLE.c **** 
1178:Generated_Source\PSoC4/BLE.c ****         /******************************************************************************
1179:Generated_Source\PSoC4/BLE.c ****         * Function Name: CyBle_ChangeAdLocalName
1180:Generated_Source\PSoC4/BLE.c ****         ***************************************************************************//**
1181:Generated_Source\PSoC4/BLE.c ****         *  This function is used to set the local device name in the advertisement or 
1182:Generated_Source\PSoC4/BLE.c ****         *  scan response data structure.
1183:Generated_Source\PSoC4/BLE.c ****         * 
1184:Generated_Source\PSoC4/BLE.c ****         *  \param name: The local device name string to be set in advertisement data 
1185:Generated_Source\PSoC4/BLE.c ****         *            structure.
1186:Generated_Source\PSoC4/BLE.c ****         *  \param dest: 0 - advertisement structure, not zero value selects scan response
1187:Generated_Source\PSoC4/BLE.c ****         *              structure.
1188:Generated_Source\PSoC4/BLE.c ****         * 
1189:Generated_Source\PSoC4/BLE.c ****         * \return
1190:Generated_Source\PSoC4/BLE.c ****         *  None
1191:Generated_Source\PSoC4/BLE.c ****         *  
1192:Generated_Source\PSoC4/BLE.c ****         *******************************************************************************/
1193:Generated_Source\PSoC4/BLE.c ****         static void CyBle_ChangeAdLocalName(const char8 name[], uint8 dest)
1194:Generated_Source\PSoC4/BLE.c ****         {
1195:Generated_Source\PSoC4/BLE.c ****             uint8 i;
1196:Generated_Source\PSoC4/BLE.c ****             uint8 flag = 0u;
1197:Generated_Source\PSoC4/BLE.c ****             uint8 adLength = 0u;
1198:Generated_Source\PSoC4/BLE.c ****             uint8 byteCounter = 0u;
ARM GAS  C:\Users\TTSS\AppData\Local\Temp\ccKqB1vQ.s 			page 35


1199:Generated_Source\PSoC4/BLE.c ****             uint8 *destBuffer;
1200:Generated_Source\PSoC4/BLE.c ****             uint8 maxLength;
1201:Generated_Source\PSoC4/BLE.c ****             
1202:Generated_Source\PSoC4/BLE.c ****             if(dest == 0u)      /* Destination - advertising structure */
1203:Generated_Source\PSoC4/BLE.c ****             {
1204:Generated_Source\PSoC4/BLE.c ****                 destBuffer = cyBle_discoveryData.advData;
1205:Generated_Source\PSoC4/BLE.c ****                 maxLength = cyBle_discoveryData.advDataLen;
1206:Generated_Source\PSoC4/BLE.c ****             }
1207:Generated_Source\PSoC4/BLE.c ****             else                /* Destination - scan response structure */
1208:Generated_Source\PSoC4/BLE.c ****             {
1209:Generated_Source\PSoC4/BLE.c ****                 destBuffer = cyBle_scanRspData.scanRspData;
1210:Generated_Source\PSoC4/BLE.c ****                 maxLength = cyBle_scanRspData.scanRspDataLen;
1211:Generated_Source\PSoC4/BLE.c ****             }
1212:Generated_Source\PSoC4/BLE.c ****             
1213:Generated_Source\PSoC4/BLE.c ****             while((byteCounter < maxLength) && (flag == 0u))
1214:Generated_Source\PSoC4/BLE.c ****             {
1215:Generated_Source\PSoC4/BLE.c ****                 adLength = destBuffer[byteCounter];
1216:Generated_Source\PSoC4/BLE.c ****                 
1217:Generated_Source\PSoC4/BLE.c ****                 if(0u != adLength)
1218:Generated_Source\PSoC4/BLE.c ****                 {
1219:Generated_Source\PSoC4/BLE.c ****                     /* Increment byte counter so it can point to AD type */
1220:Generated_Source\PSoC4/BLE.c ****                     byteCounter++;
1221:Generated_Source\PSoC4/BLE.c ****                     
1222:Generated_Source\PSoC4/BLE.c ****                     if((destBuffer[byteCounter] == CYBLE_SHORT_LOCAL_NAME) || 
1223:Generated_Source\PSoC4/BLE.c ****                        (destBuffer[byteCounter] == CYBLE_COMPLETE_LOCAL_NAME))
1224:Generated_Source\PSoC4/BLE.c ****                     {
1225:Generated_Source\PSoC4/BLE.c ****                         /* Start of the Local Name AD type was fount. Set flag and exit the loop. *
1226:Generated_Source\PSoC4/BLE.c ****                         flag = 1u;
1227:Generated_Source\PSoC4/BLE.c ****                     }
1228:Generated_Source\PSoC4/BLE.c ****                     else
1229:Generated_Source\PSoC4/BLE.c ****                     {
1230:Generated_Source\PSoC4/BLE.c ****                         byteCounter += adLength;
1231:Generated_Source\PSoC4/BLE.c ****                     }
1232:Generated_Source\PSoC4/BLE.c ****                 }
1233:Generated_Source\PSoC4/BLE.c ****                 else
1234:Generated_Source\PSoC4/BLE.c ****                 {
1235:Generated_Source\PSoC4/BLE.c ****                     /* The end of advertisement data structure was encountered though exit the loop
1236:Generated_Source\PSoC4/BLE.c ****                     break;
1237:Generated_Source\PSoC4/BLE.c ****                 }
1238:Generated_Source\PSoC4/BLE.c ****             }
1239:Generated_Source\PSoC4/BLE.c ****             
1240:Generated_Source\PSoC4/BLE.c ****             if(0u != flag)
1241:Generated_Source\PSoC4/BLE.c ****             {
1242:Generated_Source\PSoC4/BLE.c ****                 /* Reuse "adLength" to hold location of the last character of local name in 
1243:Generated_Source\PSoC4/BLE.c ****                    AD structure. */
1244:Generated_Source\PSoC4/BLE.c ****                 adLength += byteCounter;
1245:Generated_Source\PSoC4/BLE.c ****                 
1246:Generated_Source\PSoC4/BLE.c ****                 /* Increment byte counter to point to start of the local Name string */
1247:Generated_Source\PSoC4/BLE.c ****                 byteCounter++;
1248:Generated_Source\PSoC4/BLE.c ****                 
1249:Generated_Source\PSoC4/BLE.c ****                 for(i = byteCounter; ((i < (adLength)) && (CYBLE_NULL_CHARCTER != name[i - byteCoun
1250:Generated_Source\PSoC4/BLE.c ****                 {
1251:Generated_Source\PSoC4/BLE.c ****                     destBuffer[i] = (uint8)name[i - byteCounter];
1252:Generated_Source\PSoC4/BLE.c ****                 }
1253:Generated_Source\PSoC4/BLE.c ****                 
1254:Generated_Source\PSoC4/BLE.c ****                 /* This loop handles the case when new local name is shorted than old one.
1255:Generated_Source\PSoC4/BLE.c ****                    In this case all remaining characters should be null characters. */
ARM GAS  C:\Users\TTSS\AppData\Local\Temp\ccKqB1vQ.s 			page 36


1256:Generated_Source\PSoC4/BLE.c ****                 while(adLength > i)
1257:Generated_Source\PSoC4/BLE.c ****                 {
1258:Generated_Source\PSoC4/BLE.c ****                     /* Terminate string */
1259:Generated_Source\PSoC4/BLE.c ****                     destBuffer[i] = (uint8)CYBLE_NULL_CHARCTER;
1260:Generated_Source\PSoC4/BLE.c ****                     i++;
1261:Generated_Source\PSoC4/BLE.c ****                 }
1262:Generated_Source\PSoC4/BLE.c ****             }
1263:Generated_Source\PSoC4/BLE.c ****         }
1264:Generated_Source\PSoC4/BLE.c ****         
1265:Generated_Source\PSoC4/BLE.c **** #endif /* (CYBLE_GAP_ROLE_PERIPHERAL) */  
1266:Generated_Source\PSoC4/BLE.c ****     
1267:Generated_Source\PSoC4/BLE.c ****     
1268:Generated_Source\PSoC4/BLE.c ****     /******************************************************************************
1269:Generated_Source\PSoC4/BLE.c ****     * Function Name: CyBle_GapSetLocalName
1270:Generated_Source\PSoC4/BLE.c ****     ***************************************************************************//**
1271:Generated_Source\PSoC4/BLE.c ****     *  This function is used to set the local device name - a Characteristic of the 
1272:Generated_Source\PSoC4/BLE.c ****     *  GAP Service. If the characteristic length entered in the component customizer
1273:Generated_Source\PSoC4/BLE.c ****     *  is shorter than the string specified by the "name" parameter, the local device
1274:Generated_Source\PSoC4/BLE.c ****     *  name will be cut to the length specified in the customizer.
1275:Generated_Source\PSoC4/BLE.c ****     * 
1276:Generated_Source\PSoC4/BLE.c ****     *  \param name: The local device name string. The name string to be written as
1277:Generated_Source\PSoC4/BLE.c ****     *              the local device name. It represents a UTF-8 encoded User
1278:Generated_Source\PSoC4/BLE.c ****     *              Friendly Descriptive Name for the device. The length of the local
1279:Generated_Source\PSoC4/BLE.c ****     *              device string is entered into the component customizer and it can
1280:Generated_Source\PSoC4/BLE.c ****     *              be set to a value from 0 to 248 bytes. If the name contained in
1281:Generated_Source\PSoC4/BLE.c ****     *              the parameter is shorter than the length from the customizer, the
1282:Generated_Source\PSoC4/BLE.c ****     *              end of the name is indicated by a NULL octet (0x00).
1283:Generated_Source\PSoC4/BLE.c ****     * 
1284:Generated_Source\PSoC4/BLE.c ****     * \return
1285:Generated_Source\PSoC4/BLE.c ****     *  CYBLE_API_RESULT_T : Return value indicates if the function succeeded or 
1286:Generated_Source\PSoC4/BLE.c ****     *  failed. Following are the possible error codes.
1287:Generated_Source\PSoC4/BLE.c ****     *
1288:Generated_Source\PSoC4/BLE.c ****     *   Errors codes                       | Description
1289:Generated_Source\PSoC4/BLE.c ****     *   ------------                       | -----------
1290:Generated_Source\PSoC4/BLE.c ****     *   CYBLE_ERROR_OK                     | Function completed successfully.
1291:Generated_Source\PSoC4/BLE.c ****     *   CYBLE_ERROR_INVALID_PARAMETER      | On specifying NULL as input parameter
1292:Generated_Source\PSoC4/BLE.c ****     *  
1293:Generated_Source\PSoC4/BLE.c ****     *******************************************************************************/
1294:Generated_Source\PSoC4/BLE.c ****     CYBLE_API_RESULT_T CyBle_GapSetLocalName(const char8 name[])
1295:Generated_Source\PSoC4/BLE.c ****     {
 730              		.loc 1 1295 0
 731              		.cfi_startproc
 732              		@ args = 0, pretend = 0, frame = 24
 733              		@ frame_needed = 1, uses_anonymous_args = 0
 734 0000 80B5     		push	{r7, lr}
 735              		.cfi_def_cfa_offset 8
 736              		.cfi_offset 7, -8
 737              		.cfi_offset 14, -4
 738 0002 86B0     		sub	sp, sp, #24
 739              		.cfi_def_cfa_offset 32
 740 0004 00AF     		add	r7, sp, #0
 741              		.cfi_def_cfa_register 7
 742 0006 7860     		str	r0, [r7, #4]
1296:Generated_Source\PSoC4/BLE.c ****         CYBLE_API_RESULT_T apiResult = CYBLE_ERROR_OK;
 743              		.loc 1 1296 0
 744 0008 1623     		movs	r3, #22
 745 000a FB18     		adds	r3, r7, r3
ARM GAS  C:\Users\TTSS\AppData\Local\Temp\ccKqB1vQ.s 			page 37


 746 000c 0022     		movs	r2, #0
 747 000e 1A80     		strh	r2, [r3]
1297:Generated_Source\PSoC4/BLE.c ****         uint8 i;
1298:Generated_Source\PSoC4/BLE.c ****         char8 *ptr;
1299:Generated_Source\PSoC4/BLE.c ****         uint8 charLen;
1300:Generated_Source\PSoC4/BLE.c **** 
1301:Generated_Source\PSoC4/BLE.c ****         if(NULL != name)
 748              		.loc 1 1301 0
 749 0010 7B68     		ldr	r3, [r7, #4]
 750 0012 002B     		cmp	r3, #0
 751 0014 52D0     		beq	.L36
1302:Generated_Source\PSoC4/BLE.c ****         {
1303:Generated_Source\PSoC4/BLE.c ****             /* Get the pointer to the Device Name characteristic  */
1304:Generated_Source\PSoC4/BLE.c ****             ptr = (char8 *) CYBLE_GATT_DB_ATTR_GET_ATTR_GEN_PTR(cyBle_gaps.deviceNameCharHandle);
 752              		.loc 1 1304 0
 753 0016 2F4B     		ldr	r3, .L43
 754 0018 5B88     		ldrh	r3, [r3, #2]
 755 001a 5A1E     		subs	r2, r3, #1
 756 001c 2E49     		ldr	r1, .L43+4
 757 001e 1300     		movs	r3, r2
 758 0020 9B00     		lsls	r3, r3, #2
 759 0022 9B18     		adds	r3, r3, r2
 760 0024 9B00     		lsls	r3, r3, #2
 761 0026 CB18     		adds	r3, r1, r3
 762 0028 1033     		adds	r3, r3, #16
 763 002a 1B68     		ldr	r3, [r3]
 764 002c 5B68     		ldr	r3, [r3, #4]
 765 002e 3B61     		str	r3, [r7, #16]
1305:Generated_Source\PSoC4/BLE.c **** 
1306:Generated_Source\PSoC4/BLE.c ****             /* First need to get the maximum length of the characteristic data in the GATT
1307:Generated_Source\PSoC4/BLE.c ****                 database to make sure there is enough place for the data. The length
1308:Generated_Source\PSoC4/BLE.c ****                 can't be longer than 248, so only the LSB of 16 bit of length is to
1309:Generated_Source\PSoC4/BLE.c ****                 be used. */
1310:Generated_Source\PSoC4/BLE.c ****             charLen = (uint8)CYBLE_GATT_DB_ATTR_GET_ATTR_GEN_MAX_LEN(cyBle_gaps.deviceNameCharHandl
 766              		.loc 1 1310 0
 767 0030 284B     		ldr	r3, .L43
 768 0032 5B88     		ldrh	r3, [r3, #2]
 769 0034 5A1E     		subs	r2, r3, #1
 770 0036 2849     		ldr	r1, .L43+4
 771 0038 1300     		movs	r3, r2
 772 003a 9B00     		lsls	r3, r3, #2
 773 003c 9B18     		adds	r3, r3, r2
 774 003e 9B00     		lsls	r3, r3, #2
 775 0040 CB18     		adds	r3, r1, r3
 776 0042 0C33     		adds	r3, r3, #12
 777 0044 1A88     		ldrh	r2, [r3]
 778 0046 0F23     		movs	r3, #15
 779 0048 FB18     		adds	r3, r7, r3
 780 004a 1A70     		strb	r2, [r3]
1311:Generated_Source\PSoC4/BLE.c **** 
1312:Generated_Source\PSoC4/BLE.c ****             /* Copy name into characteristic */
1313:Generated_Source\PSoC4/BLE.c ****             for(i = 0u; ((i < charLen) && (CYBLE_NULL_CHARCTER != name[i])); i++)
 781              		.loc 1 1313 0
 782 004c 1523     		movs	r3, #21
 783 004e FB18     		adds	r3, r7, r3
 784 0050 0022     		movs	r2, #0
 785 0052 1A70     		strb	r2, [r3]
ARM GAS  C:\Users\TTSS\AppData\Local\Temp\ccKqB1vQ.s 			page 38


 786 0054 12E0     		b	.L37
 787              	.L39:
1314:Generated_Source\PSoC4/BLE.c ****             {
1315:Generated_Source\PSoC4/BLE.c ****                 ptr[i] = name[i];
 788              		.loc 1 1315 0 discriminator 4
 789 0056 1523     		movs	r3, #21
 790 0058 FB18     		adds	r3, r7, r3
 791 005a 1B78     		ldrb	r3, [r3]
 792 005c 3A69     		ldr	r2, [r7, #16]
 793 005e D318     		adds	r3, r2, r3
 794 0060 1522     		movs	r2, #21
 795 0062 BA18     		adds	r2, r7, r2
 796 0064 1278     		ldrb	r2, [r2]
 797 0066 7968     		ldr	r1, [r7, #4]
 798 0068 8A18     		adds	r2, r1, r2
 799 006a 1278     		ldrb	r2, [r2]
 800 006c 1A70     		strb	r2, [r3]
1313:Generated_Source\PSoC4/BLE.c ****             {
 801              		.loc 1 1313 0 discriminator 4
 802 006e 1523     		movs	r3, #21
 803 0070 FB18     		adds	r3, r7, r3
 804 0072 1A78     		ldrb	r2, [r3]
 805 0074 1523     		movs	r3, #21
 806 0076 FB18     		adds	r3, r7, r3
 807 0078 0132     		adds	r2, r2, #1
 808 007a 1A70     		strb	r2, [r3]
 809              	.L37:
1313:Generated_Source\PSoC4/BLE.c ****             {
 810              		.loc 1 1313 0 is_stmt 0 discriminator 1
 811 007c 1523     		movs	r3, #21
 812 007e FA18     		adds	r2, r7, r3
 813 0080 0F23     		movs	r3, #15
 814 0082 FB18     		adds	r3, r7, r3
 815 0084 1278     		ldrb	r2, [r2]
 816 0086 1B78     		ldrb	r3, [r3]
 817 0088 9A42     		cmp	r2, r3
 818 008a 07D2     		bcs	.L38
1313:Generated_Source\PSoC4/BLE.c ****             {
 819              		.loc 1 1313 0 discriminator 3
 820 008c 1523     		movs	r3, #21
 821 008e FB18     		adds	r3, r7, r3
 822 0090 1B78     		ldrb	r3, [r3]
 823 0092 7A68     		ldr	r2, [r7, #4]
 824 0094 D318     		adds	r3, r2, r3
 825 0096 1B78     		ldrb	r3, [r3]
 826 0098 002B     		cmp	r3, #0
 827 009a DCD1     		bne	.L39
 828              	.L38:
1316:Generated_Source\PSoC4/BLE.c ****             }
1317:Generated_Source\PSoC4/BLE.c **** 
1318:Generated_Source\PSoC4/BLE.c ****             if(i < charLen)
 829              		.loc 1 1318 0 is_stmt 1
 830 009c 1523     		movs	r3, #21
 831 009e FA18     		adds	r2, r7, r3
 832 00a0 0F23     		movs	r3, #15
 833 00a2 FB18     		adds	r3, r7, r3
 834 00a4 1278     		ldrb	r2, [r2]
ARM GAS  C:\Users\TTSS\AppData\Local\Temp\ccKqB1vQ.s 			page 39


 835 00a6 1B78     		ldrb	r3, [r3]
 836 00a8 9A42     		cmp	r2, r3
 837 00aa 0BD2     		bcs	.L41
1319:Generated_Source\PSoC4/BLE.c ****             {
1320:Generated_Source\PSoC4/BLE.c ****                 /* Terminate string */
1321:Generated_Source\PSoC4/BLE.c ****                 ptr[i] = CYBLE_NULL_CHARCTER;
 838              		.loc 1 1321 0
 839 00ac 1523     		movs	r3, #21
 840 00ae FB18     		adds	r3, r7, r3
 841 00b0 1B78     		ldrb	r3, [r3]
 842 00b2 3A69     		ldr	r2, [r7, #16]
 843 00b4 D318     		adds	r3, r2, r3
 844 00b6 0022     		movs	r2, #0
 845 00b8 1A70     		strb	r2, [r3]
 846 00ba 03E0     		b	.L41
 847              	.L36:
1322:Generated_Source\PSoC4/BLE.c ****             }
1323:Generated_Source\PSoC4/BLE.c ****             
1324:Generated_Source\PSoC4/BLE.c ****             /* Set new actual length */
1325:Generated_Source\PSoC4/BLE.c ****             
1326:Generated_Source\PSoC4/BLE.c ****             /* Update device name in advertising and scan response structure */
1327:Generated_Source\PSoC4/BLE.c ****             #if(CYBLE_GAP_ROLE_PERIPHERAL)
1328:Generated_Source\PSoC4/BLE.c ****                 CyBle_ChangeAdLocalName(name, 0u);
1329:Generated_Source\PSoC4/BLE.c ****                 CyBle_ChangeAdLocalName(name, 1u);
1330:Generated_Source\PSoC4/BLE.c ****             #endif /* (CYBLE_GAP_ROLE_PERIPHERAL) */
1331:Generated_Source\PSoC4/BLE.c ****         }
1332:Generated_Source\PSoC4/BLE.c ****         else
1333:Generated_Source\PSoC4/BLE.c ****         {
1334:Generated_Source\PSoC4/BLE.c ****             apiResult = CYBLE_ERROR_INVALID_PARAMETER;
 848              		.loc 1 1334 0
 849 00bc 1623     		movs	r3, #22
 850 00be FB18     		adds	r3, r7, r3
 851 00c0 0122     		movs	r2, #1
 852 00c2 1A80     		strh	r2, [r3]
 853              	.L41:
1335:Generated_Source\PSoC4/BLE.c ****         }
1336:Generated_Source\PSoC4/BLE.c ****         
1337:Generated_Source\PSoC4/BLE.c ****         return(apiResult);
 854              		.loc 1 1337 0
 855 00c4 1623     		movs	r3, #22
 856 00c6 FB18     		adds	r3, r7, r3
 857 00c8 1B88     		ldrh	r3, [r3]
1338:Generated_Source\PSoC4/BLE.c ****     }
 858              		.loc 1 1338 0
 859 00ca 1800     		movs	r0, r3
 860 00cc BD46     		mov	sp, r7
 861 00ce 06B0     		add	sp, sp, #24
 862              		@ sp needed
 863 00d0 80BD     		pop	{r7, pc}
 864              	.L44:
 865 00d2 C046     		.align	2
 866              	.L43:
 867 00d4 00000000 		.word	cyBle_gaps
 868 00d8 00000000 		.word	cyBle_gattDB
 869              		.cfi_endproc
 870              	.LFE9:
 871              		.size	CyBle_GapSetLocalName, .-CyBle_GapSetLocalName
ARM GAS  C:\Users\TTSS\AppData\Local\Temp\ccKqB1vQ.s 			page 40


 872              		.section	.text.CyBle_GapGetLocalName,"ax",%progbits
 873              		.align	2
 874              		.global	CyBle_GapGetLocalName
 875              		.code	16
 876              		.thumb_func
 877              		.type	CyBle_GapGetLocalName, %function
 878              	CyBle_GapGetLocalName:
 879              	.LFB10:
1339:Generated_Source\PSoC4/BLE.c **** 
1340:Generated_Source\PSoC4/BLE.c **** 
1341:Generated_Source\PSoC4/BLE.c ****     /******************************************************************************
1342:Generated_Source\PSoC4/BLE.c ****     * Function Name: CyBle_GapGetLocalName
1343:Generated_Source\PSoC4/BLE.c ****     ***************************************************************************//**
1344:Generated_Source\PSoC4/BLE.c ****     *  
1345:Generated_Source\PSoC4/BLE.c ****     *  This function is used to read the local device name - a Characteristic of the 
1346:Generated_Source\PSoC4/BLE.c ****     *  GAP Service.
1347:Generated_Source\PSoC4/BLE.c ****     * 
1348:Generated_Source\PSoC4/BLE.c ****     * \param name: The local device name string. Used to read the local name to the
1349:Generated_Source\PSoC4/BLE.c ****     *             given string array. It represents a UTF-8 encoded User Friendly 
1350:Generated_Source\PSoC4/BLE.c ****     *             Descriptive Name for the device. The length of the local device
1351:Generated_Source\PSoC4/BLE.c ****     *             string is entered into the component customizer and it can be set
1352:Generated_Source\PSoC4/BLE.c ****     *             to a value from 0 to 248 bytes. If the name contained in the
1353:Generated_Source\PSoC4/BLE.c ****     *             parameter is shorter than the length from the customizer, the end
1354:Generated_Source\PSoC4/BLE.c ****     *             of the name is indicated by a NULL octet (0x00).
1355:Generated_Source\PSoC4/BLE.c ****     * 
1356:Generated_Source\PSoC4/BLE.c ****     * \return
1357:Generated_Source\PSoC4/BLE.c ****     *  CYBLE_API_RESULT_T : Return value indicates if the function succeeded or 
1358:Generated_Source\PSoC4/BLE.c ****     *  failed. Following are the possible error codes.
1359:Generated_Source\PSoC4/BLE.c ****     *
1360:Generated_Source\PSoC4/BLE.c ****     *   Errors codes                       | Description
1361:Generated_Source\PSoC4/BLE.c ****     *   ------------                       | -----------
1362:Generated_Source\PSoC4/BLE.c ****     *   CYBLE_ERROR_OK                     | Function completed successfully.
1363:Generated_Source\PSoC4/BLE.c ****     *   CYBLE_ERROR_INVALID_PARAMETER      | On specifying NULL as input parameter
1364:Generated_Source\PSoC4/BLE.c ****     *
1365:Generated_Source\PSoC4/BLE.c ****     *******************************************************************************/
1366:Generated_Source\PSoC4/BLE.c ****     CYBLE_API_RESULT_T CyBle_GapGetLocalName(char8 name[])
1367:Generated_Source\PSoC4/BLE.c ****     {
 880              		.loc 1 1367 0
 881              		.cfi_startproc
 882              		@ args = 0, pretend = 0, frame = 24
 883              		@ frame_needed = 1, uses_anonymous_args = 0
 884 0000 80B5     		push	{r7, lr}
 885              		.cfi_def_cfa_offset 8
 886              		.cfi_offset 7, -8
 887              		.cfi_offset 14, -4
 888 0002 86B0     		sub	sp, sp, #24
 889              		.cfi_def_cfa_offset 32
 890 0004 00AF     		add	r7, sp, #0
 891              		.cfi_def_cfa_register 7
 892 0006 7860     		str	r0, [r7, #4]
1368:Generated_Source\PSoC4/BLE.c ****         CYBLE_API_RESULT_T apiResult = CYBLE_ERROR_OK;
 893              		.loc 1 1368 0
 894 0008 1623     		movs	r3, #22
 895 000a FB18     		adds	r3, r7, r3
 896 000c 0022     		movs	r2, #0
 897 000e 1A80     		strh	r2, [r3]
1369:Generated_Source\PSoC4/BLE.c ****         uint8 charLen;
ARM GAS  C:\Users\TTSS\AppData\Local\Temp\ccKqB1vQ.s 			page 41


1370:Generated_Source\PSoC4/BLE.c ****         uint8 i;
1371:Generated_Source\PSoC4/BLE.c ****         char8 *ptr;
1372:Generated_Source\PSoC4/BLE.c **** 
1373:Generated_Source\PSoC4/BLE.c ****         if(NULL != name)
 898              		.loc 1 1373 0
 899 0010 7B68     		ldr	r3, [r7, #4]
 900 0012 002B     		cmp	r3, #0
 901 0014 4BD0     		beq	.L46
1374:Generated_Source\PSoC4/BLE.c ****         {
1375:Generated_Source\PSoC4/BLE.c ****             /* Get the pointer to the Device Name characteristic  */
1376:Generated_Source\PSoC4/BLE.c ****             ptr = (char8 *) CYBLE_GATT_DB_ATTR_GET_ATTR_GEN_PTR(cyBle_gaps.deviceNameCharHandle);
 902              		.loc 1 1376 0
 903 0016 2B4B     		ldr	r3, .L52
 904 0018 5B88     		ldrh	r3, [r3, #2]
 905 001a 5A1E     		subs	r2, r3, #1
 906 001c 2A49     		ldr	r1, .L52+4
 907 001e 1300     		movs	r3, r2
 908 0020 9B00     		lsls	r3, r3, #2
 909 0022 9B18     		adds	r3, r3, r2
 910 0024 9B00     		lsls	r3, r3, #2
 911 0026 CB18     		adds	r3, r1, r3
 912 0028 1033     		adds	r3, r3, #16
 913 002a 1B68     		ldr	r3, [r3]
 914 002c 5B68     		ldr	r3, [r3, #4]
 915 002e 3B61     		str	r3, [r7, #16]
1377:Generated_Source\PSoC4/BLE.c **** 
1378:Generated_Source\PSoC4/BLE.c ****             /* First need to get the length of the characteristic data in the GATT
1379:Generated_Source\PSoC4/BLE.c ****                 database to make sure there is enough place for the data. The length
1380:Generated_Source\PSoC4/BLE.c ****                 can't be longer than 248, so only the LSB of 16 bit of length is to
1381:Generated_Source\PSoC4/BLE.c ****                 be used. */
1382:Generated_Source\PSoC4/BLE.c ****             charLen = (uint8)CYBLE_GATT_DB_ATTR_GET_ATTR_GEN_LEN(cyBle_gaps.deviceNameCharHandle);
 916              		.loc 1 1382 0
 917 0030 244B     		ldr	r3, .L52
 918 0032 5B88     		ldrh	r3, [r3, #2]
 919 0034 5A1E     		subs	r2, r3, #1
 920 0036 2449     		ldr	r1, .L52+4
 921 0038 1300     		movs	r3, r2
 922 003a 9B00     		lsls	r3, r3, #2
 923 003c 9B18     		adds	r3, r3, r2
 924 003e 9B00     		lsls	r3, r3, #2
 925 0040 CB18     		adds	r3, r1, r3
 926 0042 1033     		adds	r3, r3, #16
 927 0044 1B68     		ldr	r3, [r3]
 928 0046 1A88     		ldrh	r2, [r3]
 929 0048 0F23     		movs	r3, #15
 930 004a FB18     		adds	r3, r7, r3
 931 004c 1A70     		strb	r2, [r3]
1383:Generated_Source\PSoC4/BLE.c **** 
1384:Generated_Source\PSoC4/BLE.c ****             /* Copy name from characteristic */
1385:Generated_Source\PSoC4/BLE.c ****             for(i = 0u; ((i < charLen) && (CYBLE_NULL_CHARCTER != ptr[i])); i++)
 932              		.loc 1 1385 0
 933 004e 1523     		movs	r3, #21
 934 0050 FB18     		adds	r3, r7, r3
 935 0052 0022     		movs	r2, #0
 936 0054 1A70     		strb	r2, [r3]
 937 0056 12E0     		b	.L47
 938              	.L49:
ARM GAS  C:\Users\TTSS\AppData\Local\Temp\ccKqB1vQ.s 			page 42


1386:Generated_Source\PSoC4/BLE.c ****             {
1387:Generated_Source\PSoC4/BLE.c ****                 name[i] = ptr[i];
 939              		.loc 1 1387 0 discriminator 4
 940 0058 1523     		movs	r3, #21
 941 005a FB18     		adds	r3, r7, r3
 942 005c 1B78     		ldrb	r3, [r3]
 943 005e 7A68     		ldr	r2, [r7, #4]
 944 0060 D318     		adds	r3, r2, r3
 945 0062 1522     		movs	r2, #21
 946 0064 BA18     		adds	r2, r7, r2
 947 0066 1278     		ldrb	r2, [r2]
 948 0068 3969     		ldr	r1, [r7, #16]
 949 006a 8A18     		adds	r2, r1, r2
 950 006c 1278     		ldrb	r2, [r2]
 951 006e 1A70     		strb	r2, [r3]
1385:Generated_Source\PSoC4/BLE.c ****             {
 952              		.loc 1 1385 0 discriminator 4
 953 0070 1523     		movs	r3, #21
 954 0072 FB18     		adds	r3, r7, r3
 955 0074 1A78     		ldrb	r2, [r3]
 956 0076 1523     		movs	r3, #21
 957 0078 FB18     		adds	r3, r7, r3
 958 007a 0132     		adds	r2, r2, #1
 959 007c 1A70     		strb	r2, [r3]
 960              	.L47:
1385:Generated_Source\PSoC4/BLE.c ****             {
 961              		.loc 1 1385 0 is_stmt 0 discriminator 1
 962 007e 1523     		movs	r3, #21
 963 0080 FA18     		adds	r2, r7, r3
 964 0082 0F23     		movs	r3, #15
 965 0084 FB18     		adds	r3, r7, r3
 966 0086 1278     		ldrb	r2, [r2]
 967 0088 1B78     		ldrb	r3, [r3]
 968 008a 9A42     		cmp	r2, r3
 969 008c 07D2     		bcs	.L48
1385:Generated_Source\PSoC4/BLE.c ****             {
 970              		.loc 1 1385 0 discriminator 3
 971 008e 1523     		movs	r3, #21
 972 0090 FB18     		adds	r3, r7, r3
 973 0092 1B78     		ldrb	r3, [r3]
 974 0094 3A69     		ldr	r2, [r7, #16]
 975 0096 D318     		adds	r3, r2, r3
 976 0098 1B78     		ldrb	r3, [r3]
 977 009a 002B     		cmp	r3, #0
 978 009c DCD1     		bne	.L49
 979              	.L48:
1388:Generated_Source\PSoC4/BLE.c ****             }
1389:Generated_Source\PSoC4/BLE.c **** 
1390:Generated_Source\PSoC4/BLE.c ****             /* Terminate string */
1391:Generated_Source\PSoC4/BLE.c ****             name[i] = CYBLE_NULL_CHARCTER;
 980              		.loc 1 1391 0 is_stmt 1
 981 009e 1523     		movs	r3, #21
 982 00a0 FB18     		adds	r3, r7, r3
 983 00a2 1B78     		ldrb	r3, [r3]
 984 00a4 7A68     		ldr	r2, [r7, #4]
 985 00a6 D318     		adds	r3, r2, r3
 986 00a8 0022     		movs	r2, #0
ARM GAS  C:\Users\TTSS\AppData\Local\Temp\ccKqB1vQ.s 			page 43


 987 00aa 1A70     		strb	r2, [r3]
 988 00ac 03E0     		b	.L50
 989              	.L46:
1392:Generated_Source\PSoC4/BLE.c ****         }
1393:Generated_Source\PSoC4/BLE.c ****         else
1394:Generated_Source\PSoC4/BLE.c ****         {
1395:Generated_Source\PSoC4/BLE.c ****             apiResult = CYBLE_ERROR_INVALID_PARAMETER;
 990              		.loc 1 1395 0
 991 00ae 1623     		movs	r3, #22
 992 00b0 FB18     		adds	r3, r7, r3
 993 00b2 0122     		movs	r2, #1
 994 00b4 1A80     		strh	r2, [r3]
 995              	.L50:
1396:Generated_Source\PSoC4/BLE.c ****         }
1397:Generated_Source\PSoC4/BLE.c ****         
1398:Generated_Source\PSoC4/BLE.c ****         return(apiResult);
 996              		.loc 1 1398 0
 997 00b6 1623     		movs	r3, #22
 998 00b8 FB18     		adds	r3, r7, r3
 999 00ba 1B88     		ldrh	r3, [r3]
1399:Generated_Source\PSoC4/BLE.c ****     }
 1000              		.loc 1 1399 0
 1001 00bc 1800     		movs	r0, r3
 1002 00be BD46     		mov	sp, r7
 1003 00c0 06B0     		add	sp, sp, #24
 1004              		@ sp needed
 1005 00c2 80BD     		pop	{r7, pc}
 1006              	.L53:
 1007              		.align	2
 1008              	.L52:
 1009 00c4 00000000 		.word	cyBle_gaps
 1010 00c8 00000000 		.word	cyBle_gattDB
 1011              		.cfi_endproc
 1012              	.LFE10:
 1013              		.size	CyBle_GapGetLocalName, .-CyBle_GapGetLocalName
 1014              		.section	.text.CyBle_Get16ByPtr,"ax",%progbits
 1015              		.align	2
 1016              		.global	CyBle_Get16ByPtr
 1017              		.code	16
 1018              		.thumb_func
 1019              		.type	CyBle_Get16ByPtr, %function
 1020              	CyBle_Get16ByPtr:
 1021              	.LFB11:
1400:Generated_Source\PSoC4/BLE.c **** 
1401:Generated_Source\PSoC4/BLE.c **** #endif /* (CYBLE_GATT_ROLE_SERVER) */
1402:Generated_Source\PSoC4/BLE.c **** 
1403:Generated_Source\PSoC4/BLE.c **** 
1404:Generated_Source\PSoC4/BLE.c **** /******************************************************************************
1405:Generated_Source\PSoC4/BLE.c **** * Function Name: CyBle_Get16ByPtr
1406:Generated_Source\PSoC4/BLE.c **** ***************************************************************************//**
1407:Generated_Source\PSoC4/BLE.c **** * 
1408:Generated_Source\PSoC4/BLE.c **** *  Returns the two-bytes value by using a pointer to the LSB.
1409:Generated_Source\PSoC4/BLE.c **** * 
1410:Generated_Source\PSoC4/BLE.c **** *  \param ptr: Pointer to the LSB of two-bytes data (little endian).
1411:Generated_Source\PSoC4/BLE.c **** * 
1412:Generated_Source\PSoC4/BLE.c **** *  \return
1413:Generated_Source\PSoC4/BLE.c **** *  uint16: Two-bytes data.
ARM GAS  C:\Users\TTSS\AppData\Local\Temp\ccKqB1vQ.s 			page 44


1414:Generated_Source\PSoC4/BLE.c **** * 
1415:Generated_Source\PSoC4/BLE.c **** ******************************************************************************/
1416:Generated_Source\PSoC4/BLE.c **** uint16 CyBle_Get16ByPtr(const uint8 ptr[])
1417:Generated_Source\PSoC4/BLE.c **** {
 1022              		.loc 1 1417 0
 1023              		.cfi_startproc
 1024              		@ args = 0, pretend = 0, frame = 8
 1025              		@ frame_needed = 1, uses_anonymous_args = 0
 1026 0000 80B5     		push	{r7, lr}
 1027              		.cfi_def_cfa_offset 8
 1028              		.cfi_offset 7, -8
 1029              		.cfi_offset 14, -4
 1030 0002 82B0     		sub	sp, sp, #8
 1031              		.cfi_def_cfa_offset 16
 1032 0004 00AF     		add	r7, sp, #0
 1033              		.cfi_def_cfa_register 7
 1034 0006 7860     		str	r0, [r7, #4]
1418:Generated_Source\PSoC4/BLE.c ****     return ((uint16) ptr[0u] | ((uint16) (((uint16) ptr[1u]) << 8u)));
 1035              		.loc 1 1418 0
 1036 0008 7B68     		ldr	r3, [r7, #4]
 1037 000a 1B78     		ldrb	r3, [r3]
 1038 000c 9AB2     		uxth	r2, r3
 1039 000e 7B68     		ldr	r3, [r7, #4]
 1040 0010 0133     		adds	r3, r3, #1
 1041 0012 1B78     		ldrb	r3, [r3]
 1042 0014 9BB2     		uxth	r3, r3
 1043 0016 1B02     		lsls	r3, r3, #8
 1044 0018 9BB2     		uxth	r3, r3
 1045 001a 1343     		orrs	r3, r2
 1046 001c 9BB2     		uxth	r3, r3
1419:Generated_Source\PSoC4/BLE.c **** }
 1047              		.loc 1 1419 0
 1048 001e 1800     		movs	r0, r3
 1049 0020 BD46     		mov	sp, r7
 1050 0022 02B0     		add	sp, sp, #8
 1051              		@ sp needed
 1052 0024 80BD     		pop	{r7, pc}
 1053              		.cfi_endproc
 1054              	.LFE11:
 1055              		.size	CyBle_Get16ByPtr, .-CyBle_Get16ByPtr
 1056 0026 C046     		.section	.text.CyBle_Set16ByPtr,"ax",%progbits
 1057              		.align	2
 1058              		.global	CyBle_Set16ByPtr
 1059              		.code	16
 1060              		.thumb_func
 1061              		.type	CyBle_Set16ByPtr, %function
 1062              	CyBle_Set16ByPtr:
 1063              	.LFB12:
1420:Generated_Source\PSoC4/BLE.c **** 
1421:Generated_Source\PSoC4/BLE.c **** 
1422:Generated_Source\PSoC4/BLE.c **** /******************************************************************************
1423:Generated_Source\PSoC4/BLE.c **** * Function Name: CyBle_Set16ByPtr
1424:Generated_Source\PSoC4/BLE.c **** ***************************************************************************//**
1425:Generated_Source\PSoC4/BLE.c **** * 
1426:Generated_Source\PSoC4/BLE.c **** *  Sets the two-bytes value by using a pointer to the LSB.
1427:Generated_Source\PSoC4/BLE.c **** * 
1428:Generated_Source\PSoC4/BLE.c **** *  \param ptr:    Pointer to the LSB of two-bytes data (little endian).
ARM GAS  C:\Users\TTSS\AppData\Local\Temp\ccKqB1vQ.s 			page 45


1429:Generated_Source\PSoC4/BLE.c **** *  \param value:  Two-bytes data to be written.
1430:Generated_Source\PSoC4/BLE.c **** * 
1431:Generated_Source\PSoC4/BLE.c **** *  \return
1432:Generated_Source\PSoC4/BLE.c **** *  None
1433:Generated_Source\PSoC4/BLE.c **** * 
1434:Generated_Source\PSoC4/BLE.c **** ******************************************************************************/
1435:Generated_Source\PSoC4/BLE.c **** void CyBle_Set16ByPtr(uint8 ptr[], uint16 value)
1436:Generated_Source\PSoC4/BLE.c **** {
 1064              		.loc 1 1436 0
 1065              		.cfi_startproc
 1066              		@ args = 0, pretend = 0, frame = 8
 1067              		@ frame_needed = 1, uses_anonymous_args = 0
 1068 0000 80B5     		push	{r7, lr}
 1069              		.cfi_def_cfa_offset 8
 1070              		.cfi_offset 7, -8
 1071              		.cfi_offset 14, -4
 1072 0002 82B0     		sub	sp, sp, #8
 1073              		.cfi_def_cfa_offset 16
 1074 0004 00AF     		add	r7, sp, #0
 1075              		.cfi_def_cfa_register 7
 1076 0006 7860     		str	r0, [r7, #4]
 1077 0008 0A00     		movs	r2, r1
 1078 000a BB1C     		adds	r3, r7, #2
 1079 000c 1A80     		strh	r2, [r3]
1437:Generated_Source\PSoC4/BLE.c ****     ptr[0u] = (uint8) value;
 1080              		.loc 1 1437 0
 1081 000e BB1C     		adds	r3, r7, #2
 1082 0010 1B88     		ldrh	r3, [r3]
 1083 0012 DAB2     		uxtb	r2, r3
 1084 0014 7B68     		ldr	r3, [r7, #4]
 1085 0016 1A70     		strb	r2, [r3]
1438:Generated_Source\PSoC4/BLE.c ****     ptr[1u] = (uint8) (value >> 8u);
 1086              		.loc 1 1438 0
 1087 0018 7B68     		ldr	r3, [r7, #4]
 1088 001a 0133     		adds	r3, r3, #1
 1089 001c BA1C     		adds	r2, r7, #2
 1090 001e 1288     		ldrh	r2, [r2]
 1091 0020 120A     		lsrs	r2, r2, #8
 1092 0022 92B2     		uxth	r2, r2
 1093 0024 D2B2     		uxtb	r2, r2
 1094 0026 1A70     		strb	r2, [r3]
1439:Generated_Source\PSoC4/BLE.c **** }
 1095              		.loc 1 1439 0
 1096 0028 C046     		nop
 1097 002a BD46     		mov	sp, r7
 1098 002c 02B0     		add	sp, sp, #8
 1099              		@ sp needed
 1100 002e 80BD     		pop	{r7, pc}
 1101              		.cfi_endproc
 1102              	.LFE12:
 1103              		.size	CyBle_Set16ByPtr, .-CyBle_Set16ByPtr
 1104              		.text
 1105              	.Letext0:
 1106              		.file 2 "Generated_Source\\PSoC4\\cytypes.h"
 1107              		.file 3 "Generated_Source\\PSoC4\\BLE_Stack.h"
 1108              		.file 4 "Generated_Source\\PSoC4\\BLE_StackGap.h"
 1109              		.file 5 "Generated_Source\\PSoC4\\BLE_StackGatt.h"
ARM GAS  C:\Users\TTSS\AppData\Local\Temp\ccKqB1vQ.s 			page 46


 1110              		.file 6 "Generated_Source\\PSoC4\\BLE_StackGattDb.h"
 1111              		.file 7 "Generated_Source\\PSoC4\\BLE.h"
 1112              		.file 8 "Generated_Source\\PSoC4\\BLE_gatt.h"
 1113              		.file 9 "Generated_Source\\PSoC4\\BLE_eventHandler.h"