ARM GAS  C:\Users\TTSS\AppData\Local\Temp\ccKqB1vQ.s 			page 1


   1              		.syntax unified
   2              		.cpu cortex-m0
   3              		.fpu softvfp
   4              		.eabi_attribute 20, 1
   5              		.eabi_attribute 21, 1
   6              		.eabi_attribute 23, 3
   7              		.eabi_attribute 24, 1
   8              		.eabi_attribute 25, 1
   9              		.eabi_attribute 26, 1
  10              		.eabi_attribute 30, 6
  11              		.eabi_attribute 34, 0
  12              		.eabi_attribute 18, 4
  13              		.thumb
  14              		.syntax unified
  15              		.file	"BLE.c"
  16              		.text
  17              	.Ltext0:
  18              		.cfi_sections	.debug_frame
  19              		.global	cyBle_initVar
  20              		.bss
  21              		.type	cyBle_initVar, %object
  22              		.size	cyBle_initVar, 1
  23              	cyBle_initVar:
  24 0000 00       		.space	1
  25              		.global	cyBle_stackMemoryRam
  26              		.section	.noinit,"aw",%progbits
  27              		.align	3
  28              		.type	cyBle_stackMemoryRam, %object
  29              		.size	cyBle_stackMemoryRam, 2784
  30              	cyBle_stackMemoryRam:
  31 0000 00000000 		.space	2784
  31      00000000 
  31      00000000 
  31      00000000 
  31      00000000 
  32              		.global	cyBle_discoveryParam
  33              		.data
  34              		.align	2
  35              		.type	cyBle_discoveryParam, %object
  36              		.size	cyBle_discoveryParam, 16
  37              	cyBle_discoveryParam:
  38 0000 4006     		.short	1600
  39 0002 4006     		.short	1600
  40 0004 03       		.byte	3
  41 0005 00       		.byte	0
  42 0006 00       		.byte	0
  43 0007 00       		.byte	0
  44 0008 00       		.byte	0
  45 0009 00       		.byte	0
  46 000a 50       		.byte	80
  47 000b A0       		.byte	-96
  48 000c 00       		.byte	0
  49 000d 07       		.byte	7
  50 000e 00       		.byte	0
  51 000f 00       		.space	1
  52              		.global	cyBle_discoveryData
  53              		.align	2
ARM GAS  C:\Users\TTSS\AppData\Local\Temp\ccKqB1vQ.s 			page 2


  54              		.type	cyBle_discoveryData, %object
  55              		.size	cyBle_discoveryData, 32
  56              	cyBle_discoveryData:
  57 0010 02       		.byte	2
  58 0011 01       		.byte	1
  59 0012 04       		.byte	4
  60 0013 0B       		.byte	11
  61 0014 09       		.byte	9
  62 0015 41       		.byte	65
  63 0016 69       		.byte	105
  64 0017 72       		.byte	114
  65 0018 20       		.byte	32
  66 0019 42       		.byte	66
  67 001a 65       		.byte	101
  68 001b 61       		.byte	97
  69 001c 63       		.byte	99
  70 001d 6F       		.byte	111
  71 001e 6E       		.byte	110
  72 001f 0B       		.byte	11
  73 0020 FF       		.byte	-1
  74 0021 31       		.byte	49
  75 0022 01       		.byte	1
  76 0023 00       		.byte	0
  77 0024 00       		.byte	0
  78 0025 00       		.byte	0
  79 0026 00       		.byte	0
  80 0027 00       		.byte	0
  81 0028 00       		.byte	0
  82 0029 00       		.byte	0
  83 002a 00       		.byte	0
  84 002b 00       		.byte	0
  85 002c 00       		.byte	0
  86 002d 00       		.byte	0
  87 002e 00       		.byte	0
  88 002f 1B       		.byte	27
  89              		.global	cyBle_scanRspData
  90              		.bss
  91 0001 000000   		.align	2
  92              		.type	cyBle_scanRspData, %object
  93              		.size	cyBle_scanRspData, 32
  94              	cyBle_scanRspData:
  95 0004 00000000 		.space	32
  95      00000000 
  95      00000000 
  95      00000000 
  95      00000000 
  96              		.global	cyBle_discoveryModeInfo
  97              		.data
  98              		.align	2
  99              		.type	cyBle_discoveryModeInfo, %object
 100              		.size	cyBle_discoveryModeInfo, 20
 101              	cyBle_discoveryModeInfo:
 102 0030 00       		.byte	0
 103 0031 000000   		.space	3
 104 0034 00000000 		.word	cyBle_discoveryParam
 105 0038 00000000 		.word	cyBle_discoveryData
 106 003c 00000000 		.word	cyBle_scanRspData
ARM GAS  C:\Users\TTSS\AppData\Local\Temp\ccKqB1vQ.s 			page 3


 107 0040 0000     		.short	0
 108 0042 0000     		.space	2
 109              		.comm	CyBle_ApplCallback,4,4
 110              		.global	cyBle_deviceAddress
 111              		.align	2
 112              		.type	cyBle_deviceAddress, %object
 113              		.size	cyBle_deviceAddress, 7
 114              	cyBle_deviceAddress:
 115 0044 00       		.byte	0
 116 0045 00       		.byte	0
 117 0046 00       		.byte	0
 118 0047 50       		.byte	80
 119 0048 A0       		.byte	-96
 120 0049 00       		.byte	0
 121 004a 00       		.byte	0
 122              		.global	cyBle_sflashDeviceAddress
 123 004b 00       		.align	2
 124              		.type	cyBle_sflashDeviceAddress, %object
 125              		.size	cyBle_sflashDeviceAddress, 4
 126              	cyBle_sflashDeviceAddress:
 127 004c 00F4FF0F 		.word	268432384
 128              		.section	.text.CyBle_Init,"ax",%progbits
 129              		.align	2
 130              		.global	CyBle_Init
 131              		.code	16
 132              		.thumb_func
 133              		.type	CyBle_Init, %function
 134              	CyBle_Init:
 135              	.LFB2:
 136              		.file 1 "Generated_Source\\PSoC4\\BLE.c"
   1:Generated_Source\PSoC4/BLE.c **** /***************************************************************************//**
   2:Generated_Source\PSoC4/BLE.c **** * \file CYBLE.c
   3:Generated_Source\PSoC4/BLE.c **** * \version 3.40
   4:Generated_Source\PSoC4/BLE.c **** * 
   5:Generated_Source\PSoC4/BLE.c **** * \brief
   6:Generated_Source\PSoC4/BLE.c **** *  This file contains the source code for the Common APIs of the BLE Component.
   7:Generated_Source\PSoC4/BLE.c **** * 
   8:Generated_Source\PSoC4/BLE.c **** ********************************************************************************
   9:Generated_Source\PSoC4/BLE.c **** * \copyright
  10:Generated_Source\PSoC4/BLE.c **** * Copyright 2014-2016, Cypress Semiconductor Corporation.  All rights reserved.
  11:Generated_Source\PSoC4/BLE.c **** * You may use this file only in accordance with the license, terms, conditions,
  12:Generated_Source\PSoC4/BLE.c **** * disclaimers, and limitations in the end user license agreement accompanying
  13:Generated_Source\PSoC4/BLE.c **** * the software package with which this file was provided.
  14:Generated_Source\PSoC4/BLE.c **** *******************************************************************************/
  15:Generated_Source\PSoC4/BLE.c **** 
  16:Generated_Source\PSoC4/BLE.c **** #include "BLE_eventHandler.h"
  17:Generated_Source\PSoC4/BLE.c **** #include "BLE_HAL_PVT.h"
  18:Generated_Source\PSoC4/BLE.c **** #include <stdlib.h>
  19:Generated_Source\PSoC4/BLE.c **** 
  20:Generated_Source\PSoC4/BLE.c **** 
  21:Generated_Source\PSoC4/BLE.c **** /***************************************
  22:Generated_Source\PSoC4/BLE.c **** * Function Prototypes
  23:Generated_Source\PSoC4/BLE.c **** ***************************************/
  24:Generated_Source\PSoC4/BLE.c **** 
  25:Generated_Source\PSoC4/BLE.c **** #if(CYBLE_GATT_ROLE_SERVER)
  26:Generated_Source\PSoC4/BLE.c ****     #if(CYBLE_GAP_ROLE_PERIPHERAL)
  27:Generated_Source\PSoC4/BLE.c ****         static void CyBle_ChangeAdLocalName(const char8 name[], uint8 dest);
ARM GAS  C:\Users\TTSS\AppData\Local\Temp\ccKqB1vQ.s 			page 4


  28:Generated_Source\PSoC4/BLE.c ****     #endif /* (CYBLE_GAP_ROLE_PERIPHERAL) */
  29:Generated_Source\PSoC4/BLE.c **** #endif /* (CYBLE_GATT_ROLE_SERVER) */
  30:Generated_Source\PSoC4/BLE.c ****     
  31:Generated_Source\PSoC4/BLE.c **** 
  32:Generated_Source\PSoC4/BLE.c **** /***************************************
  33:Generated_Source\PSoC4/BLE.c **** * Global Variables
  34:Generated_Source\PSoC4/BLE.c **** ***************************************/
  35:Generated_Source\PSoC4/BLE.c **** 
  36:Generated_Source\PSoC4/BLE.c **** /* Indicates whether the BLE has been initialized. The variable is initialized to
  37:Generated_Source\PSoC4/BLE.c ****    0 and set to 1 the first time CyBle_Start() is called. This allows the component
  38:Generated_Source\PSoC4/BLE.c ****    to restart without reinitialization after the first call to the CyBle_Start() 
  39:Generated_Source\PSoC4/BLE.c ****    routine. If reinitialization of the component is required, the variable should 
  40:Generated_Source\PSoC4/BLE.c ****    be set to 0 before the CyBle_Start() routine is called. Alternatively, the BLE
  41:Generated_Source\PSoC4/BLE.c ****    can be reinitialized by calling the CyBle_Init() function.
  42:Generated_Source\PSoC4/BLE.c **** */
  43:Generated_Source\PSoC4/BLE.c **** uint8  cyBle_initVar = 0u;
  44:Generated_Source\PSoC4/BLE.c **** 
  45:Generated_Source\PSoC4/BLE.c **** /* Allocate RAM memory for stack. This buffer could be reused by application when 
  46:Generated_Source\PSoC4/BLE.c ****    BLE component is stopped. For export mode buffer is allocated in heap.
  47:Generated_Source\PSoC4/BLE.c **** */
  48:Generated_Source\PSoC4/BLE.c **** #if(CYBLE_SHARING_MODE_EXPORT)
  49:Generated_Source\PSoC4/BLE.c ****     
  50:Generated_Source\PSoC4/BLE.c **** uint8 *cyBle_stackMemoryRam = NULL;
  51:Generated_Source\PSoC4/BLE.c **** 
  52:Generated_Source\PSoC4/BLE.c **** #else
  53:Generated_Source\PSoC4/BLE.c **** 
  54:Generated_Source\PSoC4/BLE.c **** CYBLE_CYALIGNED_BEGIN CY_NOINIT uint8 cyBle_stackMemoryRam[CYBLE_STACK_RAM_SIZE] CYBLE_CYALIGNED_EN
  55:Generated_Source\PSoC4/BLE.c **** 
  56:Generated_Source\PSoC4/BLE.c **** #endif  /* CYBLE_SHARING_MODE_EXPORT */
  57:Generated_Source\PSoC4/BLE.c **** 
  58:Generated_Source\PSoC4/BLE.c **** #if(CYBLE_GAP_ROLE_PERIPHERAL || CYBLE_GAP_ROLE_BROADCASTER)
  59:Generated_Source\PSoC4/BLE.c **** 
  60:Generated_Source\PSoC4/BLE.c **** CYBLE_GAPP_DISC_PARAM_T cyBle_discoveryParam =
  61:Generated_Source\PSoC4/BLE.c **** {
  62:Generated_Source\PSoC4/BLE.c ****     0x0640u,    /* uint16 advertising_interval_min */
  63:Generated_Source\PSoC4/BLE.c ****     0x0640u,    /* uint16 advertising_interval_max */
  64:Generated_Source\PSoC4/BLE.c ****     CYBLE_GAPP_NON_CONNECTABLE_UNDIRECTED_ADV, /* uint8 advertising_type */
  65:Generated_Source\PSoC4/BLE.c ****     0x00u,      /* uint8 own_addr_type */
  66:Generated_Source\PSoC4/BLE.c ****     0x00u,      /* uint8 direct_addr_type */
  67:Generated_Source\PSoC4/BLE.c ****     {0x00u, 0x00u, 0x00u, 0x50u, 0xA0u, 0x00u}, /* uint8* direct_addr */
  68:Generated_Source\PSoC4/BLE.c ****     0x07u,      /* uint8 advertising_channel_map */
  69:Generated_Source\PSoC4/BLE.c ****     0x00u,      /* uint8 advertising_filter_policy */
  70:Generated_Source\PSoC4/BLE.c **** };
  71:Generated_Source\PSoC4/BLE.c **** 
  72:Generated_Source\PSoC4/BLE.c **** CYBLE_GAPP_DISC_DATA_T cyBle_discoveryData =
  73:Generated_Source\PSoC4/BLE.c **** {
  74:Generated_Source\PSoC4/BLE.c ****     { 0x02u, 0x01u, 0x04u, 0x0Bu, 0x09u, 0x41u, 0x69u,
  75:Generated_Source\PSoC4/BLE.c ****     0x72u, 0x20u, 0x42u, 0x65u, 0x61u, 0x63u, 0x6Fu, 0x6Eu,
  76:Generated_Source\PSoC4/BLE.c ****     0x0Bu, 0xFFu, 0x31u, 0x01u, 0x00u, 0x00u, 0x00u, 0x00u,
  77:Generated_Source\PSoC4/BLE.c ****     0x00u, 0x00u, 0x00u, 0x00u, 0x00u, 0x00u, 0x00u, 0x00u }, /* uint8 advertising_data[CYBLE_MAX_A
  78:Generated_Source\PSoC4/BLE.c ****     0x1Bu,      /* uint8 adv_data_length */
  79:Generated_Source\PSoC4/BLE.c **** };
  80:Generated_Source\PSoC4/BLE.c **** 
  81:Generated_Source\PSoC4/BLE.c **** CYBLE_GAPP_SCAN_RSP_DATA_T cyBle_scanRspData =
  82:Generated_Source\PSoC4/BLE.c **** {
  83:Generated_Source\PSoC4/BLE.c ****     { 0x00u, 0x00u, 0x00u, 0x00u, 0x00u, 0x00u, 0x00u,
  84:Generated_Source\PSoC4/BLE.c ****     0x00u, 0x00u, 0x00u, 0x00u, 0x00u, 0x00u, 0x00u, 0x00u,
ARM GAS  C:\Users\TTSS\AppData\Local\Temp\ccKqB1vQ.s 			page 5


  85:Generated_Source\PSoC4/BLE.c ****     0x00u, 0x00u, 0x00u, 0x00u, 0x00u, 0x00u, 0x00u, 0x00u,
  86:Generated_Source\PSoC4/BLE.c ****     0x00u, 0x00u, 0x00u, 0x00u, 0x00u, 0x00u, 0x00u, 0x00u }, /* uint8 scan_rsp_data[CYBLE_MAX_SCAN
  87:Generated_Source\PSoC4/BLE.c ****     0x00u,      /* uint8 scan_rsp_data_length */
  88:Generated_Source\PSoC4/BLE.c **** };
  89:Generated_Source\PSoC4/BLE.c **** 
  90:Generated_Source\PSoC4/BLE.c **** /* This variable of type CYBLE_GAPP_DISC_MODE_INFO_T is present only when 
  91:Generated_Source\PSoC4/BLE.c ****    the BLE component is configured for Peripheral GAP role or Central and 
  92:Generated_Source\PSoC4/BLE.c ****    Peripheral GAP role. It contains the Advertisement settings and also the 
  93:Generated_Source\PSoC4/BLE.c ****    Advertisement and Scan response data parameters entered in the customizer.
  94:Generated_Source\PSoC4/BLE.c ****    This variable can be used by advanced users to change Advertisement settings,
  95:Generated_Source\PSoC4/BLE.c ****    Advertisement or Scan response data in runtime. 
  96:Generated_Source\PSoC4/BLE.c **** */
  97:Generated_Source\PSoC4/BLE.c **** CYBLE_GAPP_DISC_MODE_INFO_T cyBle_discoveryModeInfo =
  98:Generated_Source\PSoC4/BLE.c **** {
  99:Generated_Source\PSoC4/BLE.c ****     0x00u,      /* uint8 discMode */
 100:Generated_Source\PSoC4/BLE.c ****     &cyBle_discoveryParam,
 101:Generated_Source\PSoC4/BLE.c ****     &cyBle_discoveryData,
 102:Generated_Source\PSoC4/BLE.c ****     &cyBle_scanRspData,
 103:Generated_Source\PSoC4/BLE.c ****     0x0000u,    /* uint16 advTo */
 104:Generated_Source\PSoC4/BLE.c **** };
 105:Generated_Source\PSoC4/BLE.c **** 
 106:Generated_Source\PSoC4/BLE.c **** 
 107:Generated_Source\PSoC4/BLE.c **** #endif /* CYBLE_GAP_ROLE_PERIPHERAL || CYBLE_GAP_ROLE_BROADCASTER */
 108:Generated_Source\PSoC4/BLE.c **** 
 109:Generated_Source\PSoC4/BLE.c **** #if(CYBLE_GAP_ROLE_CENTRAL)
 110:Generated_Source\PSoC4/BLE.c ****     
 111:Generated_Source\PSoC4/BLE.c **** CYBLE_GAPC_CONN_PARAM_T cyBle_connectionParameters;
 112:Generated_Source\PSoC4/BLE.c **** 
 113:Generated_Source\PSoC4/BLE.c **** /* Connecting timeout is set to 30 seconds in CyBle_Init function. 
 114:Generated_Source\PSoC4/BLE.c ****    Not zero value starts timer in CyBle_GapcConnectDevice() API fucntion.
 115:Generated_Source\PSoC4/BLE.c **** */
 116:Generated_Source\PSoC4/BLE.c **** uint16 cyBle_connectingTimeout;
 117:Generated_Source\PSoC4/BLE.c ****     
 118:Generated_Source\PSoC4/BLE.c **** #endif /* CYBLE_GAP_ROLE_CENTRAL */
 119:Generated_Source\PSoC4/BLE.c **** 
 120:Generated_Source\PSoC4/BLE.c **** #if(CYBLE_GAP_ROLE_CENTRAL || CYBLE_GAP_ROLE_OBSERVER)
 121:Generated_Source\PSoC4/BLE.c ****     
 122:Generated_Source\PSoC4/BLE.c **** 
 123:Generated_Source\PSoC4/BLE.c ****     
 124:Generated_Source\PSoC4/BLE.c **** #endif /* CYBLE_GAP_ROLE_CENTRAL || CYBLE_GAP_ROLE_OBSERVER */
 125:Generated_Source\PSoC4/BLE.c **** 
 126:Generated_Source\PSoC4/BLE.c **** #if((CYBLE_GAP_ROLE_PERIPHERAL || CYBLE_GAP_ROLE_CENTRAL) && (CYBLE_BONDING_REQUIREMENT == CYBLE_BO
 127:Generated_Source\PSoC4/BLE.c **** 
 128:Generated_Source\PSoC4/BLE.c **** uint8 cyBle_peerBonding;
 129:Generated_Source\PSoC4/BLE.c **** uint8 cyBle_pendingFlashWrite;
 130:Generated_Source\PSoC4/BLE.c ****     
 131:Generated_Source\PSoC4/BLE.c **** #if(CYBLE_GATT_DB_CCCD_COUNT != 0u)
 132:Generated_Source\PSoC4/BLE.c ****     static uint8 cyBle_pendingFlashClearCccdHandle;
 133:Generated_Source\PSoC4/BLE.c **** #endif /* CYBLE_GATT_DB_CCCD_COUNT != 0u */
 134:Generated_Source\PSoC4/BLE.c ****     
 135:Generated_Source\PSoC4/BLE.c **** #endif  /* (CYBLE_BONDING_REQUIREMENT == CYBLE_BONDING_YES) */
 136:Generated_Source\PSoC4/BLE.c **** 
 137:Generated_Source\PSoC4/BLE.c **** CYBLE_CALLBACK_T CyBle_ApplCallback;
 138:Generated_Source\PSoC4/BLE.c **** CYBLE_GAP_BD_ADDR_T cyBle_deviceAddress = {{0x00u, 0x00u, 0x00u, 0x50u, 0xA0u, 0x00u}, 0x00u };
 139:Generated_Source\PSoC4/BLE.c **** CYBLE_GAP_BD_ADDR_T * cyBle_sflashDeviceAddress = CYBLE_SFLASH_DEVICE_ADDRESS_PTR;
 140:Generated_Source\PSoC4/BLE.c **** 
 141:Generated_Source\PSoC4/BLE.c **** 
ARM GAS  C:\Users\TTSS\AppData\Local\Temp\ccKqB1vQ.s 			page 6


 142:Generated_Source\PSoC4/BLE.c **** /******************************************************************************
 143:Generated_Source\PSoC4/BLE.c **** * Function Name: CyBle_Init
 144:Generated_Source\PSoC4/BLE.c **** ***************************************************************************//**
 145:Generated_Source\PSoC4/BLE.c **** *
 146:Generated_Source\PSoC4/BLE.c **** *   Initializes the component with the parameters set in the customizer.
 147:Generated_Source\PSoC4/BLE.c **** * 
 148:Generated_Source\PSoC4/BLE.c **** *  \return
 149:Generated_Source\PSoC4/BLE.c **** *   None
 150:Generated_Source\PSoC4/BLE.c **** * 
 151:Generated_Source\PSoC4/BLE.c **** ******************************************************************************/
 152:Generated_Source\PSoC4/BLE.c **** void CyBle_Init(void)
 153:Generated_Source\PSoC4/BLE.c **** {
 137              		.loc 1 153 0
 138              		.cfi_startproc
 139              		@ args = 0, pretend = 0, frame = 0
 140              		@ frame_needed = 1, uses_anonymous_args = 0
 141 0000 80B5     		push	{r7, lr}
 142              		.cfi_def_cfa_offset 8
 143              		.cfi_offset 7, -8
 144              		.cfi_offset 14, -4
 145 0002 00AF     		add	r7, sp, #0
 146              		.cfi_def_cfa_register 7
 154:Generated_Source\PSoC4/BLE.c ****     cyBle_eventHandlerFlag = 0u;
 147              		.loc 1 154 0
 148 0004 064B     		ldr	r3, .L2
 149 0006 0022     		movs	r2, #0
 150 0008 1A70     		strb	r2, [r3]
 155:Generated_Source\PSoC4/BLE.c ****     cyBle_busyStatus = CYBLE_STACK_STATE_FREE;
 151              		.loc 1 155 0
 152 000a 064B     		ldr	r3, .L2+4
 153 000c 0022     		movs	r2, #0
 154 000e 1A70     		strb	r2, [r3]
 156:Generated_Source\PSoC4/BLE.c **** 
 157:Generated_Source\PSoC4/BLE.c ****     #if(CYBLE_GAP_ROLE_PERIPHERAL || CYBLE_GAP_ROLE_BROADCASTER) 
 158:Generated_Source\PSoC4/BLE.c ****         cyBle_advertisingIntervalType = CYBLE_ADVERTISING_FAST; 
 155              		.loc 1 158 0
 156 0010 054B     		ldr	r3, .L2+8
 157 0012 0022     		movs	r2, #0
 158 0014 1A70     		strb	r2, [r3]
 159:Generated_Source\PSoC4/BLE.c ****     #endif /* (CYBLE_GAP_ROLE_PERIPHERAL || CYBLE_GAP_ROLE_BROADCASTER)  */
 160:Generated_Source\PSoC4/BLE.c ****     #if(CYBLE_GAP_ROLE_CENTRAL || CYBLE_GAP_ROLE_OBSERVER)
 161:Generated_Source\PSoC4/BLE.c ****         cyBle_scanningIntervalType = CYBLE_SCANNING_FAST; 
 162:Generated_Source\PSoC4/BLE.c ****     #endif /* (CYBLE_GAP_ROLE_CENTRAL || CYBLE_GAP_ROLE_OBSERVER) */
 163:Generated_Source\PSoC4/BLE.c ****         
 164:Generated_Source\PSoC4/BLE.c ****     /* Init default connection parameters. 
 165:Generated_Source\PSoC4/BLE.c ****        Application may change it before initiating a connection */
 166:Generated_Source\PSoC4/BLE.c ****     #if(CYBLE_GAP_ROLE_CENTRAL)
 167:Generated_Source\PSoC4/BLE.c ****         cyBle_connectionParameters.scanIntv = cyBle_discoveryInfo.scanIntv;
 168:Generated_Source\PSoC4/BLE.c ****         cyBle_connectionParameters.scanWindow = cyBle_discoveryInfo.scanWindow;
 169:Generated_Source\PSoC4/BLE.c ****         cyBle_connectionParameters.ownAddrType = cyBle_discoveryInfo.ownAddrType;
 170:Generated_Source\PSoC4/BLE.c ****         cyBle_connectionParameters.initiatorFilterPolicy = cyBle_discoveryInfo.scanFilterPolicy;
 171:Generated_Source\PSoC4/BLE.c ****         cyBle_connectionParameters.connIntvMin = CYBLE_GAPC_CONNECTION_INTERVAL_MIN;
 172:Generated_Source\PSoC4/BLE.c ****         cyBle_connectionParameters.connIntvMax = CYBLE_GAPC_CONNECTION_INTERVAL_MAX;
 173:Generated_Source\PSoC4/BLE.c ****         cyBle_connectionParameters.connLatency = CYBLE_GAPC_CONNECTION_SLAVE_LATENCY;
 174:Generated_Source\PSoC4/BLE.c ****         cyBle_connectionParameters.supervisionTO = CYBLE_GAPC_CONNECTION_TIME_OUT;
 175:Generated_Source\PSoC4/BLE.c ****         cyBle_connectionParameters.minCeLength = 0x0000u;
 176:Generated_Source\PSoC4/BLE.c ****         cyBle_connectionParameters.maxCeLength = 0xFFFFu;
ARM GAS  C:\Users\TTSS\AppData\Local\Temp\ccKqB1vQ.s 			page 7


 177:Generated_Source\PSoC4/BLE.c ****         
 178:Generated_Source\PSoC4/BLE.c ****         cyBle_connectingTimeout = CYBLE_GAPC_CONNECTING_TIMEOUT;
 179:Generated_Source\PSoC4/BLE.c ****     #endif /* CYBLE_GAP_ROLE_CENTRAL */
 180:Generated_Source\PSoC4/BLE.c **** 
 181:Generated_Source\PSoC4/BLE.c ****     CyBle_ServiceInit();
 159              		.loc 1 181 0
 160 0016 FFF7FEFF 		bl	CyBle_ServiceInit
 182:Generated_Source\PSoC4/BLE.c **** 
 183:Generated_Source\PSoC4/BLE.c ****     #if((CYBLE_GAP_ROLE_PERIPHERAL || CYBLE_GAP_ROLE_CENTRAL) && (CYBLE_BONDING_REQUIREMENT == CYBL
 184:Generated_Source\PSoC4/BLE.c ****         cyBle_pendingFlashWrite = 0u;
 185:Generated_Source\PSoC4/BLE.c ****         cyBle_peerBonding = CYBLE_GAP_BONDING_NONE;
 186:Generated_Source\PSoC4/BLE.c ****     #endif  /* (CYBLE_BONDING_REQUIREMENT == CYBLE_BONDING_YES) */
 187:Generated_Source\PSoC4/BLE.c **** 
 188:Generated_Source\PSoC4/BLE.c **** }
 161              		.loc 1 188 0
 162 001a C046     		nop
 163 001c BD46     		mov	sp, r7
 164              		@ sp needed
 165 001e 80BD     		pop	{r7, pc}
 166              	.L3:
 167              		.align	2
 168              	.L2:
 169 0020 00000000 		.word	cyBle_eventHandlerFlag
 170 0024 00000000 		.word	cyBle_busyStatus
 171 0028 00000000 		.word	cyBle_advertisingIntervalType
 172              		.cfi_endproc
 173              	.LFE2:
 174              		.size	CyBle_Init, .-CyBle_Init
 175              		.section	.text.CyBle_ServiceInit,"ax",%progbits
 176              		.align	2
 177              		.global	CyBle_ServiceInit
 178              		.code	16
 179              		.thumb_func
 180              		.type	CyBle_ServiceInit, %function
 181              	CyBle_ServiceInit:
 182              	.LFB3:
 189:Generated_Source\PSoC4/BLE.c **** 
 190:Generated_Source\PSoC4/BLE.c **** 
 191:Generated_Source\PSoC4/BLE.c **** /******************************************************************************
 192:Generated_Source\PSoC4/BLE.c **** * Function Name: CyBle_ServiceInit
 193:Generated_Source\PSoC4/BLE.c **** ***************************************************************************//**
 194:Generated_Source\PSoC4/BLE.c **** * 
 195:Generated_Source\PSoC4/BLE.c **** *  Initializes all included services.
 196:Generated_Source\PSoC4/BLE.c **** * 
 197:Generated_Source\PSoC4/BLE.c **** * \return
 198:Generated_Source\PSoC4/BLE.c **** *  None
 199:Generated_Source\PSoC4/BLE.c **** * 
 200:Generated_Source\PSoC4/BLE.c **** ******************************************************************************/
 201:Generated_Source\PSoC4/BLE.c **** void CyBle_ServiceInit(void)
 202:Generated_Source\PSoC4/BLE.c **** {
 183              		.loc 1 202 0
 184              		.cfi_startproc
 185              		@ args = 0, pretend = 0, frame = 0
 186              		@ frame_needed = 1, uses_anonymous_args = 0
 187 0000 80B5     		push	{r7, lr}
 188              		.cfi_def_cfa_offset 8
 189              		.cfi_offset 7, -8
ARM GAS  C:\Users\TTSS\AppData\Local\Temp\ccKqB1vQ.s 			page 8


 190              		.cfi_offset 14, -4
 191 0002 00AF     		add	r7, sp, #0
 192              		.cfi_def_cfa_register 7
 203:Generated_Source\PSoC4/BLE.c ****     #if(CYBLE_GATT_ROLE_CLIENT)
 204:Generated_Source\PSoC4/BLE.c ****         /* Check service range before clearing to support partial discovery */
 205:Generated_Source\PSoC4/BLE.c ****         if(cyBle_serverInfo[CYBLE_SRVI_GAP].range.startHandle == CYBLE_GATT_INVALID_ATTR_HANDLE_VAL
 206:Generated_Source\PSoC4/BLE.c ****         {
 207:Generated_Source\PSoC4/BLE.c ****             (void)memset(&cyBle_gapc, 0, sizeof(cyBle_gapc));
 208:Generated_Source\PSoC4/BLE.c ****         }
 209:Generated_Source\PSoC4/BLE.c ****         if(cyBle_serverInfo[CYBLE_SRVI_GATT].range.startHandle == CYBLE_GATT_INVALID_ATTR_HANDLE_VA
 210:Generated_Source\PSoC4/BLE.c ****         {
 211:Generated_Source\PSoC4/BLE.c ****             (void)memset(&cyBle_gattc, 0, sizeof(cyBle_gattc));
 212:Generated_Source\PSoC4/BLE.c ****         }
 213:Generated_Source\PSoC4/BLE.c ****     #endif /* CYBLE_GATT_ROLE_CLIENT */
 214:Generated_Source\PSoC4/BLE.c **** 
 215:Generated_Source\PSoC4/BLE.c ****    	#ifdef CYBLE_AIOS
 216:Generated_Source\PSoC4/BLE.c ****         CyBle_AiosInit();
 217:Generated_Source\PSoC4/BLE.c ****     #endif /* CYBLE_AIOS */
 218:Generated_Source\PSoC4/BLE.c **** 
 219:Generated_Source\PSoC4/BLE.c **** 	#ifdef CYBLE_ANCS
 220:Generated_Source\PSoC4/BLE.c ****         CyBle_AncsInit();
 221:Generated_Source\PSoC4/BLE.c ****     #endif /* CYBLE_ANCS */
 222:Generated_Source\PSoC4/BLE.c **** 	
 223:Generated_Source\PSoC4/BLE.c ****     #ifdef CYBLE_ANS
 224:Generated_Source\PSoC4/BLE.c ****         CyBle_AnsInit();
 225:Generated_Source\PSoC4/BLE.c ****     #endif /* CYBLE_ANS */
 226:Generated_Source\PSoC4/BLE.c ****     
 227:Generated_Source\PSoC4/BLE.c ****     #ifdef CYBLE_BAS
 228:Generated_Source\PSoC4/BLE.c ****         CyBle_BasInit();
 229:Generated_Source\PSoC4/BLE.c ****     #endif /* CYBLE_BAS */
 230:Generated_Source\PSoC4/BLE.c ****     
 231:Generated_Source\PSoC4/BLE.c ****     #ifdef CYBLE_BCS
 232:Generated_Source\PSoC4/BLE.c ****         CyBle_BcsInit();
 233:Generated_Source\PSoC4/BLE.c ****     #endif /* CYBLE_BCS */
 234:Generated_Source\PSoC4/BLE.c **** 
 235:Generated_Source\PSoC4/BLE.c ****     #ifdef CYBLE_BLS
 236:Generated_Source\PSoC4/BLE.c ****         CyBle_BlsInit();
 237:Generated_Source\PSoC4/BLE.c ****     #endif /* CYBLE_BLS */
 238:Generated_Source\PSoC4/BLE.c ****     
 239:Generated_Source\PSoC4/BLE.c ****     #ifdef CYBLE_BMS
 240:Generated_Source\PSoC4/BLE.c ****         CyBle_BmsInit();
 241:Generated_Source\PSoC4/BLE.c ****     #endif /* CYBLE_BMS */
 242:Generated_Source\PSoC4/BLE.c ****     
 243:Generated_Source\PSoC4/BLE.c ****     #ifdef CYBLE_CGMS
 244:Generated_Source\PSoC4/BLE.c ****         CyBle_CgmsInit();
 245:Generated_Source\PSoC4/BLE.c ****     #endif /* CYBLE_CGMS */
 246:Generated_Source\PSoC4/BLE.c **** 
 247:Generated_Source\PSoC4/BLE.c ****     #ifdef CYBLE_CPS
 248:Generated_Source\PSoC4/BLE.c ****         CyBle_CpsInit();
 249:Generated_Source\PSoC4/BLE.c ****     #endif /* CYBLE_CPS */
 250:Generated_Source\PSoC4/BLE.c **** 
 251:Generated_Source\PSoC4/BLE.c ****     #ifdef CYBLE_CSCS
 252:Generated_Source\PSoC4/BLE.c ****         CyBle_CscsInit();
 253:Generated_Source\PSoC4/BLE.c ****     #endif /* CYBLE_CSCS */
 254:Generated_Source\PSoC4/BLE.c ****     
 255:Generated_Source\PSoC4/BLE.c ****     #ifdef CYBLE_CTS
 256:Generated_Source\PSoC4/BLE.c ****         CyBle_CtsInit();
ARM GAS  C:\Users\TTSS\AppData\Local\Temp\ccKqB1vQ.s 			page 9


 257:Generated_Source\PSoC4/BLE.c ****     #endif /* CYBLE_CTS */
 258:Generated_Source\PSoC4/BLE.c **** 
 259:Generated_Source\PSoC4/BLE.c ****     #ifdef CYBLE_CUSTOM
 260:Generated_Source\PSoC4/BLE.c ****         CyBle_CustomInit();
 261:Generated_Source\PSoC4/BLE.c ****     #endif /* CYBLE_CUSTOM */
 262:Generated_Source\PSoC4/BLE.c **** 
 263:Generated_Source\PSoC4/BLE.c ****     #ifdef CYBLE_DIS
 264:Generated_Source\PSoC4/BLE.c ****         CyBle_DisInit();
 265:Generated_Source\PSoC4/BLE.c ****     #endif /* CYBLE_DIS */
 266:Generated_Source\PSoC4/BLE.c **** 
 267:Generated_Source\PSoC4/BLE.c ****     #ifdef CYBLE_ESS
 268:Generated_Source\PSoC4/BLE.c ****         CyBle_EssInit();
 269:Generated_Source\PSoC4/BLE.c ****     #endif /* CYBLE_ESS */
 270:Generated_Source\PSoC4/BLE.c ****     
 271:Generated_Source\PSoC4/BLE.c ****     #ifdef CYBLE_GLS
 272:Generated_Source\PSoC4/BLE.c ****         CyBle_GlsInit();
 273:Generated_Source\PSoC4/BLE.c ****     #endif /* CYBLE_GLS */
 274:Generated_Source\PSoC4/BLE.c ****     
 275:Generated_Source\PSoC4/BLE.c ****     #ifdef CYBLE_HIDS
 276:Generated_Source\PSoC4/BLE.c ****         CyBle_HidsInit();
 277:Generated_Source\PSoC4/BLE.c ****     #endif /* CYBLE_HIDS */
 278:Generated_Source\PSoC4/BLE.c **** 
 279:Generated_Source\PSoC4/BLE.c ****     #ifdef CYBLE_HPS
 280:Generated_Source\PSoC4/BLE.c ****         CyBle_HpsInit();
 281:Generated_Source\PSoC4/BLE.c ****     #endif /* CYBLE_HPS */
 282:Generated_Source\PSoC4/BLE.c **** 
 283:Generated_Source\PSoC4/BLE.c ****     #ifdef CYBLE_HRS
 284:Generated_Source\PSoC4/BLE.c ****         CyBle_HrsInit();
 285:Generated_Source\PSoC4/BLE.c ****     #endif /* CYBLE_HRS */
 286:Generated_Source\PSoC4/BLE.c ****     
 287:Generated_Source\PSoC4/BLE.c ****     #ifdef CYBLE_HTS
 288:Generated_Source\PSoC4/BLE.c ****         CyBle_HtsInit();
 289:Generated_Source\PSoC4/BLE.c ****     #endif /* CYBLE_RSCS */
 290:Generated_Source\PSoC4/BLE.c **** 
 291:Generated_Source\PSoC4/BLE.c ****     #ifdef CYBLE_IAS
 292:Generated_Source\PSoC4/BLE.c ****         CyBle_IasInit();
 293:Generated_Source\PSoC4/BLE.c ****     #endif /* CYBLE_IAS */
 294:Generated_Source\PSoC4/BLE.c **** 
 295:Generated_Source\PSoC4/BLE.c ****     #ifdef CYBLE_IPS
 296:Generated_Source\PSoC4/BLE.c ****         CyBle_IpsInit();
 297:Generated_Source\PSoC4/BLE.c ****     #endif /* CYBLE_IPS */
 298:Generated_Source\PSoC4/BLE.c ****     
 299:Generated_Source\PSoC4/BLE.c ****     #ifdef CYBLE_LLS
 300:Generated_Source\PSoC4/BLE.c ****         CyBle_LlsInit();
 301:Generated_Source\PSoC4/BLE.c ****     #endif /* CYBLE_LLS */
 302:Generated_Source\PSoC4/BLE.c **** 
 303:Generated_Source\PSoC4/BLE.c ****     #ifdef CYBLE_LNS
 304:Generated_Source\PSoC4/BLE.c ****         CyBle_LnsInit();
 305:Generated_Source\PSoC4/BLE.c ****     #endif /* CYBLE_LNS */
 306:Generated_Source\PSoC4/BLE.c ****     
 307:Generated_Source\PSoC4/BLE.c ****     #ifdef CYBLE_NDCS
 308:Generated_Source\PSoC4/BLE.c ****         CyBle_NdcsInit();
 309:Generated_Source\PSoC4/BLE.c ****     #endif /* CYBLE_NDCS */
 310:Generated_Source\PSoC4/BLE.c ****     
 311:Generated_Source\PSoC4/BLE.c ****     #ifdef CYBLE_PASS
 312:Generated_Source\PSoC4/BLE.c ****         CyBle_PassInit();
 313:Generated_Source\PSoC4/BLE.c ****     #endif /* CYBLE_PASS */
ARM GAS  C:\Users\TTSS\AppData\Local\Temp\ccKqB1vQ.s 			page 10


 314:Generated_Source\PSoC4/BLE.c ****     
 315:Generated_Source\PSoC4/BLE.c ****     #ifdef CYBLE_PLXS
 316:Generated_Source\PSoC4/BLE.c ****         CyBle_PlxsInit();
 317:Generated_Source\PSoC4/BLE.c ****     #endif /* CYBLE_PLXS */
 318:Generated_Source\PSoC4/BLE.c ****     
 319:Generated_Source\PSoC4/BLE.c ****     #ifdef CYBLE_RSCS
 320:Generated_Source\PSoC4/BLE.c ****         CyBle_RscsInit();
 321:Generated_Source\PSoC4/BLE.c ****     #endif /* CYBLE_RSCS */
 322:Generated_Source\PSoC4/BLE.c **** 
 323:Generated_Source\PSoC4/BLE.c ****     #ifdef CYBLE_RTUS
 324:Generated_Source\PSoC4/BLE.c ****         CyBle_RtusInit();
 325:Generated_Source\PSoC4/BLE.c ****     #endif /* CYBLE_RTUS */
 326:Generated_Source\PSoC4/BLE.c **** 
 327:Generated_Source\PSoC4/BLE.c ****     #ifdef CYBLE_SCPS
 328:Generated_Source\PSoC4/BLE.c ****         CyBle_ScpsInit();
 329:Generated_Source\PSoC4/BLE.c ****     #endif /* CYBLE_SCPS */
 330:Generated_Source\PSoC4/BLE.c ****     
 331:Generated_Source\PSoC4/BLE.c ****     #ifdef CYBLE_TPS
 332:Generated_Source\PSoC4/BLE.c ****         CyBle_TpsInit();
 333:Generated_Source\PSoC4/BLE.c ****     #endif /* CYBLE_TPS */
 334:Generated_Source\PSoC4/BLE.c ****     
 335:Generated_Source\PSoC4/BLE.c ****     #ifdef CYBLE_UDS
 336:Generated_Source\PSoC4/BLE.c ****         CyBle_UdsInit();
 337:Generated_Source\PSoC4/BLE.c ****     #endif /* CYBLE_UDS */
 338:Generated_Source\PSoC4/BLE.c **** 
 339:Generated_Source\PSoC4/BLE.c ****     #ifdef CYBLE_WPTS
 340:Generated_Source\PSoC4/BLE.c ****         CyBle_WptsInit();
 341:Generated_Source\PSoC4/BLE.c ****     #endif /* CYBLE_WPTS */
 342:Generated_Source\PSoC4/BLE.c **** 
 343:Generated_Source\PSoC4/BLE.c ****     #ifdef CYBLE_WSS
 344:Generated_Source\PSoC4/BLE.c ****         CyBle_WssInit();
 345:Generated_Source\PSoC4/BLE.c ****     #endif /* CYBLE_WSS */
 346:Generated_Source\PSoC4/BLE.c **** }
 193              		.loc 1 346 0
 194 0004 C046     		nop
 195 0006 BD46     		mov	sp, r7
 196              		@ sp needed
 197 0008 80BD     		pop	{r7, pc}
 198              		.cfi_endproc
 199              	.LFE3:
 200              		.size	CyBle_ServiceInit, .-CyBle_ServiceInit
 201              		.section	.rodata
 202              		.align	2
 203              	.LC0:
 204 0000 2400     		.short	36
 205 0002 03       		.byte	3
 206 0003 00       		.space	1
 207 0004 3000     		.short	48
 208 0006 01       		.byte	1
 209 0007 00       		.space	1
 210 0008 2800     		.short	40
 211 000a 02       		.byte	2
 212 000b 00       		.space	1
 213 000c 2400     		.short	36
 214 000e 01       		.byte	1
 215 000f 00       		.space	1
 216 0010 2400     		.short	36
ARM GAS  C:\Users\TTSS\AppData\Local\Temp\ccKqB1vQ.s 			page 11


 217 0012 01       		.byte	1
 218 0013 00       		.space	1
 219              		.section	.text.CyBle_Start,"ax",%progbits
 220              		.align	2
 221              		.global	CyBle_Start
 222              		.code	16
 223              		.thumb_func
 224              		.type	CyBle_Start, %function
 225              	CyBle_Start:
 226              	.LFB4:
 347:Generated_Source\PSoC4/BLE.c **** 
 348:Generated_Source\PSoC4/BLE.c **** 
 349:Generated_Source\PSoC4/BLE.c **** /******************************************************************************
 350:Generated_Source\PSoC4/BLE.c **** * Function Name: CyBle_Start
 351:Generated_Source\PSoC4/BLE.c **** ***************************************************************************//**
 352:Generated_Source\PSoC4/BLE.c **** * 
 353:Generated_Source\PSoC4/BLE.c **** *  This function initializes the BLE Stack, which consists of the BLE Stack 
 354:Generated_Source\PSoC4/BLE.c **** *  Manager, BLE Controller, and BLE Host modules. It takes care of initializing
 355:Generated_Source\PSoC4/BLE.c **** *  the Profile layer, schedulers, Timer and other platform related
 356:Generated_Source\PSoC4/BLE.c **** *  resources required for the BLE component. It also registers the callback 
 357:Generated_Source\PSoC4/BLE.c **** *  function for BLE events that will be registered in the BLE stack.
 358:Generated_Source\PSoC4/BLE.c **** * 
 359:Generated_Source\PSoC4/BLE.c **** *  Note that this function does not reset the BLE Stack.
 360:Generated_Source\PSoC4/BLE.c **** * 
 361:Generated_Source\PSoC4/BLE.c **** *  For HCI-Mode of operation, this function will not initialize the BLE Host 
 362:Generated_Source\PSoC4/BLE.c **** *  module.
 363:Generated_Source\PSoC4/BLE.c **** * 
 364:Generated_Source\PSoC4/BLE.c **** *  Calling this function results in the generation of CYBLE_EVT_STACK_ON event
 365:Generated_Source\PSoC4/BLE.c **** *  on successful initialization of the BLE Stack.
 366:Generated_Source\PSoC4/BLE.c **** * 
 367:Generated_Source\PSoC4/BLE.c **** *  \param callbackFunc: Event callback function to receive events from BLE stack.
 368:Generated_Source\PSoC4/BLE.c **** *   CYBLE_CALLBACK_T is a function pointer type.
 369:Generated_Source\PSoC4/BLE.c **** * 
 370:Generated_Source\PSoC4/BLE.c **** * \return
 371:Generated_Source\PSoC4/BLE.c **** *  CYBLE_API_RESULT_T : Return value indicates if the function succeeded or 
 372:Generated_Source\PSoC4/BLE.c **** *  failed. Following are the possible error codes.
 373:Generated_Source\PSoC4/BLE.c **** * 
 374:Generated_Source\PSoC4/BLE.c **** *   <table>
 375:Generated_Source\PSoC4/BLE.c **** *  	  <tr>
 376:Generated_Source\PSoC4/BLE.c **** *       <th>Error codes</th>
 377:Generated_Source\PSoC4/BLE.c **** *       <th>Description</th>
 378:Generated_Source\PSoC4/BLE.c **** *     </tr>
 379:Generated_Source\PSoC4/BLE.c **** *     <tr>
 380:Generated_Source\PSoC4/BLE.c **** *       <td>CYBLE_ERROR_OK</td>
 381:Generated_Source\PSoC4/BLE.c **** *       <td>On successful operation.</td>
 382:Generated_Source\PSoC4/BLE.c **** *     </tr>
 383:Generated_Source\PSoC4/BLE.c **** *     <tr>
 384:Generated_Source\PSoC4/BLE.c **** *       <td>CYBLE_ERROR_INVALID_PARAMETER</td>
 385:Generated_Source\PSoC4/BLE.c **** *       <td>On passing a NULL pointer to the function. 
 386:Generated_Source\PSoC4/BLE.c **** *		</td>
 387:Generated_Source\PSoC4/BLE.c **** *     </tr>
 388:Generated_Source\PSoC4/BLE.c **** *     <tr>
 389:Generated_Source\PSoC4/BLE.c **** *       <td>CYBLE_ERROR_REPEATED_ATTEMPTS</td>
 390:Generated_Source\PSoC4/BLE.c **** *       <td>On invoking this function more than once without calling CyBle_Shutdown() 
 391:Generated_Source\PSoC4/BLE.c **** *           function between calls to this function.</td>
 392:Generated_Source\PSoC4/BLE.c **** *     </tr>
 393:Generated_Source\PSoC4/BLE.c **** *     <tr>
ARM GAS  C:\Users\TTSS\AppData\Local\Temp\ccKqB1vQ.s 			page 12


 394:Generated_Source\PSoC4/BLE.c **** *       <td>CYBLE_ERROR_MEMORY_ALLOCATION_FAILED</td>
 395:Generated_Source\PSoC4/BLE.c **** *       <td>There is insufficient memory available.</td>
 396:Generated_Source\PSoC4/BLE.c **** *     </tr>
 397:Generated_Source\PSoC4/BLE.c **** *   </table>
 398:Generated_Source\PSoC4/BLE.c **** * 
 399:Generated_Source\PSoC4/BLE.c **** *  \globalvars
 400:Generated_Source\PSoC4/BLE.c **** *   The CyBle_initVar variable is used to indicate initial
 401:Generated_Source\PSoC4/BLE.c **** *   configuration of this component. The variable is initialized to zero (0u)
 402:Generated_Source\PSoC4/BLE.c **** *   and set to one (1u) the first time CyBle_Start() is called. This
 403:Generated_Source\PSoC4/BLE.c **** *   allows for component initialization without re-initialization in all
 404:Generated_Source\PSoC4/BLE.c **** *   subsequent calls to the CyBle_Start() routine.
 405:Generated_Source\PSoC4/BLE.c **** * 
 406:Generated_Source\PSoC4/BLE.c **** ******************************************************************************/
 407:Generated_Source\PSoC4/BLE.c **** CYBLE_API_RESULT_T CyBle_Start(CYBLE_CALLBACK_T callbackFunc)
 408:Generated_Source\PSoC4/BLE.c **** {
 227              		.loc 1 408 0
 228              		.cfi_startproc
 229              		@ args = 0, pretend = 0, frame = 64
 230              		@ frame_needed = 1, uses_anonymous_args = 0
 231 0000 B0B5     		push	{r4, r5, r7, lr}
 232              		.cfi_def_cfa_offset 16
 233              		.cfi_offset 4, -16
 234              		.cfi_offset 5, -12
 235              		.cfi_offset 7, -8
 236              		.cfi_offset 14, -4
 237 0002 94B0     		sub	sp, sp, #80
 238              		.cfi_def_cfa_offset 96
 239 0004 04AF     		add	r7, sp, #16
 240              		.cfi_def_cfa 7, 80
 241 0006 7860     		str	r0, [r7, #4]
 409:Generated_Source\PSoC4/BLE.c ****     CYBLE_API_RESULT_T apiResult = CYBLE_ERROR_OK;
 242              		.loc 1 409 0
 243 0008 3E23     		movs	r3, #62
 244 000a FB18     		adds	r3, r7, r3
 245 000c 0022     		movs	r2, #0
 246 000e 1A80     		strh	r2, [r3]
 410:Generated_Source\PSoC4/BLE.c ****     
 411:Generated_Source\PSoC4/BLE.c ****     #if(CYBLE_MODE_PROFILE)
 412:Generated_Source\PSoC4/BLE.c ****     
 413:Generated_Source\PSoC4/BLE.c ****     CYBLE_STK_APP_DATA_BUFF_T cyBle_stackDataBuff[CYBLE_STACK_APP_MIN_POOL] = 
 247              		.loc 1 413 0
 248 0010 2823     		movs	r3, #40
 249 0012 FA18     		adds	r2, r7, r3
 250 0014 3D4B     		ldr	r3, .L12
 251 0016 1000     		movs	r0, r2
 252 0018 1900     		movs	r1, r3
 253 001a 1423     		movs	r3, #20
 254 001c 1A00     		movs	r2, r3
 255 001e FFF7FEFF 		bl	memcpy
 414:Generated_Source\PSoC4/BLE.c ****     {
 415:Generated_Source\PSoC4/BLE.c ****         {CYBLE_GATT_MTU_PLUS_L2CAP_MEM_EXT, CYBLE_GATT_MTU_BUFF_COUNT + CYBLE_GATT_MAX_ATTR_BUFF_CO
 416:Generated_Source\PSoC4/BLE.c ****         {CYBLE_L2CAP_PSM_PLUS_L2CAP_MEM_EXT, CYBLE_L2CAP_PSM_COUNT},
 417:Generated_Source\PSoC4/BLE.c ****         {CYBLE_L2CAP_CBFC_PLUS_L2CAP_MEM_EXT, 2u * CYBLE_L2CAP_LOGICAL_CHANNEL_COUNT},
 418:Generated_Source\PSoC4/BLE.c ****         {CYBLE_L2CAP_MTU_PLUS_L2CAP_MEM_EXT, CYBLE_L2CAP_LOGICAL_CHANNEL_COUNT},
 419:Generated_Source\PSoC4/BLE.c ****         {CYBLE_L2CAP_MPS_PLUS_L2CAP_MEM_EXT, CYBLE_L2CAP_LOGICAL_CHANNEL_COUNT * (CYBLE_L2CAP_MTU_M
 420:Generated_Source\PSoC4/BLE.c ****     }; 
 421:Generated_Source\PSoC4/BLE.c **** 
ARM GAS  C:\Users\TTSS\AppData\Local\Temp\ccKqB1vQ.s 			page 13


 422:Generated_Source\PSoC4/BLE.c ****     #endif /* CYBLE_MODE_PROFILE */
 423:Generated_Source\PSoC4/BLE.c ****     
 424:Generated_Source\PSoC4/BLE.c ****     /* If not initialized then initialize all the required hardware and software */
 425:Generated_Source\PSoC4/BLE.c ****     if(cyBle_initVar == 0u)
 256              		.loc 1 425 0
 257 0022 3B4B     		ldr	r3, .L12+4
 258 0024 1B78     		ldrb	r3, [r3]
 259 0026 002B     		cmp	r3, #0
 260 0028 04D1     		bne	.L6
 426:Generated_Source\PSoC4/BLE.c ****     {
 427:Generated_Source\PSoC4/BLE.c ****         CyBle_Init();
 261              		.loc 1 427 0
 262 002a FFF7FEFF 		bl	CyBle_Init
 428:Generated_Source\PSoC4/BLE.c ****         cyBle_initVar = 1u;
 263              		.loc 1 428 0
 264 002e 384B     		ldr	r3, .L12+4
 265 0030 0122     		movs	r2, #1
 266 0032 1A70     		strb	r2, [r3]
 267              	.L6:
 429:Generated_Source\PSoC4/BLE.c ****     }
 430:Generated_Source\PSoC4/BLE.c ****     
 431:Generated_Source\PSoC4/BLE.c ****     if(callbackFunc != NULL)
 268              		.loc 1 431 0
 269 0034 7B68     		ldr	r3, [r7, #4]
 270 0036 002B     		cmp	r3, #0
 271 0038 5CD0     		beq	.L7
 432:Generated_Source\PSoC4/BLE.c ****     {
 433:Generated_Source\PSoC4/BLE.c ****         CyBle_ApplCallback = callbackFunc;
 272              		.loc 1 433 0
 273 003a 364B     		ldr	r3, .L12+8
 274 003c 7A68     		ldr	r2, [r7, #4]
 275 003e 1A60     		str	r2, [r3]
 434:Generated_Source\PSoC4/BLE.c ****         
 435:Generated_Source\PSoC4/BLE.c ****     #if(CYBLE_SHARING_MODE_EXPORT)
 436:Generated_Source\PSoC4/BLE.c ****         if(cyBle_stackMemoryRam == NULL)
 437:Generated_Source\PSoC4/BLE.c ****         {
 438:Generated_Source\PSoC4/BLE.c ****             cyBle_stackMemoryRam = (uint8 *)malloc(CYBLE_STACK_RAM_SIZE);
 439:Generated_Source\PSoC4/BLE.c ****             if(cyBle_stackMemoryRam == NULL)
 440:Generated_Source\PSoC4/BLE.c ****             {
 441:Generated_Source\PSoC4/BLE.c ****                 apiResult = CYBLE_ERROR_MEMORY_ALLOCATION_FAILED;
 442:Generated_Source\PSoC4/BLE.c ****             }
 443:Generated_Source\PSoC4/BLE.c ****         }
 444:Generated_Source\PSoC4/BLE.c ****     #endif /* CYBLE_SHARING_MODE_EXPORT */
 445:Generated_Source\PSoC4/BLE.c ****         if(apiResult == CYBLE_ERROR_OK)
 276              		.loc 1 445 0
 277 0040 3E23     		movs	r3, #62
 278 0042 FB18     		adds	r3, r7, r3
 279 0044 1B88     		ldrh	r3, [r3]
 280 0046 002B     		cmp	r3, #0
 281 0048 29D1     		bne	.L8
 282              	.LBB2:
 446:Generated_Source\PSoC4/BLE.c ****         {
 447:Generated_Source\PSoC4/BLE.c ****             CYBLE_DLE_CONFIG_PARAM_T dleConfigParams;
 448:Generated_Source\PSoC4/BLE.c ****             CYBLE_PRIVACY_1_2_CONFIG_PARAM_T privacyConfigParams;
 449:Generated_Source\PSoC4/BLE.c ****             CYBLE_STACK_CONFIG_PARAM_T stackConfig;
 450:Generated_Source\PSoC4/BLE.c ****             uint16 featureHeapReq;
 451:Generated_Source\PSoC4/BLE.c ****             
ARM GAS  C:\Users\TTSS\AppData\Local\Temp\ccKqB1vQ.s 			page 14


 452:Generated_Source\PSoC4/BLE.c ****             stackConfig.privacyConfig = &privacyConfigParams;
 283              		.loc 1 452 0
 284 004a 1023     		movs	r3, #16
 285 004c FB18     		adds	r3, r7, r3
 286 004e 1C22     		movs	r2, #28
 287 0050 BA18     		adds	r2, r7, r2
 288 0052 5A60     		str	r2, [r3, #4]
 453:Generated_Source\PSoC4/BLE.c ****             stackConfig.dleConfig = &dleConfigParams;
 289              		.loc 1 453 0
 290 0054 1023     		movs	r3, #16
 291 0056 FB18     		adds	r3, r7, r3
 292 0058 2022     		movs	r2, #32
 293 005a BA18     		adds	r2, r7, r2
 294 005c 1A60     		str	r2, [r3]
 454:Generated_Source\PSoC4/BLE.c ****             
 455:Generated_Source\PSoC4/BLE.c ****             /* Configure default BLE 4.1 features and enabled 4.2 features */
 456:Generated_Source\PSoC4/BLE.c ****             stackConfig.feature_mask = CYBLE_DLE_FEATURE | CYBLE_LL_PRIVACY_FEATURE | 
 295              		.loc 1 456 0
 296 005e 1023     		movs	r3, #16
 297 0060 FB18     		adds	r3, r7, r3
 298 0062 0022     		movs	r2, #0
 299 0064 1A81     		strh	r2, [r3, #8]
 457:Generated_Source\PSoC4/BLE.c ****                                        CYBLE_SECURE_CONN_FEATURE;
 458:Generated_Source\PSoC4/BLE.c **** 
 459:Generated_Source\PSoC4/BLE.c ****             /* Configure DLE */
 460:Generated_Source\PSoC4/BLE.c ****             dleConfigParams.dleMaxTxCapability = CYBLE_LL_MAX_TX_PAYLOAD_SIZE;
 300              		.loc 1 460 0
 301 0066 2023     		movs	r3, #32
 302 0068 FB18     		adds	r3, r7, r3
 303 006a 1B22     		movs	r2, #27
 304 006c 1A80     		strh	r2, [r3]
 461:Generated_Source\PSoC4/BLE.c ****             dleConfigParams.dleMaxRxCapability = CYBLE_LL_MAX_RX_PAYLOAD_SIZE;
 305              		.loc 1 461 0
 306 006e 2023     		movs	r3, #32
 307 0070 FB18     		adds	r3, r7, r3
 308 0072 1B22     		movs	r2, #27
 309 0074 5A80     		strh	r2, [r3, #2]
 462:Generated_Source\PSoC4/BLE.c ****             dleConfigParams.dleNumTxBuffer = CYBLE_LL_DEFAULT_NUM_ACL_TX_PACKETS;
 310              		.loc 1 462 0
 311 0076 2023     		movs	r3, #32
 312 0078 FB18     		adds	r3, r7, r3
 313 007a 0422     		movs	r2, #4
 314 007c 1A71     		strb	r2, [r3, #4]
 463:Generated_Source\PSoC4/BLE.c ****         #if(CYBLE_DLE_FEATURE_ENABLED)
 464:Generated_Source\PSoC4/BLE.c ****             CyBle_EnableDleFeature();              /* Enable DLE code in stack */
 465:Generated_Source\PSoC4/BLE.c ****         #endif /* CYBLE_DLE_FEATURE_ENABLED */
 466:Generated_Source\PSoC4/BLE.c ****         
 467:Generated_Source\PSoC4/BLE.c ****             /* Configure LL Privacy */
 468:Generated_Source\PSoC4/BLE.c ****             privacyConfigParams.resolvingListSize = CYBLE_MAX_RESOLVABLE_DEVICES;
 315              		.loc 1 468 0
 316 007e 1C23     		movs	r3, #28
 317 0080 FB18     		adds	r3, r7, r3
 318 0082 0022     		movs	r2, #0
 319 0084 1A70     		strb	r2, [r3]
 469:Generated_Source\PSoC4/BLE.c ****         #if(CYBLE_LL_PRIVACY_FEATURE_ENABLED)
 470:Generated_Source\PSoC4/BLE.c ****             CyBle_EnablePrivacyFeature();          /* Enable LL Privacy code in stack */
 471:Generated_Source\PSoC4/BLE.c ****         #endif /* CYBLE_LL_PRIVACY_FEATURE_ENABLED */
ARM GAS  C:\Users\TTSS\AppData\Local\Temp\ccKqB1vQ.s 			page 15


 472:Generated_Source\PSoC4/BLE.c **** 
 473:Generated_Source\PSoC4/BLE.c ****             apiResult = CyBle_StackSetFeatureConfig(&stackConfig, &featureHeapReq);
 320              		.loc 1 473 0
 321 0086 3E23     		movs	r3, #62
 322 0088 FC18     		adds	r4, r7, r3
 323 008a 0E23     		movs	r3, #14
 324 008c FA18     		adds	r2, r7, r3
 325 008e 1023     		movs	r3, #16
 326 0090 FB18     		adds	r3, r7, r3
 327 0092 1100     		movs	r1, r2
 328 0094 1800     		movs	r0, r3
 329 0096 FFF7FEFF 		bl	CyBle_StackSetFeatureConfig
 330 009a 0300     		movs	r3, r0
 331 009c 2380     		strh	r3, [r4]
 332              	.L8:
 333              	.LBE2:
 474:Generated_Source\PSoC4/BLE.c ****             }
 475:Generated_Source\PSoC4/BLE.c ****     
 476:Generated_Source\PSoC4/BLE.c ****         if(apiResult == CYBLE_ERROR_OK)
 334              		.loc 1 476 0
 335 009e 3E23     		movs	r3, #62
 336 00a0 FB18     		adds	r3, r7, r3
 337 00a2 1B88     		ldrh	r3, [r3]
 338 00a4 002B     		cmp	r3, #0
 339 00a6 29D1     		bne	.L10
 477:Generated_Source\PSoC4/BLE.c ****         {
 478:Generated_Source\PSoC4/BLE.c ****         
 479:Generated_Source\PSoC4/BLE.c ****         #if(CYBLE_MODE_PROFILE)
 480:Generated_Source\PSoC4/BLE.c ****             #if(CYBLE_BONDING_REQUIREMENT == CYBLE_BONDING_YES)
 481:Generated_Source\PSoC4/BLE.c ****                 apiResult = CyBle_StackInit(&CyBle_EventHandler, cyBle_stackMemoryRam, 
 340              		.loc 1 481 0
 341 00a8 3E23     		movs	r3, #62
 342 00aa FC18     		adds	r4, r7, r3
 343 00ac 2823     		movs	r3, #40
 344 00ae FD18     		adds	r5, r7, r3
 345 00b0 AE23     		movs	r3, #174
 346 00b2 1A01     		lsls	r2, r3, #4
 347 00b4 1849     		ldr	r1, .L12+12
 348 00b6 1948     		ldr	r0, .L12+16
 349 00b8 194B     		ldr	r3, .L12+20
 350 00ba 0293     		str	r3, [sp, #8]
 351 00bc 194B     		ldr	r3, .L12+24
 352 00be 0193     		str	r3, [sp, #4]
 353 00c0 0523     		movs	r3, #5
 354 00c2 0093     		str	r3, [sp]
 355 00c4 2B00     		movs	r3, r5
 356 00c6 FFF7FEFF 		bl	CyBle_StackInit
 357 00ca 0300     		movs	r3, r0
 358 00cc 2380     		strh	r3, [r4]
 482:Generated_Source\PSoC4/BLE.c ****                     CYBLE_STACK_RAM_SIZE - CYBLE_GATT_PREPARE_WRITE_BUFF_LEN, cyBle_stackDataBuff, 
 483:Generated_Source\PSoC4/BLE.c ****                     CYBLE_STACK_APP_MIN_POOL, cyBle_flashStorage.stackFlashptr, CYBLE_STACK_FLASH_S
 484:Generated_Source\PSoC4/BLE.c ****             #else
 485:Generated_Source\PSoC4/BLE.c ****                 apiResult = CyBle_StackInit(&CyBle_EventHandler, cyBle_stackMemoryRam, 
 486:Generated_Source\PSoC4/BLE.c ****                     CYBLE_STACK_RAM_SIZE - CYBLE_GATT_PREPARE_WRITE_BUFF_LEN, cyBle_stackDataBuff, 
 487:Generated_Source\PSoC4/BLE.c ****                     CYBLE_STACK_APP_MIN_POOL, NULL, 0u);
 488:Generated_Source\PSoC4/BLE.c ****             #endif  /* CYBLE_BONDING_REQUIREMENT == CYBLE_BONDING_YES */
 489:Generated_Source\PSoC4/BLE.c ****         #else /* HCI mode */
ARM GAS  C:\Users\TTSS\AppData\Local\Temp\ccKqB1vQ.s 			page 16


 490:Generated_Source\PSoC4/BLE.c ****             /* The following will perform preparation to use HCI over UART or over
 491:Generated_Source\PSoC4/BLE.c ****                software. But the following fucntions will not initialize the HCI
 492:Generated_Source\PSoC4/BLE.c ****                Transport. This will be done as part of Stack initialization, so
 493:Generated_Source\PSoC4/BLE.c ****                the functions should be called prior CyBle_StackInit().
 494:Generated_Source\PSoC4/BLE.c ****             */
 495:Generated_Source\PSoC4/BLE.c ****             #if (CYBLE_HCI_TYPE == CYBLE_HCI_OVER_UART)
 496:Generated_Source\PSoC4/BLE.c ****                 CyBle_HciUartTransportEnable();
 497:Generated_Source\PSoC4/BLE.c ****             #else
 498:Generated_Source\PSoC4/BLE.c ****                 CyBle_HciSoftTransportEnable();
 499:Generated_Source\PSoC4/BLE.c ****             #endif /* (CYBLE_HCI_TYPE == CYBLE_HCI_OVER_UART) */
 500:Generated_Source\PSoC4/BLE.c ****             /* This will initialize BLE stack for HCI mode operation */
 501:Generated_Source\PSoC4/BLE.c ****             apiResult = CyBle_StackInit(&CyBle_EventHandler, cyBle_stackMemoryRam, CYBLE_STACK_RAM_
 502:Generated_Source\PSoC4/BLE.c ****                 NULL, 0u, NULL, 0u);
 503:Generated_Source\PSoC4/BLE.c ****         #endif /* CYBLE_MODE_PROFILE */
 504:Generated_Source\PSoC4/BLE.c **** 
 505:Generated_Source\PSoC4/BLE.c ****             if(apiResult == CYBLE_ERROR_OK)
 359              		.loc 1 505 0
 360 00ce 3E23     		movs	r3, #62
 361 00d0 FB18     		adds	r3, r7, r3
 362 00d2 1B88     		ldrh	r3, [r3]
 363 00d4 002B     		cmp	r3, #0
 364 00d6 11D1     		bne	.L10
 506:Generated_Source\PSoC4/BLE.c ****             {
 507:Generated_Source\PSoC4/BLE.c ****                 CyBle_SetState(CYBLE_STATE_INITIALIZING);
 365              		.loc 1 507 0
 366 00d8 134B     		ldr	r3, .L12+28
 367 00da 0122     		movs	r2, #1
 368 00dc 1A70     		strb	r2, [r3]
 508:Generated_Source\PSoC4/BLE.c ****                 
 509:Generated_Source\PSoC4/BLE.c ****             #if (CYBLE_GATT_ROLE_CLIENT)
 510:Generated_Source\PSoC4/BLE.c ****                 CyBle_SetClientState(CYBLE_CLIENT_STATE_DISCONNECTED);
 511:Generated_Source\PSoC4/BLE.c ****             #endif /* CYBLE_GATT_ROLE_CLIENT */
 512:Generated_Source\PSoC4/BLE.c ****                 
 513:Generated_Source\PSoC4/BLE.c ****             #if(CYBLE_GATT_ROLE_SERVER)
 514:Generated_Source\PSoC4/BLE.c ****                 apiResult = CyBle_GattsDbRegister(cyBle_gattDB, CYBLE_GATT_DB_INDEX_COUNT, CYBLE_GA
 369              		.loc 1 514 0
 370 00de 3E23     		movs	r3, #62
 371 00e0 FC18     		adds	r4, r7, r3
 372 00e2 124B     		ldr	r3, .L12+32
 373 00e4 0A22     		movs	r2, #10
 374 00e6 0D21     		movs	r1, #13
 375 00e8 1800     		movs	r0, r3
 376 00ea FFF7FEFF 		bl	CyBle_GattsDbRegister
 377 00ee 0300     		movs	r3, r0
 378 00f0 2380     		strh	r3, [r4]
 379 00f2 03E0     		b	.L10
 380              	.L7:
 515:Generated_Source\PSoC4/BLE.c ****             #endif /* CYBLE_GATT_ROLE_SERVER */
 516:Generated_Source\PSoC4/BLE.c ****             }
 517:Generated_Source\PSoC4/BLE.c ****         }
 518:Generated_Source\PSoC4/BLE.c ****     }
 519:Generated_Source\PSoC4/BLE.c ****     else
 520:Generated_Source\PSoC4/BLE.c ****     {
 521:Generated_Source\PSoC4/BLE.c ****         apiResult = CYBLE_ERROR_INVALID_PARAMETER;
 381              		.loc 1 521 0
 382 00f4 3E23     		movs	r3, #62
 383 00f6 FB18     		adds	r3, r7, r3
ARM GAS  C:\Users\TTSS\AppData\Local\Temp\ccKqB1vQ.s 			page 17


 384 00f8 0122     		movs	r2, #1
 385 00fa 1A80     		strh	r2, [r3]
 386              	.L10:
 522:Generated_Source\PSoC4/BLE.c ****     }
 523:Generated_Source\PSoC4/BLE.c **** 
 524:Generated_Source\PSoC4/BLE.c ****     return (apiResult);
 387              		.loc 1 524 0
 388 00fc 3E23     		movs	r3, #62
 389 00fe FB18     		adds	r3, r7, r3
 390 0100 1B88     		ldrh	r3, [r3]
 525:Generated_Source\PSoC4/BLE.c **** }
 391              		.loc 1 525 0
 392 0102 1800     		movs	r0, r3
 393 0104 BD46     		mov	sp, r7
 394 0106 10B0     		add	sp, sp, #64
 395              		@ sp needed
 396 0108 B0BD     		pop	{r4, r5, r7, pc}
 397              	.L13:
 398 010a C046     		.align	2
 399              	.L12:
 400 010c 00000000 		.word	.LC0
 401 0110 00000000 		.word	cyBle_initVar
 402 0114 00000000 		.word	CyBle_ApplCallback
 403 0118 00000000 		.word	cyBle_stackMemoryRam
 404 011c 00000000 		.word	CyBle_EventHandler
 405 0120 79020000 		.word	633
 406 0124 00000000 		.word	cyBle_flashStorage
 407 0128 00000000 		.word	cyBle_state
 408 012c 00000000 		.word	cyBle_gattDB
 409              		.cfi_endproc
 410              	.LFE4:
 411              		.size	CyBle_Start, .-CyBle_Start
 412              		.section	.text.CyBle_Stop,"ax",%progbits
 413              		.align	2
 414              		.global	CyBle_Stop
 415              		.code	16
 416              		.thumb_func
 417              		.type	CyBle_Stop, %function
 418              	CyBle_Stop:
 419              	.LFB5:
 526:Generated_Source\PSoC4/BLE.c **** 
 527:Generated_Source\PSoC4/BLE.c **** 
 528:Generated_Source\PSoC4/BLE.c **** /******************************************************************************
 529:Generated_Source\PSoC4/BLE.c **** * Function Name: CyBle_Stop
 530:Generated_Source\PSoC4/BLE.c **** ***************************************************************************//**
 531:Generated_Source\PSoC4/BLE.c **** * 
 532:Generated_Source\PSoC4/BLE.c **** *  This function stops any ongoing operation in the BLE Stack and forces the 
 533:Generated_Source\PSoC4/BLE.c **** *  BLE Stack to shut down. The only function that can be called after calling
 534:Generated_Source\PSoC4/BLE.c **** *  this function is CyBle_Start(). 
 535:Generated_Source\PSoC4/BLE.c **** * 
 536:Generated_Source\PSoC4/BLE.c **** * \return
 537:Generated_Source\PSoC4/BLE.c **** *  None
 538:Generated_Source\PSoC4/BLE.c **** * 
 539:Generated_Source\PSoC4/BLE.c **** ******************************************************************************/
 540:Generated_Source\PSoC4/BLE.c **** void CyBle_Stop(void)
 541:Generated_Source\PSoC4/BLE.c **** {
 420              		.loc 1 541 0
ARM GAS  C:\Users\TTSS\AppData\Local\Temp\ccKqB1vQ.s 			page 18


 421              		.cfi_startproc
 422              		@ args = 0, pretend = 0, frame = 0
 423              		@ frame_needed = 1, uses_anonymous_args = 0
 424 0000 80B5     		push	{r7, lr}
 425              		.cfi_def_cfa_offset 8
 426              		.cfi_offset 7, -8
 427              		.cfi_offset 14, -4
 428 0002 00AF     		add	r7, sp, #0
 429              		.cfi_def_cfa_register 7
 542:Generated_Source\PSoC4/BLE.c ****     CyBle_Shutdown();                         /* Stop all ongoing activities */
 430              		.loc 1 542 0
 431 0004 FFF7FEFF 		bl	CyBle_Shutdown
 543:Generated_Source\PSoC4/BLE.c ****     CyBle_SetState(CYBLE_STATE_STOPPED);
 432              		.loc 1 543 0
 433 0008 024B     		ldr	r3, .L15
 434 000a 0022     		movs	r2, #0
 435 000c 1A70     		strb	r2, [r3]
 544:Generated_Source\PSoC4/BLE.c ****     #if(CYBLE_SHARING_MODE_EXPORT)
 545:Generated_Source\PSoC4/BLE.c ****         if(cyBle_stackMemoryRam != NULL)
 546:Generated_Source\PSoC4/BLE.c ****         {
 547:Generated_Source\PSoC4/BLE.c ****             free(cyBle_stackMemoryRam);
 548:Generated_Source\PSoC4/BLE.c ****         }
 549:Generated_Source\PSoC4/BLE.c ****     #endif /* CYBLE_SHARING_MODE_EXPORT */
 550:Generated_Source\PSoC4/BLE.c **** }
 436              		.loc 1 550 0
 437 000e C046     		nop
 438 0010 BD46     		mov	sp, r7
 439              		@ sp needed
 440 0012 80BD     		pop	{r7, pc}
 441              	.L16:
 442              		.align	2
 443              	.L15:
 444 0014 00000000 		.word	cyBle_state
 445              		.cfi_endproc
 446              	.LFE5:
 447              		.size	CyBle_Stop, .-CyBle_Stop
 448              		.section	.text.CyBle_GappStartAdvertisement,"ax",%progbits
 449              		.align	2
 450              		.global	CyBle_GappStartAdvertisement
 451              		.code	16
 452              		.thumb_func
 453              		.type	CyBle_GappStartAdvertisement, %function
 454              	CyBle_GappStartAdvertisement:
 455              	.LFB6:
 551:Generated_Source\PSoC4/BLE.c **** 
 552:Generated_Source\PSoC4/BLE.c **** 
 553:Generated_Source\PSoC4/BLE.c **** #if((CYBLE_GAP_ROLE_PERIPHERAL || CYBLE_GAP_ROLE_CENTRAL) && (CYBLE_BONDING_REQUIREMENT == CYBLE_BO
 554:Generated_Source\PSoC4/BLE.c **** 
 555:Generated_Source\PSoC4/BLE.c ****     
 556:Generated_Source\PSoC4/BLE.c **** /******************************************************************************
 557:Generated_Source\PSoC4/BLE.c **** * Function Name: CyBle_StoreBondingData
 558:Generated_Source\PSoC4/BLE.c **** ***************************************************************************//**
 559:Generated_Source\PSoC4/BLE.c **** * 
 560:Generated_Source\PSoC4/BLE.c **** *  This function writes the new bonding data from RAM to the dedicated Flash 
 561:Generated_Source\PSoC4/BLE.c **** *  location as defined by the component. It performs data comparing between RAM
 562:Generated_Source\PSoC4/BLE.c **** *  and Flash before writing to Flash. If there is no change between RAM and Flash
 563:Generated_Source\PSoC4/BLE.c **** *  data, then no write is performed. It writes only one flash row in one call.
ARM GAS  C:\Users\TTSS\AppData\Local\Temp\ccKqB1vQ.s 			page 19


 564:Generated_Source\PSoC4/BLE.c **** *  Application should keep calling this function till it return CYBLE_ERROR_OK. 
 565:Generated_Source\PSoC4/BLE.c **** *  This function is available only when Bonding requirement is selected in
 566:Generated_Source\PSoC4/BLE.c **** *  Security settings.    
 567:Generated_Source\PSoC4/BLE.c **** * 
 568:Generated_Source\PSoC4/BLE.c **** *  \param isForceWrite:  If value is set to 0, then stack will check if flash write 
 569:Generated_Source\PSoC4/BLE.c **** *                 is permissible. 
 570:Generated_Source\PSoC4/BLE.c **** *  
 571:Generated_Source\PSoC4/BLE.c **** * \return
 572:Generated_Source\PSoC4/BLE.c **** *  Return value is of type CYBLE_API_RESULT_T.
 573:Generated_Source\PSoC4/BLE.c **** *
 574:Generated_Source\PSoC4/BLE.c **** *   Errors codes                         | Description
 575:Generated_Source\PSoC4/BLE.c **** *   ----------------------------------   | ------------------------------------
 576:Generated_Source\PSoC4/BLE.c **** *   CYBLE_ERROR_OK                       | On successful operation
 577:Generated_Source\PSoC4/BLE.c **** *   CYBLE_ERROR_FLASH_WRITE_NOT_PERMITED | Flash Write is not complete
 578:Generated_Source\PSoC4/BLE.c **** *   CYBLE_ERROR_INVALID_PARAMETER        | Invalid input parameter  
 579:Generated_Source\PSoC4/BLE.c **** *   CYBLE_ERROR_FLASH_WRITE              | Error in flash Write	
 580:Generated_Source\PSoC4/BLE.c ****     
 581:Generated_Source\PSoC4/BLE.c **** *  \sideeffect
 582:Generated_Source\PSoC4/BLE.c **** *   For BLE devices with 128K of Flash memory this function will automatically 
 583:Generated_Source\PSoC4/BLE.c **** *   modify the clock settings for the device.
 584:Generated_Source\PSoC4/BLE.c **** *   Writing to flash requires changes to be done to the IMO (set to 48 MHz)
 585:Generated_Source\PSoC4/BLE.c **** *   and HFCLK (source set to IMO) settings. The configuration is restored before
 586:Generated_Source\PSoC4/BLE.c **** *   returning. This will impact the operation of most of the hardware in the
 587:Generated_Source\PSoC4/BLE.c **** *   device.
 588:Generated_Source\PSoC4/BLE.c **** * 
 589:Generated_Source\PSoC4/BLE.c **** *  \globalvars
 590:Generated_Source\PSoC4/BLE.c **** *   The cyBle_pendingFlashWrite variable is used to detect status
 591:Generated_Source\PSoC4/BLE.c **** *   of pending write to flash operation for stack data and CCCD.
 592:Generated_Source\PSoC4/BLE.c **** *   This function automatically clears pending bits after write operation 
 593:Generated_Source\PSoC4/BLE.c **** *   complete.
 594:Generated_Source\PSoC4/BLE.c **** *     
 595:Generated_Source\PSoC4/BLE.c **** ******************************************************************************/
 596:Generated_Source\PSoC4/BLE.c **** CYBLE_API_RESULT_T CyBle_StoreBondingData(uint8 isForceWrite)
 597:Generated_Source\PSoC4/BLE.c **** {
 598:Generated_Source\PSoC4/BLE.c ****     CYBLE_API_RESULT_T apiResult = CYBLE_ERROR_OK;
 599:Generated_Source\PSoC4/BLE.c ****     
 600:Generated_Source\PSoC4/BLE.c ****     /* Store Stack data */
 601:Generated_Source\PSoC4/BLE.c ****     if((cyBle_pendingFlashWrite & CYBLE_PENDING_STACK_FLASH_WRITE_BIT) != 0u)
 602:Generated_Source\PSoC4/BLE.c ****     {
 603:Generated_Source\PSoC4/BLE.c ****         apiResult = CyBle_StoreStackData(isForceWrite);
 604:Generated_Source\PSoC4/BLE.c ****         if(apiResult == CYBLE_ERROR_OK)
 605:Generated_Source\PSoC4/BLE.c ****         {
 606:Generated_Source\PSoC4/BLE.c ****             cyBle_pendingFlashWrite &= (uint8)~CYBLE_PENDING_STACK_FLASH_WRITE_BIT;
 607:Generated_Source\PSoC4/BLE.c ****             /* Change apiResult if there are more pending data to store */
 608:Generated_Source\PSoC4/BLE.c ****             if((cyBle_pendingFlashWrite & CYBLE_PENDING_CCCD_FLASH_WRITE_BIT) != 0u)
 609:Generated_Source\PSoC4/BLE.c ****             {
 610:Generated_Source\PSoC4/BLE.c ****                 apiResult = CYBLE_ERROR_FLASH_WRITE_NOT_PERMITED;
 611:Generated_Source\PSoC4/BLE.c ****             }
 612:Generated_Source\PSoC4/BLE.c ****         }
 613:Generated_Source\PSoC4/BLE.c ****     }
 614:Generated_Source\PSoC4/BLE.c **** #if(CYBLE_GATT_DB_CCCD_COUNT != 0u)
 615:Generated_Source\PSoC4/BLE.c ****     /* Store CCCD values */
 616:Generated_Source\PSoC4/BLE.c ****     if( ((apiResult == CYBLE_ERROR_OK) || (isForceWrite != 0u)) && 
 617:Generated_Source\PSoC4/BLE.c ****         ((cyBle_pendingFlashWrite & CYBLE_PENDING_CCCD_FLASH_WRITE_BIT) != 0u) &&
 618:Generated_Source\PSoC4/BLE.c ****         (cyBle_connHandle.bdHandle <= CYBLE_GAP_MAX_BONDED_DEVICE))
 619:Generated_Source\PSoC4/BLE.c ****     {
 620:Generated_Source\PSoC4/BLE.c ****         apiResult = CyBle_StoreAppData(cyBle_attValuesCCCD, cyBle_flashStorage.attValuesCCCDFlashMe
ARM GAS  C:\Users\TTSS\AppData\Local\Temp\ccKqB1vQ.s 			page 20


 621:Generated_Source\PSoC4/BLE.c ****                         cyBle_connHandle.bdHandle], CYBLE_GATT_DB_CCCD_COUNT, isForceWrite);
 622:Generated_Source\PSoC4/BLE.c ****         if(apiResult == CYBLE_ERROR_OK)
 623:Generated_Source\PSoC4/BLE.c ****         {
 624:Generated_Source\PSoC4/BLE.c ****             cyBle_pendingFlashWrite &= (uint8)~CYBLE_PENDING_CCCD_FLASH_WRITE_BIT;
 625:Generated_Source\PSoC4/BLE.c ****         }
 626:Generated_Source\PSoC4/BLE.c ****     }
 627:Generated_Source\PSoC4/BLE.c ****     /* Clear requested CCCD values */
 628:Generated_Source\PSoC4/BLE.c ****     if( ((apiResult == CYBLE_ERROR_OK) || (isForceWrite != 0u)) && 
 629:Generated_Source\PSoC4/BLE.c ****         ((cyBle_pendingFlashWrite & CYBLE_PENDING_CCCD_FLASH_CLEAR_MASK) != 0u) )
 630:Generated_Source\PSoC4/BLE.c ****     {
 631:Generated_Source\PSoC4/BLE.c ****         if((cyBle_pendingFlashWrite & CYBLE_PENDING_CCCD_FLASH_CLEAR_ALL_BIT) != 0u)
 632:Generated_Source\PSoC4/BLE.c ****         {
 633:Generated_Source\PSoC4/BLE.c ****             /* Remove cccd values for all bonded devices */
 634:Generated_Source\PSoC4/BLE.c ****             uint8 defaultValuesCCCD[CYBLE_GAP_MAX_BONDED_DEVICE + 1u][CYBLE_GATT_DB_CCCD_COUNT];
 635:Generated_Source\PSoC4/BLE.c ****             
 636:Generated_Source\PSoC4/BLE.c ****             (void)memset(defaultValuesCCCD, 0, sizeof(defaultValuesCCCD));
 637:Generated_Source\PSoC4/BLE.c **** 
 638:Generated_Source\PSoC4/BLE.c ****             apiResult = CyBle_StoreAppData((uint8 *)defaultValuesCCCD, 
 639:Generated_Source\PSoC4/BLE.c ****                 (const uint8 *)cyBle_flashStorage.attValuesCCCDFlashMemory, sizeof(defaultValuesCCC
 640:Generated_Source\PSoC4/BLE.c ****             if(apiResult == CYBLE_ERROR_OK)
 641:Generated_Source\PSoC4/BLE.c ****             {
 642:Generated_Source\PSoC4/BLE.c ****                 cyBle_pendingFlashWrite &= (uint8)~CYBLE_PENDING_CCCD_FLASH_CLEAR_ALL_BIT;
 643:Generated_Source\PSoC4/BLE.c ****             }
 644:Generated_Source\PSoC4/BLE.c ****         }
 645:Generated_Source\PSoC4/BLE.c ****         else /* Remove cccd values for particular device */
 646:Generated_Source\PSoC4/BLE.c ****         {
 647:Generated_Source\PSoC4/BLE.c ****             uint8 defaultValuesCCCD[CYBLE_GATT_DB_CCCD_COUNT] = {0u};
 648:Generated_Source\PSoC4/BLE.c ****             
 649:Generated_Source\PSoC4/BLE.c ****             apiResult = CyBle_StoreAppData(defaultValuesCCCD, cyBle_flashStorage.attValuesCCCDFlash
 650:Generated_Source\PSoC4/BLE.c ****                                     cyBle_pendingFlashClearCccdHandle], CYBLE_GATT_DB_CCCD_COUNT, i
 651:Generated_Source\PSoC4/BLE.c ****             if(apiResult == CYBLE_ERROR_OK)
 652:Generated_Source\PSoC4/BLE.c ****             {
 653:Generated_Source\PSoC4/BLE.c ****                 cyBle_pendingFlashWrite &= (uint8)~CYBLE_PENDING_CCCD_FLASH_CLEAR_BIT;
 654:Generated_Source\PSoC4/BLE.c ****             }
 655:Generated_Source\PSoC4/BLE.c ****         }
 656:Generated_Source\PSoC4/BLE.c ****     }
 657:Generated_Source\PSoC4/BLE.c **** #endif /* CYBLE_GATT_DB_CCCD_COUNT != 0u */
 658:Generated_Source\PSoC4/BLE.c ****     return(apiResult);
 659:Generated_Source\PSoC4/BLE.c **** }
 660:Generated_Source\PSoC4/BLE.c **** 
 661:Generated_Source\PSoC4/BLE.c **** 
 662:Generated_Source\PSoC4/BLE.c **** /******************************************************************************
 663:Generated_Source\PSoC4/BLE.c **** * Function Name: CyBle_GapRemoveBondedDevice
 664:Generated_Source\PSoC4/BLE.c **** ***************************************************************************//**
 665:Generated_Source\PSoC4/BLE.c **** * 
 666:Generated_Source\PSoC4/BLE.c **** *  This function marks the device untrusted. It removes the bonding information
 667:Generated_Source\PSoC4/BLE.c **** *  of the device including CCCD values. This function removes device from the
 668:Generated_Source\PSoC4/BLE.c **** *  white list also when autopopulate white list with bonded devices option is
 669:Generated_Source\PSoC4/BLE.c **** *  enabled.
 670:Generated_Source\PSoC4/BLE.c **** * 
 671:Generated_Source\PSoC4/BLE.c **** *  This function is available only when Bonding requirement is selected in
 672:Generated_Source\PSoC4/BLE.c **** *  Security settings.    
 673:Generated_Source\PSoC4/BLE.c **** *
 674:Generated_Source\PSoC4/BLE.c **** *  \param bdAddr: Pointer to peer device address, of type CYBLE_GAP_BD_ADDR_T.
 675:Generated_Source\PSoC4/BLE.c **** *                 If device address is set to 0, then all devices shall be
 676:Generated_Source\PSoC4/BLE.c **** *                 removed from trusted list and white list.
 677:Generated_Source\PSoC4/BLE.c **** *
ARM GAS  C:\Users\TTSS\AppData\Local\Temp\ccKqB1vQ.s 			page 21


 678:Generated_Source\PSoC4/BLE.c **** * \return
 679:Generated_Source\PSoC4/BLE.c **** *  CYBLE_API_RESULT_T : Return value indicates if the function succeeded or
 680:Generated_Source\PSoC4/BLE.c **** *  failed. Following are the possible error codes.
 681:Generated_Source\PSoC4/BLE.c **** *
 682:Generated_Source\PSoC4/BLE.c **** *   Errors codes                     | Description
 683:Generated_Source\PSoC4/BLE.c **** *   ---------------------------------| ------------------------------------
 684:Generated_Source\PSoC4/BLE.c **** *   CYBLE_ERROR_OK                   | On successful operation.
 685:Generated_Source\PSoC4/BLE.c **** *   CYBLE_ERROR_INVALID_PARAMETER    | On specifying NULL as input parameter for 'bdAddr'.
 686:Generated_Source\PSoC4/BLE.c **** *   CYBLE_ERROR_INVALID_OPERATION    | Whitelist is already in use or there is pending write to fla
 687:Generated_Source\PSoC4/BLE.c **** *   CYBLE_ERROR_NO_DEVICE_ENTITY     | Device does not exist in the bond list.
 688:Generated_Source\PSoC4/BLE.c **** *
 689:Generated_Source\PSoC4/BLE.c **** *  \globalvars
 690:Generated_Source\PSoC4/BLE.c **** *   The bdHandle is set in cyBle_pendingFlashWrite variable to indicate that
 691:Generated_Source\PSoC4/BLE.c **** *   data should be stored to flash by CyBle_StoreBondingData() afterwards. 
 692:Generated_Source\PSoC4/BLE.c **** *     
 693:Generated_Source\PSoC4/BLE.c **** ******************************************************************************/
 694:Generated_Source\PSoC4/BLE.c **** CYBLE_API_RESULT_T CyBle_GapRemoveBondedDevice(CYBLE_GAP_BD_ADDR_T* bdAddr)
 695:Generated_Source\PSoC4/BLE.c **** {
 696:Generated_Source\PSoC4/BLE.c ****     CYBLE_API_RESULT_T apiResult = CYBLE_ERROR_OK;
 697:Generated_Source\PSoC4/BLE.c ****     
 698:Generated_Source\PSoC4/BLE.c ****     if(cyBle_pendingFlashWrite == 0u)
 699:Generated_Source\PSoC4/BLE.c ****     {
 700:Generated_Source\PSoC4/BLE.c ****         
 701:Generated_Source\PSoC4/BLE.c ****     #if(CYBLE_GATT_DB_CCCD_COUNT != 0u)
 702:Generated_Source\PSoC4/BLE.c ****         /* Request to clear CCCD values which will be done by CyBle_StoreBondingData() */
 703:Generated_Source\PSoC4/BLE.c ****         uint8 bDevHandle;
 704:Generated_Source\PSoC4/BLE.c ****         CYBLE_GAP_BD_ADDR_T invalidBdAddr = {{0u,0u,0u,0u,0u,0u}, 0u};
 705:Generated_Source\PSoC4/BLE.c **** 
 706:Generated_Source\PSoC4/BLE.c ****         if(memcmp(((uint8 *) &(bdAddr->bdAddr)), ((uint8 *) &(invalidBdAddr.bdAddr)), CYBLE_GAP_BD_
 707:Generated_Source\PSoC4/BLE.c **** 	    {
 708:Generated_Source\PSoC4/BLE.c ****             /* Request to remove all bonded devices by CyBle_StoreBondingData() */
 709:Generated_Source\PSoC4/BLE.c ****             cyBle_pendingFlashWrite |= CYBLE_PENDING_CCCD_FLASH_CLEAR_ALL_BIT;
 710:Generated_Source\PSoC4/BLE.c ****         }
 711:Generated_Source\PSoC4/BLE.c ****         else
 712:Generated_Source\PSoC4/BLE.c ****         {
 713:Generated_Source\PSoC4/BLE.c ****             /* Get the BD handle from Address */
 714:Generated_Source\PSoC4/BLE.c ****             apiResult = CyBle_GapGetPeerBdHandle(&bDevHandle, bdAddr);
 715:Generated_Source\PSoC4/BLE.c ****             if(apiResult == CYBLE_ERROR_OK)
 716:Generated_Source\PSoC4/BLE.c ****             {
 717:Generated_Source\PSoC4/BLE.c ****                 /* Store BD handle to clear cccd values by CyBle_StoreBondingData() */
 718:Generated_Source\PSoC4/BLE.c ****                 cyBle_pendingFlashWrite |= CYBLE_PENDING_CCCD_FLASH_CLEAR_BIT;
 719:Generated_Source\PSoC4/BLE.c ****                 cyBle_pendingFlashClearCccdHandle = bDevHandle;
 720:Generated_Source\PSoC4/BLE.c ****             }
 721:Generated_Source\PSoC4/BLE.c ****         }
 722:Generated_Source\PSoC4/BLE.c ****     #endif /* CYBLE_GATT_DB_CCCD_COUNT != 0u */
 723:Generated_Source\PSoC4/BLE.c ****         if(apiResult == CYBLE_ERROR_OK)
 724:Generated_Source\PSoC4/BLE.c ****         {
 725:Generated_Source\PSoC4/BLE.c ****             apiResult = CyBle_GapRemoveDeviceFromWhiteList(bdAddr);
 726:Generated_Source\PSoC4/BLE.c ****         }
 727:Generated_Source\PSoC4/BLE.c ****     }
 728:Generated_Source\PSoC4/BLE.c ****     else
 729:Generated_Source\PSoC4/BLE.c ****     {
 730:Generated_Source\PSoC4/BLE.c ****         apiResult = CYBLE_ERROR_INVALID_OPERATION;
 731:Generated_Source\PSoC4/BLE.c ****     }
 732:Generated_Source\PSoC4/BLE.c ****     
 733:Generated_Source\PSoC4/BLE.c ****     return(apiResult);
 734:Generated_Source\PSoC4/BLE.c **** }
ARM GAS  C:\Users\TTSS\AppData\Local\Temp\ccKqB1vQ.s 			page 22


 735:Generated_Source\PSoC4/BLE.c **** 
 736:Generated_Source\PSoC4/BLE.c **** 
 737:Generated_Source\PSoC4/BLE.c **** #endif /* (CYBLE_GAP_ROLE_PERIPHERAL || CYBLE_GAP_ROLE_CENTRAL) && (CYBLE_BONDING_REQUIREMENT == CY
 738:Generated_Source\PSoC4/BLE.c **** 
 739:Generated_Source\PSoC4/BLE.c **** 
 740:Generated_Source\PSoC4/BLE.c **** #if(CYBLE_GAP_ROLE_PERIPHERAL || CYBLE_GAP_ROLE_BROADCASTER)
 741:Generated_Source\PSoC4/BLE.c **** 
 742:Generated_Source\PSoC4/BLE.c ****     /******************************************************************************
 743:Generated_Source\PSoC4/BLE.c ****     *  Function Name: CyBle_GappStartAdvertisement
 744:Generated_Source\PSoC4/BLE.c ****     ***************************************************************************//**
 745:Generated_Source\PSoC4/BLE.c ****     *     
 746:Generated_Source\PSoC4/BLE.c ****     *  This function is used to start the advertisement using the advertisement data 
 747:Generated_Source\PSoC4/BLE.c ****     *  set in the component customizer's GUI. After invoking this function, the 
 748:Generated_Source\PSoC4/BLE.c ****     *  device will be available for connection by the devices configured for GAP 
 749:Generated_Source\PSoC4/BLE.c ****     *  central role. It is only included if the device is configured for GAP 
 750:Generated_Source\PSoC4/BLE.c ****     *  Peripheral or GAP Peripheral + Central role.
 751:Generated_Source\PSoC4/BLE.c ****     *  
 752:Generated_Source\PSoC4/BLE.c ****     *  On start of advertisement, GAP Peripheral receives the
 753:Generated_Source\PSoC4/BLE.c ****     *  CYBLE_EVT_GAPP_ADVERTISEMENT_START_STOP event. The following events are 
 754:Generated_Source\PSoC4/BLE.c ****     *  possible on invoking this function:
 755:Generated_Source\PSoC4/BLE.c ****     *  
 756:Generated_Source\PSoC4/BLE.c ****     *  * CYBLE_EVT_GAP_DEVICE_CONNECTED - If the device connects to a GAP Central and 
 757:Generated_Source\PSoC4/BLE.c ****     *    Link Layer Privacy is disabled in component customizer.
 758:Generated_Source\PSoC4/BLE.c ****     *  * CYBLE_EVT_GAP_ENHANCE_CONN_COMPLETE - If the device connects to a GAP Central and 
 759:Generated_Source\PSoC4/BLE.c ****     *    Link Layer Privacy is enabled in component customizer.
 760:Generated_Source\PSoC4/BLE.c ****     *  * CYBLE_EVT_TIMEOUT: If no device in GAP Central mode connects to this 
 761:Generated_Source\PSoC4/BLE.c ****     *                       device within the specified timeout limit. Stack 
 762:Generated_Source\PSoC4/BLE.c ****     *                       automatically initiate stop advertising when Slow 
 763:Generated_Source\PSoC4/BLE.c ****     *                       advertising was initiated, or starts Slow advertising
 764:Generated_Source\PSoC4/BLE.c ****     *                       after Fast advertising timeout occur.
 765:Generated_Source\PSoC4/BLE.c ****     *  * CYBLE_EVT_GAPP_ADVERTISEMENT_START_STOP: If device started or stopped
 766:Generated_Source\PSoC4/BLE.c ****     *                                               advertising. Use CyBle_GetState()
 767:Generated_Source\PSoC4/BLE.c ****     *                                               to determine the state. Sequential 
 768:Generated_Source\PSoC4/BLE.c ****     *                                               advertising could be started when
 769:Generated_Source\PSoC4/BLE.c ****     *                                               CYBLE_STATE_DISCONNECTED state is
 770:Generated_Source\PSoC4/BLE.c ****     *                                               returned.
 771:Generated_Source\PSoC4/BLE.c ****     * 
 772:Generated_Source\PSoC4/BLE.c ****     *  \param advertisingIntervalType: Fast or slow advertising interval with timings
 773:Generated_Source\PSoC4/BLE.c ****     *                                 entered in Advertising settings section of the
 774:Generated_Source\PSoC4/BLE.c ****     *                                 customizer.
 775:Generated_Source\PSoC4/BLE.c ****     *  * CYBLE_ADVERTISING_FAST   0x00u
 776:Generated_Source\PSoC4/BLE.c ****     *  * CYBLE_ADVERTISING_SLOW   0x01u
 777:Generated_Source\PSoC4/BLE.c ****     *  * CYBLE_ADVERTISING_CUSTOM 0x02u
 778:Generated_Source\PSoC4/BLE.c ****     * 
 779:Generated_Source\PSoC4/BLE.c ****     * \return
 780:Generated_Source\PSoC4/BLE.c ****     *  CYBLE_API_RESULT_T : Return value indicates if the function succeeded or
 781:Generated_Source\PSoC4/BLE.c ****     *  failed. Following are the possible error codes.
 782:Generated_Source\PSoC4/BLE.c ****     * 
 783:Generated_Source\PSoC4/BLE.c ****     *   Errors codes                      |  Description
 784:Generated_Source\PSoC4/BLE.c ****     *   --------------------------------- |  --------------------------------
 785:Generated_Source\PSoC4/BLE.c ****     *   CYBLE_ERROR_OK                    |  On successful operation.
 786:Generated_Source\PSoC4/BLE.c ****     *   CYBLE_ERROR_INVALID_PARAMETER     |  On passing an invalid parameter.
 787:Generated_Source\PSoC4/BLE.c ****     *   CYBLE_ERROR_INVALID_STATE         |  On calling this function not in Disconnected state.
 788:Generated_Source\PSoC4/BLE.c ****     *
 789:Generated_Source\PSoC4/BLE.c ****     * 
 790:Generated_Source\PSoC4/BLE.c ****     *******************************************************************************/
 791:Generated_Source\PSoC4/BLE.c ****     CYBLE_API_RESULT_T CyBle_GappStartAdvertisement(uint8 advertisingIntervalType)
ARM GAS  C:\Users\TTSS\AppData\Local\Temp\ccKqB1vQ.s 			page 23


 792:Generated_Source\PSoC4/BLE.c ****     {
 456              		.loc 1 792 0
 457              		.cfi_startproc
 458              		@ args = 0, pretend = 0, frame = 16
 459              		@ frame_needed = 1, uses_anonymous_args = 0
 460 0000 90B5     		push	{r4, r7, lr}
 461              		.cfi_def_cfa_offset 12
 462              		.cfi_offset 4, -12
 463              		.cfi_offset 7, -8
 464              		.cfi_offset 14, -4
 465 0002 85B0     		sub	sp, sp, #20
 466              		.cfi_def_cfa_offset 32
 467 0004 00AF     		add	r7, sp, #0
 468              		.cfi_def_cfa_register 7
 469 0006 0200     		movs	r2, r0
 470 0008 FB1D     		adds	r3, r7, #7
 471 000a 1A70     		strb	r2, [r3]
 793:Generated_Source\PSoC4/BLE.c ****         CYBLE_API_RESULT_T apiResult;
 794:Generated_Source\PSoC4/BLE.c ****         
 795:Generated_Source\PSoC4/BLE.c ****         if(advertisingIntervalType > CYBLE_ADVERTISING_CUSTOM)
 472              		.loc 1 795 0
 473 000c FB1D     		adds	r3, r7, #7
 474 000e 1B78     		ldrb	r3, [r3]
 475 0010 022B     		cmp	r3, #2
 476 0012 04D9     		bls	.L18
 796:Generated_Source\PSoC4/BLE.c ****         {
 797:Generated_Source\PSoC4/BLE.c ****             apiResult = CYBLE_ERROR_INVALID_PARAMETER;
 477              		.loc 1 797 0
 478 0014 0E23     		movs	r3, #14
 479 0016 FB18     		adds	r3, r7, r3
 480 0018 0122     		movs	r2, #1
 481 001a 1A80     		strh	r2, [r3]
 482 001c 4CE0     		b	.L19
 483              	.L18:
 798:Generated_Source\PSoC4/BLE.c ****         }
 799:Generated_Source\PSoC4/BLE.c ****         else if((CYBLE_STATE_DISCONNECTED == CyBle_GetState()) && ((cyBle_eventHandlerFlag & CYBLE_
 484              		.loc 1 799 0
 485 001e 2A4B     		ldr	r3, .L25
 486 0020 1B78     		ldrb	r3, [r3]
 487 0022 042B     		cmp	r3, #4
 488 0024 43D1     		bne	.L20
 489              		.loc 1 799 0 is_stmt 0 discriminator 1
 490 0026 294B     		ldr	r3, .L25+4
 491 0028 1B78     		ldrb	r3, [r3]
 492 002a DBB2     		uxtb	r3, r3
 493 002c 1A00     		movs	r2, r3
 494 002e 0423     		movs	r3, #4
 495 0030 1340     		ands	r3, r2
 496 0032 3CD1     		bne	.L20
 800:Generated_Source\PSoC4/BLE.c ****         {   
 801:Generated_Source\PSoC4/BLE.c ****             if(advertisingIntervalType == CYBLE_ADVERTISING_FAST)
 497              		.loc 1 801 0 is_stmt 1
 498 0034 FB1D     		adds	r3, r7, #7
 499 0036 1B78     		ldrb	r3, [r3]
 500 0038 002B     		cmp	r3, #0
 501 003a 0DD1     		bne	.L21
 802:Generated_Source\PSoC4/BLE.c ****             {
ARM GAS  C:\Users\TTSS\AppData\Local\Temp\ccKqB1vQ.s 			page 24


 803:Generated_Source\PSoC4/BLE.c ****                 cyBle_discoveryModeInfo.advTo = CYBLE_FAST_ADV_TIMEOUT;
 502              		.loc 1 803 0
 503 003c 244B     		ldr	r3, .L25+8
 504 003e 0022     		movs	r2, #0
 505 0040 1A82     		strh	r2, [r3, #16]
 804:Generated_Source\PSoC4/BLE.c ****                 cyBle_discoveryModeInfo.advParam->advIntvMin = CYBLE_FAST_ADV_INT_MIN;
 506              		.loc 1 804 0
 507 0042 234B     		ldr	r3, .L25+8
 508 0044 5B68     		ldr	r3, [r3, #4]
 509 0046 C822     		movs	r2, #200
 510 0048 D200     		lsls	r2, r2, #3
 511 004a 1A80     		strh	r2, [r3]
 805:Generated_Source\PSoC4/BLE.c ****                 cyBle_discoveryModeInfo.advParam->advIntvMax = CYBLE_FAST_ADV_INT_MAX;
 512              		.loc 1 805 0
 513 004c 204B     		ldr	r3, .L25+8
 514 004e 5B68     		ldr	r3, [r3, #4]
 515 0050 C822     		movs	r2, #200
 516 0052 D200     		lsls	r2, r2, #3
 517 0054 5A80     		strh	r2, [r3, #2]
 518 0056 10E0     		b	.L22
 519              	.L21:
 806:Generated_Source\PSoC4/BLE.c ****             }
 807:Generated_Source\PSoC4/BLE.c ****             else if(advertisingIntervalType == CYBLE_ADVERTISING_SLOW)
 520              		.loc 1 807 0
 521 0058 FB1D     		adds	r3, r7, #7
 522 005a 1B78     		ldrb	r3, [r3]
 523 005c 012B     		cmp	r3, #1
 524 005e 0CD1     		bne	.L22
 808:Generated_Source\PSoC4/BLE.c ****             {
 809:Generated_Source\PSoC4/BLE.c ****                 cyBle_discoveryModeInfo.advTo = CYBLE_SLOW_ADV_TIMEOUT;
 525              		.loc 1 809 0
 526 0060 1B4B     		ldr	r3, .L25+8
 527 0062 9622     		movs	r2, #150
 528 0064 1A82     		strh	r2, [r3, #16]
 810:Generated_Source\PSoC4/BLE.c ****                 cyBle_discoveryModeInfo.advParam->advIntvMin = CYBLE_SLOW_ADV_INT_MIN;
 529              		.loc 1 810 0
 530 0066 1A4B     		ldr	r3, .L25+8
 531 0068 5B68     		ldr	r3, [r3, #4]
 532 006a C822     		movs	r2, #200
 533 006c D200     		lsls	r2, r2, #3
 534 006e 1A80     		strh	r2, [r3]
 811:Generated_Source\PSoC4/BLE.c ****                 cyBle_discoveryModeInfo.advParam->advIntvMax = CYBLE_SLOW_ADV_INT_MAX;
 535              		.loc 1 811 0
 536 0070 174B     		ldr	r3, .L25+8
 537 0072 5B68     		ldr	r3, [r3, #4]
 538 0074 8022     		movs	r2, #128
 539 0076 D201     		lsls	r2, r2, #7
 540 0078 5A80     		strh	r2, [r3, #2]
 541              	.L22:
 812:Generated_Source\PSoC4/BLE.c ****             }       
 813:Generated_Source\PSoC4/BLE.c ****             else /* Do not update advertising intervals */
 814:Generated_Source\PSoC4/BLE.c ****             {
 815:Generated_Source\PSoC4/BLE.c ****             }
 816:Generated_Source\PSoC4/BLE.c ****             cyBle_advertisingIntervalType = advertisingIntervalType;
 542              		.loc 1 816 0
 543 007a 164B     		ldr	r3, .L25+12
 544 007c FA1D     		adds	r2, r7, #7
ARM GAS  C:\Users\TTSS\AppData\Local\Temp\ccKqB1vQ.s 			page 25


 545 007e 1278     		ldrb	r2, [r2]
 546 0080 1A70     		strb	r2, [r3]
 817:Generated_Source\PSoC4/BLE.c ****             apiResult = CyBle_GappEnterDiscoveryMode(&cyBle_discoveryModeInfo);
 547              		.loc 1 817 0
 548 0082 0E23     		movs	r3, #14
 549 0084 FC18     		adds	r4, r7, r3
 550 0086 124B     		ldr	r3, .L25+8
 551 0088 1800     		movs	r0, r3
 552 008a FFF7FEFF 		bl	CyBle_GappEnterDiscoveryMode
 553 008e 0300     		movs	r3, r0
 554 0090 2380     		strh	r3, [r4]
 818:Generated_Source\PSoC4/BLE.c ****         
 819:Generated_Source\PSoC4/BLE.c ****             if(apiResult == CYBLE_ERROR_OK)
 555              		.loc 1 819 0
 556 0092 0E23     		movs	r3, #14
 557 0094 FB18     		adds	r3, r7, r3
 558 0096 1B88     		ldrh	r3, [r3]
 559 0098 002B     		cmp	r3, #0
 560 009a 0DD1     		bne	.L19
 820:Generated_Source\PSoC4/BLE.c ****             {
 821:Generated_Source\PSoC4/BLE.c ****                 cyBle_eventHandlerFlag |= CYBLE_START_FLAG;
 561              		.loc 1 821 0
 562 009c 0B4B     		ldr	r3, .L25+4
 563 009e 1B78     		ldrb	r3, [r3]
 564 00a0 DBB2     		uxtb	r3, r3
 565 00a2 0422     		movs	r2, #4
 566 00a4 1343     		orrs	r3, r2
 567 00a6 DAB2     		uxtb	r2, r3
 568 00a8 084B     		ldr	r3, .L25+4
 569 00aa 1A70     		strb	r2, [r3]
 819:Generated_Source\PSoC4/BLE.c ****             {
 570              		.loc 1 819 0
 571 00ac 04E0     		b	.L19
 572              	.L20:
 822:Generated_Source\PSoC4/BLE.c ****             }
 823:Generated_Source\PSoC4/BLE.c ****         }
 824:Generated_Source\PSoC4/BLE.c ****         else
 825:Generated_Source\PSoC4/BLE.c ****         {
 826:Generated_Source\PSoC4/BLE.c ****             apiResult = CYBLE_ERROR_INVALID_STATE;
 573              		.loc 1 826 0
 574 00ae 0E23     		movs	r3, #14
 575 00b0 FB18     		adds	r3, r7, r3
 576 00b2 0422     		movs	r2, #4
 577 00b4 FF32     		adds	r2, r2, #255
 578 00b6 1A80     		strh	r2, [r3]
 579              	.L19:
 827:Generated_Source\PSoC4/BLE.c ****         }
 828:Generated_Source\PSoC4/BLE.c **** 
 829:Generated_Source\PSoC4/BLE.c ****         return (apiResult);
 580              		.loc 1 829 0
 581 00b8 0E23     		movs	r3, #14
 582 00ba FB18     		adds	r3, r7, r3
 583 00bc 1B88     		ldrh	r3, [r3]
 830:Generated_Source\PSoC4/BLE.c ****     }
 584              		.loc 1 830 0
 585 00be 1800     		movs	r0, r3
 586 00c0 BD46     		mov	sp, r7
ARM GAS  C:\Users\TTSS\AppData\Local\Temp\ccKqB1vQ.s 			page 26


 587 00c2 05B0     		add	sp, sp, #20
 588              		@ sp needed
 589 00c4 90BD     		pop	{r4, r7, pc}
 590              	.L26:
 591 00c6 C046     		.align	2
 592              	.L25:
 593 00c8 00000000 		.word	cyBle_state
 594 00cc 00000000 		.word	cyBle_eventHandlerFlag
 595 00d0 00000000 		.word	cyBle_discoveryModeInfo
 596 00d4 00000000 		.word	cyBle_advertisingIntervalType
 597              		.cfi_endproc
 598              	.LFE6:
 599              		.size	CyBle_GappStartAdvertisement, .-CyBle_GappStartAdvertisement
 600              		.section	.text.CyBle_GappStopAdvertisement,"ax",%progbits
 601              		.align	2
 602              		.global	CyBle_GappStopAdvertisement
 603              		.code	16
 604              		.thumb_func
 605              		.type	CyBle_GappStopAdvertisement, %function
 606              	CyBle_GappStopAdvertisement:
 607              	.LFB7:
 831:Generated_Source\PSoC4/BLE.c **** 
 832:Generated_Source\PSoC4/BLE.c ****     
 833:Generated_Source\PSoC4/BLE.c ****     /******************************************************************************
 834:Generated_Source\PSoC4/BLE.c ****     * Function Name: CyBle_GappStopAdvertisement
 835:Generated_Source\PSoC4/BLE.c ****     ***************************************************************************//**
 836:Generated_Source\PSoC4/BLE.c ****     * 
 837:Generated_Source\PSoC4/BLE.c ****     *   This function can be used to exit from discovery mode. After the execution 
 838:Generated_Source\PSoC4/BLE.c ****     *   of this function, there will no longer be any advertisements. On stopping 
 839:Generated_Source\PSoC4/BLE.c ****     *   advertising, GAP Peripheral receives CYBLE_EVT_GAPP_ADVERTISEMENT_START_STOP
 840:Generated_Source\PSoC4/BLE.c ****     *   event. It is expected that the application layer tracks the function call 
 841:Generated_Source\PSoC4/BLE.c ****     *   performed before occurrence of this event as this event can occur on making 
 842:Generated_Source\PSoC4/BLE.c ****     *   a call to Cy_BleGappStartAdvertisement(), CyBle_GappEnterDiscoveryMode(), 
 843:Generated_Source\PSoC4/BLE.c ****     *   or CyBle_GappStartAdvertisement() functions as well.
 844:Generated_Source\PSoC4/BLE.c ****     *   
 845:Generated_Source\PSoC4/BLE.c ****     *   The following event occurs on invoking this function:
 846:Generated_Source\PSoC4/BLE.c ****     *   * CYBLE_EVT_GAPP_ADVERTISEMENT_START_STOP
 847:Generated_Source\PSoC4/BLE.c ****     * 
 848:Generated_Source\PSoC4/BLE.c ****     *  \return
 849:Generated_Source\PSoC4/BLE.c ****     *   None
 850:Generated_Source\PSoC4/BLE.c ****     * 
 851:Generated_Source\PSoC4/BLE.c ****     *******************************************************************************/
 852:Generated_Source\PSoC4/BLE.c ****     void CyBle_GappStopAdvertisement(void)
 853:Generated_Source\PSoC4/BLE.c ****     {
 608              		.loc 1 853 0
 609              		.cfi_startproc
 610              		@ args = 0, pretend = 0, frame = 0
 611              		@ frame_needed = 1, uses_anonymous_args = 0
 612 0000 80B5     		push	{r7, lr}
 613              		.cfi_def_cfa_offset 8
 614              		.cfi_offset 7, -8
 615              		.cfi_offset 14, -4
 616 0002 00AF     		add	r7, sp, #0
 617              		.cfi_def_cfa_register 7
 854:Generated_Source\PSoC4/BLE.c ****         CyBle_GappExitDiscoveryMode();
 618              		.loc 1 854 0
 619 0004 FFF7FEFF 		bl	CyBle_GappExitDiscoveryMode
ARM GAS  C:\Users\TTSS\AppData\Local\Temp\ccKqB1vQ.s 			page 27


 855:Generated_Source\PSoC4/BLE.c ****         cyBle_eventHandlerFlag |= CYBLE_STOP_FLAG;
 620              		.loc 1 855 0
 621 0008 054B     		ldr	r3, .L28
 622 000a 1B78     		ldrb	r3, [r3]
 623 000c DBB2     		uxtb	r3, r3
 624 000e 0822     		movs	r2, #8
 625 0010 1343     		orrs	r3, r2
 626 0012 DAB2     		uxtb	r2, r3
 627 0014 024B     		ldr	r3, .L28
 628 0016 1A70     		strb	r2, [r3]
 856:Generated_Source\PSoC4/BLE.c ****     }
 629              		.loc 1 856 0
 630 0018 C046     		nop
 631 001a BD46     		mov	sp, r7
 632              		@ sp needed
 633 001c 80BD     		pop	{r7, pc}
 634              	.L29:
 635 001e C046     		.align	2
 636              	.L28:
 637 0020 00000000 		.word	cyBle_eventHandlerFlag
 638              		.cfi_endproc
 639              	.LFE7:
 640              		.size	CyBle_GappStopAdvertisement, .-CyBle_GappStopAdvertisement
 641              		.section	.text.CyBle_ChangeAdDeviceAddress,"ax",%progbits
 642              		.align	2
 643              		.global	CyBle_ChangeAdDeviceAddress
 644              		.code	16
 645              		.thumb_func
 646              		.type	CyBle_ChangeAdDeviceAddress, %function
 647              	CyBle_ChangeAdDeviceAddress:
 648              	.LFB8:
 857:Generated_Source\PSoC4/BLE.c ****     
 858:Generated_Source\PSoC4/BLE.c ****     
 859:Generated_Source\PSoC4/BLE.c ****     /******************************************************************************
 860:Generated_Source\PSoC4/BLE.c ****     * Function Name: CyBle_ChangeAdDeviceAddress
 861:Generated_Source\PSoC4/BLE.c ****     ***************************************************************************//**
 862:Generated_Source\PSoC4/BLE.c ****     * 
 863:Generated_Source\PSoC4/BLE.c ****     *  This function is used to set the Bluetooth device address into the 
 864:Generated_Source\PSoC4/BLE.c ****     *  advertisement or scan response data structure.
 865:Generated_Source\PSoC4/BLE.c ****     * 
 866:Generated_Source\PSoC4/BLE.c ****     *  \param bdAddr: Bluetooth Device address. The variable is of type CYBLE_GAP_BD_ADDR_T
 867:Generated_Source\PSoC4/BLE.c ****     *  \param dest: 0 - selects advertisement structure, not zero value selects scan 
 868:Generated_Source\PSoC4/BLE.c ****     *               response structure.
 869:Generated_Source\PSoC4/BLE.c ****     * 
 870:Generated_Source\PSoC4/BLE.c ****     * \return
 871:Generated_Source\PSoC4/BLE.c ****     *  None
 872:Generated_Source\PSoC4/BLE.c ****     *  
 873:Generated_Source\PSoC4/BLE.c ****     *******************************************************************************/
 874:Generated_Source\PSoC4/BLE.c ****     void CyBle_ChangeAdDeviceAddress(const CYBLE_GAP_BD_ADDR_T* bdAddr, uint8 dest)
 875:Generated_Source\PSoC4/BLE.c ****     {
 649              		.loc 1 875 0
 650              		.cfi_startproc
 651              		@ args = 0, pretend = 0, frame = 16
 652              		@ frame_needed = 1, uses_anonymous_args = 0
 653 0000 80B5     		push	{r7, lr}
 654              		.cfi_def_cfa_offset 8
 655              		.cfi_offset 7, -8
ARM GAS  C:\Users\TTSS\AppData\Local\Temp\ccKqB1vQ.s 			page 28


 656              		.cfi_offset 14, -4
 657 0002 84B0     		sub	sp, sp, #16
 658              		.cfi_def_cfa_offset 24
 659 0004 00AF     		add	r7, sp, #0
 660              		.cfi_def_cfa_register 7
 661 0006 7860     		str	r0, [r7, #4]
 662 0008 0A00     		movs	r2, r1
 663 000a FB1C     		adds	r3, r7, #3
 664 000c 1A70     		strb	r2, [r3]
 876:Generated_Source\PSoC4/BLE.c ****         uint8 i;
 877:Generated_Source\PSoC4/BLE.c ****         uint8 *destBuffer = NULL;
 665              		.loc 1 877 0
 666 000e 0023     		movs	r3, #0
 667 0010 BB60     		str	r3, [r7, #8]
 878:Generated_Source\PSoC4/BLE.c ****         
 879:Generated_Source\PSoC4/BLE.c ****         if(dest == 0u)      /* Destination - advertising structure */
 880:Generated_Source\PSoC4/BLE.c ****         {
 881:Generated_Source\PSoC4/BLE.c ****             #ifdef CYBLE_ADV_PKT_INDEX_BLUETOOTH_DEVICE_ADDRESS
 882:Generated_Source\PSoC4/BLE.c ****                 destBuffer = &cyBle_discoveryData.advData[CYBLE_ADV_PKT_INDEX_BLUETOOTH_DEVICE_ADDR
 883:Generated_Source\PSoC4/BLE.c ****             #endif /* CYBLE_ADV_PKT_INDEX_BLUETOOTH_DEVICE_ADDRESS */
 884:Generated_Source\PSoC4/BLE.c ****         }
 885:Generated_Source\PSoC4/BLE.c ****         else                /* Destination - scan response structure */
 886:Generated_Source\PSoC4/BLE.c ****         {
 887:Generated_Source\PSoC4/BLE.c ****             #ifdef CYBLE_SCN_PKT_INDEX_BLUETOOTH_DEVICE_ADDRESS
 888:Generated_Source\PSoC4/BLE.c ****                 destBuffer = &cyBle_scanRspData.scanRspData[CYBLE_SCN_PKT_INDEX_BLUETOOTH_DEVICE_AD
 889:Generated_Source\PSoC4/BLE.c ****             #endif /* CYBLE_SCN_PKT_INDEX_BLUETOOTH_DEVICE_ADDRESS */    
 890:Generated_Source\PSoC4/BLE.c ****         }
 891:Generated_Source\PSoC4/BLE.c ****         
 892:Generated_Source\PSoC4/BLE.c ****         if(destBuffer != NULL)
 668              		.loc 1 892 0
 669 0012 BB68     		ldr	r3, [r7, #8]
 670 0014 002B     		cmp	r3, #0
 671 0016 20D0     		beq	.L34
 893:Generated_Source\PSoC4/BLE.c ****         {
 894:Generated_Source\PSoC4/BLE.c ****             /* Update Device Address type */
 895:Generated_Source\PSoC4/BLE.c ****             destBuffer[0u] = bdAddr->type;
 672              		.loc 1 895 0
 673 0018 7B68     		ldr	r3, [r7, #4]
 674 001a 9A79     		ldrb	r2, [r3, #6]
 675 001c BB68     		ldr	r3, [r7, #8]
 676 001e 1A70     		strb	r2, [r3]
 896:Generated_Source\PSoC4/BLE.c ****             
 897:Generated_Source\PSoC4/BLE.c ****             for(i = 0u; i < CYBLE_GAP_BD_ADDR_SIZE; i++)
 677              		.loc 1 897 0
 678 0020 0F23     		movs	r3, #15
 679 0022 FB18     		adds	r3, r7, r3
 680 0024 0022     		movs	r2, #0
 681 0026 1A70     		strb	r2, [r3]
 682 0028 12E0     		b	.L32
 683              	.L33:
 898:Generated_Source\PSoC4/BLE.c ****             {
 899:Generated_Source\PSoC4/BLE.c ****                 destBuffer[i + 1u] = bdAddr->bdAddr[i];
 684              		.loc 1 899 0 discriminator 3
 685 002a 0F23     		movs	r3, #15
 686 002c FB18     		adds	r3, r7, r3
 687 002e 1B78     		ldrb	r3, [r3]
 688 0030 0133     		adds	r3, r3, #1
ARM GAS  C:\Users\TTSS\AppData\Local\Temp\ccKqB1vQ.s 			page 29


 689 0032 BA68     		ldr	r2, [r7, #8]
 690 0034 D318     		adds	r3, r2, r3
 691 0036 0F22     		movs	r2, #15
 692 0038 BA18     		adds	r2, r7, r2
 693 003a 1278     		ldrb	r2, [r2]
 694 003c 7968     		ldr	r1, [r7, #4]
 695 003e 8A5C     		ldrb	r2, [r1, r2]
 696 0040 1A70     		strb	r2, [r3]
 897:Generated_Source\PSoC4/BLE.c ****             {
 697              		.loc 1 897 0 discriminator 3
 698 0042 0F23     		movs	r3, #15
 699 0044 FB18     		adds	r3, r7, r3
 700 0046 1A78     		ldrb	r2, [r3]
 701 0048 0F23     		movs	r3, #15
 702 004a FB18     		adds	r3, r7, r3
 703 004c 0132     		adds	r2, r2, #1
 704 004e 1A70     		strb	r2, [r3]
 705              	.L32:
 897:Generated_Source\PSoC4/BLE.c ****             {
 706              		.loc 1 897 0 is_stmt 0 discriminator 1
 707 0050 0F23     		movs	r3, #15
 708 0052 FB18     		adds	r3, r7, r3
 709 0054 1B78     		ldrb	r3, [r3]
 710 0056 052B     		cmp	r3, #5
 711 0058 E7D9     		bls	.L33
 712              	.L34:
 900:Generated_Source\PSoC4/BLE.c ****             }
 901:Generated_Source\PSoC4/BLE.c ****         }
 902:Generated_Source\PSoC4/BLE.c ****     }
 713              		.loc 1 902 0 is_stmt 1
 714 005a C046     		nop
 715 005c BD46     		mov	sp, r7
 716 005e 04B0     		add	sp, sp, #16
 717              		@ sp needed
 718 0060 80BD     		pop	{r7, pc}
 719              		.cfi_endproc
 720              	.LFE8:
 721              		.size	CyBle_ChangeAdDeviceAddress, .-CyBle_ChangeAdDeviceAddress
 722 0062 C046     		.section	.text.CyBle_GapSetLocalName,"ax",%progbits
 723              		.align	2
 724              		.global	CyBle_GapSetLocalName
 725              		.code	16
 726              		.thumb_func
 727              		.type	CyBle_GapSetLocalName, %function
 728              	CyBle_GapSetLocalName:
 729              	.LFB9:
 903:Generated_Source\PSoC4/BLE.c ****   
 904:Generated_Source\PSoC4/BLE.c **** #endif /* CYBLE_GAP_ROLE_PERIPHERAL || CYBLE_GAP_ROLE_BROADCASTER */
 905:Generated_Source\PSoC4/BLE.c **** 
 906:Generated_Source\PSoC4/BLE.c **** 
 907:Generated_Source\PSoC4/BLE.c **** #if(CYBLE_GAP_ROLE_CENTRAL || CYBLE_GAP_ROLE_OBSERVER)
 908:Generated_Source\PSoC4/BLE.c **** 
 909:Generated_Source\PSoC4/BLE.c ****     /******************************************************************************
 910:Generated_Source\PSoC4/BLE.c ****     * Function Name: CyBle_GapcStartScan
 911:Generated_Source\PSoC4/BLE.c ****     ***************************************************************************//**
 912:Generated_Source\PSoC4/BLE.c ****     * 
 913:Generated_Source\PSoC4/BLE.c ****     *   This function is used for discovering GAP peripheral devices that are 
ARM GAS  C:\Users\TTSS\AppData\Local\Temp\ccKqB1vQ.s 			page 30


 914:Generated_Source\PSoC4/BLE.c ****     *   available for connection. It performs the scanning routine using the 
 915:Generated_Source\PSoC4/BLE.c ****     *   parameters entered in the component's customizer.
 916:Generated_Source\PSoC4/BLE.c ****     *   
 917:Generated_Source\PSoC4/BLE.c ****     *   As soon as the discovery operation starts, CYBLE_EVT_GAPC_SCAN_START_STOP 
 918:Generated_Source\PSoC4/BLE.c ****     *   event is generated. The CYBLE_EVT_GAPC_SCAN_PROGRESS_RESULT event is 
 919:Generated_Source\PSoC4/BLE.c ****     *   generated when a GAP peripheral device is located. There are three discovery
 920:Generated_Source\PSoC4/BLE.c ****     *   procedures can be selected in the customizer's GUI:
 921:Generated_Source\PSoC4/BLE.c ****     *   
 922:Generated_Source\PSoC4/BLE.c ****     *   * Observation procedure: A device performing the observer role receives only
 923:Generated_Source\PSoC4/BLE.c ****     *                            advertisement data from devices irrespective of 
 924:Generated_Source\PSoC4/BLE.c ****     *                            their discoverable mode settings. Advertisement 
 925:Generated_Source\PSoC4/BLE.c ****     *                            data received is provided by the event,      
 926:Generated_Source\PSoC4/BLE.c ****     *                            CYBLE_EVT_GAPC_SCAN_PROGRESS_RESULT. This procedure
 927:Generated_Source\PSoC4/BLE.c ****     *                            requires the scanType sub parameter to be passive
 928:Generated_Source\PSoC4/BLE.c ****     *                            scanning. 
 929:Generated_Source\PSoC4/BLE.c ****     *   
 930:Generated_Source\PSoC4/BLE.c ****     *   * Limited Discovery procedure: A device performing the limited discovery
 931:Generated_Source\PSoC4/BLE.c ****     *                                  procedure receives advertisement data and 
 932:Generated_Source\PSoC4/BLE.c ****     *                                  scan# response data from devices in the 
 933:Generated_Source\PSoC4/BLE.c ****     *                                  limited discoverable mode only. Received data
 934:Generated_Source\PSoC4/BLE.c ****     *                                  is provided by the event, 
 935:Generated_Source\PSoC4/BLE.c ****     *                                  CYBLE_EVT_GAPC_SCAN_PROGRESS_RESULT. This 
 936:Generated_Source\PSoC4/BLE.c ****     *                                  procedure requires the scanType sub-parameter 
 937:Generated_Source\PSoC4/BLE.c ****     *                                  to be active scanning.
 938:Generated_Source\PSoC4/BLE.c ****     *   
 939:Generated_Source\PSoC4/BLE.c ****     *   * General Discovery procedure: A device performing the general discovery 
 940:Generated_Source\PSoC4/BLE.c ****     *                                  procedure receives the advertisement data and
 941:Generated_Source\PSoC4/BLE.c ****     *                                  scan response data from devices in both 
 942:Generated_Source\PSoC4/BLE.c ****     *                                  limited discoverable mode and the general 
 943:Generated_Source\PSoC4/BLE.c ****     *                                  discoverable mode. Received data is provided
 944:Generated_Source\PSoC4/BLE.c ****     *                                  by the event,
 945:Generated_Source\PSoC4/BLE.c ****     *                                  CYBLE_EVT_GAPC_SCAN_PROGRESS_RESULT. This 
 946:Generated_Source\PSoC4/BLE.c ****     *                                  procedure requires the scanType sub-parameter
 947:Generated_Source\PSoC4/BLE.c ****     *                                  to be active scanning.
 948:Generated_Source\PSoC4/BLE.c ****     *   
 949:Generated_Source\PSoC4/BLE.c ****     *   Every Advertisement / Scan response packet received results in a new event, 
 950:Generated_Source\PSoC4/BLE.c ****     *   CYBLE_EVT_GAPC_SCAN_PROGRESS_RESULT.
 951:Generated_Source\PSoC4/BLE.c ****     *   If 'scanTo' sub-parameter is a non-zero value, then upon commencement of 
 952:Generated_Source\PSoC4/BLE.c ****     *   discovery procedure and elapsed time = 'scanTo', CYBLE_EVT_TIMEOUT event
 953:Generated_Source\PSoC4/BLE.c ****     *   is generated with the event parameter indicating CYBLE_GAP_SCAN_TO.
 954:Generated_Source\PSoC4/BLE.c ****     *   Possible generated events are:
 955:Generated_Source\PSoC4/BLE.c ****     *   * CYBLE_EVT_GAPC_SCAN_START_STOP: If a device started or stopped scanning. 
 956:Generated_Source\PSoC4/BLE.c ****     *                                     Use CyBle_GetState() to determine the 
 957:Generated_Source\PSoC4/BLE.c ****     *                                     state. Sequential scanning could be 
 958:Generated_Source\PSoC4/BLE.c ****     *                                     started when CYBLE_STATE_DISCONNECTED 
 959:Generated_Source\PSoC4/BLE.c ****     *                                     state is returned. 
 960:Generated_Source\PSoC4/BLE.c ****     *   * CYBLE_EVT_GAPC_SCAN_PROGRESS_RESULT 
 961:Generated_Source\PSoC4/BLE.c ****     *   * CYBLE_EVT_TIMEOUT (CYBLE_GAP_SCAN_TO)
 962:Generated_Source\PSoC4/BLE.c ****     * 
 963:Generated_Source\PSoC4/BLE.c ****     *   \param scanningIntervalType:  Fast or slow scanning interval with
 964:Generated_Source\PSoC4/BLE.c ****     *       timings entered in Scan settings section of the customizer.
 965:Generated_Source\PSoC4/BLE.c ****     * 	  * CYBLE_SCANNING_FAST   0x00u
 966:Generated_Source\PSoC4/BLE.c ****     * 	  * CYBLE_SCANNING_SLOW   0x01u
 967:Generated_Source\PSoC4/BLE.c ****     * 	  * CYBLE_SCANNING_CUSTOM 0x02u
 968:Generated_Source\PSoC4/BLE.c ****     * 
 969:Generated_Source\PSoC4/BLE.c ****     * \return
 970:Generated_Source\PSoC4/BLE.c ****     *  CYBLE_API_RESULT_T : Return value indicates if the function succeeded or
ARM GAS  C:\Users\TTSS\AppData\Local\Temp\ccKqB1vQ.s 			page 31


 971:Generated_Source\PSoC4/BLE.c ****     *  failed. Following are the possible error codes.
 972:Generated_Source\PSoC4/BLE.c ****     *
 973:Generated_Source\PSoC4/BLE.c ****     *   Errors codes                       | Description
 974:Generated_Source\PSoC4/BLE.c ****     *   ---------------------------------- | -----------------------------------
 975:Generated_Source\PSoC4/BLE.c ****     *   CYBLE_ERROR_OK                     | On successful operation.
 976:Generated_Source\PSoC4/BLE.c ****     *   CYBLE_ERROR_STACK_INTERNAL         | An error occurred in the BLE stack.
 977:Generated_Source\PSoC4/BLE.c ****     *   CYBLE_ERROR_INVALID_PARAMETER      | On passing an invalid parameter.
 978:Generated_Source\PSoC4/BLE.c ****     *  
 979:Generated_Source\PSoC4/BLE.c ****     *******************************************************************************/
 980:Generated_Source\PSoC4/BLE.c ****     CYBLE_API_RESULT_T CyBle_GapcStartScan(uint8 scanningIntervalType)
 981:Generated_Source\PSoC4/BLE.c ****     {
 982:Generated_Source\PSoC4/BLE.c ****         CYBLE_API_RESULT_T apiResult;
 983:Generated_Source\PSoC4/BLE.c **** 
 984:Generated_Source\PSoC4/BLE.c ****         if(scanningIntervalType > CYBLE_SCANNING_CUSTOM)
 985:Generated_Source\PSoC4/BLE.c ****         {
 986:Generated_Source\PSoC4/BLE.c ****             apiResult = CYBLE_ERROR_INVALID_PARAMETER;
 987:Generated_Source\PSoC4/BLE.c ****         }
 988:Generated_Source\PSoC4/BLE.c ****         else
 989:Generated_Source\PSoC4/BLE.c ****         {
 990:Generated_Source\PSoC4/BLE.c ****             if(scanningIntervalType == CYBLE_SCANNING_FAST)
 991:Generated_Source\PSoC4/BLE.c ****             {
 992:Generated_Source\PSoC4/BLE.c ****                 cyBle_discoveryInfo.scanTo = CYBLE_FAST_SCAN_TIMEOUT;
 993:Generated_Source\PSoC4/BLE.c ****                 cyBle_discoveryInfo.scanIntv = CYBLE_FAST_SCAN_INTERVAL;
 994:Generated_Source\PSoC4/BLE.c ****                 cyBle_discoveryInfo.scanWindow = CYBLE_FAST_SCAN_WINDOW;
 995:Generated_Source\PSoC4/BLE.c ****             }
 996:Generated_Source\PSoC4/BLE.c ****             else if(scanningIntervalType == CYBLE_SCANNING_SLOW)
 997:Generated_Source\PSoC4/BLE.c ****             {
 998:Generated_Source\PSoC4/BLE.c ****                 cyBle_discoveryInfo.scanTo = CYBLE_SLOW_SCAN_TIMEOUT;
 999:Generated_Source\PSoC4/BLE.c ****                 cyBle_discoveryInfo.scanIntv = CYBLE_SLOW_SCAN_INTERVAL;
1000:Generated_Source\PSoC4/BLE.c ****                 cyBle_discoveryInfo.scanWindow = CYBLE_SLOW_SCAN_WINDOW;
1001:Generated_Source\PSoC4/BLE.c ****             }       
1002:Generated_Source\PSoC4/BLE.c ****             else /* Do not update scanning intervals */
1003:Generated_Source\PSoC4/BLE.c ****             {
1004:Generated_Source\PSoC4/BLE.c ****             }
1005:Generated_Source\PSoC4/BLE.c ****             
1006:Generated_Source\PSoC4/BLE.c ****             cyBle_scanningIntervalType = scanningIntervalType;
1007:Generated_Source\PSoC4/BLE.c ****             apiResult = CyBle_GapcStartDiscovery(&cyBle_discoveryInfo);
1008:Generated_Source\PSoC4/BLE.c ****         
1009:Generated_Source\PSoC4/BLE.c ****             if(apiResult == CYBLE_ERROR_OK)
1010:Generated_Source\PSoC4/BLE.c ****             {
1011:Generated_Source\PSoC4/BLE.c ****                 cyBle_eventHandlerFlag |= CYBLE_START_FLAG;
1012:Generated_Source\PSoC4/BLE.c ****             }
1013:Generated_Source\PSoC4/BLE.c ****         }
1014:Generated_Source\PSoC4/BLE.c ****        
1015:Generated_Source\PSoC4/BLE.c ****         return (apiResult);
1016:Generated_Source\PSoC4/BLE.c ****     }
1017:Generated_Source\PSoC4/BLE.c ****     
1018:Generated_Source\PSoC4/BLE.c ****     
1019:Generated_Source\PSoC4/BLE.c ****     /******************************************************************************
1020:Generated_Source\PSoC4/BLE.c ****     * Function Name: CyBle_GapcStopScan
1021:Generated_Source\PSoC4/BLE.c ****     ***************************************************************************//**
1022:Generated_Source\PSoC4/BLE.c ****     * 
1023:Generated_Source\PSoC4/BLE.c ****     *   This function used to stop the discovery of devices. On stopping discovery
1024:Generated_Source\PSoC4/BLE.c ****     *   operation, CYBLE_EVT_GAPC_SCAN_START_STOP event is generated. Application
1025:Generated_Source\PSoC4/BLE.c ****     *   layer needs to keep track of the function call made before receiving this
1026:Generated_Source\PSoC4/BLE.c ****     *   event to associate this event with either the start or stop discovery
1027:Generated_Source\PSoC4/BLE.c ****     *   function.
ARM GAS  C:\Users\TTSS\AppData\Local\Temp\ccKqB1vQ.s 			page 32


1028:Generated_Source\PSoC4/BLE.c ****     * 
1029:Generated_Source\PSoC4/BLE.c ****     *   Possible events generated are:
1030:Generated_Source\PSoC4/BLE.c ****     *    * CYBLE_EVT_GAPC_SCAN_START_STOP
1031:Generated_Source\PSoC4/BLE.c ****     * 
1032:Generated_Source\PSoC4/BLE.c ****     *  \return
1033:Generated_Source\PSoC4/BLE.c ****     *   None
1034:Generated_Source\PSoC4/BLE.c ****     * 
1035:Generated_Source\PSoC4/BLE.c ****     *******************************************************************************/
1036:Generated_Source\PSoC4/BLE.c ****     void CyBle_GapcStopScan(void)
1037:Generated_Source\PSoC4/BLE.c ****     {
1038:Generated_Source\PSoC4/BLE.c ****         CyBle_GapcStopDiscovery();
1039:Generated_Source\PSoC4/BLE.c ****         
1040:Generated_Source\PSoC4/BLE.c ****         cyBle_eventHandlerFlag |= CYBLE_STOP_FLAG;
1041:Generated_Source\PSoC4/BLE.c ****     }
1042:Generated_Source\PSoC4/BLE.c **** 
1043:Generated_Source\PSoC4/BLE.c ****     
1044:Generated_Source\PSoC4/BLE.c **** #endif /* CYBLE_GAP_ROLE_CENTRAL || CYBLE_GAP_ROLE_OBSERVER */
1045:Generated_Source\PSoC4/BLE.c **** 
1046:Generated_Source\PSoC4/BLE.c **** 
1047:Generated_Source\PSoC4/BLE.c **** #if(CYBLE_GAP_ROLE_CENTRAL)
1048:Generated_Source\PSoC4/BLE.c **** 
1049:Generated_Source\PSoC4/BLE.c ****     /******************************************************************************
1050:Generated_Source\PSoC4/BLE.c ****     * Function Name: CyBle_GapcConnectDevice
1051:Generated_Source\PSoC4/BLE.c ****     ***************************************************************************//**
1052:Generated_Source\PSoC4/BLE.c ****     * 
1053:Generated_Source\PSoC4/BLE.c ****     *  This function is used to send a connection request to the remote device with
1054:Generated_Source\PSoC4/BLE.c ****     *  the connection parameters set in the component customizer. This function needs
1055:Generated_Source\PSoC4/BLE.c ****     *  to be called only once after the target device is discovered by 
1056:Generated_Source\PSoC4/BLE.c ****     *  CyBle_GapcStartScan() and further scanning has stopped. Scanning is 
1057:Generated_Source\PSoC4/BLE.c ****     *  successfully stopped on invoking CyBle_GapcStopScan() and then receiving the
1058:Generated_Source\PSoC4/BLE.c ****     *  event CYBLE_EVT_GAPC_SCAN_START_STOP with sub-parameter 'success' = 0x01u.
1059:Generated_Source\PSoC4/BLE.c ****     *  
1060:Generated_Source\PSoC4/BLE.c ****     *  On successful connection, the following events are generated at the GAP 
1061:Generated_Source\PSoC4/BLE.c ****     *  Central device (as well as the GAP Peripheral device), in the following order.
1062:Generated_Source\PSoC4/BLE.c ****     *  * CYBLE_EVT_GATT_CONNECT_IND
1063:Generated_Source\PSoC4/BLE.c ****     *  * CYBLE_EVT_GAP_DEVICE_CONNECTED - If the device connects to a GAP Central and 
1064:Generated_Source\PSoC4/BLE.c ****     *    Link Layer Privacy is disabled in component customizer.
1065:Generated_Source\PSoC4/BLE.c ****     *  * CYBLE_EVT_GAP_ENHANCE_CONN_COMPLETE - If the device connects to a GAP Central and 
1066:Generated_Source\PSoC4/BLE.c ****     *    Link Layer Privacy is enabled in component customizer.
1067:Generated_Source\PSoC4/BLE.c ****     *  * CYBLE_EVT_GAP_DEVICE_CONNECTED
1068:Generated_Source\PSoC4/BLE.c ****     *  
1069:Generated_Source\PSoC4/BLE.c ****     *  A procedure is considered to have timed out if a connection response packet is 
1070:Generated_Source\PSoC4/BLE.c ****     *  not received within time set by cyBle_connectingTimeout global variable
1071:Generated_Source\PSoC4/BLE.c ****     *  (30 seconds by default). CYBLE_EVT_TIMEOUT event with CYBLE_GENERIC_TO parameter
1072:Generated_Source\PSoC4/BLE.c ****     *  will indicate about connection procedure timeout. Connection will automatically
1073:Generated_Source\PSoC4/BLE.c ****     *  be canceled and state will be changed to CYBLE_STATE_DISCONNECTED.
1074:Generated_Source\PSoC4/BLE.c ****     * 
1075:Generated_Source\PSoC4/BLE.c ****     *  \param address: The device address of the remote device to connect to. 
1076:Generated_Source\PSoC4/BLE.c ****     *  
1077:Generated_Source\PSoC4/BLE.c ****     * \return
1078:Generated_Source\PSoC4/BLE.c ****     *  CYBLE_API_RESULT_T : Return value indicates if the function succeeded or 
1079:Generated_Source\PSoC4/BLE.c ****     *  failed. Following are the possible error codes.
1080:Generated_Source\PSoC4/BLE.c ****     *
1081:Generated_Source\PSoC4/BLE.c ****     *   Errors codes                       | Description
1082:Generated_Source\PSoC4/BLE.c ****     *   ------------                       | -----------
1083:Generated_Source\PSoC4/BLE.c ****     *   CYBLE_ERROR_OK                     | On successful operation.
1084:Generated_Source\PSoC4/BLE.c ****     *   CYBLE_ERROR_STACK_INTERNAL         | On error occurred in the BLE stack.
ARM GAS  C:\Users\TTSS\AppData\Local\Temp\ccKqB1vQ.s 			page 33


1085:Generated_Source\PSoC4/BLE.c ****     *   CYBLE_ERROR_INVALID_PARAMETER      | On passing an invalid parameter.
1086:Generated_Source\PSoC4/BLE.c ****     *   CYBLE_ERROR_INVALID_STATE          | On calling this function not in Disconnected state.
1087:Generated_Source\PSoC4/BLE.c ****     *  
1088:Generated_Source\PSoC4/BLE.c ****     ******************************************************************************/
1089:Generated_Source\PSoC4/BLE.c ****     CYBLE_API_RESULT_T CyBle_GapcConnectDevice(const CYBLE_GAP_BD_ADDR_T * address)
1090:Generated_Source\PSoC4/BLE.c ****     {
1091:Generated_Source\PSoC4/BLE.c ****         CYBLE_API_RESULT_T apiResult;
1092:Generated_Source\PSoC4/BLE.c ****         uint8 i;
1093:Generated_Source\PSoC4/BLE.c **** 
1094:Generated_Source\PSoC4/BLE.c ****         if(CyBle_GetState() != CYBLE_STATE_DISCONNECTED)
1095:Generated_Source\PSoC4/BLE.c ****         {
1096:Generated_Source\PSoC4/BLE.c ****             apiResult = CYBLE_ERROR_INVALID_STATE;
1097:Generated_Source\PSoC4/BLE.c ****         }
1098:Generated_Source\PSoC4/BLE.c ****         else if(address == NULL)
1099:Generated_Source\PSoC4/BLE.c ****         {
1100:Generated_Source\PSoC4/BLE.c ****             apiResult = CYBLE_ERROR_INVALID_PARAMETER;
1101:Generated_Source\PSoC4/BLE.c ****         }
1102:Generated_Source\PSoC4/BLE.c ****         else
1103:Generated_Source\PSoC4/BLE.c ****         {
1104:Generated_Source\PSoC4/BLE.c ****             for(i = 0u; i < CYBLE_GAP_BD_ADDR_SIZE; i++)
1105:Generated_Source\PSoC4/BLE.c ****             {
1106:Generated_Source\PSoC4/BLE.c ****                 cyBle_connectionParameters.peerBdAddr[i] = address->bdAddr[i];
1107:Generated_Source\PSoC4/BLE.c ****             }
1108:Generated_Source\PSoC4/BLE.c ****             cyBle_connectionParameters.peerAddrType = address -> type;
1109:Generated_Source\PSoC4/BLE.c ****             apiResult = CyBle_GapcInitConnection(&cyBle_connectionParameters);
1110:Generated_Source\PSoC4/BLE.c ****             
1111:Generated_Source\PSoC4/BLE.c ****             if(apiResult == CYBLE_ERROR_OK)
1112:Generated_Source\PSoC4/BLE.c ****             {
1113:Generated_Source\PSoC4/BLE.c ****                 CyBle_SetState(CYBLE_STATE_CONNECTING);
1114:Generated_Source\PSoC4/BLE.c ****                 if(cyBle_connectingTimeout != 0u)
1115:Generated_Source\PSoC4/BLE.c ****                 {
1116:Generated_Source\PSoC4/BLE.c ****                     (void)CyBle_StartTimer(cyBle_connectingTimeout);
1117:Generated_Source\PSoC4/BLE.c ****                 }
1118:Generated_Source\PSoC4/BLE.c ****             }
1119:Generated_Source\PSoC4/BLE.c ****         }
1120:Generated_Source\PSoC4/BLE.c ****         return (apiResult);
1121:Generated_Source\PSoC4/BLE.c ****     }
1122:Generated_Source\PSoC4/BLE.c ****     
1123:Generated_Source\PSoC4/BLE.c **** 
1124:Generated_Source\PSoC4/BLE.c ****     /******************************************************************************
1125:Generated_Source\PSoC4/BLE.c ****     * Function Name: CyBle_GapcCancelDeviceConnection
1126:Generated_Source\PSoC4/BLE.c ****     ***************************************************************************//**
1127:Generated_Source\PSoC4/BLE.c ****     * 
1128:Generated_Source\PSoC4/BLE.c ****     *  This function cancels a previously initiated connection with the remote 
1129:Generated_Source\PSoC4/BLE.c ****     *  device. It is a blocking function. No event is generated on calling this 
1130:Generated_Source\PSoC4/BLE.c ****     *  function. If the devices are already connected then this function should not
1131:Generated_Source\PSoC4/BLE.c ****     *  be used. If you intend to disconnect from an existing connection, the function
1132:Generated_Source\PSoC4/BLE.c ****     *  CyBle_GapDisconnect() should be used.
1133:Generated_Source\PSoC4/BLE.c ****     * 
1134:Generated_Source\PSoC4/BLE.c ****     * \return
1135:Generated_Source\PSoC4/BLE.c ****     *  CYBLE_API_RESULT_T : Return value indicates if the function succeeded or 
1136:Generated_Source\PSoC4/BLE.c ****     *  failed. Following are the possible error codes.
1137:Generated_Source\PSoC4/BLE.c ****     *
1138:Generated_Source\PSoC4/BLE.c ****     *   Errors codes                       | Description
1139:Generated_Source\PSoC4/BLE.c ****     *   ---------------------------------- | --------------------------------------
1140:Generated_Source\PSoC4/BLE.c ****     *   CYBLE_ERROR_OK                     | On successful operation.
1141:Generated_Source\PSoC4/BLE.c ****     *   CYBLE_ERROR_STACK_INTERNAL         | An error occurred in the BLE stack.
ARM GAS  C:\Users\TTSS\AppData\Local\Temp\ccKqB1vQ.s 			page 34


1142:Generated_Source\PSoC4/BLE.c ****     *   CYBLE_ERROR_INVALID_STATE          | On calling this function not in Connecting state.
1143:Generated_Source\PSoC4/BLE.c ****     *  
1144:Generated_Source\PSoC4/BLE.c ****     *******************************************************************************/
1145:Generated_Source\PSoC4/BLE.c ****     CYBLE_API_RESULT_T CyBle_GapcCancelDeviceConnection(void)
1146:Generated_Source\PSoC4/BLE.c ****     {
1147:Generated_Source\PSoC4/BLE.c ****         CYBLE_API_RESULT_T apiResult;
1148:Generated_Source\PSoC4/BLE.c ****         
1149:Generated_Source\PSoC4/BLE.c ****         if(CyBle_GetState() != CYBLE_STATE_CONNECTING)
1150:Generated_Source\PSoC4/BLE.c ****         {
1151:Generated_Source\PSoC4/BLE.c ****             apiResult = CYBLE_ERROR_INVALID_STATE;
1152:Generated_Source\PSoC4/BLE.c ****         }
1153:Generated_Source\PSoC4/BLE.c ****         else 
1154:Generated_Source\PSoC4/BLE.c ****         {
1155:Generated_Source\PSoC4/BLE.c ****             apiResult = CyBle_GapcCancelConnection();
1156:Generated_Source\PSoC4/BLE.c ****             
1157:Generated_Source\PSoC4/BLE.c ****             if(cyBle_connectingTimeout != 0u)
1158:Generated_Source\PSoC4/BLE.c ****             {
1159:Generated_Source\PSoC4/BLE.c ****                 (void)CyBle_StopTimer();
1160:Generated_Source\PSoC4/BLE.c ****             }
1161:Generated_Source\PSoC4/BLE.c **** 
1162:Generated_Source\PSoC4/BLE.c ****             if(apiResult == CYBLE_ERROR_OK)
1163:Generated_Source\PSoC4/BLE.c ****             {
1164:Generated_Source\PSoC4/BLE.c ****                 CyBle_SetState(CYBLE_STATE_DISCONNECTED);
1165:Generated_Source\PSoC4/BLE.c ****             }
1166:Generated_Source\PSoC4/BLE.c ****         }
1167:Generated_Source\PSoC4/BLE.c ****         return (apiResult);
1168:Generated_Source\PSoC4/BLE.c ****     }    
1169:Generated_Source\PSoC4/BLE.c **** 
1170:Generated_Source\PSoC4/BLE.c ****     
1171:Generated_Source\PSoC4/BLE.c **** #endif /* CYBLE_GAP_ROLE_CENTRAL */
1172:Generated_Source\PSoC4/BLE.c **** 
1173:Generated_Source\PSoC4/BLE.c **** 
1174:Generated_Source\PSoC4/BLE.c **** #if(CYBLE_GATT_ROLE_SERVER)
1175:Generated_Source\PSoC4/BLE.c **** 
1176:Generated_Source\PSoC4/BLE.c **** #if(CYBLE_GAP_ROLE_PERIPHERAL)
1177:Generated_Source\PSoC4/BLE.c **** 
1178:Generated_Source\PSoC4/BLE.c ****         /******************************************************************************
1179:Generated_Source\PSoC4/BLE.c ****         * Function Name: CyBle_ChangeAdLocalName
1180:Generated_Source\PSoC4/BLE.c ****         ***************************************************************************//**
1181:Generated_Source\PSoC4/BLE.c ****         *  This function is used to set the local device name in the advertisement or 
1182:Generated_Source\PSoC4/BLE.c ****         *  scan response data structure.
1183:Generated_Source\PSoC4/BLE.c ****         * 
1184:Generated_Source\PSoC4/BLE.c ****         *  \param name: The local device name string to be set in advertisement data 
1185:Generated_Source\PSoC4/BLE.c ****         *            structure.
1186:Generated_Source\PSoC4/BLE.c ****         *  \param dest: 0 - advertisement structure, not zero value selects scan response
1187:Generated_Source\PSoC4/BLE.c ****         *              structure.
1188:Generated_Source\PSoC4/BLE.c ****         * 
1189:Generated_Source\PSoC4/BLE.c ****         * \return
1190:Generated_Source\PSoC4/BLE.c ****         *  None
1191:Generated_Source\PSoC4/BLE.c ****         *  
1192:Generated_Source\PSoC4/BLE.c ****         *******************************************************************************/
1193:Generated_Source\PSoC4/BLE.c ****         static void CyBle_ChangeAdLocalName(const char8 name[], uint8 dest)
1194:Generated_Source\PSoC4/BLE.c ****         {
1195:Generated_Source\PSoC4/BLE.c ****             uint8 i;
1196:Generated_Source\PSoC4/BLE.c ****             uint8 flag = 0u;
1197:Generated_Source\PSoC4/BLE.c ****             uint8 adLength = 0u;
1198:Generated_Source\PSoC4/BLE.c ****             uint8 byteCounter = 0u;
ARM GAS  C:\Users\TTSS\AppData\Local\Temp\ccKqB1vQ.s 			page 35


1199:Generated_Source\PSoC4/BLE.c ****             uint8 *destBuffer;
1200:Generated_Source\PSoC4/BLE.c ****             uint8 maxLength;
1201:Generated_Source\PSoC4/BLE.c ****             
1202:Generated_Source\PSoC4/BLE.c ****             if(dest == 0u)      /* Destination - advertising structure */
1203:Generated_Source\PSoC4/BLE.c ****             {
1204:Generated_Source\PSoC4/BLE.c ****                 destBuffer = cyBle_discoveryData.advData;
1205:Generated_Source\PSoC4/BLE.c ****                 maxLength = cyBle_discoveryData.advDataLen;
1206:Generated_Source\PSoC4/BLE.c ****             }
1207:Generated_Source\PSoC4/BLE.c ****             else                /* Destination - scan response structure */
1208:Generated_Source\PSoC4/BLE.c ****             {
1209:Generated_Source\PSoC4/BLE.c ****                 destBuffer = cyBle_scanRspData.scanRspData;
1210:Generated_Source\PSoC4/BLE.c ****                 maxLength = cyBle_scanRspData.scanRspDataLen;
1211:Generated_Source\PSoC4/BLE.c ****             }
1212:Generated_Source\PSoC4/BLE.c ****             
1213:Generated_Source\PSoC4/BLE.c ****             while((byteCounter < maxLength) && (flag == 0u))
1214:Generated_Source\PSoC4/BLE.c ****             {
1215:Generated_Source\PSoC4/BLE.c ****                 adLength = destBuffer[byteCounter];
1216:Generated_Source\PSoC4/BLE.c ****                 
1217:Generated_Source\PSoC4/BLE.c ****                 if(0u != adLength)
1218:Generated_Source\PSoC4/BLE.c ****                 {
1219:Generated_Source\PSoC4/BLE.c ****                     /* Increment byte counter so it can point to AD type */
1220:Generated_Source\PSoC4/BLE.c ****                     byteCounter++;
1221:Generated_Source\PSoC4/BLE.c ****                     
1222:Generated_Source\PSoC4/BLE.c ****                     if((destBuffer[byteCounter] == CYBLE_SHORT_LOCAL_NAME) || 
1223:Generated_Source\PSoC4/BLE.c ****                        (destBuffer[byteCounter] == CYBLE_COMPLETE_LOCAL_NAME))
1224:Generated_Source\PSoC4/BLE.c ****                     {
1225:Generated_Source\PSoC4/BLE.c ****                         /* Start of the Local Name AD type was fount. Set flag and exit the loop. *
1226:Generated_Source\PSoC4/BLE.c ****                         flag = 1u;
1227:Generated_Source\PSoC4/BLE.c ****                     }
1228:Generated_Source\PSoC4/BLE.c ****                     else
1229:Generated_Source\PSoC4/BLE.c ****                     {
1230:Generated_Source\PSoC4/BLE.c ****                         byteCounter += adLength;
1231:Generated_Source\PSoC4/BLE.c ****                     }
1232:Generated_Source\PSoC4/BLE.c ****                 }
1233:Generated_Source\PSoC4/BLE.c ****                 else
1234:Generated_Source\PSoC4/BLE.c ****                 {
1235:Generated_Source\PSoC4/BLE.c ****                     /* The end of advertisement data structure was encountered though exit the loop
1236:Generated_Source\PSoC4/BLE.c ****                     break;
1237:Generated_Source\PSoC4/BLE.c ****                 }
1238:Generated_Source\PSoC4/BLE.c ****             }
1239:Generated_Source\PSoC4/BLE.c ****             
1240:Generated_Source\PSoC4/BLE.c ****             if(0u != flag)
1241:Generated_Source\PSoC4/BLE.c ****             {
1242:Generated_Source\PSoC4/BLE.c ****                 /* Reuse "adLength" to hold location of the last character of local name in 
1243:Generated_Source\PSoC4/BLE.c ****                    AD structure. */
1244:Generated_Source\PSoC4/BLE.c ****                 adLength += byteCounter;
1245:Generated_Source\PSoC4/BLE.c ****                 
1246:Generated_Source\PSoC4/BLE.c ****                 /* Increment byte counter to point to start of the local Name string */
1247:Generated_Source\PSoC4/BLE.c ****                 byteCounter++;
1248:Generated_Source\PSoC4/BLE.c ****                 
1249:Generated_Source\PSoC4/BLE.c ****                 for(i = byteCounter; ((i < (adLength)) && (CYBLE_NULL_CHARCTER != name[i - byteCoun
1250:Generated_Source\PSoC4/BLE.c ****                 {
1251:Generated_Source\PSoC4/BLE.c ****                     destBuffer[i] = (uint8)name[i - byteCounter];
1252:Generated_Source\PSoC4/BLE.c ****                 }
1253:Generated_Source\PSoC4/BLE.c ****                 
1254:Generated_Source\PSoC4/BLE.c ****                 /* This loop handles the case when new local name is shorted than old one.
1255:Generated_Source\PSoC4/BLE.c ****                    In this case all remaining characters should be null characters. */
ARM GAS  C:\Users\TTSS\AppData\Local\Temp\ccKqB1vQ.s 			page 36


1256:Generated_Source\PSoC4/BLE.c ****                 while(adLength > i)
1257:Generated_Source\PSoC4/BLE.c ****                 {
1258:Generated_Source\PSoC4/BLE.c ****                     /* Terminate string */
1259:Generated_Source\PSoC4/BLE.c ****                     destBuffer[i] = (uint8)CYBLE_NULL_CHARCTER;
1260:Generated_Source\PSoC4/BLE.c ****                     i++;
1261:Generated_Source\PSoC4/BLE.c ****                 }
1262:Generated_Source\PSoC4/BLE.c ****             }
1263:Generated_Source\PSoC4/BLE.c ****         }
1264:Generated_Source\PSoC4/BLE.c ****         
1265:Generated_Source\PSoC4/BLE.c **** #endif /* (CYBLE_GAP_ROLE_PERIPHERAL) */  
1266:Generated_Source\PSoC4/BLE.c ****     
1267:Generated_Source\PSoC4/BLE.c ****     
1268:Generated_Source\PSoC4/BLE.c ****     /******************************************************************************
1269:Generated_Source\PSoC4/BLE.c ****     * Function Name: CyBle_GapSetLocalName
1270:Generated_Source\PSoC4/BLE.c ****     ***************************************************************************//**
1271:Generated_Source\PSoC4/BLE.c ****     *  This function is used to set the local device name - a Characteristic of the 
1272:Generated_Source\PSoC4/BLE.c ****     *  GAP Service. If the characteristic length entered in the component customizer
1273:Generated_Source\PSoC4/BLE.c ****     *  is shorter than the string specified by the "name" parameter, the local device
1274:Generated_Source\PSoC4/BLE.c ****     *  name will be cut to the length specified in the customizer.
1275:Generated_Source\PSoC4/BLE.c ****     * 
1276:Generated_Source\PSoC4/BLE.c ****     *  \param name: The local device name string. The name string to be written as
1277:Generated_Source\PSoC4/BLE.c ****     *              the local device name. It represents a UTF-8 encoded User
1278:Generated_Source\PSoC4/BLE.c ****     *              Friendly Descriptive Name for the device. The length of the local
1279:Generated_Source\PSoC4/BLE.c ****     *              device string is entered into the component customizer and it can
1280:Generated_Source\PSoC4/BLE.c ****     *              be set to a value from 0 to 248 bytes. If the name contained in
1281:Generated_Source\PSoC4/BLE.c ****     *              the parameter is shorter than the length from the customizer, the
1282:Generated_Source\PSoC4/BLE.c ****     *              end of the name is indicated by a NULL octet (0x00).
1283:Generated_Source\PSoC4/BLE.c ****     * 
1284:Generated_Source\PSoC4/BLE.c ****     * \return
1285:Generated_Source\PSoC4/BLE.c ****     *  CYBLE_API_RESULT_T : Return value indicates if the function succeeded or 
1286:Generated_Source\PSoC4/BLE.c ****     *  failed. Following are the possible error codes.
1287:Generated_Source\PSoC4/BLE.c ****     *
1288:Generated_Source\PSoC4/BLE.c ****     *   Errors codes                       | Description
1289:Generated_Source\PSoC4/BLE.c ****     *   ------------                       | -----------
1290:Generated_Source\PSoC4/BLE.c ****     *   CYBLE_ERROR_OK                     | Function completed successfully.
1291:Generated_Source\PSoC4/BLE.c ****     *   CYBLE_ERROR_INVALID_PARAMETER      | On specifying NULL as input parameter
1292:Generated_Source\PSoC4/BLE.c ****     *  
1293:Generated_Source\PSoC4/BLE.c ****     *******************************************************************************/
1294:Generated_Source\PSoC4/BLE.c ****     CYBLE_API_RESULT_T CyBle_GapSetLocalName(const char8 name[])
1295:Generated_Source\PSoC4/BLE.c ****     {
 730              		.loc 1 1295 0
 731              		.cfi_startproc
 732              		@ args = 0, pretend = 0, frame = 24
 733              		@ frame_needed = 1, uses_anonymous_args = 0
 734 0000 80B5     		push	{r7, lr}
 735              		.cfi_def_cfa_offset 8
 736              		.cfi_offset 7, -8
 737              		.cfi_offset 14, -4
 738 0002 86B0     		sub	sp, sp, #24
 739              		.cfi_def_cfa_offset 32
 740 0004 00AF     		add	r7, sp, #0
 741              		.cfi_def_cfa_register 7
 742 0006 7860     		str	r0, [r7, #4]
1296:Generated_Source\PSoC4/BLE.c ****         CYBLE_API_RESULT_T apiResult = CYBLE_ERROR_OK;
 743              		.loc 1 1296 0
 744 0008 1623     		movs	r3, #22
 745 000a FB18     		adds	r3, r7, r3
ARM GAS  C:\Users\TTSS\AppData\Local\Temp\ccKqB1vQ.s 			page 37


 746 000c 0022     		movs	r2, #0
 747 000e 1A80     		strh	r2, [r3]
1297:Generated_Source\PSoC4/BLE.c ****         uint8 i;
1298:Generated_Source\PSoC4/BLE.c ****         char8 *ptr;
1299:Generated_Source\PSoC4/BLE.c ****         uint8 charLen;
1300:Generated_Source\PSoC4/BLE.c **** 
1301:Generated_Source\PSoC4/BLE.c ****         if(NULL != name)
 748              		.loc 1 1301 0
 749 0010 7B68     		ldr	r3, [r7, #4]
 750 0012 002B     		cmp	r3, #0
 751 0014 52D0     		beq	.L36
1302:Generated_Source\PSoC4/BLE.c ****         {
1303:Generated_Source\PSoC4/BLE.c ****             /* Get the pointer to the Device Name characteristic  */
1304:Generated_Source\PSoC4/BLE.c ****             ptr = (char8 *) CYBLE_GATT_DB_ATTR_GET_ATTR_GEN_PTR(cyBle_gaps.deviceNameCharHandle);
 752              		.loc 1 1304 0
 753 0016 2F4B     		ldr	r3, .L43
 754 0018 5B88     		ldrh	r3, [r3, #2]
 755 001a 5A1E     		subs	r2, r3, #1
 756 001c 2E49     		ldr	r1, .L43+4
 757 001e 1300     		movs	r3, r2
 758 0020 9B00     		lsls	r3, r3, #2
 759 0022 9B18     		adds	r3, r3, r2
 760 0024 9B00     		lsls	r3, r3, #2
 761 0026 CB18     		adds	r3, r1, r3
 762 0028 1033     		adds	r3, r3, #16
 763 002a 1B68     		ldr	r3, [r3]
 764 002c 5B68     		ldr	r3, [r3, #4]
 765 002e 3B61     		str	r3, [r7, #16]
1305:Generated_Source\PSoC4/BLE.c **** 
1306:Generated_Source\PSoC4/BLE.c ****             /* First need to get the maximum length of the characteristic data in the GATT
1307:Generated_Source\PSoC4/BLE.c ****                 database to make sure there is enough place for the data. The length
1308:Generated_Source\PSoC4/BLE.c ****                 can't be longer than 248, so only the LSB of 16 bit of length is to
1309:Generated_Source\PSoC4/BLE.c ****                 be used. */
1310:Generated_Source\PSoC4/BLE.c ****             charLen = (uint8)CYBLE_GATT_DB_ATTR_GET_ATTR_GEN_MAX_LEN(cyBle_gaps.deviceNameCharHandl
 766              		.loc 1 1310 0
 767 0030 284B     		ldr	r3, .L43
 768 0032 5B88     		ldrh	r3, [r3, #2]
 769 0034 5A1E     		subs	r2, r3, #1
 770 0036 2849     		ldr	r1, .L43+4
 771 0038 1300     		movs	r3, r2
 772 003a 9B00     		lsls	r3, r3, #2
 773 003c 9B18     		adds	r3, r3, r2
 774 003e 9B00     		lsls	r3, r3, #2
 775 0040 CB18     		adds	r3, r1, r3
 776 0042 0C33     		adds	r3, r3, #12
 777 0044 1A88     		ldrh	r2, [r3]
 778 0046 0F23     		movs	r3, #15
 779 0048 FB18     		adds	r3, r7, r3
 780 004a 1A70     		strb	r2, [r3]
1311:Generated_Source\PSoC4/BLE.c **** 
1312:Generated_Source\PSoC4/BLE.c ****             /* Copy name into characteristic */
1313:Generated_Source\PSoC4/BLE.c ****             for(i = 0u; ((i < charLen) && (CYBLE_NULL_CHARCTER != name[i])); i++)
 781              		.loc 1 1313 0
 782 004c 1523     		movs	r3, #21
 783 004e FB18     		adds	r3, r7, r3
 784 0050 0022     		movs	r2, #0
 785 0052 1A70     		strb	r2, [r3]
ARM GAS  C:\Users\TTSS\AppData\Local\Temp\ccKqB1vQ.s 			page 38


 786 0054 12E0     		b	.L37
 787              	.L39:
1314:Generated_Source\PSoC4/BLE.c ****             {
1315:Generated_Source\PSoC4/BLE.c ****                 ptr[i] = name[i];
 788              		.loc 1 1315 0 discriminator 4
 789 0056 1523     		movs	r3, #21
 790 0058 FB18     		adds	r3, r7, r3
 791 005a 1B78     		ldrb	r3, [r3]
 792 005c 3A69     		ldr	r2, [r7, #16]
 793 005e D318     		adds	r3, r2, r3
 794 0060 1522     		movs	r2, #21
 795 0062 BA18     		adds	r2, r7, r2
 796 0064 1278     		ldrb	r2, [r2]
 797 0066 7968     		ldr	r1, [r7, #4]
 798 0068 8A18     		adds	r2, r1, r2
 799 006a 1278     		ldrb	r2, [r2]
 800 006c 1A70     		strb	r2, [r3]
1313:Generated_Source\PSoC4/BLE.c ****             {
 801              		.loc 1 1313 0 discriminator 4
 802 006e 1523     		movs	r3, #21
 803 0070 FB18     		adds	r3, r7, r3
 804 0072 1A78     		ldrb	r2, [r3]
 805 0074 1523     		movs	r3, #21
 806 0076 FB18     		adds	r3, r7, r3
 807 0078 0132     		adds	r2, r2, #1
 808 007a 1A70     		strb	r2, [r3]
 809              	.L37:
1313:Generated_Source\PSoC4/BLE.c ****             {
 810              		.loc 1 1313 0 is_stmt 0 discriminator 1
 811 007c 1523     		movs	r3, #21
 812 007e FA18     		adds	r2, r7, r3
 813 0080 0F23     		movs	r3, #15
 814 0082 FB18     		adds	r3, r7, r3
 815 0084 1278     		ldrb	r2, [r2]
 816 0086 1B78     		ldrb	r3, [r3]
 817 0088 9A42     		cmp	r2, r3
 818 008a 07D2     		bcs	.L38
1313:Generated_Source\PSoC4/BLE.c ****             {
 819              		.loc 1 1313 0 discriminator 3
 820 008c 1523     		movs	r3, #21
 821 008e FB18     		adds	r3, r7, r3
 822 0090 1B78     		ldrb	r3, [r3]
 823 0092 7A68     		ldr	r2, [r7, #4]
 824 0094 D318     		adds	r3, r2, r3
 825 0096 1B78     		ldrb	r3, [r3]
 826 0098 002B     		cmp	r3, #0
 827 009a DCD1     		bne	.L39
 828              	.L38:
1316:Generated_Source\PSoC4/BLE.c ****             }
1317:Generated_Source\PSoC4/BLE.c **** 
1318:Generated_Source\PSoC4/BLE.c ****             if(i < charLen)
 829              		.loc 1 1318 0 is_stmt 1
 830 009c 1523     		movs	r3, #21
 831 009e FA18     		adds	r2, r7, r3
 832 00a0 0F23     		movs	r3, #15
 833 00a2 FB18     		adds	r3, r7, r3
 834 00a4 1278     		ldrb	r2, [r2]
ARM GAS  C:\Users\TTSS\AppData\Local\Temp\ccKqB1vQ.s 			page 39


 835 00a6 1B78     		ldrb	r3, [r3]
 836 00a8 9A42     		cmp	r2, r3
 837 00aa 0BD2     		bcs	.L41
1319:Generated_Source\PSoC4/BLE.c ****             {
1320:Generated_Source\PSoC4/BLE.c ****                 /* Terminate string */
1321:Generated_Source\PSoC4/BLE.c ****                 ptr[i] = CYBLE_NULL_CHARCTER;
 838              		.loc 1 1321 0
 839 00ac 1523     		movs	r3, #21
 840 00ae FB18     		adds	r3, r7, r3
 841 00b0 1B78     		ldrb	r3, [r3]
 842 00b2 3A69     		ldr	r2, [r7, #16]
 843 00b4 D318     		adds	r3, r2, r3
 844 00b6 0022     		movs	r2, #0
 845 00b8 1A70     		strb	r2, [r3]
 846 00ba 03E0     		b	.L41
 847              	.L36:
1322:Generated_Source\PSoC4/BLE.c ****             }
1323:Generated_Source\PSoC4/BLE.c ****             
1324:Generated_Source\PSoC4/BLE.c ****             /* Set new actual length */
1325:Generated_Source\PSoC4/BLE.c ****             
1326:Generated_Source\PSoC4/BLE.c ****             /* Update device name in advertising and scan response structure */
1327:Generated_Source\PSoC4/BLE.c ****             #if(CYBLE_GAP_ROLE_PERIPHERAL)
1328:Generated_Source\PSoC4/BLE.c ****                 CyBle_ChangeAdLocalName(name, 0u);
1329:Generated_Source\PSoC4/BLE.c ****                 CyBle_ChangeAdLocalName(name, 1u);
1330:Generated_Source\PSoC4/BLE.c ****             #endif /* (CYBLE_GAP_ROLE_PERIPHERAL) */
1331:Generated_Source\PSoC4/BLE.c ****         }
1332:Generated_Source\PSoC4/BLE.c ****         else
1333:Generated_Source\PSoC4/BLE.c ****         {
1334:Generated_Source\PSoC4/BLE.c ****             apiResult = CYBLE_ERROR_INVALID_PARAMETER;
 848              		.loc 1 1334 0
 849 00bc 1623     		movs	r3, #22
 850 00be FB18     		adds	r3, r7, r3
 851 00c0 0122     		movs	r2, #1
 852 00c2 1A80     		strh	r2, [r3]
 853              	.L41:
1335:Generated_Source\PSoC4/BLE.c ****         }
1336:Generated_Source\PSoC4/BLE.c ****         
1337:Generated_Source\PSoC4/BLE.c ****         return(apiResult);
 854              		.loc 1 1337 0
 855 00c4 1623     		movs	r3, #22
 856 00c6 FB18     		adds	r3, r7, r3
 857 00c8 1B88     		ldrh	r3, [r3]
1338:Generated_Source\PSoC4/BLE.c ****     }
 858              		.loc 1 1338 0
 859 00ca 1800     		movs	r0, r3
 860 00cc BD46     		mov	sp, r7
 861 00ce 06B0     		add	sp, sp, #24
 862              		@ sp needed
 863 00d0 80BD     		pop	{r7, pc}
 864              	.L44:
 865 00d2 C046     		.align	2
 866              	.L43:
 867 00d4 00000000 		.word	cyBle_gaps
 868 00d8 00000000 		.word	cyBle_gattDB
 869              		.cfi_endproc
 870              	.LFE9:
 871              		.size	CyBle_GapSetLocalName, .-CyBle_GapSetLocalName
ARM GAS  C:\Users\TTSS\AppData\Local\Temp\ccKqB1vQ.s 			page 40


 872              		.section	.text.CyBle_GapGetLocalName,"ax",%progbits
 873              		.align	2
 874              		.global	CyBle_GapGetLocalName
 875              		.code	16
 876              		.thumb_func
 877              		.type	CyBle_GapGetLocalName, %function
 878              	CyBle_GapGetLocalName:
 879              	.LFB10:
1339:Generated_Source\PSoC4/BLE.c **** 
1340:Generated_Source\PSoC4/BLE.c **** 
1341:Generated_Source\PSoC4/BLE.c ****     /******************************************************************************
1342:Generated_Source\PSoC4/BLE.c ****     * Function Name: CyBle_GapGetLocalName
1343:Generated_Source\PSoC4/BLE.c ****     ***************************************************************************//**
1344:Generated_Source\PSoC4/BLE.c ****     *  
1345:Generated_Source\PSoC4/BLE.c ****     *  This function is used to read the local device name - a Characteristic of the 
1346:Generated_Source\PSoC4/BLE.c ****     *  GAP Service.
1347:Generated_Source\PSoC4/BLE.c ****     * 
1348:Generated_Source\PSoC4/BLE.c ****     * \param name: The local device name string. Used to read the local name to the
1349:Generated_Source\PSoC4/BLE.c ****     *             given string array. It represents a UTF-8 encoded User Friendly 
1350:Generated_Source\PSoC4/BLE.c ****     *             Descriptive Name for the device. The length of the local device
1351:Generated_Source\PSoC4/BLE.c ****     *             string is entered into the component customizer and it can be set
1352:Generated_Source\PSoC4/BLE.c ****     *             to a value from 0 to 248 bytes. If the name contained in the
1353:Generated_Source\PSoC4/BLE.c ****     *             parameter is shorter than the length from the customizer, the end
1354:Generated_Source\PSoC4/BLE.c ****     *             of the name is indicated by a NULL octet (0x00).
1355:Generated_Source\PSoC4/BLE.c ****     * 
1356:Generated_Source\PSoC4/BLE.c ****     * \return
1357:Generated_Source\PSoC4/BLE.c ****     *  CYBLE_API_RESULT_T : Return value indicates if the function succeeded or 
1358:Generated_Source\PSoC4/BLE.c ****     *  failed. Following are the possible error codes.
1359:Generated_Source\PSoC4/BLE.c ****     *
1360:Generated_Source\PSoC4/BLE.c ****     *   Errors codes                       | Description
1361:Generated_Source\PSoC4/BLE.c ****     *   ------------                       | -----------
1362:Generated_Source\PSoC4/BLE.c ****     *   CYBLE_ERROR_OK                     | Function completed successfully.
1363:Generated_Source\PSoC4/BLE.c ****     *   CYBLE_ERROR_INVALID_PARAMETER      | On specifying NULL as input parameter
1364:Generated_Source\PSoC4/BLE.c ****     *
1365:Generated_Source\PSoC4/BLE.c ****     *******************************************************************************/
1366:Generated_Source\PSoC4/BLE.c ****     CYBLE_API_RESULT_T CyBle_GapGetLocalName(char8 name[])
1367:Generated_Source\PSoC4/BLE.c ****     {
 880              		.loc 1 1367 0
 881              		.cfi_startproc
 882              		@ args = 0, pretend = 0, frame = 24
 883              		@ frame_needed = 1, uses_anonymous_args = 0
 884 0000 80B5     		push	{r7, lr}
 885              		.cfi_def_cfa_offset 8
 886              		.cfi_offset 7, -8
 887              		.cfi_offset 14, -4
 888 0002 86B0     		sub	sp, sp, #24
 889              		.cfi_def_cfa_offset 32
 890 0004 00AF     		add	r7, sp, #0
 891              		.cfi_def_cfa_register 7
 892 0006 7860     		str	r0, [r7, #4]
1368:Generated_Source\PSoC4/BLE.c ****         CYBLE_API_RESULT_T apiResult = CYBLE_ERROR_OK;
 893              		.loc 1 1368 0
 894 0008 1623     		movs	r3, #22
 895 000a FB18     		adds	r3, r7, r3
 896 000c 0022     		movs	r2, #0
 897 000e 1A80     		strh	r2, [r3]
1369:Generated_Source\PSoC4/BLE.c ****         uint8 charLen;
ARM GAS  C:\Users\TTSS\AppData\Local\Temp\ccKqB1vQ.s 			page 41


1370:Generated_Source\PSoC4/BLE.c ****         uint8 i;
1371:Generated_Source\PSoC4/BLE.c ****         char8 *ptr;
1372:Generated_Source\PSoC4/BLE.c **** 
1373:Generated_Source\PSoC4/BLE.c ****         if(NULL != name)
 898              		.loc 1 1373 0
 899 0010 7B68     		ldr	r3, [r7, #4]
 900 0012 002B     		cmp	r3, #0
 901 0014 4BD0     		beq	.L46
1374:Generated_Source\PSoC4/BLE.c ****         {
1375:Generated_Source\PSoC4/BLE.c ****             /* Get the pointer to the Device Name characteristic  */
1376:Generated_Source\PSoC4/BLE.c ****             ptr = (char8 *) CYBLE_GATT_DB_ATTR_GET_ATTR_GEN_PTR(cyBle_gaps.deviceNameCharHandle);
 902              		.loc 1 1376 0
 903 0016 2B4B     		ldr	r3, .L52
 904 0018 5B88     		ldrh	r3, [r3, #2]
 905 001a 5A1E     		subs	r2, r3, #1
 906 001c 2A49     		ldr	r1, .L52+4
 907 001e 1300     		movs	r3, r2
 908 0020 9B00     		lsls	r3, r3, #2
 909 0022 9B18     		adds	r3, r3, r2
 910 0024 9B00     		lsls	r3, r3, #2
 911 0026 CB18     		adds	r3, r1, r3
 912 0028 1033     		adds	r3, r3, #16
 913 002a 1B68     		ldr	r3, [r3]
 914 002c 5B68     		ldr	r3, [r3, #4]
 915 002e 3B61     		str	r3, [r7, #16]
1377:Generated_Source\PSoC4/BLE.c **** 
1378:Generated_Source\PSoC4/BLE.c ****             /* First need to get the length of the characteristic data in the GATT
1379:Generated_Source\PSoC4/BLE.c ****                 database to make sure there is enough place for the data. The length
1380:Generated_Source\PSoC4/BLE.c ****                 can't be longer than 248, so only the LSB of 16 bit of length is to
1381:Generated_Source\PSoC4/BLE.c ****                 be used. */
1382:Generated_Source\PSoC4/BLE.c ****             charLen = (uint8)CYBLE_GATT_DB_ATTR_GET_ATTR_GEN_LEN(cyBle_gaps.deviceNameCharHandle);
 916              		.loc 1 1382 0
 917 0030 244B     		ldr	r3, .L52
 918 0032 5B88     		ldrh	r3, [r3, #2]
 919 0034 5A1E     		subs	r2, r3, #1
 920 0036 2449     		ldr	r1, .L52+4
 921 0038 1300     		movs	r3, r2
 922 003a 9B00     		lsls	r3, r3, #2
 923 003c 9B18     		adds	r3, r3, r2
 924 003e 9B00     		lsls	r3, r3, #2
 925 0040 CB18     		adds	r3, r1, r3
 926 0042 1033     		adds	r3, r3, #16
 927 0044 1B68     		ldr	r3, [r3]
 928 0046 1A88     		ldrh	r2, [r3]
 929 0048 0F23     		movs	r3, #15
 930 004a FB18     		adds	r3, r7, r3
 931 004c 1A70     		strb	r2, [r3]
1383:Generated_Source\PSoC4/BLE.c **** 
1384:Generated_Source\PSoC4/BLE.c ****             /* Copy name from characteristic */
1385:Generated_Source\PSoC4/BLE.c ****             for(i = 0u; ((i < charLen) && (CYBLE_NULL_CHARCTER != ptr[i])); i++)
 932              		.loc 1 1385 0
 933 004e 1523     		movs	r3, #21
 934 0050 FB18     		adds	r3, r7, r3
 935 0052 0022     		movs	r2, #0
 936 0054 1A70     		strb	r2, [r3]
 937 0056 12E0     		b	.L47
 938              	.L49:
ARM GAS  C:\Users\TTSS\AppData\Local\Temp\ccKqB1vQ.s 			page 42


1386:Generated_Source\PSoC4/BLE.c ****             {
1387:Generated_Source\PSoC4/BLE.c ****                 name[i] = ptr[i];
 939              		.loc 1 1387 0 discriminator 4
 940 0058 1523     		movs	r3, #21
 941 005a FB18     		adds	r3, r7, r3
 942 005c 1B78     		ldrb	r3, [r3]
 943 005e 7A68     		ldr	r2, [r7, #4]
 944 0060 D318     		adds	r3, r2, r3
 945 0062 1522     		movs	r2, #21
 946 0064 BA18     		adds	r2, r7, r2
 947 0066 1278     		ldrb	r2, [r2]
 948 0068 3969     		ldr	r1, [r7, #16]
 949 006a 8A18     		adds	r2, r1, r2
 950 006c 1278     		ldrb	r2, [r2]
 951 006e 1A70     		strb	r2, [r3]
1385:Generated_Source\PSoC4/BLE.c ****             {
 952              		.loc 1 1385 0 discriminator 4
 953 0070 1523     		movs	r3, #21
 954 0072 FB18     		adds	r3, r7, r3
 955 0074 1A78     		ldrb	r2, [r3]
 956 0076 1523     		movs	r3, #21
 957 0078 FB18     		adds	r3, r7, r3
 958 007a 0132     		adds	r2, r2, #1
 959 007c 1A70     		strb	r2, [r3]
 960              	.L47:
1385:Generated_Source\PSoC4/BLE.c ****             {
 961              		.loc 1 1385 0 is_stmt 0 discriminator 1
 962 007e 1523     		movs	r3, #21
 963 0080 FA18     		adds	r2, r7, r3
 964 0082 0F23     		movs	r3, #15
 965 0084 FB18     		adds	r3, r7, r3
 966 0086 1278     		ldrb	r2, [r2]
 967 0088 1B78     		ldrb	r3, [r3]
 968 008a 9A42     		cmp	r2, r3
 969 008c 07D2     		bcs	.L48
1385:Generated_Source\PSoC4/BLE.c ****             {
 970              		.loc 1 1385 0 discriminator 3
 971 008e 1523     		movs	r3, #21
 972 0090 FB18     		adds	r3, r7, r3
 973 0092 1B78     		ldrb	r3, [r3]
 974 0094 3A69     		ldr	r2, [r7, #16]
 975 0096 D318     		adds	r3, r2, r3
 976 0098 1B78     		ldrb	r3, [r3]
 977 009a 002B     		cmp	r3, #0
 978 009c DCD1     		bne	.L49
 979              	.L48:
1388:Generated_Source\PSoC4/BLE.c ****             }
1389:Generated_Source\PSoC4/BLE.c **** 
1390:Generated_Source\PSoC4/BLE.c ****             /* Terminate string */
1391:Generated_Source\PSoC4/BLE.c ****             name[i] = CYBLE_NULL_CHARCTER;
 980              		.loc 1 1391 0 is_stmt 1
 981 009e 1523     		movs	r3, #21
 982 00a0 FB18     		adds	r3, r7, r3
 983 00a2 1B78     		ldrb	r3, [r3]
 984 00a4 7A68     		ldr	r2, [r7, #4]
 985 00a6 D318     		adds	r3, r2, r3
 986 00a8 0022     		movs	r2, #0
ARM GAS  C:\Users\TTSS\AppData\Local\Temp\ccKqB1vQ.s 			page 43


 987 00aa 1A70     		strb	r2, [r3]
 988 00ac 03E0     		b	.L50
 989              	.L46:
1392:Generated_Source\PSoC4/BLE.c ****         }
1393:Generated_Source\PSoC4/BLE.c ****         else
1394:Generated_Source\PSoC4/BLE.c ****         {
1395:Generated_Source\PSoC4/BLE.c ****             apiResult = CYBLE_ERROR_INVALID_PARAMETER;
 990              		.loc 1 1395 0
 991 00ae 1623     		movs	r3, #22
 992 00b0 FB18     		adds	r3, r7, r3
 993 00b2 0122     		movs	r2, #1
 994 00b4 1A80     		strh	r2, [r3]
 995              	.L50:
1396:Generated_Source\PSoC4/BLE.c ****         }
1397:Generated_Source\PSoC4/BLE.c ****         
1398:Generated_Source\PSoC4/BLE.c ****         return(apiResult);
 996              		.loc 1 1398 0
 997 00b6 1623     		movs	r3, #22
 998 00b8 FB18     		adds	r3, r7, r3
 999 00ba 1B88     		ldrh	r3, [r3]
1399:Generated_Source\PSoC4/BLE.c ****     }
 1000              		.loc 1 1399 0
 1001 00bc 1800     		movs	r0, r3
 1002 00be BD46     		mov	sp, r7
 1003 00c0 06B0     		add	sp, sp, #24
 1004              		@ sp needed
 1005 00c2 80BD     		pop	{r7, pc}
 1006              	.L53:
 1007              		.align	2
 1008              	.L52:
 1009 00c4 00000000 		.word	cyBle_gaps
 1010 00c8 00000000 		.word	cyBle_gattDB
 1011              		.cfi_endproc
 1012              	.LFE10:
 1013              		.size	CyBle_GapGetLocalName, .-CyBle_GapGetLocalName
 1014              		.section	.text.CyBle_Get16ByPtr,"ax",%progbits
 1015              		.align	2
 1016              		.global	CyBle_Get16ByPtr
 1017              		.code	16
 1018              		.thumb_func
 1019              		.type	CyBle_Get16ByPtr, %function
 1020              	CyBle_Get16ByPtr:
 1021              	.LFB11:
1400:Generated_Source\PSoC4/BLE.c **** 
1401:Generated_Source\PSoC4/BLE.c **** #endif /* (CYBLE_GATT_ROLE_SERVER) */
1402:Generated_Source\PSoC4/BLE.c **** 
1403:Generated_Source\PSoC4/BLE.c **** 
1404:Generated_Source\PSoC4/BLE.c **** /******************************************************************************
1405:Generated_Source\PSoC4/BLE.c **** * Function Name: CyBle_Get16ByPtr
1406:Generated_Source\PSoC4/BLE.c **** ***************************************************************************//**
1407:Generated_Source\PSoC4/BLE.c **** * 
1408:Generated_Source\PSoC4/BLE.c **** *  Returns the two-bytes value by using a pointer to the LSB.
1409:Generated_Source\PSoC4/BLE.c **** * 
1410:Generated_Source\PSoC4/BLE.c **** *  \param ptr: Pointer to the LSB of two-bytes data (little endian).
1411:Generated_Source\PSoC4/BLE.c **** * 
1412:Generated_Source\PSoC4/BLE.c **** *  \return
1413:Generated_Source\PSoC4/BLE.c **** *  uint16: Two-bytes data.
ARM GAS  C:\Users\TTSS\AppData\Local\Temp\ccKqB1vQ.s 			page 44


1414:Generated_Source\PSoC4/BLE.c **** * 
1415:Generated_Source\PSoC4/BLE.c **** ******************************************************************************/
1416:Generated_Source\PSoC4/BLE.c **** uint16 CyBle_Get16ByPtr(const uint8 ptr[])
1417:Generated_Source\PSoC4/BLE.c **** {
 1022              		.loc 1 1417 0
 1023              		.cfi_startproc
 1024              		@ args = 0, pretend = 0, frame = 8
 1025              		@ frame_needed = 1, uses_anonymous_args = 0
 1026 0000 80B5     		push	{r7, lr}
 1027              		.cfi_def_cfa_offset 8
 1028              		.cfi_offset 7, -8
 1029              		.cfi_offset 14, -4
 1030 0002 82B0     		sub	sp, sp, #8
 1031              		.cfi_def_cfa_offset 16
 1032 0004 00AF     		add	r7, sp, #0
 1033              		.cfi_def_cfa_register 7
 1034 0006 7860     		str	r0, [r7, #4]
1418:Generated_Source\PSoC4/BLE.c ****     return ((uint16) ptr[0u] | ((uint16) (((uint16) ptr[1u]) << 8u)));
 1035              		.loc 1 1418 0
 1036 0008 7B68     		ldr	r3, [r7, #4]
 1037 000a 1B78     		ldrb	r3, [r3]
 1038 000c 9AB2     		uxth	r2, r3
 1039 000e 7B68     		ldr	r3, [r7, #4]
 1040 0010 0133     		adds	r3, r3, #1
 1041 0012 1B78     		ldrb	r3, [r3]
 1042 0014 9BB2     		uxth	r3, r3
 1043 0016 1B02     		lsls	r3, r3, #8
 1044 0018 9BB2     		uxth	r3, r3
 1045 001a 1343     		orrs	r3, r2
 1046 001c 9BB2     		uxth	r3, r3
1419:Generated_Source\PSoC4/BLE.c **** }
 1047              		.loc 1 1419 0
 1048 001e 1800     		movs	r0, r3
 1049 0020 BD46     		mov	sp, r7
 1050 0022 02B0     		add	sp, sp, #8
 1051              		@ sp needed
 1052 0024 80BD     		pop	{r7, pc}
 1053              		.cfi_endproc
 1054              	.LFE11:
 1055              		.size	CyBle_Get16ByPtr, .-CyBle_Get16ByPtr
 1056 0026 C046     		.section	.text.CyBle_Set16ByPtr,"ax",%progbits
 1057              		.align	2
 1058              		.global	CyBle_Set16ByPtr
 1059              		.code	16
 1060              		.thumb_func
 1061              		.type	CyBle_Set16ByPtr, %function
 1062              	CyBle_Set16ByPtr:
 1063              	.LFB12:
1420:Generated_Source\PSoC4/BLE.c **** 
1421:Generated_Source\PSoC4/BLE.c **** 
1422:Generated_Source\PSoC4/BLE.c **** /******************************************************************************
1423:Generated_Source\PSoC4/BLE.c **** * Function Name: CyBle_Set16ByPtr
1424:Generated_Source\PSoC4/BLE.c **** ***************************************************************************//**
1425:Generated_Source\PSoC4/BLE.c **** * 
1426:Generated_Source\PSoC4/BLE.c **** *  Sets the two-bytes value by using a pointer to the LSB.
1427:Generated_Source\PSoC4/BLE.c **** * 
1428:Generated_Source\PSoC4/BLE.c **** *  \param ptr:    Pointer to the LSB of two-bytes data (little endian).
ARM GAS  C:\Users\TTSS\AppData\Local\Temp\ccKqB1vQ.s 			page 45


1429:Generated_Source\PSoC4/BLE.c **** *  \param value:  Two-bytes data to be written.
1430:Generated_Source\PSoC4/BLE.c **** * 
1431:Generated_Source\PSoC4/BLE.c **** *  \return
1432:Generated_Source\PSoC4/BLE.c **** *  None
1433:Generated_Source\PSoC4/BLE.c **** * 
1434:Generated_Source\PSoC4/BLE.c **** ******************************************************************************/
1435:Generated_Source\PSoC4/BLE.c **** void CyBle_Set16ByPtr(uint8 ptr[], uint16 value)
1436:Generated_Source\PSoC4/BLE.c **** {
 1064              		.loc 1 1436 0
 1065              		.cfi_startproc
 1066              		@ args = 0, pretend = 0, frame = 8
 1067              		@ frame_needed = 1, uses_anonymous_args = 0
 1068 0000 80B5     		push	{r7, lr}
 1069              		.cfi_def_cfa_offset 8
 1070              		.cfi_offset 7, -8
 1071              		.cfi_offset 14, -4
 1072 0002 82B0     		sub	sp, sp, #8
 1073              		.cfi_def_cfa_offset 16
 1074 0004 00AF     		add	r7, sp, #0
 1075              		.cfi_def_cfa_register 7
 1076 0006 7860     		str	r0, [r7, #4]
 1077 0008 0A00     		movs	r2, r1
 1078 000a BB1C     		adds	r3, r7, #2
 1079 000c 1A80     		strh	r2, [r3]
1437:Generated_Source\PSoC4/BLE.c ****     ptr[0u] = (uint8) value;
 1080              		.loc 1 1437 0
 1081 000e BB1C     		adds	r3, r7, #2
 1082 0010 1B88     		ldrh	r3, [r3]
 1083 0012 DAB2     		uxtb	r2, r3
 1084 0014 7B68     		ldr	r3, [r7, #4]
 1085 0016 1A70     		strb	r2, [r3]
1438:Generated_Source\PSoC4/BLE.c ****     ptr[1u] = (uint8) (value >> 8u);
 1086              		.loc 1 1438 0
 1087 0018 7B68     		ldr	r3, [r7, #4]
 1088 001a 0133     		adds	r3, r3, #1
 1089 001c BA1C     		adds	r2, r7, #2
 1090 001e 1288     		ldrh	r2, [r2]
 1091 0020 120A     		lsrs	r2, r2, #8
 1092 0022 92B2     		uxth	r2, r2
 1093 0024 D2B2     		uxtb	r2, r2
 1094 0026 1A70     		strb	r2, [r3]
1439:Generated_Source\PSoC4/BLE.c **** }
 1095              		.loc 1 1439 0
 1096 0028 C046     		nop
 1097 002a BD46     		mov	sp, r7
 1098 002c 02B0     		add	sp, sp, #8
 1099              		@ sp needed
 1100 002e 80BD     		pop	{r7, pc}
 1101              		.cfi_endproc
 1102              	.LFE12:
 1103              		.size	CyBle_Set16ByPtr, .-CyBle_Set16ByPtr
 1104              		.text
 1105              	.Letext0:
 1106              		.file 2 "Generated_Source\\PSoC4\\cytypes.h"
 1107              		.file 3 "Generated_Source\\PSoC4\\BLE_Stack.h"
 1108              		.file 4 "Generated_Source\\PSoC4\\BLE_StackGap.h"
 1109              		.file 5 "Generated_Source\\PSoC4\\BLE_StackGatt.h"
ARM GAS  C:\Users\TTSS\AppData\Local\Temp\ccKqB1vQ.s 			page 46


 1110              		.file 6 "Generated_Source\\PSoC4\\BLE_StackGattDb.h"
 1111              		.file 7 "Generated_Source\\PSoC4\\BLE.h"
 1112              		.file 8 "Generated_Source\\PSoC4\\BLE_gatt.h"
 1113              		.file 9 "Generated_Source\\PSoC4\\BLE_eventHandler.h"
 1114              		.section	.debug_info,"",%progbits
 1115              	.Ldebug_info0:
 1116 0000 110C0000 		.4byte	0xc11
 1117 0004 0400     		.2byte	0x4
 1118 0006 00000000 		.4byte	.Ldebug_abbrev0
 1119 000a 04       		.byte	0x4
 1120 000b 01       		.uleb128 0x1
 1121 000c A10A0000 		.4byte	.LASF241
 1122 0010 0C       		.byte	0xc
 1123 0011 70160000 		.4byte	.LASF242
 1124 0015 61110000 		.4byte	.LASF243
 1125 0019 00000000 		.4byte	.Ldebug_ranges0+0
 1126 001d 00000000 		.4byte	0
 1127 0021 00000000 		.4byte	.Ldebug_line0
 1128 0025 02       		.uleb128 0x2
 1129 0026 01       		.byte	0x1
 1130 0027 06       		.byte	0x6
 1131 0028 56040000 		.4byte	.LASF0
 1132 002c 02       		.uleb128 0x2
 1133 002d 01       		.byte	0x1
 1134 002e 08       		.byte	0x8
 1135 002f DE0E0000 		.4byte	.LASF1
 1136 0033 02       		.uleb128 0x2
 1137 0034 02       		.byte	0x2
 1138 0035 05       		.byte	0x5
 1139 0036 520F0000 		.4byte	.LASF2
 1140 003a 02       		.uleb128 0x2
 1141 003b 02       		.byte	0x2
 1142 003c 07       		.byte	0x7
 1143 003d 62130000 		.4byte	.LASF3
 1144 0041 02       		.uleb128 0x2
 1145 0042 04       		.byte	0x4
 1146 0043 05       		.byte	0x5
 1147 0044 69020000 		.4byte	.LASF4
 1148 0048 02       		.uleb128 0x2
 1149 0049 04       		.byte	0x4
 1150 004a 07       		.byte	0x7
 1151 004b 71080000 		.4byte	.LASF5
 1152 004f 02       		.uleb128 0x2
 1153 0050 08       		.byte	0x8
 1154 0051 05       		.byte	0x5
 1155 0052 48040000 		.4byte	.LASF6
 1156 0056 02       		.uleb128 0x2
 1157 0057 08       		.byte	0x8
 1158 0058 07       		.byte	0x7
 1159 0059 A1070000 		.4byte	.LASF7
 1160 005d 03       		.uleb128 0x3
 1161 005e 04       		.byte	0x4
 1162 005f 05       		.byte	0x5
 1163 0060 696E7400 		.ascii	"int\000"
 1164 0064 02       		.uleb128 0x2
 1165 0065 04       		.byte	0x4
 1166 0066 07       		.byte	0x7
ARM GAS  C:\Users\TTSS\AppData\Local\Temp\ccKqB1vQ.s 			page 47


 1167 0067 21120000 		.4byte	.LASF8
 1168 006b 04       		.uleb128 0x4
 1169 006c 1A060000 		.4byte	.LASF9
 1170 0070 02       		.byte	0x2
 1171 0071 D201     		.2byte	0x1d2
 1172 0073 2C000000 		.4byte	0x2c
 1173 0077 04       		.uleb128 0x4
 1174 0078 EC0E0000 		.4byte	.LASF10
 1175 007c 02       		.byte	0x2
 1176 007d D301     		.2byte	0x1d3
 1177 007f 3A000000 		.4byte	0x3a
 1178 0083 04       		.uleb128 0x4
 1179 0084 CF060000 		.4byte	.LASF11
 1180 0088 02       		.byte	0x2
 1181 0089 D401     		.2byte	0x1d4
 1182 008b 48000000 		.4byte	0x48
 1183 008f 02       		.uleb128 0x2
 1184 0090 04       		.byte	0x4
 1185 0091 04       		.byte	0x4
 1186 0092 200E0000 		.4byte	.LASF12
 1187 0096 02       		.uleb128 0x2
 1188 0097 08       		.byte	0x8
 1189 0098 04       		.byte	0x4
 1190 0099 71060000 		.4byte	.LASF13
 1191 009d 04       		.uleb128 0x4
 1192 009e 87120000 		.4byte	.LASF14
 1193 00a2 02       		.byte	0x2
 1194 00a3 E301     		.2byte	0x1e3
 1195 00a5 A9000000 		.4byte	0xa9
 1196 00a9 02       		.uleb128 0x2
 1197 00aa 01       		.byte	0x1
 1198 00ab 08       		.byte	0x8
 1199 00ac 3C110000 		.4byte	.LASF15
 1200 00b0 05       		.uleb128 0x5
 1201 00b1 6B000000 		.4byte	0x6b
 1202 00b5 02       		.uleb128 0x2
 1203 00b6 08       		.byte	0x8
 1204 00b7 04       		.byte	0x4
 1205 00b8 30110000 		.4byte	.LASF16
 1206 00bc 02       		.uleb128 0x2
 1207 00bd 04       		.byte	0x4
 1208 00be 07       		.byte	0x7
 1209 00bf 600C0000 		.4byte	.LASF17
 1210 00c3 06       		.uleb128 0x6
 1211 00c4 04       		.byte	0x4
 1212 00c5 07       		.uleb128 0x7
 1213 00c6 04       		.byte	0x4
 1214 00c7 CB000000 		.4byte	0xcb
 1215 00cb 08       		.uleb128 0x8
 1216 00cc DB000000 		.4byte	0xdb
 1217 00d0 09       		.uleb128 0x9
 1218 00d1 83000000 		.4byte	0x83
 1219 00d5 09       		.uleb128 0x9
 1220 00d6 C3000000 		.4byte	0xc3
 1221 00da 00       		.byte	0
 1222 00db 0A       		.uleb128 0xa
 1223 00dc 01       		.byte	0x1
ARM GAS  C:\Users\TTSS\AppData\Local\Temp\ccKqB1vQ.s 			page 48


 1224 00dd 2C000000 		.4byte	0x2c
 1225 00e1 03       		.byte	0x3
 1226 00e2 3501     		.2byte	0x135
 1227 00e4 99020000 		.4byte	0x299
 1228 00e8 0B       		.uleb128 0xb
 1229 00e9 5F090000 		.4byte	.LASF18
 1230 00ed 00       		.byte	0
 1231 00ee 0B       		.uleb128 0xb
 1232 00ef 62040000 		.4byte	.LASF19
 1233 00f3 01       		.byte	0x1
 1234 00f4 0B       		.uleb128 0xb
 1235 00f5 57020000 		.4byte	.LASF20
 1236 00f9 02       		.byte	0x2
 1237 00fa 0B       		.uleb128 0xb
 1238 00fb 03080000 		.4byte	.LASF21
 1239 00ff 03       		.byte	0x3
 1240 0100 0B       		.uleb128 0xb
 1241 0101 28030000 		.4byte	.LASF22
 1242 0105 04       		.byte	0x4
 1243 0106 0B       		.uleb128 0xb
 1244 0107 23000000 		.4byte	.LASF23
 1245 010b 05       		.byte	0x5
 1246 010c 0B       		.uleb128 0xb
 1247 010d 94090000 		.4byte	.LASF24
 1248 0111 06       		.byte	0x6
 1249 0112 0B       		.uleb128 0xb
 1250 0113 8F0B0000 		.4byte	.LASF25
 1251 0117 20       		.byte	0x20
 1252 0118 0B       		.uleb128 0xb
 1253 0119 DB040000 		.4byte	.LASF26
 1254 011d 21       		.byte	0x21
 1255 011e 0B       		.uleb128 0xb
 1256 011f BB090000 		.4byte	.LASF27
 1257 0123 22       		.byte	0x22
 1258 0124 0B       		.uleb128 0xb
 1259 0125 2A130000 		.4byte	.LASF28
 1260 0129 23       		.byte	0x23
 1261 012a 0B       		.uleb128 0xb
 1262 012b 2A0D0000 		.4byte	.LASF29
 1263 012f 24       		.byte	0x24
 1264 0130 0B       		.uleb128 0xb
 1265 0131 8E0C0000 		.4byte	.LASF30
 1266 0135 25       		.byte	0x25
 1267 0136 0B       		.uleb128 0xb
 1268 0137 9E050000 		.4byte	.LASF31
 1269 013b 26       		.byte	0x26
 1270 013c 0B       		.uleb128 0xb
 1271 013d DF090000 		.4byte	.LASF32
 1272 0141 27       		.byte	0x27
 1273 0142 0B       		.uleb128 0xb
 1274 0143 E7110000 		.4byte	.LASF33
 1275 0147 28       		.byte	0x28
 1276 0148 0B       		.uleb128 0xb
 1277 0149 EA030000 		.4byte	.LASF34
 1278 014d 29       		.byte	0x29
 1279 014e 0B       		.uleb128 0xb
 1280 014f EF000000 		.4byte	.LASF35
ARM GAS  C:\Users\TTSS\AppData\Local\Temp\ccKqB1vQ.s 			page 49


 1281 0153 2A       		.byte	0x2a
 1282 0154 0B       		.uleb128 0xb
 1283 0155 45030000 		.4byte	.LASF36
 1284 0159 2B       		.byte	0x2b
 1285 015a 0B       		.uleb128 0xb
 1286 015b CB150000 		.4byte	.LASF37
 1287 015f 2C       		.byte	0x2c
 1288 0160 0B       		.uleb128 0xb
 1289 0161 07040000 		.4byte	.LASF38
 1290 0165 2D       		.byte	0x2d
 1291 0166 0B       		.uleb128 0xb
 1292 0167 F30E0000 		.4byte	.LASF39
 1293 016b 2E       		.byte	0x2e
 1294 016c 0B       		.uleb128 0xb
 1295 016d A6010000 		.4byte	.LASF40
 1296 0171 2F       		.byte	0x2f
 1297 0172 0B       		.uleb128 0xb
 1298 0173 F90C0000 		.4byte	.LASF41
 1299 0177 30       		.byte	0x30
 1300 0178 0B       		.uleb128 0xb
 1301 0179 8D160000 		.4byte	.LASF42
 1302 017d 31       		.byte	0x31
 1303 017e 0B       		.uleb128 0xb
 1304 017f D80C0000 		.4byte	.LASF43
 1305 0183 32       		.byte	0x32
 1306 0184 0B       		.uleb128 0xb
 1307 0185 D1100000 		.4byte	.LASF44
 1308 0189 33       		.byte	0x33
 1309 018a 0B       		.uleb128 0xb
 1310 018b 83080000 		.4byte	.LASF45
 1311 018f 34       		.byte	0x34
 1312 0190 0B       		.uleb128 0xb
 1313 0191 84070000 		.4byte	.LASF46
 1314 0195 35       		.byte	0x35
 1315 0196 0B       		.uleb128 0xb
 1316 0197 2C0A0000 		.4byte	.LASF47
 1317 019b 36       		.byte	0x36
 1318 019c 0B       		.uleb128 0xb
 1319 019d CA0B0000 		.4byte	.LASF48
 1320 01a1 37       		.byte	0x37
 1321 01a2 0B       		.uleb128 0xb
 1322 01a3 FE060000 		.4byte	.LASF49
 1323 01a7 40       		.byte	0x40
 1324 01a8 0B       		.uleb128 0xb
 1325 01a9 2F0B0000 		.4byte	.LASF50
 1326 01ad 41       		.byte	0x41
 1327 01ae 0B       		.uleb128 0xb
 1328 01af C6160000 		.4byte	.LASF51
 1329 01b3 42       		.byte	0x42
 1330 01b4 0B       		.uleb128 0xb
 1331 01b5 FC050000 		.4byte	.LASF52
 1332 01b9 43       		.byte	0x43
 1333 01ba 0B       		.uleb128 0xb
 1334 01bb B5080000 		.4byte	.LASF53
 1335 01bf 44       		.byte	0x44
 1336 01c0 0B       		.uleb128 0xb
 1337 01c1 F90D0000 		.4byte	.LASF54
ARM GAS  C:\Users\TTSS\AppData\Local\Temp\ccKqB1vQ.s 			page 50


 1338 01c5 45       		.byte	0x45
 1339 01c6 0B       		.uleb128 0xb
 1340 01c7 270C0000 		.4byte	.LASF55
 1341 01cb 46       		.byte	0x46
 1342 01cc 0B       		.uleb128 0xb
 1343 01cd 76090000 		.4byte	.LASF56
 1344 01d1 47       		.byte	0x47
 1345 01d2 0B       		.uleb128 0xb
 1346 01d3 85150000 		.4byte	.LASF57
 1347 01d7 48       		.byte	0x48
 1348 01d8 0B       		.uleb128 0xb
 1349 01d9 FD040000 		.4byte	.LASF58
 1350 01dd 49       		.byte	0x49
 1351 01de 0B       		.uleb128 0xb
 1352 01df 9A140000 		.4byte	.LASF59
 1353 01e3 4A       		.byte	0x4a
 1354 01e4 0B       		.uleb128 0xb
 1355 01e5 CF010000 		.4byte	.LASF60
 1356 01e9 4B       		.byte	0x4b
 1357 01ea 0B       		.uleb128 0xb
 1358 01eb 9B080000 		.4byte	.LASF61
 1359 01ef 4C       		.byte	0x4c
 1360 01f0 0B       		.uleb128 0xb
 1361 01f1 BE0C0000 		.4byte	.LASF62
 1362 01f5 4D       		.byte	0x4d
 1363 01f6 0B       		.uleb128 0xb
 1364 01f7 40050000 		.4byte	.LASF63
 1365 01fb 4E       		.byte	0x4e
 1366 01fc 0B       		.uleb128 0xb
 1367 01fd FE0F0000 		.4byte	.LASF64
 1368 0201 4F       		.byte	0x4f
 1369 0202 0B       		.uleb128 0xb
 1370 0203 EE010000 		.4byte	.LASF65
 1371 0207 50       		.byte	0x50
 1372 0208 0B       		.uleb128 0xb
 1373 0209 33060000 		.4byte	.LASF66
 1374 020d 51       		.byte	0x51
 1375 020e 0B       		.uleb128 0xb
 1376 020f 6E0D0000 		.4byte	.LASF67
 1377 0213 52       		.byte	0x52
 1378 0214 0B       		.uleb128 0xb
 1379 0215 5C0F0000 		.4byte	.LASF68
 1380 0219 53       		.byte	0x53
 1381 021a 0B       		.uleb128 0xb
 1382 021b 92100000 		.4byte	.LASF69
 1383 021f 54       		.byte	0x54
 1384 0220 0B       		.uleb128 0xb
 1385 0221 D3080000 		.4byte	.LASF70
 1386 0225 55       		.byte	0x55
 1387 0226 0B       		.uleb128 0xb
 1388 0227 E1070000 		.4byte	.LASF71
 1389 022b 56       		.byte	0x56
 1390 022c 0B       		.uleb128 0xb
 1391 022d 3B120000 		.4byte	.LASF72
 1392 0231 57       		.byte	0x57
 1393 0232 0B       		.uleb128 0xb
 1394 0233 BE070000 		.4byte	.LASF73
ARM GAS  C:\Users\TTSS\AppData\Local\Temp\ccKqB1vQ.s 			page 51


 1395 0237 58       		.byte	0x58
 1396 0238 0B       		.uleb128 0xb
 1397 0239 18070000 		.4byte	.LASF74
 1398 023d 70       		.byte	0x70
 1399 023e 0B       		.uleb128 0xb
 1400 023f 4A160000 		.4byte	.LASF75
 1401 0243 71       		.byte	0x71
 1402 0244 0B       		.uleb128 0xb
 1403 0245 69050000 		.4byte	.LASF76
 1404 0249 72       		.byte	0x72
 1405 024a 0B       		.uleb128 0xb
 1406 024b 700E0000 		.4byte	.LASF77
 1407 024f 73       		.byte	0x73
 1408 0250 0B       		.uleb128 0xb
 1409 0251 C80D0000 		.4byte	.LASF78
 1410 0255 74       		.byte	0x74
 1411 0256 0B       		.uleb128 0xb
 1412 0257 00160000 		.4byte	.LASF79
 1413 025b 75       		.byte	0x75
 1414 025c 0B       		.uleb128 0xb
 1415 025d 26010000 		.4byte	.LASF80
 1416 0261 76       		.byte	0x76
 1417 0262 0B       		.uleb128 0xb
 1418 0263 53000000 		.4byte	.LASF81
 1419 0267 77       		.byte	0x77
 1420 0268 0B       		.uleb128 0xb
 1421 0269 00000000 		.4byte	.LASF82
 1422 026d 78       		.byte	0x78
 1423 026e 0B       		.uleb128 0xb
 1424 026f 6C0B0000 		.4byte	.LASF83
 1425 0273 79       		.byte	0x79
 1426 0274 0B       		.uleb128 0xb
 1427 0275 4D070000 		.4byte	.LASF84
 1428 0279 7A       		.byte	0x7a
 1429 027a 0B       		.uleb128 0xb
 1430 027b 21160000 		.4byte	.LASF85
 1431 027f FA       		.byte	0xfa
 1432 0280 0B       		.uleb128 0xb
 1433 0281 3A080000 		.4byte	.LASF86
 1434 0285 FB       		.byte	0xfb
 1435 0286 0B       		.uleb128 0xb
 1436 0287 AE0F0000 		.4byte	.LASF87
 1437 028b FC       		.byte	0xfc
 1438 028c 0B       		.uleb128 0xb
 1439 028d 0C170000 		.4byte	.LASF88
 1440 0291 FD       		.byte	0xfd
 1441 0292 0B       		.uleb128 0xb
 1442 0293 E1060000 		.4byte	.LASF89
 1443 0297 FF       		.byte	0xff
 1444 0298 00       		.byte	0
 1445 0299 0A       		.uleb128 0xa
 1446 029a 02       		.byte	0x2
 1447 029b 3A000000 		.4byte	0x3a
 1448 029f 03       		.byte	0x3
 1449 02a0 EA03     		.2byte	0x3ea
 1450 02a2 78030000 		.4byte	0x378
 1451 02a6 0B       		.uleb128 0xb
ARM GAS  C:\Users\TTSS\AppData\Local\Temp\ccKqB1vQ.s 			page 52


 1452 02a7 EF060000 		.4byte	.LASF90
 1453 02ab 00       		.byte	0
 1454 02ac 0B       		.uleb128 0xb
 1455 02ad 81060000 		.4byte	.LASF91
 1456 02b1 01       		.byte	0x1
 1457 02b2 0B       		.uleb128 0xb
 1458 02b3 86130000 		.4byte	.LASF92
 1459 02b7 02       		.byte	0x2
 1460 02b8 0B       		.uleb128 0xb
 1461 02b9 97000000 		.4byte	.LASF93
 1462 02bd 03       		.byte	0x3
 1463 02be 0B       		.uleb128 0xb
 1464 02bf 05030000 		.4byte	.LASF94
 1465 02c3 04       		.byte	0x4
 1466 02c4 0B       		.uleb128 0xb
 1467 02c5 1C080000 		.4byte	.LASF95
 1468 02c9 05       		.byte	0x5
 1469 02ca 0B       		.uleb128 0xb
 1470 02cb C00F0000 		.4byte	.LASF96
 1471 02cf 06       		.byte	0x6
 1472 02d0 0B       		.uleb128 0xb
 1473 02d1 B3040000 		.4byte	.LASF97
 1474 02d5 07       		.byte	0x7
 1475 02d6 0B       		.uleb128 0xb
 1476 02d7 B3100000 		.4byte	.LASF98
 1477 02db 08       		.byte	0x8
 1478 02dc 0B       		.uleb128 0xb
 1479 02dd AC150000 		.4byte	.LASF99
 1480 02e1 09       		.byte	0x9
 1481 02e2 0B       		.uleb128 0xb
 1482 02e3 AE0E0000 		.4byte	.LASF100
 1483 02e7 0A       		.byte	0xa
 1484 02e8 0B       		.uleb128 0xb
 1485 02e9 41110000 		.4byte	.LASF101
 1486 02ed 0B       		.byte	0xb
 1487 02ee 0B       		.uleb128 0xb
 1488 02ef AF030000 		.4byte	.LASF102
 1489 02f3 0C       		.byte	0xc
 1490 02f4 0B       		.uleb128 0xb
 1491 02f5 E0020000 		.4byte	.LASF103
 1492 02f9 0D       		.byte	0xd
 1493 02fa 0B       		.uleb128 0xb
 1494 02fb 47140000 		.4byte	.LASF104
 1495 02ff 0E       		.byte	0xe
 1496 0300 0B       		.uleb128 0xb
 1497 0301 30150000 		.4byte	.LASF105
 1498 0305 0F       		.byte	0xf
 1499 0306 0B       		.uleb128 0xb
 1500 0307 BD120000 		.4byte	.LASF106
 1501 030b 10       		.byte	0x10
 1502 030c 0B       		.uleb128 0xb
 1503 030d C6030000 		.4byte	.LASF107
 1504 0311 11       		.byte	0x11
 1505 0312 0B       		.uleb128 0xb
 1506 0313 D9050000 		.4byte	.LASF108
 1507 0317 12       		.byte	0x12
 1508 0318 0B       		.uleb128 0xb
ARM GAS  C:\Users\TTSS\AppData\Local\Temp\ccKqB1vQ.s 			page 53


 1509 0319 E4160000 		.4byte	.LASF109
 1510 031d 13       		.byte	0x13
 1511 031e 0B       		.uleb128 0xb
 1512 031f 91040000 		.4byte	.LASF110
 1513 0323 27       		.byte	0x27
 1514 0324 0B       		.uleb128 0xb
 1515 0325 98120000 		.4byte	.LASF111
 1516 0329 28       		.byte	0x28
 1517 032a 0B       		.uleb128 0xb
 1518 032b FB140000 		.4byte	.LASF112
 1519 032f 29       		.byte	0x29
 1520 0330 0B       		.uleb128 0xb
 1521 0331 72020000 		.4byte	.LASF113
 1522 0335 2A       		.byte	0x2a
 1523 0336 0B       		.uleb128 0xb
 1524 0337 47010000 		.4byte	.LASF114
 1525 033b 2B       		.byte	0x2b
 1526 033c 0B       		.uleb128 0xb
 1527 033d 0F0C0000 		.4byte	.LASF115
 1528 0341 2C       		.byte	0x2c
 1529 0342 0B       		.uleb128 0xb
 1530 0343 68100000 		.4byte	.LASF116
 1531 0347 2D       		.byte	0x2d
 1532 0348 0B       		.uleb128 0xb
 1533 0349 D3000000 		.4byte	.LASF117
 1534 034d FE       		.byte	0xfe
 1535 034e 0B       		.uleb128 0xb
 1536 034f FF0B0000 		.4byte	.LASF118
 1537 0353 FF       		.byte	0xff
 1538 0354 0C       		.uleb128 0xc
 1539 0355 46090000 		.4byte	.LASF119
 1540 0359 0001     		.2byte	0x100
 1541 035b 0C       		.uleb128 0xc
 1542 035c 8F0D0000 		.4byte	.LASF120
 1543 0360 0101     		.2byte	0x101
 1544 0362 0C       		.uleb128 0xc
 1545 0363 2F0F0000 		.4byte	.LASF121
 1546 0367 0201     		.2byte	0x102
 1547 0369 0C       		.uleb128 0xc
 1548 036a 16050000 		.4byte	.LASF122
 1549 036e 0301     		.2byte	0x103
 1550 0370 0C       		.uleb128 0xc
 1551 0371 19110000 		.4byte	.LASF123
 1552 0375 0401     		.2byte	0x104
 1553 0377 00       		.byte	0
 1554 0378 04       		.uleb128 0x4
 1555 0379 500D0000 		.4byte	.LASF124
 1556 037d 03       		.byte	0x3
 1557 037e 5C04     		.2byte	0x45c
 1558 0380 99020000 		.4byte	0x299
 1559 0384 0D       		.uleb128 0xd
 1560 0385 07       		.byte	0x7
 1561 0386 03       		.byte	0x3
 1562 0387 2A05     		.2byte	0x52a
 1563 0389 A8030000 		.4byte	0x3a8
 1564 038d 0E       		.uleb128 0xe
 1565 038e 2C060000 		.4byte	.LASF125
ARM GAS  C:\Users\TTSS\AppData\Local\Temp\ccKqB1vQ.s 			page 54


 1566 0392 03       		.byte	0x3
 1567 0393 2D05     		.2byte	0x52d
 1568 0395 A8030000 		.4byte	0x3a8
 1569 0399 00       		.byte	0
 1570 039a 0E       		.uleb128 0xe
 1571 039b 48020000 		.4byte	.LASF126
 1572 039f 03       		.byte	0x3
 1573 03a0 2F05     		.2byte	0x52f
 1574 03a2 6B000000 		.4byte	0x6b
 1575 03a6 06       		.byte	0x6
 1576 03a7 00       		.byte	0
 1577 03a8 0F       		.uleb128 0xf
 1578 03a9 6B000000 		.4byte	0x6b
 1579 03ad B8030000 		.4byte	0x3b8
 1580 03b1 10       		.uleb128 0x10
 1581 03b2 BC000000 		.4byte	0xbc
 1582 03b6 05       		.byte	0x5
 1583 03b7 00       		.byte	0
 1584 03b8 04       		.uleb128 0x4
 1585 03b9 9B030000 		.4byte	.LASF127
 1586 03bd 03       		.byte	0x3
 1587 03be 3005     		.2byte	0x530
 1588 03c0 84030000 		.4byte	0x384
 1589 03c4 0D       		.uleb128 0xd
 1590 03c5 04       		.byte	0x4
 1591 03c6 03       		.byte	0x3
 1592 03c7 3A05     		.2byte	0x53a
 1593 03c9 E8030000 		.4byte	0x3e8
 1594 03cd 0E       		.uleb128 0xe
 1595 03ce 64120000 		.4byte	.LASF128
 1596 03d2 03       		.byte	0x3
 1597 03d3 3D05     		.2byte	0x53d
 1598 03d5 77000000 		.4byte	0x77
 1599 03d9 00       		.byte	0
 1600 03da 0E       		.uleb128 0xe
 1601 03db 3A090000 		.4byte	.LASF129
 1602 03df 03       		.byte	0x3
 1603 03e0 3F05     		.2byte	0x53f
 1604 03e2 6B000000 		.4byte	0x6b
 1605 03e6 02       		.byte	0x2
 1606 03e7 00       		.byte	0
 1607 03e8 04       		.uleb128 0x4
 1608 03e9 4A0B0000 		.4byte	.LASF130
 1609 03ed 03       		.byte	0x3
 1610 03ee 4005     		.2byte	0x540
 1611 03f0 C4030000 		.4byte	0x3c4
 1612 03f4 0D       		.uleb128 0xd
 1613 03f5 06       		.byte	0x6
 1614 03f6 03       		.byte	0x3
 1615 03f7 4405     		.2byte	0x544
 1616 03f9 25040000 		.4byte	0x425
 1617 03fd 0E       		.uleb128 0xe
 1618 03fe 35020000 		.4byte	.LASF131
 1619 0402 03       		.byte	0x3
 1620 0403 4705     		.2byte	0x547
 1621 0405 77000000 		.4byte	0x77
 1622 0409 00       		.byte	0
ARM GAS  C:\Users\TTSS\AppData\Local\Temp\ccKqB1vQ.s 			page 55


 1623 040a 0E       		.uleb128 0xe
 1624 040b C6050000 		.4byte	.LASF132
 1625 040f 03       		.byte	0x3
 1626 0410 4A05     		.2byte	0x54a
 1627 0412 77000000 		.4byte	0x77
 1628 0416 02       		.byte	0x2
 1629 0417 0E       		.uleb128 0xe
 1630 0418 1D0A0000 		.4byte	.LASF133
 1631 041c 03       		.byte	0x3
 1632 041d 4D05     		.2byte	0x54d
 1633 041f 6B000000 		.4byte	0x6b
 1634 0423 04       		.byte	0x4
 1635 0424 00       		.byte	0
 1636 0425 04       		.uleb128 0x4
 1637 0426 17150000 		.4byte	.LASF134
 1638 042a 03       		.byte	0x3
 1639 042b 4E05     		.2byte	0x54e
 1640 042d F4030000 		.4byte	0x3f4
 1641 0431 0D       		.uleb128 0xd
 1642 0432 01       		.byte	0x1
 1643 0433 03       		.byte	0x3
 1644 0434 5105     		.2byte	0x551
 1645 0436 48040000 		.4byte	0x448
 1646 043a 0E       		.uleb128 0xe
 1647 043b 24170000 		.4byte	.LASF135
 1648 043f 03       		.byte	0x3
 1649 0440 5405     		.2byte	0x554
 1650 0442 6B000000 		.4byte	0x6b
 1651 0446 00       		.byte	0
 1652 0447 00       		.byte	0
 1653 0448 04       		.uleb128 0x4
 1654 0449 8F020000 		.4byte	.LASF136
 1655 044d 03       		.byte	0x3
 1656 044e 5505     		.2byte	0x555
 1657 0450 31040000 		.4byte	0x431
 1658 0454 0D       		.uleb128 0xd
 1659 0455 0C       		.byte	0xc
 1660 0456 03       		.byte	0x3
 1661 0457 5B05     		.2byte	0x55b
 1662 0459 85040000 		.4byte	0x485
 1663 045d 0E       		.uleb128 0xe
 1664 045e C1150000 		.4byte	.LASF137
 1665 0462 03       		.byte	0x3
 1666 0463 5E05     		.2byte	0x55e
 1667 0465 85040000 		.4byte	0x485
 1668 0469 00       		.byte	0
 1669 046a 0E       		.uleb128 0xe
 1670 046b A4130000 		.4byte	.LASF138
 1671 046f 03       		.byte	0x3
 1672 0470 6105     		.2byte	0x561
 1673 0472 8B040000 		.4byte	0x48b
 1674 0476 04       		.byte	0x4
 1675 0477 0E       		.uleb128 0xe
 1676 0478 5B100000 		.4byte	.LASF139
 1677 047c 03       		.byte	0x3
 1678 047d 6705     		.2byte	0x567
 1679 047f 77000000 		.4byte	0x77
ARM GAS  C:\Users\TTSS\AppData\Local\Temp\ccKqB1vQ.s 			page 56


 1680 0483 08       		.byte	0x8
 1681 0484 00       		.byte	0
 1682 0485 07       		.uleb128 0x7
 1683 0486 04       		.byte	0x4
 1684 0487 25040000 		.4byte	0x425
 1685 048b 07       		.uleb128 0x7
 1686 048c 04       		.byte	0x4
 1687 048d 48040000 		.4byte	0x448
 1688 0491 04       		.uleb128 0x4
 1689 0492 EB120000 		.4byte	.LASF140
 1690 0496 03       		.byte	0x3
 1691 0497 6805     		.2byte	0x568
 1692 0499 54040000 		.4byte	0x454
 1693 049d 07       		.uleb128 0x7
 1694 049e 04       		.byte	0x4
 1695 049f 6B000000 		.4byte	0x6b
 1696 04a3 11       		.uleb128 0x11
 1697 04a4 01       		.byte	0x1
 1698 04a5 2C000000 		.4byte	0x2c
 1699 04a9 04       		.byte	0x4
 1700 04aa E0       		.byte	0xe0
 1701 04ab CE040000 		.4byte	0x4ce
 1702 04af 0B       		.uleb128 0xb
 1703 04b0 75030000 		.4byte	.LASF141
 1704 04b4 00       		.byte	0
 1705 04b5 0B       		.uleb128 0xb
 1706 04b6 7A010000 		.4byte	.LASF142
 1707 04ba 01       		.byte	0x1
 1708 04bb 0B       		.uleb128 0xb
 1709 04bc 06130000 		.4byte	.LASF143
 1710 04c0 02       		.byte	0x2
 1711 04c1 0B       		.uleb128 0xb
 1712 04c2 70140000 		.4byte	.LASF144
 1713 04c6 03       		.byte	0x3
 1714 04c7 0B       		.uleb128 0xb
 1715 04c8 28100000 		.4byte	.LASF145
 1716 04cc 04       		.byte	0x4
 1717 04cd 00       		.byte	0
 1718 04ce 12       		.uleb128 0x12
 1719 04cf 13140000 		.4byte	.LASF146
 1720 04d3 04       		.byte	0x4
 1721 04d4 F0       		.byte	0xf0
 1722 04d5 A3040000 		.4byte	0x4a3
 1723 04d9 0D       		.uleb128 0xd
 1724 04da 10       		.byte	0x10
 1725 04db 04       		.byte	0x4
 1726 04dc 2102     		.2byte	0x221
 1727 04de 4B050000 		.4byte	0x54b
 1728 04e2 0E       		.uleb128 0xe
 1729 04e3 1D100000 		.4byte	.LASF147
 1730 04e7 04       		.byte	0x4
 1731 04e8 2702     		.2byte	0x227
 1732 04ea 77000000 		.4byte	0x77
 1733 04ee 00       		.byte	0
 1734 04ef 0E       		.uleb128 0xe
 1735 04f0 5E050000 		.4byte	.LASF148
 1736 04f4 04       		.byte	0x4
ARM GAS  C:\Users\TTSS\AppData\Local\Temp\ccKqB1vQ.s 			page 57


 1737 04f5 2D02     		.2byte	0x22d
 1738 04f7 77000000 		.4byte	0x77
 1739 04fb 02       		.byte	0x2
 1740 04fc 0E       		.uleb128 0xe
 1741 04fd 3D030000 		.4byte	.LASF149
 1742 0501 04       		.byte	0x4
 1743 0502 3602     		.2byte	0x236
 1744 0504 CE040000 		.4byte	0x4ce
 1745 0508 04       		.byte	0x4
 1746 0509 0E       		.uleb128 0xe
 1747 050a 820C0000 		.4byte	.LASF150
 1748 050e 04       		.byte	0x4
 1749 050f 3E02     		.2byte	0x23e
 1750 0511 6B000000 		.4byte	0x6b
 1751 0515 05       		.byte	0x5
 1752 0516 0E       		.uleb128 0xe
 1753 0517 610E0000 		.4byte	.LASF151
 1754 051b 04       		.byte	0x4
 1755 051c 4502     		.2byte	0x245
 1756 051e 6B000000 		.4byte	0x6b
 1757 0522 06       		.byte	0x6
 1758 0523 0E       		.uleb128 0xe
 1759 0524 D0040000 		.4byte	.LASF152
 1760 0528 04       		.byte	0x4
 1761 0529 4B02     		.2byte	0x24b
 1762 052b A8030000 		.4byte	0x3a8
 1763 052f 07       		.byte	0x7
 1764 0530 0E       		.uleb128 0xe
 1765 0531 18010000 		.4byte	.LASF153
 1766 0535 04       		.byte	0x4
 1767 0536 5302     		.2byte	0x253
 1768 0538 6B000000 		.4byte	0x6b
 1769 053c 0D       		.byte	0xd
 1770 053d 0E       		.uleb128 0xe
 1771 053e 30050000 		.4byte	.LASF154
 1772 0542 04       		.byte	0x4
 1773 0543 5F02     		.2byte	0x25f
 1774 0545 6B000000 		.4byte	0x6b
 1775 0549 0E       		.byte	0xe
 1776 054a 00       		.byte	0
 1777 054b 04       		.uleb128 0x4
 1778 054c 6F120000 		.4byte	.LASF155
 1779 0550 04       		.byte	0x4
 1780 0551 6102     		.2byte	0x261
 1781 0553 D9040000 		.4byte	0x4d9
 1782 0557 0D       		.uleb128 0xd
 1783 0558 20       		.byte	0x20
 1784 0559 04       		.byte	0x4
 1785 055a 6402     		.2byte	0x264
 1786 055c 7B050000 		.4byte	0x57b
 1787 0560 0E       		.uleb128 0xe
 1788 0561 53100000 		.4byte	.LASF156
 1789 0565 04       		.byte	0x4
 1790 0566 6702     		.2byte	0x267
 1791 0568 7B050000 		.4byte	0x57b
 1792 056c 00       		.byte	0
 1793 056d 0E       		.uleb128 0xe
ARM GAS  C:\Users\TTSS\AppData\Local\Temp\ccKqB1vQ.s 			page 58


 1794 056e 79070000 		.4byte	.LASF157
 1795 0572 04       		.byte	0x4
 1796 0573 6A02     		.2byte	0x26a
 1797 0575 6B000000 		.4byte	0x6b
 1798 0579 1F       		.byte	0x1f
 1799 057a 00       		.byte	0
 1800 057b 0F       		.uleb128 0xf
 1801 057c 6B000000 		.4byte	0x6b
 1802 0580 8B050000 		.4byte	0x58b
 1803 0584 10       		.uleb128 0x10
 1804 0585 BC000000 		.4byte	0xbc
 1805 0589 1E       		.byte	0x1e
 1806 058a 00       		.byte	0
 1807 058b 04       		.uleb128 0x4
 1808 058c BC000000 		.4byte	.LASF158
 1809 0590 04       		.byte	0x4
 1810 0591 6C02     		.2byte	0x26c
 1811 0593 57050000 		.4byte	0x557
 1812 0597 0D       		.uleb128 0xd
 1813 0598 20       		.byte	0x20
 1814 0599 04       		.byte	0x4
 1815 059a 6F02     		.2byte	0x26f
 1816 059c BB050000 		.4byte	0x5bb
 1817 05a0 0E       		.uleb128 0xe
 1818 05a1 20060000 		.4byte	.LASF159
 1819 05a5 04       		.byte	0x4
 1820 05a6 7302     		.2byte	0x273
 1821 05a8 7B050000 		.4byte	0x57b
 1822 05ac 00       		.byte	0
 1823 05ad 0E       		.uleb128 0xe
 1824 05ae 3E070000 		.4byte	.LASF160
 1825 05b2 04       		.byte	0x4
 1826 05b3 7602     		.2byte	0x276
 1827 05b5 6B000000 		.4byte	0x6b
 1828 05b9 1F       		.byte	0x1f
 1829 05ba 00       		.byte	0
 1830 05bb 04       		.uleb128 0x4
 1831 05bc 1F090000 		.4byte	.LASF161
 1832 05c0 04       		.byte	0x4
 1833 05c1 7802     		.2byte	0x278
 1834 05c3 97050000 		.4byte	0x597
 1835 05c7 0D       		.uleb128 0xd
 1836 05c8 14       		.byte	0x14
 1837 05c9 04       		.byte	0x4
 1838 05ca 7B02     		.2byte	0x27b
 1839 05cc 12060000 		.4byte	0x612
 1840 05d0 0E       		.uleb128 0xe
 1841 05d1 78060000 		.4byte	.LASF162
 1842 05d5 04       		.byte	0x4
 1843 05d6 8302     		.2byte	0x283
 1844 05d8 6B000000 		.4byte	0x6b
 1845 05dc 00       		.byte	0
 1846 05dd 0E       		.uleb128 0xe
 1847 05de FD130000 		.4byte	.LASF163
 1848 05e2 04       		.byte	0x4
 1849 05e3 8602     		.2byte	0x286
 1850 05e5 12060000 		.4byte	0x612
ARM GAS  C:\Users\TTSS\AppData\Local\Temp\ccKqB1vQ.s 			page 59


 1851 05e9 04       		.byte	0x4
 1852 05ea 0E       		.uleb128 0xe
 1853 05eb 53100000 		.4byte	.LASF156
 1854 05ef 04       		.byte	0x4
 1855 05f0 8802     		.2byte	0x288
 1856 05f2 18060000 		.4byte	0x618
 1857 05f6 08       		.byte	0x8
 1858 05f7 0E       		.uleb128 0xe
 1859 05f8 20060000 		.4byte	.LASF159
 1860 05fc 04       		.byte	0x4
 1861 05fd 8A02     		.2byte	0x28a
 1862 05ff 1E060000 		.4byte	0x61e
 1863 0603 0C       		.byte	0xc
 1864 0604 0E       		.uleb128 0xe
 1865 0605 6B080000 		.4byte	.LASF164
 1866 0609 04       		.byte	0x4
 1867 060a 9402     		.2byte	0x294
 1868 060c 77000000 		.4byte	0x77
 1869 0610 10       		.byte	0x10
 1870 0611 00       		.byte	0
 1871 0612 07       		.uleb128 0x7
 1872 0613 04       		.byte	0x4
 1873 0614 4B050000 		.4byte	0x54b
 1874 0618 07       		.uleb128 0x7
 1875 0619 04       		.byte	0x4
 1876 061a 8B050000 		.4byte	0x58b
 1877 061e 07       		.uleb128 0x7
 1878 061f 04       		.byte	0x4
 1879 0620 BB050000 		.4byte	0x5bb
 1880 0624 04       		.uleb128 0x4
 1881 0625 E1130000 		.4byte	.LASF165
 1882 0629 04       		.byte	0x4
 1883 062a 9602     		.2byte	0x296
 1884 062c C7050000 		.4byte	0x5c7
 1885 0630 04       		.uleb128 0x4
 1886 0631 75040000 		.4byte	.LASF166
 1887 0635 05       		.byte	0x5
 1888 0636 8901     		.2byte	0x189
 1889 0638 77000000 		.4byte	0x77
 1890 063c 13       		.uleb128 0x13
 1891 063d 08       		.byte	0x8
 1892 063e 06       		.byte	0x6
 1893 063f CE       		.byte	0xce
 1894 0640 5D060000 		.4byte	0x65d
 1895 0644 14       		.uleb128 0x14
 1896 0645 880A0000 		.4byte	.LASF167
 1897 0649 06       		.byte	0x6
 1898 064a D1       		.byte	0xd1
 1899 064b 77000000 		.4byte	0x77
 1900 064f 00       		.byte	0
 1901 0650 14       		.uleb128 0x14
 1902 0651 BA0D0000 		.4byte	.LASF168
 1903 0655 06       		.byte	0x6
 1904 0656 D6       		.byte	0xd6
 1905 0657 C3000000 		.4byte	0xc3
 1906 065b 04       		.byte	0x4
 1907 065c 00       		.byte	0
ARM GAS  C:\Users\TTSS\AppData\Local\Temp\ccKqB1vQ.s 			page 60


 1908 065d 12       		.uleb128 0x12
 1909 065e C3130000 		.4byte	.LASF169
 1910 0662 06       		.byte	0x6
 1911 0663 D8       		.byte	0xd8
 1912 0664 3C060000 		.4byte	0x63c
 1913 0668 13       		.uleb128 0x13
 1914 0669 08       		.byte	0x8
 1915 066a 06       		.byte	0x6
 1916 066b DB       		.byte	0xdb
 1917 066c 89060000 		.4byte	0x689
 1918 0670 14       		.uleb128 0x14
 1919 0671 FE090000 		.4byte	.LASF170
 1920 0675 06       		.byte	0x6
 1921 0676 DE       		.byte	0xde
 1922 0677 77000000 		.4byte	0x77
 1923 067b 00       		.byte	0
 1924 067c 14       		.uleb128 0x14
 1925 067d B8140000 		.4byte	.LASF171
 1926 0681 06       		.byte	0x6
 1927 0682 E3       		.byte	0xe3
 1928 0683 89060000 		.4byte	0x689
 1929 0687 04       		.byte	0x4
 1930 0688 00       		.byte	0
 1931 0689 07       		.uleb128 0x7
 1932 068a 04       		.byte	0x4
 1933 068b 5D060000 		.4byte	0x65d
 1934 068f 12       		.uleb128 0x12
 1935 0690 52060000 		.4byte	.LASF172
 1936 0694 06       		.byte	0x6
 1937 0695 E5       		.byte	0xe5
 1938 0696 68060000 		.4byte	0x668
 1939 069a 15       		.uleb128 0x15
 1940 069b 08       		.byte	0x8
 1941 069c 06       		.byte	0x6
 1942 069d E8       		.byte	0xe8
 1943 069e B9060000 		.4byte	0x6b9
 1944 06a2 16       		.uleb128 0x16
 1945 06a3 10090000 		.4byte	.LASF173
 1946 06a7 06       		.byte	0x6
 1947 06a8 EF       		.byte	0xef
 1948 06a9 8F060000 		.4byte	0x68f
 1949 06ad 16       		.uleb128 0x16
 1950 06ae AD0D0000 		.4byte	.LASF174
 1951 06b2 06       		.byte	0x6
 1952 06b3 F2       		.byte	0xf2
 1953 06b4 77000000 		.4byte	0x77
 1954 06b8 00       		.byte	0
 1955 06b9 12       		.uleb128 0x12
 1956 06ba AD060000 		.4byte	.LASF175
 1957 06be 06       		.byte	0x6
 1958 06bf F4       		.byte	0xf4
 1959 06c0 9A060000 		.4byte	0x69a
 1960 06c4 13       		.uleb128 0x13
 1961 06c5 14       		.byte	0x14
 1962 06c6 06       		.byte	0x6
 1963 06c7 F7       		.byte	0xf7
 1964 06c8 0D070000 		.4byte	0x70d
ARM GAS  C:\Users\TTSS\AppData\Local\Temp\ccKqB1vQ.s 			page 61


 1965 06cc 14       		.uleb128 0x14
 1966 06cd C5060000 		.4byte	.LASF176
 1967 06d1 06       		.byte	0x6
 1968 06d2 FA       		.byte	0xfa
 1969 06d3 77000000 		.4byte	0x77
 1970 06d7 00       		.byte	0
 1971 06d8 0E       		.uleb128 0xe
 1972 06d9 71070000 		.4byte	.LASF177
 1973 06dd 06       		.byte	0x6
 1974 06de 0001     		.2byte	0x100
 1975 06e0 77000000 		.4byte	0x77
 1976 06e4 02       		.byte	0x2
 1977 06e5 0E       		.uleb128 0xe
 1978 06e6 F2040000 		.4byte	.LASF178
 1979 06ea 06       		.byte	0x6
 1980 06eb 0B01     		.2byte	0x10b
 1981 06ed 83000000 		.4byte	0x83
 1982 06f1 04       		.byte	0x4
 1983 06f2 0E       		.uleb128 0xe
 1984 06f3 2E120000 		.4byte	.LASF179
 1985 06f7 06       		.byte	0x6
 1986 06f8 0E01     		.2byte	0x10e
 1987 06fa 77000000 		.4byte	0x77
 1988 06fe 08       		.byte	0x8
 1989 06ff 0E       		.uleb128 0xe
 1990 0700 D50E0000 		.4byte	.LASF180
 1991 0704 06       		.byte	0x6
 1992 0705 1701     		.2byte	0x117
 1993 0707 B9060000 		.4byte	0x6b9
 1994 070b 0C       		.byte	0xc
 1995 070c 00       		.byte	0
 1996 070d 04       		.uleb128 0x4
 1997 070e 75130000 		.4byte	.LASF181
 1998 0712 06       		.byte	0x6
 1999 0713 1801     		.2byte	0x118
 2000 0715 C4060000 		.4byte	0x6c4
 2001 0719 04       		.uleb128 0x4
 2002 071a B2130000 		.4byte	.LASF182
 2003 071e 07       		.byte	0x7
 2004 071f 0302     		.2byte	0x203
 2005 0721 C5000000 		.4byte	0xc5
 2006 0725 17       		.uleb128 0x17
 2007 0726 8502     		.2byte	0x285
 2008 0728 08       		.byte	0x8
 2009 0729 9C       		.byte	0x9c
 2010 072a 62070000 		.4byte	0x762
 2011 072e 14       		.uleb128 0x14
 2012 072f 9F060000 		.4byte	.LASF183
 2013 0733 08       		.byte	0x8
 2014 0734 9F       		.byte	0x9f
 2015 0735 62070000 		.4byte	0x762
 2016 0739 00       		.byte	0
 2017 073a 18       		.uleb128 0x18
 2018 073b 6F0A0000 		.4byte	.LASF184
 2019 073f 08       		.byte	0x8
 2020 0740 A2       		.byte	0xa2
 2021 0741 73070000 		.4byte	0x773
ARM GAS  C:\Users\TTSS\AppData\Local\Temp\ccKqB1vQ.s 			page 62


 2022 0745 7902     		.2byte	0x279
 2023 0747 18       		.uleb128 0x18
 2024 0748 4D020000 		.4byte	.LASF185
 2025 074c 08       		.byte	0x8
 2026 074d A5       		.byte	0xa5
 2027 074e 6B000000 		.4byte	0x6b
 2028 0752 8302     		.2byte	0x283
 2029 0754 18       		.uleb128 0x18
 2030 0755 1A0D0000 		.4byte	.LASF186
 2031 0759 08       		.byte	0x8
 2032 075a A8       		.byte	0xa8
 2033 075b 6B000000 		.4byte	0x6b
 2034 075f 8402     		.2byte	0x284
 2035 0761 00       		.byte	0
 2036 0762 0F       		.uleb128 0xf
 2037 0763 6B000000 		.4byte	0x6b
 2038 0767 73070000 		.4byte	0x773
 2039 076b 19       		.uleb128 0x19
 2040 076c BC000000 		.4byte	0xbc
 2041 0770 7802     		.2byte	0x278
 2042 0772 00       		.byte	0
 2043 0773 0F       		.uleb128 0xf
 2044 0774 6B000000 		.4byte	0x6b
 2045 0778 89070000 		.4byte	0x789
 2046 077c 10       		.uleb128 0x10
 2047 077d BC000000 		.4byte	0xbc
 2048 0781 04       		.byte	0x4
 2049 0782 10       		.uleb128 0x10
 2050 0783 BC000000 		.4byte	0xbc
 2051 0787 01       		.byte	0x1
 2052 0788 00       		.byte	0
 2053 0789 12       		.uleb128 0x12
 2054 078a 24140000 		.4byte	.LASF187
 2055 078e 08       		.byte	0x8
 2056 078f A9       		.byte	0xa9
 2057 0790 25070000 		.4byte	0x725
 2058 0794 0A       		.uleb128 0xa
 2059 0795 01       		.byte	0x1
 2060 0796 2C000000 		.4byte	0x2c
 2061 079a 09       		.byte	0x9
 2062 079b 5A08     		.2byte	0x85a
 2063 079d C0070000 		.4byte	0x7c0
 2064 07a1 0B       		.uleb128 0xb
 2065 07a2 3F000000 		.4byte	.LASF188
 2066 07a6 00       		.byte	0
 2067 07a7 0B       		.uleb128 0xb
 2068 07a8 690C0000 		.4byte	.LASF189
 2069 07ac 01       		.byte	0x1
 2070 07ad 0B       		.uleb128 0xb
 2071 07ae 6F150000 		.4byte	.LASF190
 2072 07b2 02       		.byte	0x2
 2073 07b3 0B       		.uleb128 0xb
 2074 07b4 30040000 		.4byte	.LASF191
 2075 07b8 03       		.byte	0x3
 2076 07b9 0B       		.uleb128 0xb
 2077 07ba 85050000 		.4byte	.LASF192
 2078 07be 04       		.byte	0x4
ARM GAS  C:\Users\TTSS\AppData\Local\Temp\ccKqB1vQ.s 			page 63


 2079 07bf 00       		.byte	0
 2080 07c0 04       		.uleb128 0x4
 2081 07c1 39140000 		.4byte	.LASF193
 2082 07c5 09       		.byte	0x9
 2083 07c6 6808     		.2byte	0x868
 2084 07c8 94070000 		.4byte	0x794
 2085 07cc 0D       		.uleb128 0xd
 2086 07cd 0C       		.byte	0xc
 2087 07ce 09       		.byte	0x9
 2088 07cf A309     		.2byte	0x9a3
 2089 07d1 24080000 		.4byte	0x824
 2090 07d5 0E       		.uleb128 0xe
 2091 07d6 DA0F0000 		.4byte	.LASF194
 2092 07da 09       		.byte	0x9
 2093 07db A609     		.2byte	0x9a6
 2094 07dd 30060000 		.4byte	0x630
 2095 07e1 00       		.byte	0
 2096 07e2 0E       		.uleb128 0xe
 2097 07e3 B1160000 		.4byte	.LASF195
 2098 07e7 09       		.byte	0x9
 2099 07e8 A809     		.2byte	0x9a8
 2100 07ea 30060000 		.4byte	0x630
 2101 07ee 02       		.byte	0x2
 2102 07ef 0E       		.uleb128 0xe
 2103 07f0 990F0000 		.4byte	.LASF196
 2104 07f4 09       		.byte	0x9
 2105 07f5 AA09     		.2byte	0x9aa
 2106 07f7 30060000 		.4byte	0x630
 2107 07fb 04       		.byte	0x4
 2108 07fc 0E       		.uleb128 0xe
 2109 07fd 170F0000 		.4byte	.LASF197
 2110 0801 09       		.byte	0x9
 2111 0802 AD09     		.2byte	0x9ad
 2112 0804 30060000 		.4byte	0x630
 2113 0808 06       		.byte	0x6
 2114 0809 0E       		.uleb128 0xe
 2115 080a 8E0E0000 		.4byte	.LASF198
 2116 080e 09       		.byte	0x9
 2117 080f AF09     		.2byte	0x9af
 2118 0811 30060000 		.4byte	0x630
 2119 0815 08       		.byte	0x8
 2120 0816 0E       		.uleb128 0xe
 2121 0817 50130000 		.4byte	.LASF199
 2122 081b 09       		.byte	0x9
 2123 081c B109     		.2byte	0x9b1
 2124 081e 30060000 		.4byte	0x630
 2125 0822 0A       		.byte	0xa
 2126 0823 00       		.byte	0
 2127 0824 04       		.uleb128 0x4
 2128 0825 06140000 		.4byte	.LASF200
 2129 0829 09       		.byte	0x9
 2130 082a B209     		.2byte	0x9b2
 2131 082c CC070000 		.4byte	0x7cc
 2132 0830 1A       		.uleb128 0x1a
 2133 0831 3F160000 		.4byte	.LASF201
 2134 0835 01       		.byte	0x1
 2135 0836 98       		.byte	0x98
ARM GAS  C:\Users\TTSS\AppData\Local\Temp\ccKqB1vQ.s 			page 64


 2136 0837 00000000 		.4byte	.LFB2
 2137 083b 2C000000 		.4byte	.LFE2-.LFB2
 2138 083f 01       		.uleb128 0x1
 2139 0840 9C       		.byte	0x9c
 2140 0841 1B       		.uleb128 0x1b
 2141 0842 59080000 		.4byte	.LASF202
 2142 0846 01       		.byte	0x1
 2143 0847 C9       		.byte	0xc9
 2144 0848 00000000 		.4byte	.LFB3
 2145 084c 0A000000 		.4byte	.LFE3-.LFB3
 2146 0850 01       		.uleb128 0x1
 2147 0851 9C       		.byte	0x9c
 2148 0852 1C       		.uleb128 0x1c
 2149 0853 4D0A0000 		.4byte	.LASF210
 2150 0857 01       		.byte	0x1
 2151 0858 9701     		.2byte	0x197
 2152 085a 78030000 		.4byte	0x378
 2153 085e 00000000 		.4byte	.LFB4
 2154 0862 30010000 		.4byte	.LFE4-.LFB4
 2155 0866 01       		.uleb128 0x1
 2156 0867 9C       		.byte	0x9c
 2157 0868 E2080000 		.4byte	0x8e2
 2158 086c 1D       		.uleb128 0x1d
 2159 086d C80E0000 		.4byte	.LASF212
 2160 0871 01       		.byte	0x1
 2161 0872 9701     		.2byte	0x197
 2162 0874 19070000 		.4byte	0x719
 2163 0878 03       		.uleb128 0x3
 2164 0879 91       		.byte	0x91
 2165 087a B47F     		.sleb128 -76
 2166 087c 1E       		.uleb128 0x1e
 2167 087d 460D0000 		.4byte	.LASF203
 2168 0881 01       		.byte	0x1
 2169 0882 9901     		.2byte	0x199
 2170 0884 78030000 		.4byte	0x378
 2171 0888 02       		.uleb128 0x2
 2172 0889 91       		.byte	0x91
 2173 088a 6E       		.sleb128 -18
 2174 088b 1E       		.uleb128 0x1e
 2175 088c F8100000 		.4byte	.LASF204
 2176 0890 01       		.byte	0x1
 2177 0891 9D01     		.2byte	0x19d
 2178 0893 E2080000 		.4byte	0x8e2
 2179 0897 02       		.uleb128 0x2
 2180 0898 91       		.byte	0x91
 2181 0899 58       		.sleb128 -40
 2182 089a 1F       		.uleb128 0x1f
 2183 089b 4A000000 		.4byte	.LBB2
 2184 089f 54000000 		.4byte	.LBE2-.LBB2
 2185 08a3 1E       		.uleb128 0x1e
 2186 08a4 87000000 		.4byte	.LASF205
 2187 08a8 01       		.byte	0x1
 2188 08a9 BF01     		.2byte	0x1bf
 2189 08ab 25040000 		.4byte	0x425
 2190 08af 02       		.uleb128 0x2
 2191 08b0 91       		.byte	0x91
 2192 08b1 50       		.sleb128 -48
ARM GAS  C:\Users\TTSS\AppData\Local\Temp\ccKqB1vQ.s 			page 65


 2193 08b2 1E       		.uleb128 0x1e
 2194 08b3 FC080000 		.4byte	.LASF206
 2195 08b7 01       		.byte	0x1
 2196 08b8 C001     		.2byte	0x1c0
 2197 08ba 48040000 		.4byte	0x448
 2198 08be 02       		.uleb128 0x2
 2199 08bf 91       		.byte	0x91
 2200 08c0 4C       		.sleb128 -52
 2201 08c1 1E       		.uleb128 0x1e
 2202 08c2 C9140000 		.4byte	.LASF207
 2203 08c6 01       		.byte	0x1
 2204 08c7 C101     		.2byte	0x1c1
 2205 08c9 91040000 		.4byte	0x491
 2206 08cd 02       		.uleb128 0x2
 2207 08ce 91       		.byte	0x91
 2208 08cf 40       		.sleb128 -64
 2209 08d0 1E       		.uleb128 0x1e
 2210 08d1 EF0F0000 		.4byte	.LASF208
 2211 08d5 01       		.byte	0x1
 2212 08d6 C201     		.2byte	0x1c2
 2213 08d8 77000000 		.4byte	0x77
 2214 08dc 03       		.uleb128 0x3
 2215 08dd 91       		.byte	0x91
 2216 08de BE7F     		.sleb128 -66
 2217 08e0 00       		.byte	0
 2218 08e1 00       		.byte	0
 2219 08e2 0F       		.uleb128 0xf
 2220 08e3 E8030000 		.4byte	0x3e8
 2221 08e7 F2080000 		.4byte	0x8f2
 2222 08eb 10       		.uleb128 0x10
 2223 08ec BC000000 		.4byte	0xbc
 2224 08f0 04       		.byte	0x4
 2225 08f1 00       		.byte	0
 2226 08f2 20       		.uleb128 0x20
 2227 08f3 630D0000 		.4byte	.LASF209
 2228 08f7 01       		.byte	0x1
 2229 08f8 1C02     		.2byte	0x21c
 2230 08fa 00000000 		.4byte	.LFB5
 2231 08fe 18000000 		.4byte	.LFE5-.LFB5
 2232 0902 01       		.uleb128 0x1
 2233 0903 9C       		.byte	0x9c
 2234 0904 1C       		.uleb128 0x1c
 2235 0905 440E0000 		.4byte	.LASF211
 2236 0909 01       		.byte	0x1
 2237 090a 1703     		.2byte	0x317
 2238 090c 78030000 		.4byte	0x378
 2239 0910 00000000 		.4byte	.LFB6
 2240 0914 D8000000 		.4byte	.LFE6-.LFB6
 2241 0918 01       		.uleb128 0x1
 2242 0919 9C       		.byte	0x9c
 2243 091a 3D090000 		.4byte	0x93d
 2244 091e 1D       		.uleb128 0x1d
 2245 091f 09120000 		.4byte	.LASF213
 2246 0923 01       		.byte	0x1
 2247 0924 1703     		.2byte	0x317
 2248 0926 6B000000 		.4byte	0x6b
 2249 092a 02       		.uleb128 0x2
ARM GAS  C:\Users\TTSS\AppData\Local\Temp\ccKqB1vQ.s 			page 66


 2250 092b 91       		.byte	0x91
 2251 092c 67       		.sleb128 -25
 2252 092d 1E       		.uleb128 0x1e
 2253 092e 460D0000 		.4byte	.LASF203
 2254 0932 01       		.byte	0x1
 2255 0933 1903     		.2byte	0x319
 2256 0935 78030000 		.4byte	0x378
 2257 0939 02       		.uleb128 0x2
 2258 093a 91       		.byte	0x91
 2259 093b 6E       		.sleb128 -18
 2260 093c 00       		.byte	0
 2261 093d 20       		.uleb128 0x20
 2262 093e B0020000 		.4byte	.LASF214
 2263 0942 01       		.byte	0x1
 2264 0943 5403     		.2byte	0x354
 2265 0945 00000000 		.4byte	.LFB7
 2266 0949 24000000 		.4byte	.LFE7-.LFB7
 2267 094d 01       		.uleb128 0x1
 2268 094e 9C       		.byte	0x9c
 2269 094f 21       		.uleb128 0x21
 2270 0950 7D0F0000 		.4byte	.LASF222
 2271 0954 01       		.byte	0x1
 2272 0955 6A03     		.2byte	0x36a
 2273 0957 00000000 		.4byte	.LFB8
 2274 095b 62000000 		.4byte	.LFE8-.LFB8
 2275 095f 01       		.uleb128 0x1
 2276 0960 9C       		.byte	0x9c
 2277 0961 A0090000 		.4byte	0x9a0
 2278 0965 1D       		.uleb128 0x1d
 2279 0966 2C060000 		.4byte	.LASF125
 2280 096a 01       		.byte	0x1
 2281 096b 6A03     		.2byte	0x36a
 2282 096d A0090000 		.4byte	0x9a0
 2283 0971 02       		.uleb128 0x2
 2284 0972 91       		.byte	0x91
 2285 0973 6C       		.sleb128 -20
 2286 0974 1D       		.uleb128 0x1d
 2287 0975 A80D0000 		.4byte	.LASF215
 2288 0979 01       		.byte	0x1
 2289 097a 6A03     		.2byte	0x36a
 2290 097c 6B000000 		.4byte	0x6b
 2291 0980 02       		.uleb128 0x2
 2292 0981 91       		.byte	0x91
 2293 0982 6B       		.sleb128 -21
 2294 0983 22       		.uleb128 0x22
 2295 0984 6900     		.ascii	"i\000"
 2296 0986 01       		.byte	0x1
 2297 0987 6C03     		.2byte	0x36c
 2298 0989 6B000000 		.4byte	0x6b
 2299 098d 02       		.uleb128 0x2
 2300 098e 91       		.byte	0x91
 2301 098f 77       		.sleb128 -9
 2302 0990 1E       		.uleb128 0x1e
 2303 0991 D6060000 		.4byte	.LASF216
 2304 0995 01       		.byte	0x1
 2305 0996 6D03     		.2byte	0x36d
 2306 0998 9D040000 		.4byte	0x49d
ARM GAS  C:\Users\TTSS\AppData\Local\Temp\ccKqB1vQ.s 			page 67


 2307 099c 02       		.uleb128 0x2
 2308 099d 91       		.byte	0x91
 2309 099e 70       		.sleb128 -16
 2310 099f 00       		.byte	0
 2311 09a0 07       		.uleb128 0x7
 2312 09a1 04       		.byte	0x4
 2313 09a2 A6090000 		.4byte	0x9a6
 2314 09a6 23       		.uleb128 0x23
 2315 09a7 B8030000 		.4byte	0x3b8
 2316 09ab 24       		.uleb128 0x24
 2317 09ac A80C0000 		.4byte	.LASF217
 2318 09b0 01       		.byte	0x1
 2319 09b1 0E05     		.2byte	0x50e
 2320 09b3 78030000 		.4byte	0x378
 2321 09b7 00000000 		.4byte	.LFB9
 2322 09bb DC000000 		.4byte	.LFE9-.LFB9
 2323 09bf 01       		.uleb128 0x1
 2324 09c0 9C       		.byte	0x9c
 2325 09c1 0F0A0000 		.4byte	0xa0f
 2326 09c5 1D       		.uleb128 0x1d
 2327 09c6 F7080000 		.4byte	.LASF218
 2328 09ca 01       		.byte	0x1
 2329 09cb 0E05     		.2byte	0x50e
 2330 09cd 0F0A0000 		.4byte	0xa0f
 2331 09d1 02       		.uleb128 0x2
 2332 09d2 91       		.byte	0x91
 2333 09d3 64       		.sleb128 -28
 2334 09d4 1E       		.uleb128 0x1e
 2335 09d5 460D0000 		.4byte	.LASF203
 2336 09d9 01       		.byte	0x1
 2337 09da 1005     		.2byte	0x510
 2338 09dc 78030000 		.4byte	0x378
 2339 09e0 02       		.uleb128 0x2
 2340 09e1 91       		.byte	0x91
 2341 09e2 76       		.sleb128 -10
 2342 09e3 22       		.uleb128 0x22
 2343 09e4 6900     		.ascii	"i\000"
 2344 09e6 01       		.byte	0x1
 2345 09e7 1105     		.2byte	0x511
 2346 09e9 6B000000 		.4byte	0x6b
 2347 09ed 02       		.uleb128 0x2
 2348 09ee 91       		.byte	0x91
 2349 09ef 75       		.sleb128 -11
 2350 09f0 22       		.uleb128 0x22
 2351 09f1 70747200 		.ascii	"ptr\000"
 2352 09f5 01       		.byte	0x1
 2353 09f6 1205     		.2byte	0x512
 2354 09f8 1A0A0000 		.4byte	0xa1a
 2355 09fc 02       		.uleb128 0x2
 2356 09fd 91       		.byte	0x91
 2357 09fe 70       		.sleb128 -16
 2358 09ff 1E       		.uleb128 0x1e
 2359 0a00 640B0000 		.4byte	.LASF219
 2360 0a04 01       		.byte	0x1
 2361 0a05 1305     		.2byte	0x513
 2362 0a07 6B000000 		.4byte	0x6b
 2363 0a0b 02       		.uleb128 0x2
ARM GAS  C:\Users\TTSS\AppData\Local\Temp\ccKqB1vQ.s 			page 68


 2364 0a0c 91       		.byte	0x91
 2365 0a0d 6F       		.sleb128 -17
 2366 0a0e 00       		.byte	0
 2367 0a0f 07       		.uleb128 0x7
 2368 0a10 04       		.byte	0x4
 2369 0a11 150A0000 		.4byte	0xa15
 2370 0a15 23       		.uleb128 0x23
 2371 0a16 9D000000 		.4byte	0x9d
 2372 0a1a 07       		.uleb128 0x7
 2373 0a1b 04       		.byte	0x4
 2374 0a1c 9D000000 		.4byte	0x9d
 2375 0a20 24       		.uleb128 0x24
 2376 0a21 590A0000 		.4byte	.LASF220
 2377 0a25 01       		.byte	0x1
 2378 0a26 5605     		.2byte	0x556
 2379 0a28 78030000 		.4byte	0x378
 2380 0a2c 00000000 		.4byte	.LFB10
 2381 0a30 CC000000 		.4byte	.LFE10-.LFB10
 2382 0a34 01       		.uleb128 0x1
 2383 0a35 9C       		.byte	0x9c
 2384 0a36 840A0000 		.4byte	0xa84
 2385 0a3a 1D       		.uleb128 0x1d
 2386 0a3b F7080000 		.4byte	.LASF218
 2387 0a3f 01       		.byte	0x1
 2388 0a40 5605     		.2byte	0x556
 2389 0a42 1A0A0000 		.4byte	0xa1a
 2390 0a46 02       		.uleb128 0x2
 2391 0a47 91       		.byte	0x91
 2392 0a48 64       		.sleb128 -28
 2393 0a49 1E       		.uleb128 0x1e
 2394 0a4a 460D0000 		.4byte	.LASF203
 2395 0a4e 01       		.byte	0x1
 2396 0a4f 5805     		.2byte	0x558
 2397 0a51 78030000 		.4byte	0x378
 2398 0a55 02       		.uleb128 0x2
 2399 0a56 91       		.byte	0x91
 2400 0a57 76       		.sleb128 -10
 2401 0a58 1E       		.uleb128 0x1e
 2402 0a59 640B0000 		.4byte	.LASF219
 2403 0a5d 01       		.byte	0x1
 2404 0a5e 5905     		.2byte	0x559
 2405 0a60 6B000000 		.4byte	0x6b
 2406 0a64 02       		.uleb128 0x2
 2407 0a65 91       		.byte	0x91
 2408 0a66 6F       		.sleb128 -17
 2409 0a67 22       		.uleb128 0x22
 2410 0a68 6900     		.ascii	"i\000"
 2411 0a6a 01       		.byte	0x1
 2412 0a6b 5A05     		.2byte	0x55a
 2413 0a6d 6B000000 		.4byte	0x6b
 2414 0a71 02       		.uleb128 0x2
 2415 0a72 91       		.byte	0x91
 2416 0a73 75       		.sleb128 -11
 2417 0a74 22       		.uleb128 0x22
 2418 0a75 70747200 		.ascii	"ptr\000"
 2419 0a79 01       		.byte	0x1
 2420 0a7a 5B05     		.2byte	0x55b
ARM GAS  C:\Users\TTSS\AppData\Local\Temp\ccKqB1vQ.s 			page 69


 2421 0a7c 1A0A0000 		.4byte	0xa1a
 2422 0a80 02       		.uleb128 0x2
 2423 0a81 91       		.byte	0x91
 2424 0a82 70       		.sleb128 -16
 2425 0a83 00       		.byte	0
 2426 0a84 24       		.uleb128 0x24
 2427 0a85 EF150000 		.4byte	.LASF221
 2428 0a89 01       		.byte	0x1
 2429 0a8a 8805     		.2byte	0x588
 2430 0a8c 77000000 		.4byte	0x77
 2431 0a90 00000000 		.4byte	.LFB11
 2432 0a94 26000000 		.4byte	.LFE11-.LFB11
 2433 0a98 01       		.uleb128 0x1
 2434 0a99 9C       		.byte	0x9c
 2435 0a9a AE0A0000 		.4byte	0xaae
 2436 0a9e 25       		.uleb128 0x25
 2437 0a9f 70747200 		.ascii	"ptr\000"
 2438 0aa3 01       		.byte	0x1
 2439 0aa4 8805     		.2byte	0x588
 2440 0aa6 AE0A0000 		.4byte	0xaae
 2441 0aaa 02       		.uleb128 0x2
 2442 0aab 91       		.byte	0x91
 2443 0aac 74       		.sleb128 -12
 2444 0aad 00       		.byte	0
 2445 0aae 07       		.uleb128 0x7
 2446 0aaf 04       		.byte	0x4
 2447 0ab0 B40A0000 		.4byte	0xab4
 2448 0ab4 23       		.uleb128 0x23
 2449 0ab5 6B000000 		.4byte	0x6b
 2450 0ab9 21       		.uleb128 0x21
 2451 0aba 0C0A0000 		.4byte	.LASF223
 2452 0abe 01       		.byte	0x1
 2453 0abf 9B05     		.2byte	0x59b
 2454 0ac1 00000000 		.4byte	.LFB12
 2455 0ac5 30000000 		.4byte	.LFE12-.LFB12
 2456 0ac9 01       		.uleb128 0x1
 2457 0aca 9C       		.byte	0x9c
 2458 0acb EE0A0000 		.4byte	0xaee
 2459 0acf 25       		.uleb128 0x25
 2460 0ad0 70747200 		.ascii	"ptr\000"
 2461 0ad4 01       		.byte	0x1
 2462 0ad5 9B05     		.2byte	0x59b
 2463 0ad7 9D040000 		.4byte	0x49d
 2464 0adb 02       		.uleb128 0x2
 2465 0adc 91       		.byte	0x91
 2466 0add 74       		.sleb128 -12
 2467 0ade 1D       		.uleb128 0x1d
 2468 0adf B8070000 		.4byte	.LASF224
 2469 0ae3 01       		.byte	0x1
 2470 0ae4 9B05     		.2byte	0x59b
 2471 0ae6 77000000 		.4byte	0x77
 2472 0aea 02       		.uleb128 0x2
 2473 0aeb 91       		.byte	0x91
 2474 0aec 72       		.sleb128 -14
 2475 0aed 00       		.byte	0
 2476 0aee 26       		.uleb128 0x26
 2477 0aef 22020000 		.4byte	.LASF225
ARM GAS  C:\Users\TTSS\AppData\Local\Temp\ccKqB1vQ.s 			page 70


 2478 0af3 01       		.byte	0x1
 2479 0af4 89       		.byte	0x89
 2480 0af5 19070000 		.4byte	0x719
 2481 0af9 05       		.uleb128 0x5
 2482 0afa 03       		.byte	0x3
 2483 0afb 00000000 		.4byte	CyBle_ApplCallback
 2484 0aff 26       		.uleb128 0x26
 2485 0b00 AD090000 		.4byte	.LASF226
 2486 0b04 01       		.byte	0x1
 2487 0b05 2B       		.byte	0x2b
 2488 0b06 6B000000 		.4byte	0x6b
 2489 0b0a 05       		.uleb128 0x5
 2490 0b0b 03       		.byte	0x3
 2491 0b0c 00000000 		.4byte	cyBle_initVar
 2492 0b10 0F       		.uleb128 0xf
 2493 0b11 6B000000 		.4byte	0x6b
 2494 0b15 210B0000 		.4byte	0xb21
 2495 0b19 19       		.uleb128 0x19
 2496 0b1a BC000000 		.4byte	0xbc
 2497 0b1e DF0A     		.2byte	0xadf
 2498 0b20 00       		.byte	0
 2499 0b21 26       		.uleb128 0x26
 2500 0b22 0D020000 		.4byte	.LASF227
 2501 0b26 01       		.byte	0x1
 2502 0b27 36       		.byte	0x36
 2503 0b28 100B0000 		.4byte	0xb10
 2504 0b2c 05       		.uleb128 0x5
 2505 0b2d 03       		.byte	0x3
 2506 0b2e 00000000 		.4byte	cyBle_stackMemoryRam
 2507 0b32 27       		.uleb128 0x27
 2508 0b33 B30B0000 		.4byte	.LASF228
 2509 0b37 07       		.byte	0x7
 2510 0b38 A302     		.2byte	0x2a3
 2511 0b3a B0000000 		.4byte	0xb0
 2512 0b3e 26       		.uleb128 0x26
 2513 0b3f D5140000 		.4byte	.LASF229
 2514 0b43 01       		.byte	0x1
 2515 0b44 8A       		.byte	0x8a
 2516 0b45 B8030000 		.4byte	0x3b8
 2517 0b49 05       		.uleb128 0x5
 2518 0b4a 03       		.byte	0x3
 2519 0b4b 00000000 		.4byte	cyBle_deviceAddress
 2520 0b4f 26       		.uleb128 0x26
 2521 0b50 55150000 		.4byte	.LASF230
 2522 0b54 01       		.byte	0x1
 2523 0b55 8B       		.byte	0x8b
 2524 0b56 600B0000 		.4byte	0xb60
 2525 0b5a 05       		.uleb128 0x5
 2526 0b5b 03       		.byte	0x3
 2527 0b5c 00000000 		.4byte	cyBle_sflashDeviceAddress
 2528 0b60 07       		.uleb128 0x7
 2529 0b61 04       		.byte	0x4
 2530 0b62 B8030000 		.4byte	0x3b8
 2531 0b66 26       		.uleb128 0x26
 2532 0b67 72000000 		.4byte	.LASF231
 2533 0b6b 01       		.byte	0x1
 2534 0b6c 3C       		.byte	0x3c
ARM GAS  C:\Users\TTSS\AppData\Local\Temp\ccKqB1vQ.s 			page 71


 2535 0b6d 4B050000 		.4byte	0x54b
 2536 0b71 05       		.uleb128 0x5
 2537 0b72 03       		.byte	0x3
 2538 0b73 00000000 		.4byte	cyBle_discoveryParam
 2539 0b77 26       		.uleb128 0x26
 2540 0b78 CC020000 		.4byte	.LASF232
 2541 0b7c 01       		.byte	0x1
 2542 0b7d 48       		.byte	0x48
 2543 0b7e 8B050000 		.4byte	0x58b
 2544 0b82 05       		.uleb128 0x5
 2545 0b83 03       		.byte	0x3
 2546 0b84 00000000 		.4byte	cyBle_discoveryData
 2547 0b88 26       		.uleb128 0x26
 2548 0b89 E9140000 		.4byte	.LASF233
 2549 0b8d 01       		.byte	0x1
 2550 0b8e 51       		.byte	0x51
 2551 0b8f BB050000 		.4byte	0x5bb
 2552 0b93 05       		.uleb128 0x5
 2553 0b94 03       		.byte	0x3
 2554 0b95 00000000 		.4byte	cyBle_scanRspData
 2555 0b99 26       		.uleb128 0x26
 2556 0b9a 480C0000 		.4byte	.LASF234
 2557 0b9e 01       		.byte	0x1
 2558 0b9f 61       		.byte	0x61
 2559 0ba0 24060000 		.4byte	0x624
 2560 0ba4 05       		.uleb128 0x5
 2561 0ba5 03       		.byte	0x3
 2562 0ba6 00000000 		.4byte	cyBle_discoveryModeInfo
 2563 0baa 0F       		.uleb128 0xf
 2564 0bab BA0B0000 		.4byte	0xbba
 2565 0baf BA0B0000 		.4byte	0xbba
 2566 0bb3 10       		.uleb128 0x10
 2567 0bb4 BC000000 		.4byte	0xbc
 2568 0bb8 0C       		.byte	0xc
 2569 0bb9 00       		.byte	0
 2570 0bba 23       		.uleb128 0x23
 2571 0bbb 0D070000 		.4byte	0x70d
 2572 0bbf 28       		.uleb128 0x28
 2573 0bc0 0C110000 		.4byte	.LASF235
 2574 0bc4 08       		.byte	0x8
 2575 0bc5 E8       		.byte	0xe8
 2576 0bc6 CA0B0000 		.4byte	0xbca
 2577 0bca 23       		.uleb128 0x23
 2578 0bcb AA0B0000 		.4byte	0xbaa
 2579 0bcf 28       		.uleb128 0x28
 2580 0bd0 E60D0000 		.4byte	.LASF236
 2581 0bd4 08       		.byte	0x8
 2582 0bd5 F4       		.byte	0xf4
 2583 0bd6 DA0B0000 		.4byte	0xbda
 2584 0bda 23       		.uleb128 0x23
 2585 0bdb 89070000 		.4byte	0x789
 2586 0bdf 27       		.uleb128 0x27
 2587 0be0 950A0000 		.4byte	.LASF237
 2588 0be4 09       		.byte	0x9
 2589 0be5 B30A     		.2byte	0xab3
 2590 0be7 C0070000 		.4byte	0x7c0
 2591 0beb 27       		.uleb128 0x27
ARM GAS  C:\Users\TTSS\AppData\Local\Temp\ccKqB1vQ.s 			page 72


 2592 0bec 64030000 		.4byte	.LASF238
 2593 0bf0 09       		.byte	0x9
 2594 0bf1 B50A     		.2byte	0xab5
 2595 0bf3 B0000000 		.4byte	0xb0
 2596 0bf7 27       		.uleb128 0x27
 2597 0bf8 8D120000 		.4byte	.LASF239
 2598 0bfc 09       		.byte	0x9
 2599 0bfd B60A     		.2byte	0xab6
 2600 0bff 030C0000 		.4byte	0xc03
 2601 0c03 23       		.uleb128 0x23
 2602 0c04 24080000 		.4byte	0x824
 2603 0c08 27       		.uleb128 0x27
 2604 0c09 260E0000 		.4byte	.LASF240
 2605 0c0d 09       		.byte	0x9
 2606 0c0e B90A     		.2byte	0xab9
 2607 0c10 6B000000 		.4byte	0x6b
 2608 0c14 00       		.byte	0
 2609              		.section	.debug_abbrev,"",%progbits
 2610              	.Ldebug_abbrev0:
 2611 0000 01       		.uleb128 0x1
 2612 0001 11       		.uleb128 0x11
 2613 0002 01       		.byte	0x1
 2614 0003 25       		.uleb128 0x25
 2615 0004 0E       		.uleb128 0xe
 2616 0005 13       		.uleb128 0x13
 2617 0006 0B       		.uleb128 0xb
 2618 0007 03       		.uleb128 0x3
 2619 0008 0E       		.uleb128 0xe
 2620 0009 1B       		.uleb128 0x1b
 2621 000a 0E       		.uleb128 0xe
 2622 000b 55       		.uleb128 0x55
 2623 000c 17       		.uleb128 0x17
 2624 000d 11       		.uleb128 0x11
 2625 000e 01       		.uleb128 0x1
 2626 000f 10       		.uleb128 0x10
 2627 0010 17       		.uleb128 0x17
 2628 0011 00       		.byte	0
 2629 0012 00       		.byte	0
 2630 0013 02       		.uleb128 0x2
 2631 0014 24       		.uleb128 0x24
 2632 0015 00       		.byte	0
 2633 0016 0B       		.uleb128 0xb
 2634 0017 0B       		.uleb128 0xb
 2635 0018 3E       		.uleb128 0x3e
 2636 0019 0B       		.uleb128 0xb
 2637 001a 03       		.uleb128 0x3
 2638 001b 0E       		.uleb128 0xe
 2639 001c 00       		.byte	0
 2640 001d 00       		.byte	0
 2641 001e 03       		.uleb128 0x3
 2642 001f 24       		.uleb128 0x24
 2643 0020 00       		.byte	0
 2644 0021 0B       		.uleb128 0xb
 2645 0022 0B       		.uleb128 0xb
 2646 0023 3E       		.uleb128 0x3e
 2647 0024 0B       		.uleb128 0xb
 2648 0025 03       		.uleb128 0x3
ARM GAS  C:\Users\TTSS\AppData\Local\Temp\ccKqB1vQ.s 			page 73


 2649 0026 08       		.uleb128 0x8
 2650 0027 00       		.byte	0
 2651 0028 00       		.byte	0
 2652 0029 04       		.uleb128 0x4
 2653 002a 16       		.uleb128 0x16
 2654 002b 00       		.byte	0
 2655 002c 03       		.uleb128 0x3
 2656 002d 0E       		.uleb128 0xe
 2657 002e 3A       		.uleb128 0x3a
 2658 002f 0B       		.uleb128 0xb
 2659 0030 3B       		.uleb128 0x3b
 2660 0031 05       		.uleb128 0x5
 2661 0032 49       		.uleb128 0x49
 2662 0033 13       		.uleb128 0x13
 2663 0034 00       		.byte	0
 2664 0035 00       		.byte	0
 2665 0036 05       		.uleb128 0x5
 2666 0037 35       		.uleb128 0x35
 2667 0038 00       		.byte	0
 2668 0039 49       		.uleb128 0x49
 2669 003a 13       		.uleb128 0x13
 2670 003b 00       		.byte	0
 2671 003c 00       		.byte	0
 2672 003d 06       		.uleb128 0x6
 2673 003e 0F       		.uleb128 0xf
 2674 003f 00       		.byte	0
 2675 0040 0B       		.uleb128 0xb
 2676 0041 0B       		.uleb128 0xb
 2677 0042 00       		.byte	0
 2678 0043 00       		.byte	0
 2679 0044 07       		.uleb128 0x7
 2680 0045 0F       		.uleb128 0xf
 2681 0046 00       		.byte	0
 2682 0047 0B       		.uleb128 0xb
 2683 0048 0B       		.uleb128 0xb
 2684 0049 49       		.uleb128 0x49
 2685 004a 13       		.uleb128 0x13
 2686 004b 00       		.byte	0
 2687 004c 00       		.byte	0
 2688 004d 08       		.uleb128 0x8
 2689 004e 15       		.uleb128 0x15
 2690 004f 01       		.byte	0x1
 2691 0050 27       		.uleb128 0x27
 2692 0051 19       		.uleb128 0x19
 2693 0052 01       		.uleb128 0x1
 2694 0053 13       		.uleb128 0x13
 2695 0054 00       		.byte	0
 2696 0055 00       		.byte	0
 2697 0056 09       		.uleb128 0x9
 2698 0057 05       		.uleb128 0x5
 2699 0058 00       		.byte	0
 2700 0059 49       		.uleb128 0x49
 2701 005a 13       		.uleb128 0x13
 2702 005b 00       		.byte	0
 2703 005c 00       		.byte	0
 2704 005d 0A       		.uleb128 0xa
 2705 005e 04       		.uleb128 0x4
ARM GAS  C:\Users\TTSS\AppData\Local\Temp\ccKqB1vQ.s 			page 74


 2706 005f 01       		.byte	0x1
 2707 0060 0B       		.uleb128 0xb
 2708 0061 0B       		.uleb128 0xb
 2709 0062 49       		.uleb128 0x49
 2710 0063 13       		.uleb128 0x13
 2711 0064 3A       		.uleb128 0x3a
 2712 0065 0B       		.uleb128 0xb
 2713 0066 3B       		.uleb128 0x3b
 2714 0067 05       		.uleb128 0x5
 2715 0068 01       		.uleb128 0x1
 2716 0069 13       		.uleb128 0x13
 2717 006a 00       		.byte	0
 2718 006b 00       		.byte	0
 2719 006c 0B       		.uleb128 0xb
 2720 006d 28       		.uleb128 0x28
 2721 006e 00       		.byte	0
 2722 006f 03       		.uleb128 0x3
 2723 0070 0E       		.uleb128 0xe
 2724 0071 1C       		.uleb128 0x1c
 2725 0072 0B       		.uleb128 0xb
 2726 0073 00       		.byte	0
 2727 0074 00       		.byte	0
 2728 0075 0C       		.uleb128 0xc
 2729 0076 28       		.uleb128 0x28
 2730 0077 00       		.byte	0
 2731 0078 03       		.uleb128 0x3
 2732 0079 0E       		.uleb128 0xe
 2733 007a 1C       		.uleb128 0x1c
 2734 007b 05       		.uleb128 0x5
 2735 007c 00       		.byte	0
 2736 007d 00       		.byte	0
 2737 007e 0D       		.uleb128 0xd
 2738 007f 13       		.uleb128 0x13
 2739 0080 01       		.byte	0x1
 2740 0081 0B       		.uleb128 0xb
 2741 0082 0B       		.uleb128 0xb
 2742 0083 3A       		.uleb128 0x3a
 2743 0084 0B       		.uleb128 0xb
 2744 0085 3B       		.uleb128 0x3b
 2745 0086 05       		.uleb128 0x5
 2746 0087 01       		.uleb128 0x1
 2747 0088 13       		.uleb128 0x13
 2748 0089 00       		.byte	0
 2749 008a 00       		.byte	0
 2750 008b 0E       		.uleb128 0xe
 2751 008c 0D       		.uleb128 0xd
 2752 008d 00       		.byte	0
 2753 008e 03       		.uleb128 0x3
 2754 008f 0E       		.uleb128 0xe
 2755 0090 3A       		.uleb128 0x3a
 2756 0091 0B       		.uleb128 0xb
 2757 0092 3B       		.uleb128 0x3b
 2758 0093 05       		.uleb128 0x5
 2759 0094 49       		.uleb128 0x49
 2760 0095 13       		.uleb128 0x13
 2761 0096 38       		.uleb128 0x38
 2762 0097 0B       		.uleb128 0xb
ARM GAS  C:\Users\TTSS\AppData\Local\Temp\ccKqB1vQ.s 			page 75


 2763 0098 00       		.byte	0
 2764 0099 00       		.byte	0
 2765 009a 0F       		.uleb128 0xf
 2766 009b 01       		.uleb128 0x1
 2767 009c 01       		.byte	0x1
 2768 009d 49       		.uleb128 0x49
 2769 009e 13       		.uleb128 0x13
 2770 009f 01       		.uleb128 0x1
 2771 00a0 13       		.uleb128 0x13
 2772 00a1 00       		.byte	0
 2773 00a2 00       		.byte	0
 2774 00a3 10       		.uleb128 0x10
 2775 00a4 21       		.uleb128 0x21
 2776 00a5 00       		.byte	0
 2777 00a6 49       		.uleb128 0x49
 2778 00a7 13       		.uleb128 0x13
 2779 00a8 2F       		.uleb128 0x2f
 2780 00a9 0B       		.uleb128 0xb
 2781 00aa 00       		.byte	0
 2782 00ab 00       		.byte	0
 2783 00ac 11       		.uleb128 0x11
 2784 00ad 04       		.uleb128 0x4
 2785 00ae 01       		.byte	0x1
 2786 00af 0B       		.uleb128 0xb
 2787 00b0 0B       		.uleb128 0xb
 2788 00b1 49       		.uleb128 0x49
 2789 00b2 13       		.uleb128 0x13
 2790 00b3 3A       		.uleb128 0x3a
 2791 00b4 0B       		.uleb128 0xb
 2792 00b5 3B       		.uleb128 0x3b
 2793 00b6 0B       		.uleb128 0xb
 2794 00b7 01       		.uleb128 0x1
 2795 00b8 13       		.uleb128 0x13
 2796 00b9 00       		.byte	0
 2797 00ba 00       		.byte	0
 2798 00bb 12       		.uleb128 0x12
 2799 00bc 16       		.uleb128 0x16
 2800 00bd 00       		.byte	0
 2801 00be 03       		.uleb128 0x3
 2802 00bf 0E       		.uleb128 0xe
 2803 00c0 3A       		.uleb128 0x3a
 2804 00c1 0B       		.uleb128 0xb
 2805 00c2 3B       		.uleb128 0x3b
 2806 00c3 0B       		.uleb128 0xb
 2807 00c4 49       		.uleb128 0x49
 2808 00c5 13       		.uleb128 0x13
 2809 00c6 00       		.byte	0
 2810 00c7 00       		.byte	0
 2811 00c8 13       		.uleb128 0x13
 2812 00c9 13       		.uleb128 0x13
 2813 00ca 01       		.byte	0x1
 2814 00cb 0B       		.uleb128 0xb
 2815 00cc 0B       		.uleb128 0xb
 2816 00cd 3A       		.uleb128 0x3a
 2817 00ce 0B       		.uleb128 0xb
 2818 00cf 3B       		.uleb128 0x3b
 2819 00d0 0B       		.uleb128 0xb
ARM GAS  C:\Users\TTSS\AppData\Local\Temp\ccKqB1vQ.s 			page 76


 2820 00d1 01       		.uleb128 0x1
 2821 00d2 13       		.uleb128 0x13
 2822 00d3 00       		.byte	0
 2823 00d4 00       		.byte	0
 2824 00d5 14       		.uleb128 0x14
 2825 00d6 0D       		.uleb128 0xd
 2826 00d7 00       		.byte	0
 2827 00d8 03       		.uleb128 0x3
 2828 00d9 0E       		.uleb128 0xe
 2829 00da 3A       		.uleb128 0x3a
 2830 00db 0B       		.uleb128 0xb
 2831 00dc 3B       		.uleb128 0x3b
 2832 00dd 0B       		.uleb128 0xb
 2833 00de 49       		.uleb128 0x49
 2834 00df 13       		.uleb128 0x13
 2835 00e0 38       		.uleb128 0x38
 2836 00e1 0B       		.uleb128 0xb
 2837 00e2 00       		.byte	0
 2838 00e3 00       		.byte	0
 2839 00e4 15       		.uleb128 0x15
 2840 00e5 17       		.uleb128 0x17
 2841 00e6 01       		.byte	0x1
 2842 00e7 0B       		.uleb128 0xb
 2843 00e8 0B       		.uleb128 0xb
 2844 00e9 3A       		.uleb128 0x3a
 2845 00ea 0B       		.uleb128 0xb
 2846 00eb 3B       		.uleb128 0x3b
 2847 00ec 0B       		.uleb128 0xb
 2848 00ed 01       		.uleb128 0x1
 2849 00ee 13       		.uleb128 0x13
 2850 00ef 00       		.byte	0
 2851 00f0 00       		.byte	0
 2852 00f1 16       		.uleb128 0x16
 2853 00f2 0D       		.uleb128 0xd
 2854 00f3 00       		.byte	0
 2855 00f4 03       		.uleb128 0x3
 2856 00f5 0E       		.uleb128 0xe
 2857 00f6 3A       		.uleb128 0x3a
 2858 00f7 0B       		.uleb128 0xb
 2859 00f8 3B       		.uleb128 0x3b
 2860 00f9 0B       		.uleb128 0xb
 2861 00fa 49       		.uleb128 0x49
 2862 00fb 13       		.uleb128 0x13
 2863 00fc 00       		.byte	0
 2864 00fd 00       		.byte	0
 2865 00fe 17       		.uleb128 0x17
 2866 00ff 13       		.uleb128 0x13
 2867 0100 01       		.byte	0x1
 2868 0101 0B       		.uleb128 0xb
 2869 0102 05       		.uleb128 0x5
 2870 0103 3A       		.uleb128 0x3a
 2871 0104 0B       		.uleb128 0xb
 2872 0105 3B       		.uleb128 0x3b
 2873 0106 0B       		.uleb128 0xb
 2874 0107 01       		.uleb128 0x1
 2875 0108 13       		.uleb128 0x13
 2876 0109 00       		.byte	0
ARM GAS  C:\Users\TTSS\AppData\Local\Temp\ccKqB1vQ.s 			page 77


 2877 010a 00       		.byte	0
 2878 010b 18       		.uleb128 0x18
 2879 010c 0D       		.uleb128 0xd
 2880 010d 00       		.byte	0
 2881 010e 03       		.uleb128 0x3
 2882 010f 0E       		.uleb128 0xe
 2883 0110 3A       		.uleb128 0x3a
 2884 0111 0B       		.uleb128 0xb
 2885 0112 3B       		.uleb128 0x3b
 2886 0113 0B       		.uleb128 0xb
 2887 0114 49       		.uleb128 0x49
 2888 0115 13       		.uleb128 0x13
 2889 0116 38       		.uleb128 0x38
 2890 0117 05       		.uleb128 0x5
 2891 0118 00       		.byte	0
 2892 0119 00       		.byte	0
 2893 011a 19       		.uleb128 0x19
 2894 011b 21       		.uleb128 0x21
 2895 011c 00       		.byte	0
 2896 011d 49       		.uleb128 0x49
 2897 011e 13       		.uleb128 0x13
 2898 011f 2F       		.uleb128 0x2f
 2899 0120 05       		.uleb128 0x5
 2900 0121 00       		.byte	0
 2901 0122 00       		.byte	0
 2902 0123 1A       		.uleb128 0x1a
 2903 0124 2E       		.uleb128 0x2e
 2904 0125 00       		.byte	0
 2905 0126 3F       		.uleb128 0x3f
 2906 0127 19       		.uleb128 0x19
 2907 0128 03       		.uleb128 0x3
 2908 0129 0E       		.uleb128 0xe
 2909 012a 3A       		.uleb128 0x3a
 2910 012b 0B       		.uleb128 0xb
 2911 012c 3B       		.uleb128 0x3b
 2912 012d 0B       		.uleb128 0xb
 2913 012e 27       		.uleb128 0x27
 2914 012f 19       		.uleb128 0x19
 2915 0130 11       		.uleb128 0x11
 2916 0131 01       		.uleb128 0x1
 2917 0132 12       		.uleb128 0x12
 2918 0133 06       		.uleb128 0x6
 2919 0134 40       		.uleb128 0x40
 2920 0135 18       		.uleb128 0x18
 2921 0136 9642     		.uleb128 0x2116
 2922 0138 19       		.uleb128 0x19
 2923 0139 00       		.byte	0
 2924 013a 00       		.byte	0
 2925 013b 1B       		.uleb128 0x1b
 2926 013c 2E       		.uleb128 0x2e
 2927 013d 00       		.byte	0
 2928 013e 3F       		.uleb128 0x3f
 2929 013f 19       		.uleb128 0x19
 2930 0140 03       		.uleb128 0x3
 2931 0141 0E       		.uleb128 0xe
 2932 0142 3A       		.uleb128 0x3a
 2933 0143 0B       		.uleb128 0xb
ARM GAS  C:\Users\TTSS\AppData\Local\Temp\ccKqB1vQ.s 			page 78


 2934 0144 3B       		.uleb128 0x3b
 2935 0145 0B       		.uleb128 0xb
 2936 0146 27       		.uleb128 0x27
 2937 0147 19       		.uleb128 0x19
 2938 0148 11       		.uleb128 0x11
 2939 0149 01       		.uleb128 0x1
 2940 014a 12       		.uleb128 0x12
 2941 014b 06       		.uleb128 0x6
 2942 014c 40       		.uleb128 0x40
 2943 014d 18       		.uleb128 0x18
 2944 014e 9742     		.uleb128 0x2117
 2945 0150 19       		.uleb128 0x19
 2946 0151 00       		.byte	0
 2947 0152 00       		.byte	0
 2948 0153 1C       		.uleb128 0x1c
 2949 0154 2E       		.uleb128 0x2e
 2950 0155 01       		.byte	0x1
 2951 0156 3F       		.uleb128 0x3f
 2952 0157 19       		.uleb128 0x19
 2953 0158 03       		.uleb128 0x3
 2954 0159 0E       		.uleb128 0xe
 2955 015a 3A       		.uleb128 0x3a
 2956 015b 0B       		.uleb128 0xb
 2957 015c 3B       		.uleb128 0x3b
 2958 015d 05       		.uleb128 0x5
 2959 015e 27       		.uleb128 0x27
 2960 015f 19       		.uleb128 0x19
 2961 0160 49       		.uleb128 0x49
 2962 0161 13       		.uleb128 0x13
 2963 0162 11       		.uleb128 0x11
 2964 0163 01       		.uleb128 0x1
 2965 0164 12       		.uleb128 0x12
 2966 0165 06       		.uleb128 0x6
 2967 0166 40       		.uleb128 0x40
 2968 0167 18       		.uleb128 0x18
 2969 0168 9642     		.uleb128 0x2116
 2970 016a 19       		.uleb128 0x19
 2971 016b 01       		.uleb128 0x1
 2972 016c 13       		.uleb128 0x13
 2973 016d 00       		.byte	0
 2974 016e 00       		.byte	0
 2975 016f 1D       		.uleb128 0x1d
 2976 0170 05       		.uleb128 0x5
 2977 0171 00       		.byte	0
 2978 0172 03       		.uleb128 0x3
 2979 0173 0E       		.uleb128 0xe
 2980 0174 3A       		.uleb128 0x3a
 2981 0175 0B       		.uleb128 0xb
 2982 0176 3B       		.uleb128 0x3b
 2983 0177 05       		.uleb128 0x5
 2984 0178 49       		.uleb128 0x49
 2985 0179 13       		.uleb128 0x13
 2986 017a 02       		.uleb128 0x2
 2987 017b 18       		.uleb128 0x18
 2988 017c 00       		.byte	0
 2989 017d 00       		.byte	0
 2990 017e 1E       		.uleb128 0x1e
ARM GAS  C:\Users\TTSS\AppData\Local\Temp\ccKqB1vQ.s 			page 79


 2991 017f 34       		.uleb128 0x34
 2992 0180 00       		.byte	0
 2993 0181 03       		.uleb128 0x3
 2994 0182 0E       		.uleb128 0xe
 2995 0183 3A       		.uleb128 0x3a
 2996 0184 0B       		.uleb128 0xb
 2997 0185 3B       		.uleb128 0x3b
 2998 0186 05       		.uleb128 0x5
 2999 0187 49       		.uleb128 0x49
 3000 0188 13       		.uleb128 0x13
 3001 0189 02       		.uleb128 0x2
 3002 018a 18       		.uleb128 0x18
 3003 018b 00       		.byte	0
 3004 018c 00       		.byte	0
 3005 018d 1F       		.uleb128 0x1f
 3006 018e 0B       		.uleb128 0xb
 3007 018f 01       		.byte	0x1
 3008 0190 11       		.uleb128 0x11
 3009 0191 01       		.uleb128 0x1
 3010 0192 12       		.uleb128 0x12
 3011 0193 06       		.uleb128 0x6
 3012 0194 00       		.byte	0
 3013 0195 00       		.byte	0
 3014 0196 20       		.uleb128 0x20
 3015 0197 2E       		.uleb128 0x2e
 3016 0198 00       		.byte	0
 3017 0199 3F       		.uleb128 0x3f
 3018 019a 19       		.uleb128 0x19
 3019 019b 03       		.uleb128 0x3
 3020 019c 0E       		.uleb128 0xe
 3021 019d 3A       		.uleb128 0x3a
 3022 019e 0B       		.uleb128 0xb
 3023 019f 3B       		.uleb128 0x3b
 3024 01a0 05       		.uleb128 0x5
 3025 01a1 27       		.uleb128 0x27
 3026 01a2 19       		.uleb128 0x19
 3027 01a3 11       		.uleb128 0x11
 3028 01a4 01       		.uleb128 0x1
 3029 01a5 12       		.uleb128 0x12
 3030 01a6 06       		.uleb128 0x6
 3031 01a7 40       		.uleb128 0x40
 3032 01a8 18       		.uleb128 0x18
 3033 01a9 9642     		.uleb128 0x2116
 3034 01ab 19       		.uleb128 0x19
 3035 01ac 00       		.byte	0
 3036 01ad 00       		.byte	0
 3037 01ae 21       		.uleb128 0x21
 3038 01af 2E       		.uleb128 0x2e
 3039 01b0 01       		.byte	0x1
 3040 01b1 3F       		.uleb128 0x3f
 3041 01b2 19       		.uleb128 0x19
 3042 01b3 03       		.uleb128 0x3
 3043 01b4 0E       		.uleb128 0xe
 3044 01b5 3A       		.uleb128 0x3a
 3045 01b6 0B       		.uleb128 0xb
 3046 01b7 3B       		.uleb128 0x3b
 3047 01b8 05       		.uleb128 0x5
ARM GAS  C:\Users\TTSS\AppData\Local\Temp\ccKqB1vQ.s 			page 80


 3048 01b9 27       		.uleb128 0x27
 3049 01ba 19       		.uleb128 0x19
 3050 01bb 11       		.uleb128 0x11
 3051 01bc 01       		.uleb128 0x1
 3052 01bd 12       		.uleb128 0x12
 3053 01be 06       		.uleb128 0x6
 3054 01bf 40       		.uleb128 0x40
 3055 01c0 18       		.uleb128 0x18
 3056 01c1 9742     		.uleb128 0x2117
 3057 01c3 19       		.uleb128 0x19
 3058 01c4 01       		.uleb128 0x1
 3059 01c5 13       		.uleb128 0x13
 3060 01c6 00       		.byte	0
 3061 01c7 00       		.byte	0
 3062 01c8 22       		.uleb128 0x22
 3063 01c9 34       		.uleb128 0x34
 3064 01ca 00       		.byte	0
 3065 01cb 03       		.uleb128 0x3
 3066 01cc 08       		.uleb128 0x8
 3067 01cd 3A       		.uleb128 0x3a
 3068 01ce 0B       		.uleb128 0xb
 3069 01cf 3B       		.uleb128 0x3b
 3070 01d0 05       		.uleb128 0x5
 3071 01d1 49       		.uleb128 0x49
 3072 01d2 13       		.uleb128 0x13
 3073 01d3 02       		.uleb128 0x2
 3074 01d4 18       		.uleb128 0x18
 3075 01d5 00       		.byte	0
 3076 01d6 00       		.byte	0
 3077 01d7 23       		.uleb128 0x23
 3078 01d8 26       		.uleb128 0x26
 3079 01d9 00       		.byte	0
 3080 01da 49       		.uleb128 0x49
 3081 01db 13       		.uleb128 0x13
 3082 01dc 00       		.byte	0
 3083 01dd 00       		.byte	0
 3084 01de 24       		.uleb128 0x24
 3085 01df 2E       		.uleb128 0x2e
 3086 01e0 01       		.byte	0x1
 3087 01e1 3F       		.uleb128 0x3f
 3088 01e2 19       		.uleb128 0x19
 3089 01e3 03       		.uleb128 0x3
 3090 01e4 0E       		.uleb128 0xe
 3091 01e5 3A       		.uleb128 0x3a
 3092 01e6 0B       		.uleb128 0xb
 3093 01e7 3B       		.uleb128 0x3b
 3094 01e8 05       		.uleb128 0x5
 3095 01e9 27       		.uleb128 0x27
 3096 01ea 19       		.uleb128 0x19
 3097 01eb 49       		.uleb128 0x49
 3098 01ec 13       		.uleb128 0x13
 3099 01ed 11       		.uleb128 0x11
 3100 01ee 01       		.uleb128 0x1
 3101 01ef 12       		.uleb128 0x12
 3102 01f0 06       		.uleb128 0x6
 3103 01f1 40       		.uleb128 0x40
 3104 01f2 18       		.uleb128 0x18
ARM GAS  C:\Users\TTSS\AppData\Local\Temp\ccKqB1vQ.s 			page 81


 3105 01f3 9742     		.uleb128 0x2117
 3106 01f5 19       		.uleb128 0x19
 3107 01f6 01       		.uleb128 0x1
 3108 01f7 13       		.uleb128 0x13
 3109 01f8 00       		.byte	0
 3110 01f9 00       		.byte	0
 3111 01fa 25       		.uleb128 0x25
 3112 01fb 05       		.uleb128 0x5
 3113 01fc 00       		.byte	0
 3114 01fd 03       		.uleb128 0x3
 3115 01fe 08       		.uleb128 0x8
 3116 01ff 3A       		.uleb128 0x3a
 3117 0200 0B       		.uleb128 0xb
 3118 0201 3B       		.uleb128 0x3b
 3119 0202 05       		.uleb128 0x5
 3120 0203 49       		.uleb128 0x49
 3121 0204 13       		.uleb128 0x13
 3122 0205 02       		.uleb128 0x2
 3123 0206 18       		.uleb128 0x18
 3124 0207 00       		.byte	0
 3125 0208 00       		.byte	0
 3126 0209 26       		.uleb128 0x26
 3127 020a 34       		.uleb128 0x34
 3128 020b 00       		.byte	0
 3129 020c 03       		.uleb128 0x3
 3130 020d 0E       		.uleb128 0xe
 3131 020e 3A       		.uleb128 0x3a
 3132 020f 0B       		.uleb128 0xb
 3133 0210 3B       		.uleb128 0x3b
 3134 0211 0B       		.uleb128 0xb
 3135 0212 49       		.uleb128 0x49
 3136 0213 13       		.uleb128 0x13
 3137 0214 3F       		.uleb128 0x3f
 3138 0215 19       		.uleb128 0x19
 3139 0216 02       		.uleb128 0x2
 3140 0217 18       		.uleb128 0x18
 3141 0218 00       		.byte	0
 3142 0219 00       		.byte	0
 3143 021a 27       		.uleb128 0x27
 3144 021b 34       		.uleb128 0x34
 3145 021c 00       		.byte	0
 3146 021d 03       		.uleb128 0x3
 3147 021e 0E       		.uleb128 0xe
 3148 021f 3A       		.uleb128 0x3a
 3149 0220 0B       		.uleb128 0xb
 3150 0221 3B       		.uleb128 0x3b
 3151 0222 05       		.uleb128 0x5
 3152 0223 49       		.uleb128 0x49
 3153 0224 13       		.uleb128 0x13
 3154 0225 3F       		.uleb128 0x3f
 3155 0226 19       		.uleb128 0x19
 3156 0227 3C       		.uleb128 0x3c
 3157 0228 19       		.uleb128 0x19
 3158 0229 00       		.byte	0
 3159 022a 00       		.byte	0
 3160 022b 28       		.uleb128 0x28
 3161 022c 34       		.uleb128 0x34
ARM GAS  C:\Users\TTSS\AppData\Local\Temp\ccKqB1vQ.s 			page 82


 3162 022d 00       		.byte	0
 3163 022e 03       		.uleb128 0x3
 3164 022f 0E       		.uleb128 0xe
 3165 0230 3A       		.uleb128 0x3a
 3166 0231 0B       		.uleb128 0xb
 3167 0232 3B       		.uleb128 0x3b
 3168 0233 0B       		.uleb128 0xb
 3169 0234 49       		.uleb128 0x49
 3170 0235 13       		.uleb128 0x13
 3171 0236 3F       		.uleb128 0x3f
 3172 0237 19       		.uleb128 0x19
 3173 0238 3C       		.uleb128 0x3c
 3174 0239 19       		.uleb128 0x19
 3175 023a 00       		.byte	0
 3176 023b 00       		.byte	0
 3177 023c 00       		.byte	0
 3178              		.section	.debug_aranges,"",%progbits
 3179 0000 6C000000 		.4byte	0x6c
 3180 0004 0200     		.2byte	0x2
 3181 0006 00000000 		.4byte	.Ldebug_info0
 3182 000a 04       		.byte	0x4
 3183 000b 00       		.byte	0
 3184 000c 0000     		.2byte	0
 3185 000e 0000     		.2byte	0
 3186 0010 00000000 		.4byte	.LFB2
 3187 0014 2C000000 		.4byte	.LFE2-.LFB2
 3188 0018 00000000 		.4byte	.LFB3
 3189 001c 0A000000 		.4byte	.LFE3-.LFB3
 3190 0020 00000000 		.4byte	.LFB4
 3191 0024 30010000 		.4byte	.LFE4-.LFB4
 3192 0028 00000000 		.4byte	.LFB5
 3193 002c 18000000 		.4byte	.LFE5-.LFB5
 3194 0030 00000000 		.4byte	.LFB6
 3195 0034 D8000000 		.4byte	.LFE6-.LFB6
 3196 0038 00000000 		.4byte	.LFB7
 3197 003c 24000000 		.4byte	.LFE7-.LFB7
 3198 0040 00000000 		.4byte	.LFB8
 3199 0044 62000000 		.4byte	.LFE8-.LFB8
 3200 0048 00000000 		.4byte	.LFB9
 3201 004c DC000000 		.4byte	.LFE9-.LFB9
 3202 0050 00000000 		.4byte	.LFB10
 3203 0054 CC000000 		.4byte	.LFE10-.LFB10
 3204 0058 00000000 		.4byte	.LFB11
 3205 005c 26000000 		.4byte	.LFE11-.LFB11
 3206 0060 00000000 		.4byte	.LFB12
 3207 0064 30000000 		.4byte	.LFE12-.LFB12
 3208 0068 00000000 		.4byte	0
 3209 006c 00000000 		.4byte	0
 3210              		.section	.debug_ranges,"",%progbits
 3211              	.Ldebug_ranges0:
 3212 0000 00000000 		.4byte	.LFB2
 3213 0004 2C000000 		.4byte	.LFE2
 3214 0008 00000000 		.4byte	.LFB3
 3215 000c 0A000000 		.4byte	.LFE3
 3216 0010 00000000 		.4byte	.LFB4
 3217 0014 30010000 		.4byte	.LFE4
 3218 0018 00000000 		.4byte	.LFB5
ARM GAS  C:\Users\TTSS\AppData\Local\Temp\ccKqB1vQ.s 			page 83


 3219 001c 18000000 		.4byte	.LFE5
 3220 0020 00000000 		.4byte	.LFB6
 3221 0024 D8000000 		.4byte	.LFE6
 3222 0028 00000000 		.4byte	.LFB7
 3223 002c 24000000 		.4byte	.LFE7
 3224 0030 00000000 		.4byte	.LFB8
 3225 0034 62000000 		.4byte	.LFE8
 3226 0038 00000000 		.4byte	.LFB9
 3227 003c DC000000 		.4byte	.LFE9
 3228 0040 00000000 		.4byte	.LFB10
 3229 0044 CC000000 		.4byte	.LFE10
 3230 0048 00000000 		.4byte	.LFB11
 3231 004c 26000000 		.4byte	.LFE11
 3232 0050 00000000 		.4byte	.LFB12
 3233 0054 30000000 		.4byte	.LFE12
 3234 0058 00000000 		.4byte	0
 3235 005c 00000000 		.4byte	0
 3236              		.section	.debug_line,"",%progbits
 3237              	.Ldebug_line0:
 3238 0000 14020000 		.section	.debug_str,"MS",%progbits,1
 3238      0200B600 
 3238      00000201 
 3238      FB0E0D00 
 3238      01010101 
 3239              	.LASF82:
 3240 0000 4359424C 		.ascii	"CYBLE_EVT_L2CAP_CBFC_RX_CREDIT_IND\000"
 3240      455F4556 
 3240      545F4C32 
 3240      4341505F 
 3240      43424643 
 3241              	.LASF23:
 3242 0023 4359424C 		.ascii	"CYBLE_EVT_STACK_BUSY_STATUS\000"
 3242      455F4556 
 3242      545F5354 
 3242      41434B5F 
 3242      42555359 
 3243              	.LASF188:
 3244 003f 4359424C 		.ascii	"CYBLE_STATE_STOPPED\000"
 3244      455F5354 
 3244      4154455F 
 3244      53544F50 
 3244      50454400 
 3245              	.LASF81:
 3246 0053 4359424C 		.ascii	"CYBLE_EVT_L2CAP_CBFC_DATA_READ\000"
 3246      455F4556 
 3246      545F4C32 
 3246      4341505F 
 3246      43424643 
 3247              	.LASF231:
 3248 0072 6379426C 		.ascii	"cyBle_discoveryParam\000"
 3248      655F6469 
 3248      73636F76 
 3248      65727950 
 3248      6172616D 
 3249              	.LASF205:
 3250 0087 646C6543 		.ascii	"dleConfigParams\000"
 3250      6F6E6669 
ARM GAS  C:\Users\TTSS\AppData\Local\Temp\ccKqB1vQ.s 			page 84


 3250      67506172 
 3250      616D7300 
 3251              	.LASF93:
 3252 0097 4359424C 		.ascii	"CYBLE_ERROR_MEMORY_ALLOCATION_FAILED\000"
 3252      455F4552 
 3252      524F525F 
 3252      4D454D4F 
 3252      52595F41 
 3253              	.LASF158:
 3254 00bc 4359424C 		.ascii	"CYBLE_GAPP_DISC_DATA_T\000"
 3254      455F4741 
 3254      50505F44 
 3254      4953435F 
 3254      44415441 
 3255              	.LASF117:
 3256 00d3 4359424C 		.ascii	"CYBLE_ERROR_CONTROLLER_BUSY\000"
 3256      455F4552 
 3256      524F525F 
 3256      434F4E54 
 3256      524F4C4C 
 3257              	.LASF35:
 3258 00ef 4359424C 		.ascii	"CYBLE_EVT_GAP_CONNECTION_UPDATE_COMPLETE\000"
 3258      455F4556 
 3258      545F4741 
 3258      505F434F 
 3258      4E4E4543 
 3259              	.LASF153:
 3260 0118 61647643 		.ascii	"advChannelMap\000"
 3260      68616E6E 
 3260      656C4D61 
 3260      7000
 3261              	.LASF80:
 3262 0126 4359424C 		.ascii	"CYBLE_EVT_L2CAP_CBFC_DISCONN_CNF\000"
 3262      455F4556 
 3262      545F4C32 
 3262      4341505F 
 3262      43424643 
 3263              	.LASF114:
 3264 0147 4359424C 		.ascii	"CYBLE_ERROR_UNSUPPORTED_FEATURE_OR_PARAMETER_VALUE\000"
 3264      455F4552 
 3264      524F525F 
 3264      554E5355 
 3264      50504F52 
 3265              	.LASF142:
 3266 017a 4359424C 		.ascii	"CYBLE_GAPP_CONNECTABLE_HIGH_DC_DIRECTED_ADV\000"
 3266      455F4741 
 3266      50505F43 
 3266      4F4E4E45 
 3266      43544142 
 3267              	.LASF40:
 3268 01a6 4359424C 		.ascii	"CYBLE_EVT_GAP_OOB_GENERATED_NOTIFICATION\000"
 3268      455F4556 
 3268      545F4741 
 3268      505F4F4F 
 3268      425F4745 
 3269              	.LASF60:
 3270 01cf 4359424C 		.ascii	"CYBLE_EVT_GATTC_READ_MULTI_RSP\000"
ARM GAS  C:\Users\TTSS\AppData\Local\Temp\ccKqB1vQ.s 			page 85


 3270      455F4556 
 3270      545F4741 
 3270      5454435F 
 3270      52454144 
 3271              	.LASF65:
 3272 01ee 4359424C 		.ascii	"CYBLE_EVT_GATTS_EXEC_WRITE_REQ\000"
 3272      455F4556 
 3272      545F4741 
 3272      5454535F 
 3272      45584543 
 3273              	.LASF227:
 3274 020d 6379426C 		.ascii	"cyBle_stackMemoryRam\000"
 3274      655F7374 
 3274      61636B4D 
 3274      656D6F72 
 3274      7952616D 
 3275              	.LASF225:
 3276 0222 4379426C 		.ascii	"CyBle_ApplCallback\000"
 3276      655F4170 
 3276      706C4361 
 3276      6C6C6261 
 3276      636B00
 3277              	.LASF131:
 3278 0235 646C654D 		.ascii	"dleMaxTxCapability\000"
 3278      61785478 
 3278      43617061 
 3278      62696C69 
 3278      747900
 3279              	.LASF126:
 3280 0248 74797065 		.ascii	"type\000"
 3280      00
 3281              	.LASF185:
 3282 024d 63636364 		.ascii	"cccdCount\000"
 3282      436F756E 
 3282      7400
 3283              	.LASF20:
 3284 0257 4359424C 		.ascii	"CYBLE_EVT_TIMEOUT\000"
 3284      455F4556 
 3284      545F5449 
 3284      4D454F55 
 3284      5400
 3285              	.LASF4:
 3286 0269 6C6F6E67 		.ascii	"long int\000"
 3286      20696E74 
 3286      00
 3287              	.LASF113:
 3288 0272 4359424C 		.ascii	"CYBLE_ERROR_HARDWARE_FAILURE\000"
 3288      455F4552 
 3288      524F525F 
 3288      48415244 
 3288      57415245 
 3289              	.LASF136:
 3290 028f 4359424C 		.ascii	"CYBLE_PRIVACY_1_2_CONFIG_PARAM_T\000"
 3290      455F5052 
 3290      49564143 
 3290      595F315F 
 3290      325F434F 
ARM GAS  C:\Users\TTSS\AppData\Local\Temp\ccKqB1vQ.s 			page 86


 3291              	.LASF214:
 3292 02b0 4379426C 		.ascii	"CyBle_GappStopAdvertisement\000"
 3292      655F4761 
 3292      70705374 
 3292      6F704164 
 3292      76657274 
 3293              	.LASF232:
 3294 02cc 6379426C 		.ascii	"cyBle_discoveryData\000"
 3294      655F6469 
 3294      73636F76 
 3294      65727944 
 3294      61746100 
 3295              	.LASF103:
 3296 02e0 4359424C 		.ascii	"CYBLE_ERROR_L2CAP_PSM_WRONG_ENCODING\000"
 3296      455F4552 
 3296      524F525F 
 3296      4C324341 
 3296      505F5053 
 3297              	.LASF94:
 3298 0305 4359424C 		.ascii	"CYBLE_ERROR_INSUFFICIENT_RESOURCES\000"
 3298      455F4552 
 3298      524F525F 
 3298      494E5355 
 3298      46464943 
 3299              	.LASF22:
 3300 0328 4359424C 		.ascii	"CYBLE_EVT_HCI_STATUS\000"
 3300      455F4556 
 3300      545F4843 
 3300      495F5354 
 3300      41545553 
 3301              	.LASF149:
 3302 033d 61647654 		.ascii	"advType\000"
 3302      79706500 
 3303              	.LASF36:
 3304 0345 4359424C 		.ascii	"CYBLE_EVT_GAPC_SCAN_START_STOP\000"
 3304      455F4556 
 3304      545F4741 
 3304      50435F53 
 3304      43414E5F 
 3305              	.LASF238:
 3306 0364 6379426C 		.ascii	"cyBle_busyStatus\000"
 3306      655F6275 
 3306      73795374 
 3306      61747573 
 3306      00
 3307              	.LASF141:
 3308 0375 4359424C 		.ascii	"CYBLE_GAPP_CONNECTABLE_UNDIRECTED_ADV\000"
 3308      455F4741 
 3308      50505F43 
 3308      4F4E4E45 
 3308      43544142 
 3309              	.LASF127:
 3310 039b 4359424C 		.ascii	"CYBLE_GAP_BD_ADDR_T\000"
 3310      455F4741 
 3310      505F4244 
 3310      5F414444 
 3310      525F5400 
ARM GAS  C:\Users\TTSS\AppData\Local\Temp\ccKqB1vQ.s 			page 87


 3311              	.LASF102:
 3312 03af 4359424C 		.ascii	"CYBLE_ERROR_SEC_FAILED\000"
 3312      455F4552 
 3312      524F525F 
 3312      5345435F 
 3312      4641494C 
 3313              	.LASF107:
 3314 03c6 4359424C 		.ascii	"CYBLE_ERROR_L2CAP_CHANNEL_NOT_FOUND\000"
 3314      455F4552 
 3314      524F525F 
 3314      4C324341 
 3314      505F4348 
 3315              	.LASF34:
 3316 03ea 4359424C 		.ascii	"CYBLE_EVT_GAP_ENCRYPT_CHANGE\000"
 3316      455F4556 
 3316      545F4741 
 3316      505F454E 
 3316      43525950 
 3317              	.LASF38:
 3318 0407 4359424C 		.ascii	"CYBLE_EVT_GAP_NUMERIC_COMPARISON_REQUEST\000"
 3318      455F4556 
 3318      545F4741 
 3318      505F4E55 
 3318      4D455249 
 3319              	.LASF191:
 3320 0430 4359424C 		.ascii	"CYBLE_STATE_ADVERTISING\000"
 3320      455F5354 
 3320      4154455F 
 3320      41445645 
 3320      52544953 
 3321              	.LASF6:
 3322 0448 6C6F6E67 		.ascii	"long long int\000"
 3322      206C6F6E 
 3322      6720696E 
 3322      7400
 3323              	.LASF0:
 3324 0456 7369676E 		.ascii	"signed char\000"
 3324      65642063 
 3324      68617200 
 3325              	.LASF19:
 3326 0462 4359424C 		.ascii	"CYBLE_EVT_STACK_ON\000"
 3326      455F4556 
 3326      545F5354 
 3326      41434B5F 
 3326      4F4E00
 3327              	.LASF166:
 3328 0475 4359424C 		.ascii	"CYBLE_GATT_DB_ATTR_HANDLE_T\000"
 3328      455F4741 
 3328      54545F44 
 3328      425F4154 
 3328      54525F48 
 3329              	.LASF110:
 3330 0491 4359424C 		.ascii	"CYBLE_ERROR_DEVICE_ALREADY_EXISTS\000"
 3330      455F4552 
 3330      524F525F 
 3330      44455649 
 3330      43455F41 
ARM GAS  C:\Users\TTSS\AppData\Local\Temp\ccKqB1vQ.s 			page 88


 3331              	.LASF97:
 3332 04b3 4359424C 		.ascii	"CYBLE_ERROR_NO_DEVICE_ENTITY\000"
 3332      455F4552 
 3332      524F525F 
 3332      4E4F5F44 
 3332      45564943 
 3333              	.LASF152:
 3334 04d0 64697265 		.ascii	"directAddr\000"
 3334      63744164 
 3334      647200
 3335              	.LASF26:
 3336 04db 4359424C 		.ascii	"CYBLE_EVT_GAP_AUTH_REQ\000"
 3336      455F4556 
 3336      545F4741 
 3336      505F4155 
 3336      54485F52 
 3337              	.LASF178:
 3338 04f2 7065726D 		.ascii	"permission\000"
 3338      69737369 
 3338      6F6E00
 3339              	.LASF58:
 3340 04fd 4359424C 		.ascii	"CYBLE_EVT_GATTC_READ_RSP\000"
 3340      455F4556 
 3340      545F4741 
 3340      5454435F 
 3340      52454144 
 3341              	.LASF122:
 3342 0516 4359424C 		.ascii	"CYBLE_ERROR_INVALID_STATE\000"
 3342      455F4552 
 3342      524F525F 
 3342      494E5641 
 3342      4C49445F 
 3343              	.LASF154:
 3344 0530 61647646 		.ascii	"advFilterPolicy\000"
 3344      696C7465 
 3344      72506F6C 
 3344      69637900 
 3345              	.LASF63:
 3346 0540 4359424C 		.ascii	"CYBLE_EVT_GATTS_WRITE_CMD_REQ\000"
 3346      455F4556 
 3346      545F4741 
 3346      5454535F 
 3346      57524954 
 3347              	.LASF148:
 3348 055e 61647649 		.ascii	"advIntvMax\000"
 3348      6E74764D 
 3348      617800
 3349              	.LASF76:
 3350 0569 4359424C 		.ascii	"CYBLE_EVT_L2CAP_COMMAND_REJ\000"
 3350      455F4556 
 3350      545F4C32 
 3350      4341505F 
 3350      434F4D4D 
 3351              	.LASF192:
 3352 0585 4359424C 		.ascii	"CYBLE_STATE_DISCONNECTED\000"
 3352      455F5354 
 3352      4154455F 
ARM GAS  C:\Users\TTSS\AppData\Local\Temp\ccKqB1vQ.s 			page 89


 3352      44495343 
 3352      4F4E4E45 
 3353              	.LASF31:
 3354 059e 4359424C 		.ascii	"CYBLE_EVT_GAPP_ADVERTISEMENT_START_STOP\000"
 3354      455F4556 
 3354      545F4741 
 3354      50505F41 
 3354      44564552 
 3355              	.LASF132:
 3356 05c6 646C654D 		.ascii	"dleMaxRxCapability\000"
 3356      61785278 
 3356      43617061 
 3356      62696C69 
 3356      747900
 3357              	.LASF108:
 3358 05d9 4359424C 		.ascii	"CYBLE_ERROR_L2CAP_PSM_NOT_IN_RANGE\000"
 3358      455F4552 
 3358      524F525F 
 3358      4C324341 
 3358      505F5053 
 3359              	.LASF52:
 3360 05fc 4359424C 		.ascii	"CYBLE_EVT_GATTS_XCNHG_MTU_REQ\000"
 3360      455F4556 
 3360      545F4741 
 3360      5454535F 
 3360      58434E48 
 3361              	.LASF9:
 3362 061a 75696E74 		.ascii	"uint8\000"
 3362      3800
 3363              	.LASF159:
 3364 0620 7363616E 		.ascii	"scanRspData\000"
 3364      52737044 
 3364      61746100 
 3365              	.LASF125:
 3366 062c 62644164 		.ascii	"bdAddr\000"
 3366      647200
 3367              	.LASF66:
 3368 0633 4359424C 		.ascii	"CYBLE_EVT_GATTC_EXEC_WRITE_RSP\000"
 3368      455F4556 
 3368      545F4741 
 3368      5454435F 
 3368      45584543 
 3369              	.LASF172:
 3370 0652 4359424C 		.ascii	"CYBLE_GATTS_ATT_PACK_VAL_LEN_T\000"
 3370      455F4741 
 3370      5454535F 
 3370      4154545F 
 3370      5041434B 
 3371              	.LASF13:
 3372 0671 646F7562 		.ascii	"double\000"
 3372      6C6500
 3373              	.LASF162:
 3374 0678 64697363 		.ascii	"discMode\000"
 3374      4D6F6465 
 3374      00
 3375              	.LASF91:
 3376 0681 4359424C 		.ascii	"CYBLE_ERROR_INVALID_PARAMETER\000"
ARM GAS  C:\Users\TTSS\AppData\Local\Temp\ccKqB1vQ.s 			page 90


 3376      455F4552 
 3376      524F525F 
 3376      494E5641 
 3376      4C49445F 
 3377              	.LASF183:
 3378 069f 73746163 		.ascii	"stackFlashptr\000"
 3378      6B466C61 
 3378      73687074 
 3378      7200
 3379              	.LASF175:
 3380 06ad 4359424C 		.ascii	"CYBLE_GATTS_ATT_VALUE_T\000"
 3380      455F4741 
 3380      5454535F 
 3380      4154545F 
 3380      56414C55 
 3381              	.LASF176:
 3382 06c5 61747448 		.ascii	"attHandle\000"
 3382      616E646C 
 3382      6500
 3383              	.LASF11:
 3384 06cf 75696E74 		.ascii	"uint32\000"
 3384      333200
 3385              	.LASF216:
 3386 06d6 64657374 		.ascii	"destBuffer\000"
 3386      42756666 
 3386      657200
 3387              	.LASF89:
 3388 06e1 4359424C 		.ascii	"CYBLE_EVT_MAX\000"
 3388      455F4556 
 3388      545F4D41 
 3388      5800
 3389              	.LASF90:
 3390 06ef 4359424C 		.ascii	"CYBLE_ERROR_OK\000"
 3390      455F4552 
 3390      524F525F 
 3390      4F4B00
 3391              	.LASF49:
 3392 06fe 4359424C 		.ascii	"CYBLE_EVT_GATTC_ERROR_RSP\000"
 3392      455F4556 
 3392      545F4741 
 3392      5454435F 
 3392      4552524F 
 3393              	.LASF74:
 3394 0718 4359424C 		.ascii	"CYBLE_EVT_L2CAP_CONN_PARAM_UPDATE_REQ\000"
 3394      455F4556 
 3394      545F4C32 
 3394      4341505F 
 3394      434F4E4E 
 3395              	.LASF160:
 3396 073e 7363616E 		.ascii	"scanRspDataLen\000"
 3396      52737044 
 3396      6174614C 
 3396      656E00
 3397              	.LASF84:
 3398 074d 4359424C 		.ascii	"CYBLE_EVT_L2CAP_CBFC_DATA_WRITE_IND\000"
 3398      455F4556 
 3398      545F4C32 
ARM GAS  C:\Users\TTSS\AppData\Local\Temp\ccKqB1vQ.s 			page 91


 3398      4341505F 
 3398      43424643 
 3399              	.LASF177:
 3400 0771 61747454 		.ascii	"attType\000"
 3400      79706500 
 3401              	.LASF157:
 3402 0779 61647644 		.ascii	"advDataLen\000"
 3402      6174614C 
 3402      656E00
 3403              	.LASF46:
 3404 0784 4359424C 		.ascii	"CYBLE_EVT_GAP_SCAN_REQ_RECVD\000"
 3404      455F4556 
 3404      545F4741 
 3404      505F5343 
 3404      414E5F52 
 3405              	.LASF7:
 3406 07a1 6C6F6E67 		.ascii	"long long unsigned int\000"
 3406      206C6F6E 
 3406      6720756E 
 3406      7369676E 
 3406      65642069 
 3407              	.LASF224:
 3408 07b8 76616C75 		.ascii	"value\000"
 3408      6500
 3409              	.LASF73:
 3410 07be 4359424C 		.ascii	"CYBLE_EVT_GATTC_LONG_PROCEDURE_END\000"
 3410      455F4556 
 3410      545F4741 
 3410      5454435F 
 3410      4C4F4E47 
 3411              	.LASF71:
 3412 07e1 4359424C 		.ascii	"CYBLE_EVT_GATTC_STOP_CMD_COMPLETE\000"
 3412      455F4556 
 3412      545F4741 
 3412      5454435F 
 3412      53544F50 
 3413              	.LASF21:
 3414 0803 4359424C 		.ascii	"CYBLE_EVT_HARDWARE_ERROR\000"
 3414      455F4556 
 3414      545F4841 
 3414      52445741 
 3414      52455F45 
 3415              	.LASF95:
 3416 081c 4359424C 		.ascii	"CYBLE_ERROR_OOB_NOT_AVAILABLE\000"
 3416      455F4552 
 3416      524F525F 
 3416      4F4F425F 
 3416      4E4F545F 
 3417              	.LASF86:
 3418 083a 4359424C 		.ascii	"CYBLE_EVT_LE_PING_AUTH_TIMEOUT\000"
 3418      455F4556 
 3418      545F4C45 
 3418      5F50494E 
 3418      475F4155 
 3419              	.LASF202:
 3420 0859 4379426C 		.ascii	"CyBle_ServiceInit\000"
 3420      655F5365 
ARM GAS  C:\Users\TTSS\AppData\Local\Temp\ccKqB1vQ.s 			page 92


 3420      72766963 
 3420      65496E69 
 3420      7400
 3421              	.LASF164:
 3422 086b 61647654 		.ascii	"advTo\000"
 3422      6F00
 3423              	.LASF5:
 3424 0871 6C6F6E67 		.ascii	"long unsigned int\000"
 3424      20756E73 
 3424      69676E65 
 3424      6420696E 
 3424      7400
 3425              	.LASF45:
 3426 0883 4359424C 		.ascii	"CYBLE_EVT_GAP_CONN_ESTB\000"
 3426      455F4556 
 3426      545F4741 
 3426      505F434F 
 3426      4E4E5F45 
 3427              	.LASF61:
 3428 089b 4359424C 		.ascii	"CYBLE_EVT_GATTS_WRITE_REQ\000"
 3428      455F4556 
 3428      545F4741 
 3428      5454535F 
 3428      57524954 
 3429              	.LASF53:
 3430 08b5 4359424C 		.ascii	"CYBLE_EVT_GATTC_XCHNG_MTU_RSP\000"
 3430      455F4556 
 3430      545F4741 
 3430      5454435F 
 3430      5843484E 
 3431              	.LASF70:
 3432 08d3 4359424C 		.ascii	"CYBLE_EVT_GATTS_DATA_SIGNED_CMD_REQ\000"
 3432      455F4556 
 3432      545F4741 
 3432      5454535F 
 3432      44415441 
 3433              	.LASF218:
 3434 08f7 6E616D65 		.ascii	"name\000"
 3434      00
 3435              	.LASF206:
 3436 08fc 70726976 		.ascii	"privacyConfigParams\000"
 3436      61637943 
 3436      6F6E6669 
 3436      67506172 
 3436      616D7300 
 3437              	.LASF173:
 3438 0910 61747446 		.ascii	"attFormatValue\000"
 3438      6F726D61 
 3438      7456616C 
 3438      756500
 3439              	.LASF161:
 3440 091f 4359424C 		.ascii	"CYBLE_GAPP_SCAN_RSP_DATA_T\000"
 3440      455F4741 
 3440      50505F53 
 3440      43414E5F 
 3440      5253505F 
 3441              	.LASF129:
ARM GAS  C:\Users\TTSS\AppData\Local\Temp\ccKqB1vQ.s 			page 93


 3442 093a 62756666 		.ascii	"bufferUnits\000"
 3442      6572556E 
 3442      69747300 
 3443              	.LASF119:
 3444 0946 4359424C 		.ascii	"CYBLE_ERROR_NTF_DISABLED\000"
 3444      455F4552 
 3444      524F525F 
 3444      4E54465F 
 3444      44495341 
 3445              	.LASF18:
 3446 095f 4359424C 		.ascii	"CYBLE_EVT_HOST_INVALID\000"
 3446      455F4556 
 3446      545F484F 
 3446      53545F49 
 3446      4E56414C 
 3447              	.LASF56:
 3448 0976 4359424C 		.ascii	"CYBLE_EVT_GATTC_FIND_INFO_RSP\000"
 3448      455F4556 
 3448      545F4741 
 3448      5454435F 
 3448      46494E44 
 3449              	.LASF24:
 3450 0994 4359424C 		.ascii	"CYBLE_EVT_MEMORY_REQUEST\000"
 3450      455F4556 
 3450      545F4D45 
 3450      4D4F5259 
 3450      5F524551 
 3451              	.LASF226:
 3452 09ad 6379426C 		.ascii	"cyBle_initVar\000"
 3452      655F696E 
 3452      69745661 
 3452      7200
 3453              	.LASF27:
 3454 09bb 4359424C 		.ascii	"CYBLE_EVT_GAP_PASSKEY_ENTRY_REQUEST\000"
 3454      455F4556 
 3454      545F4741 
 3454      505F5041 
 3454      53534B45 
 3455              	.LASF32:
 3456 09df 4359424C 		.ascii	"CYBLE_EVT_GAP_DEVICE_CONNECTED\000"
 3456      455F4556 
 3456      545F4741 
 3456      505F4445 
 3456      56494345 
 3457              	.LASF170:
 3458 09fe 6D617841 		.ascii	"maxAttrLength\000"
 3458      7474724C 
 3458      656E6774 
 3458      6800
 3459              	.LASF223:
 3460 0a0c 4379426C 		.ascii	"CyBle_Set16ByPtr\000"
 3460      655F5365 
 3460      74313642 
 3460      79507472 
 3460      00
 3461              	.LASF133:
 3462 0a1d 646C654E 		.ascii	"dleNumTxBuffer\000"
ARM GAS  C:\Users\TTSS\AppData\Local\Temp\ccKqB1vQ.s 			page 94


 3462      756D5478 
 3462      42756666 
 3462      657200
 3463              	.LASF47:
 3464 0a2c 4359424C 		.ascii	"CYBLE_EVT_GAP_AUTH_REQ_REPLY_ERR\000"
 3464      455F4556 
 3464      545F4741 
 3464      505F4155 
 3464      54485F52 
 3465              	.LASF210:
 3466 0a4d 4379426C 		.ascii	"CyBle_Start\000"
 3466      655F5374 
 3466      61727400 
 3467              	.LASF220:
 3468 0a59 4379426C 		.ascii	"CyBle_GapGetLocalName\000"
 3468      655F4761 
 3468      70476574 
 3468      4C6F6361 
 3468      6C4E616D 
 3469              	.LASF184:
 3470 0a6f 61747456 		.ascii	"attValuesCCCDFlashMemory\000"
 3470      616C7565 
 3470      73434343 
 3470      44466C61 
 3470      73684D65 
 3471              	.LASF167:
 3472 0a88 61637475 		.ascii	"actualLength\000"
 3472      616C4C65 
 3472      6E677468 
 3472      00
 3473              	.LASF237:
 3474 0a95 6379426C 		.ascii	"cyBle_state\000"
 3474      655F7374 
 3474      61746500 
 3475              	.LASF241:
 3476 0aa1 474E5520 		.ascii	"GNU C11 5.4.1 20160609 (release) [ARM/embedded-5-br"
 3476      43313120 
 3476      352E342E 
 3476      31203230 
 3476      31363036 
 3477 0ad4 616E6368 		.ascii	"anch revision 237715] -mcpu=cortex-m0 -mthumb -g -O"
 3477      20726576 
 3477      6973696F 
 3477      6E203233 
 3477      37373135 
 3478 0b07 30202D66 		.ascii	"0 -ffunction-sections -ffat-lto-objects\000"
 3478      66756E63 
 3478      74696F6E 
 3478      2D736563 
 3478      74696F6E 
 3479              	.LASF50:
 3480 0b2f 4359424C 		.ascii	"CYBLE_EVT_GATT_CONNECT_IND\000"
 3480      455F4556 
 3480      545F4741 
 3480      54545F43 
 3480      4F4E4E45 
 3481              	.LASF130:
ARM GAS  C:\Users\TTSS\AppData\Local\Temp\ccKqB1vQ.s 			page 95


 3482 0b4a 4359424C 		.ascii	"CYBLE_STK_APP_DATA_BUFF_T\000"
 3482      455F5354 
 3482      4B5F4150 
 3482      505F4441 
 3482      54415F42 
 3483              	.LASF219:
 3484 0b64 63686172 		.ascii	"charLen\000"
 3484      4C656E00 
 3485              	.LASF83:
 3486 0b6c 4359424C 		.ascii	"CYBLE_EVT_L2CAP_CBFC_TX_CREDIT_IND\000"
 3486      455F4556 
 3486      545F4C32 
 3486      4341505F 
 3486      43424643 
 3487              	.LASF25:
 3488 0b8f 4359424C 		.ascii	"CYBLE_EVT_GAPC_SCAN_PROGRESS_RESULT\000"
 3488      455F4556 
 3488      545F4741 
 3488      50435F53 
 3488      43414E5F 
 3489              	.LASF228:
 3490 0bb3 6379426C 		.ascii	"cyBle_eventHandlerFlag\000"
 3490      655F6576 
 3490      656E7448 
 3490      616E646C 
 3490      6572466C 
 3491              	.LASF48:
 3492 0bca 4359424C 		.ascii	"CYBLE_EVT_GAP_SMP_LOC_P256_KEYS_GEN_AND_SET_COMPLET"
 3492      455F4556 
 3492      545F4741 
 3492      505F534D 
 3492      505F4C4F 
 3493 0bfd 4500     		.ascii	"E\000"
 3494              	.LASF118:
 3495 0bff 4359424C 		.ascii	"CYBLE_ERROR_MAX\000"
 3495      455F4552 
 3495      524F525F 
 3495      4D415800 
 3496              	.LASF115:
 3497 0c0f 4359424C 		.ascii	"CYBLE_ERROR_FLASH_WRITE\000"
 3497      455F4552 
 3497      524F525F 
 3497      464C4153 
 3497      485F5752 
 3498              	.LASF55:
 3499 0c27 4359424C 		.ascii	"CYBLE_EVT_GATTC_READ_BY_TYPE_RSP\000"
 3499      455F4556 
 3499      545F4741 
 3499      5454435F 
 3499      52454144 
 3500              	.LASF234:
 3501 0c48 6379426C 		.ascii	"cyBle_discoveryModeInfo\000"
 3501      655F6469 
 3501      73636F76 
 3501      6572794D 
 3501      6F646549 
 3502              	.LASF17:
ARM GAS  C:\Users\TTSS\AppData\Local\Temp\ccKqB1vQ.s 			page 96


 3503 0c60 73697A65 		.ascii	"sizetype\000"
 3503      74797065 
 3503      00
 3504              	.LASF189:
 3505 0c69 4359424C 		.ascii	"CYBLE_STATE_INITIALIZING\000"
 3505      455F5354 
 3505      4154455F 
 3505      494E4954 
 3505      49414C49 
 3506              	.LASF150:
 3507 0c82 6F776E41 		.ascii	"ownAddrType\000"
 3507      64647254 
 3507      79706500 
 3508              	.LASF30:
 3509 0c8e 4359424C 		.ascii	"CYBLE_EVT_GAP_AUTH_FAILED\000"
 3509      455F4556 
 3509      545F4741 
 3509      505F4155 
 3509      54485F46 
 3510              	.LASF217:
 3511 0ca8 4379426C 		.ascii	"CyBle_GapSetLocalName\000"
 3511      655F4761 
 3511      70536574 
 3511      4C6F6361 
 3511      6C4E616D 
 3512              	.LASF62:
 3513 0cbe 4359424C 		.ascii	"CYBLE_EVT_GATTC_WRITE_RSP\000"
 3513      455F4556 
 3513      545F4741 
 3513      5454435F 
 3513      57524954 
 3514              	.LASF43:
 3515 0cd8 4359424C 		.ascii	"CYBLE_EVT_GAPC_DIRECT_ADV_REPORT\000"
 3515      455F4556 
 3515      545F4741 
 3515      50435F44 
 3515      49524543 
 3516              	.LASF41:
 3517 0cf9 4359424C 		.ascii	"CYBLE_EVT_GAP_DATA_LENGTH_CHANGE\000"
 3517      455F4556 
 3517      545F4741 
 3517      505F4441 
 3517      54415F4C 
 3518              	.LASF186:
 3519 0d1a 626F756E 		.ascii	"boundedDevCount\000"
 3519      64656444 
 3519      6576436F 
 3519      756E7400 
 3520              	.LASF29:
 3521 0d2a 4359424C 		.ascii	"CYBLE_EVT_GAP_AUTH_COMPLETE\000"
 3521      455F4556 
 3521      545F4741 
 3521      505F4155 
 3521      54485F43 
 3522              	.LASF203:
 3523 0d46 61706952 		.ascii	"apiResult\000"
 3523      6573756C 
ARM GAS  C:\Users\TTSS\AppData\Local\Temp\ccKqB1vQ.s 			page 97


 3523      7400
 3524              	.LASF124:
 3525 0d50 4359424C 		.ascii	"CYBLE_API_RESULT_T\000"
 3525      455F4150 
 3525      495F5245 
 3525      53554C54 
 3525      5F5400
 3526              	.LASF209:
 3527 0d63 4379426C 		.ascii	"CyBle_Stop\000"
 3527      655F5374 
 3527      6F7000
 3528              	.LASF67:
 3529 0d6e 4359424C 		.ascii	"CYBLE_EVT_GATTC_HANDLE_VALUE_NTF\000"
 3529      455F4556 
 3529      545F4741 
 3529      5454435F 
 3529      48414E44 
 3530              	.LASF120:
 3531 0d8f 4359424C 		.ascii	"CYBLE_ERROR_IND_DISABLED\000"
 3531      455F4552 
 3531      524F525F 
 3531      494E445F 
 3531      44495341 
 3532              	.LASF215:
 3533 0da8 64657374 		.ascii	"dest\000"
 3533      00
 3534              	.LASF174:
 3535 0dad 61747456 		.ascii	"attValueUuid\000"
 3535      616C7565 
 3535      55756964 
 3535      00
 3536              	.LASF168:
 3537 0dba 61747447 		.ascii	"attGenericVal\000"
 3537      656E6572 
 3537      69635661 
 3537      6C00
 3538              	.LASF78:
 3539 0dc8 4359424C 		.ascii	"CYBLE_EVT_L2CAP_CBFC_CONN_CNF\000"
 3539      455F4556 
 3539      545F4C32 
 3539      4341505F 
 3539      43424643 
 3540              	.LASF236:
 3541 0de6 6379426C 		.ascii	"cyBle_flashStorage\000"
 3541      655F666C 
 3541      61736853 
 3541      746F7261 
 3541      676500
 3542              	.LASF54:
 3543 0df9 4359424C 		.ascii	"CYBLE_EVT_GATTC_READ_BY_GROUP_TYPE_RSP\000"
 3543      455F4556 
 3543      545F4741 
 3543      5454435F 
 3543      52454144 
 3544              	.LASF12:
 3545 0e20 666C6F61 		.ascii	"float\000"
 3545      7400
ARM GAS  C:\Users\TTSS\AppData\Local\Temp\ccKqB1vQ.s 			page 98


 3546              	.LASF240:
 3547 0e26 6379426C 		.ascii	"cyBle_advertisingIntervalType\000"
 3547      655F6164 
 3547      76657274 
 3547      6973696E 
 3547      67496E74 
 3548              	.LASF211:
 3549 0e44 4379426C 		.ascii	"CyBle_GappStartAdvertisement\000"
 3549      655F4761 
 3549      70705374 
 3549      61727441 
 3549      64766572 
 3550              	.LASF151:
 3551 0e61 64697265 		.ascii	"directAddrType\000"
 3551      63744164 
 3551      64725479 
 3551      706500
 3552              	.LASF77:
 3553 0e70 4359424C 		.ascii	"CYBLE_EVT_L2CAP_CBFC_CONN_IND\000"
 3553      455F4556 
 3553      545F4C32 
 3553      4341505F 
 3553      43424643 
 3554              	.LASF198:
 3555 0e8e 63656E74 		.ascii	"centralAddrResolutionCharHandle\000"
 3555      72616C41 
 3555      64647252 
 3555      65736F6C 
 3555      7574696F 
 3556              	.LASF100:
 3557 0eae 4359424C 		.ascii	"CYBLE_ERROR_TX_POWER_READ\000"
 3557      455F4552 
 3557      524F525F 
 3557      54585F50 
 3557      4F574552 
 3558              	.LASF212:
 3559 0ec8 63616C6C 		.ascii	"callbackFunc\000"
 3559      6261636B 
 3559      46756E63 
 3559      00
 3560              	.LASF180:
 3561 0ed5 61747456 		.ascii	"attValue\000"
 3561      616C7565 
 3561      00
 3562              	.LASF1:
 3563 0ede 756E7369 		.ascii	"unsigned char\000"
 3563      676E6564 
 3563      20636861 
 3563      7200
 3564              	.LASF10:
 3565 0eec 75696E74 		.ascii	"uint16\000"
 3565      313600
 3566              	.LASF39:
 3567 0ef3 4359424C 		.ascii	"CYBLE_EVT_GAP_KEYPRESS_NOTIFICATION\000"
 3567      455F4556 
 3567      545F4741 
 3567      505F4B45 
ARM GAS  C:\Users\TTSS\AppData\Local\Temp\ccKqB1vQ.s 			page 99


 3567      59505245 
 3568              	.LASF197:
 3569 0f17 70726566 		.ascii	"prefConnParamCharHandle\000"
 3569      436F6E6E 
 3569      50617261 
 3569      6D436861 
 3569      7248616E 
 3570              	.LASF121:
 3571 0f2f 4359424C 		.ascii	"CYBLE_ERROR_CHAR_IS_NOT_DISCOVERED\000"
 3571      455F4552 
 3571      524F525F 
 3571      43484152 
 3571      5F49535F 
 3572              	.LASF2:
 3573 0f52 73686F72 		.ascii	"short int\000"
 3573      7420696E 
 3573      7400
 3574              	.LASF68:
 3575 0f5c 4359424C 		.ascii	"CYBLE_EVT_GATTC_HANDLE_VALUE_IND\000"
 3575      455F4556 
 3575      545F4741 
 3575      5454435F 
 3575      48414E44 
 3576              	.LASF222:
 3577 0f7d 4379426C 		.ascii	"CyBle_ChangeAdDeviceAddress\000"
 3577      655F4368 
 3577      616E6765 
 3577      41644465 
 3577      76696365 
 3578              	.LASF196:
 3579 0f99 61707065 		.ascii	"appearanceCharHandle\000"
 3579      6172616E 
 3579      63654368 
 3579      61724861 
 3579      6E646C65 
 3580              	.LASF87:
 3581 0fae 4359424C 		.ascii	"CYBLE_EVT_HCI_PKT\000"
 3581      455F4556 
 3581      545F4843 
 3581      495F504B 
 3581      5400
 3582              	.LASF96:
 3583 0fc0 4359424C 		.ascii	"CYBLE_ERROR_NO_CONNECTION\000"
 3583      455F4552 
 3583      524F525F 
 3583      4E4F5F43 
 3583      4F4E4E45 
 3584              	.LASF194:
 3585 0fda 67617053 		.ascii	"gapServiceCharHandle\000"
 3585      65727669 
 3585      63654368 
 3585      61724861 
 3585      6E646C65 
 3586              	.LASF208:
 3587 0fef 66656174 		.ascii	"featureHeapReq\000"
 3587      75726548 
 3587      65617052 
ARM GAS  C:\Users\TTSS\AppData\Local\Temp\ccKqB1vQ.s 			page 100


 3587      657100
 3588              	.LASF64:
 3589 0ffe 4359424C 		.ascii	"CYBLE_EVT_GATTS_PREP_WRITE_REQ\000"
 3589      455F4556 
 3589      545F4741 
 3589      5454535F 
 3589      50524550 
 3590              	.LASF147:
 3591 101d 61647649 		.ascii	"advIntvMin\000"
 3591      6E74764D 
 3591      696E00
 3592              	.LASF145:
 3593 1028 4359424C 		.ascii	"CYBLE_GAPP_CONNECTABLE_LOW_DC_DIRECTED_ADV\000"
 3593      455F4741 
 3593      50505F43 
 3593      4F4E4E45 
 3593      43544142 
 3594              	.LASF156:
 3595 1053 61647644 		.ascii	"advData\000"
 3595      61746100 
 3596              	.LASF139:
 3597 105b 66656174 		.ascii	"feature_mask\000"
 3597      7572655F 
 3597      6D61736B 
 3597      00
 3598              	.LASF116:
 3599 1068 4359424C 		.ascii	"CYBLE_ERROR_LL_SAME_TRANSACTION_COLLISION\000"
 3599      455F4552 
 3599      524F525F 
 3599      4C4C5F53 
 3599      414D455F 
 3600              	.LASF69:
 3601 1092 4359424C 		.ascii	"CYBLE_EVT_GATTS_HANDLE_VALUE_CNF\000"
 3601      455F4556 
 3601      545F4741 
 3601      5454535F 
 3601      48414E44 
 3602              	.LASF98:
 3603 10b3 4359424C 		.ascii	"CYBLE_ERROR_REPEATED_ATTEMPTS\000"
 3603      455F4552 
 3603      524F525F 
 3603      52455045 
 3603      41544544 
 3604              	.LASF44:
 3605 10d1 4359424C 		.ascii	"CYBLE_EVT_GAP_SMP_NEGOTIATED_AUTH_INFO\000"
 3605      455F4556 
 3605      545F4741 
 3605      505F534D 
 3605      505F4E45 
 3606              	.LASF204:
 3607 10f8 6379426C 		.ascii	"cyBle_stackDataBuff\000"
 3607      655F7374 
 3607      61636B44 
 3607      61746142 
 3607      75666600 
 3608              	.LASF235:
 3609 110c 6379426C 		.ascii	"cyBle_gattDB\000"
ARM GAS  C:\Users\TTSS\AppData\Local\Temp\ccKqB1vQ.s 			page 101


 3609      655F6761 
 3609      74744442 
 3609      00
 3610              	.LASF123:
 3611 1119 4359424C 		.ascii	"CYBLE_ERROR_STACK_BUSY\000"
 3611      455F4552 
 3611      524F525F 
 3611      53544143 
 3611      4B5F4255 
 3612              	.LASF16:
 3613 1130 6C6F6E67 		.ascii	"long double\000"
 3613      20646F75 
 3613      626C6500 
 3614              	.LASF15:
 3615 113c 63686172 		.ascii	"char\000"
 3615      00
 3616              	.LASF101:
 3617 1141 4359424C 		.ascii	"CYBLE_ERROR_BT_ON_NOT_COMPLETED\000"
 3617      455F4552 
 3617      524F525F 
 3617      42545F4F 
 3617      4E5F4E4F 
 3618              	.LASF243:
 3619 1161 433A5C55 		.ascii	"C:\\Users\\TTSS\\Documents\\Repositories\\hackAIR-P"
 3619      73657273 
 3619      5C545453 
 3619      535C446F 
 3619      63756D65 
 3620 118f 536F435C 		.ascii	"SoC\\PPD42 - Led Dust Sensor\\PSoC Firmware\\PSoC C"
 3620      50504434 
 3620      32202D20 
 3620      4C656420 
 3620      44757374 
 3621 11bf 72656174 		.ascii	"reator Project\\PwmLedSensor_PPD42.cydsn\000"
 3621      6F722050 
 3621      726F6A65 
 3621      63745C50 
 3621      776D4C65 
 3622              	.LASF33:
 3623 11e7 4359424C 		.ascii	"CYBLE_EVT_GAP_DEVICE_DISCONNECTED\000"
 3623      455F4556 
 3623      545F4741 
 3623      505F4445 
 3623      56494345 
 3624              	.LASF213:
 3625 1209 61647665 		.ascii	"advertisingIntervalType\000"
 3625      72746973 
 3625      696E6749 
 3625      6E746572 
 3625      76616C54 
 3626              	.LASF8:
 3627 1221 756E7369 		.ascii	"unsigned int\000"
 3627      676E6564 
 3627      20696E74 
 3627      00
 3628              	.LASF179:
 3629 122e 61747445 		.ascii	"attEndHandle\000"
ARM GAS  C:\Users\TTSS\AppData\Local\Temp\ccKqB1vQ.s 			page 102


 3629      6E644861 
 3629      6E646C65 
 3629      00
 3630              	.LASF72:
 3631 123b 4359424C 		.ascii	"CYBLE_EVT_GATTS_READ_CHAR_VAL_ACCESS_REQ\000"
 3631      455F4556 
 3631      545F4741 
 3631      5454535F 
 3631      52454144 
 3632              	.LASF128:
 3633 1264 62756666 		.ascii	"bufferSize\000"
 3633      65725369 
 3633      7A6500
 3634              	.LASF155:
 3635 126f 4359424C 		.ascii	"CYBLE_GAPP_DISC_PARAM_T\000"
 3635      455F4741 
 3635      50505F44 
 3635      4953435F 
 3635      50415241 
 3636              	.LASF14:
 3637 1287 63686172 		.ascii	"char8\000"
 3637      3800
 3638              	.LASF239:
 3639 128d 6379426C 		.ascii	"cyBle_gaps\000"
 3639      655F6761 
 3639      707300
 3640              	.LASF111:
 3641 1298 4359424C 		.ascii	"CYBLE_ERROR_FLASH_WRITE_NOT_PERMITED\000"
 3641      455F4552 
 3641      524F525F 
 3641      464C4153 
 3641      485F5752 
 3642              	.LASF106:
 3643 12bd 4359424C 		.ascii	"CYBLE_ERROR_L2CAP_CONNECTION_ENTITY_NOT_FOUND\000"
 3643      455F4552 
 3643      524F525F 
 3643      4C324341 
 3643      505F434F 
 3644              	.LASF140:
 3645 12eb 4359424C 		.ascii	"CYBLE_STACK_CONFIG_PARAM_T\000"
 3645      455F5354 
 3645      41434B5F 
 3645      434F4E46 
 3645      49475F50 
 3646              	.LASF143:
 3647 1306 4359424C 		.ascii	"CYBLE_GAPP_SCANNABLE_UNDIRECTED_ADV\000"
 3647      455F4741 
 3647      50505F53 
 3647      43414E4E 
 3647      41424C45 
 3648              	.LASF28:
 3649 132a 4359424C 		.ascii	"CYBLE_EVT_GAP_PASSKEY_DISPLAY_REQUEST\000"
 3649      455F4556 
 3649      545F4741 
 3649      505F5041 
 3649      53534B45 
 3650              	.LASF199:
ARM GAS  C:\Users\TTSS\AppData\Local\Temp\ccKqB1vQ.s 			page 103


 3651 1350 7270614F 		.ascii	"rpaOnlyCharHandle\000"
 3651      6E6C7943 
 3651      68617248 
 3651      616E646C 
 3651      6500
 3652              	.LASF3:
 3653 1362 73686F72 		.ascii	"short unsigned int\000"
 3653      7420756E 
 3653      7369676E 
 3653      65642069 
 3653      6E7400
 3654              	.LASF181:
 3655 1375 4359424C 		.ascii	"CYBLE_GATTS_DB_T\000"
 3655      455F4741 
 3655      5454535F 
 3655      44425F54 
 3655      00
 3656              	.LASF92:
 3657 1386 4359424C 		.ascii	"CYBLE_ERROR_INVALID_OPERATION\000"
 3657      455F4552 
 3657      524F525F 
 3657      494E5641 
 3657      4C49445F 
 3658              	.LASF138:
 3659 13a4 70726976 		.ascii	"privacyConfig\000"
 3659      61637943 
 3659      6F6E6669 
 3659      6700
 3660              	.LASF182:
 3661 13b2 4359424C 		.ascii	"CYBLE_CALLBACK_T\000"
 3661      455F4341 
 3661      4C4C4241 
 3661      434B5F54 
 3661      00
 3662              	.LASF169:
 3663 13c3 4359424C 		.ascii	"CYBLE_GATTS_ATT_GEN_VAL_LEN_T\000"
 3663      455F4741 
 3663      5454535F 
 3663      4154545F 
 3663      47454E5F 
 3664              	.LASF165:
 3665 13e1 4359424C 		.ascii	"CYBLE_GAPP_DISC_MODE_INFO_T\000"
 3665      455F4741 
 3665      50505F44 
 3665      4953435F 
 3665      4D4F4445 
 3666              	.LASF163:
 3667 13fd 61647650 		.ascii	"advParam\000"
 3667      6172616D 
 3667      00
 3668              	.LASF200:
 3669 1406 4359424C 		.ascii	"CYBLE_GAPS_T\000"
 3669      455F4741 
 3669      50535F54 
 3669      00
 3670              	.LASF146:
 3671 1413 4359424C 		.ascii	"CYBLE_GAPP_ADV_T\000"
ARM GAS  C:\Users\TTSS\AppData\Local\Temp\ccKqB1vQ.s 			page 104


 3671      455F4741 
 3671      50505F41 
 3671      44565F54 
 3671      00
 3672              	.LASF187:
 3673 1424 43595F42 		.ascii	"CY_BLE_FLASH_STORAGE\000"
 3673      4C455F46 
 3673      4C415348 
 3673      5F53544F 
 3673      52414745 
 3674              	.LASF193:
 3675 1439 4359424C 		.ascii	"CYBLE_STATE_T\000"
 3675      455F5354 
 3675      4154455F 
 3675      5400
 3676              	.LASF104:
 3677 1447 4359424C 		.ascii	"CYBLE_ERROR_L2CAP_PSM_ALREADY_REGISTERED\000"
 3677      455F4552 
 3677      524F525F 
 3677      4C324341 
 3677      505F5053 
 3678              	.LASF144:
 3679 1470 4359424C 		.ascii	"CYBLE_GAPP_NON_CONNECTABLE_UNDIRECTED_ADV\000"
 3679      455F4741 
 3679      50505F4E 
 3679      4F4E5F43 
 3679      4F4E4E45 
 3680              	.LASF59:
 3681 149a 4359424C 		.ascii	"CYBLE_EVT_GATTC_READ_BLOB_RSP\000"
 3681      455F4556 
 3681      545F4741 
 3681      5454435F 
 3681      52454144 
 3682              	.LASF171:
 3683 14b8 61747447 		.ascii	"attGenericValLen\000"
 3683      656E6572 
 3683      69635661 
 3683      6C4C656E 
 3683      00
 3684              	.LASF207:
 3685 14c9 73746163 		.ascii	"stackConfig\000"
 3685      6B436F6E 
 3685      66696700 
 3686              	.LASF229:
 3687 14d5 6379426C 		.ascii	"cyBle_deviceAddress\000"
 3687      655F6465 
 3687      76696365 
 3687      41646472 
 3687      65737300 
 3688              	.LASF233:
 3689 14e9 6379426C 		.ascii	"cyBle_scanRspData\000"
 3689      655F7363 
 3689      616E5273 
 3689      70446174 
 3689      6100
 3690              	.LASF112:
 3691 14fb 4359424C 		.ascii	"CYBLE_ERROR_MIC_AUTH_FAILED\000"
ARM GAS  C:\Users\TTSS\AppData\Local\Temp\ccKqB1vQ.s 			page 105


 3691      455F4552 
 3691      524F525F 
 3691      4D49435F 
 3691      41555448 
 3692              	.LASF134:
 3693 1517 4359424C 		.ascii	"CYBLE_DLE_CONFIG_PARAM_T\000"
 3693      455F444C 
 3693      455F434F 
 3693      4E464947 
 3693      5F504152 
 3694              	.LASF105:
 3695 1530 4359424C 		.ascii	"CYBLE_ERROR_L2CAP_PSM_NOT_REGISTERED\000"
 3695      455F4552 
 3695      524F525F 
 3695      4C324341 
 3695      505F5053 
 3696              	.LASF230:
 3697 1555 6379426C 		.ascii	"cyBle_sflashDeviceAddress\000"
 3697      655F7366 
 3697      6C617368 
 3697      44657669 
 3697      63654164 
 3698              	.LASF190:
 3699 156f 4359424C 		.ascii	"CYBLE_STATE_CONNECTED\000"
 3699      455F5354 
 3699      4154455F 
 3699      434F4E4E 
 3699      45435445 
 3700              	.LASF57:
 3701 1585 4359424C 		.ascii	"CYBLE_EVT_GATTC_FIND_BY_TYPE_VALUE_RSP\000"
 3701      455F4556 
 3701      545F4741 
 3701      5454435F 
 3701      46494E44 
 3702              	.LASF99:
 3703 15ac 4359424C 		.ascii	"CYBLE_ERROR_GAP_ROLE\000"
 3703      455F4552 
 3703      524F525F 
 3703      4741505F 
 3703      524F4C45 
 3704              	.LASF137:
 3705 15c1 646C6543 		.ascii	"dleConfig\000"
 3705      6F6E6669 
 3705      6700
 3706              	.LASF37:
 3707 15cb 4359424C 		.ascii	"CYBLE_EVT_GAP_KEYINFO_EXCHNGE_CMPLT\000"
 3707      455F4556 
 3707      545F4741 
 3707      505F4B45 
 3707      59494E46 
 3708              	.LASF221:
 3709 15ef 4379426C 		.ascii	"CyBle_Get16ByPtr\000"
 3709      655F4765 
 3709      74313642 
 3709      79507472 
 3709      00
 3710              	.LASF79:
ARM GAS  C:\Users\TTSS\AppData\Local\Temp\ccKqB1vQ.s 			page 106


 3711 1600 4359424C 		.ascii	"CYBLE_EVT_L2CAP_CBFC_DISCONN_IND\000"
 3711      455F4556 
 3711      545F4C32 
 3711      4341505F 
 3711      43424643 
 3712              	.LASF85:
 3713 1621 4359424C 		.ascii	"CYBLE_EVT_PENDING_FLASH_WRITE\000"
 3713      455F4556 
 3713      545F5045 
 3713      4E44494E 
 3713      475F464C 
 3714              	.LASF201:
 3715 163f 4379426C 		.ascii	"CyBle_Init\000"
 3715      655F496E 
 3715      697400
 3716              	.LASF75:
 3717 164a 4359424C 		.ascii	"CYBLE_EVT_L2CAP_CONN_PARAM_UPDATE_RSP\000"
 3717      455F4556 
 3717      545F4C32 
 3717      4341505F 
 3717      434F4E4E 
 3718              	.LASF242:
 3719 1670 47656E65 		.ascii	"Generated_Source\\PSoC4\\BLE.c\000"
 3719      72617465 
 3719      645F536F 
 3719      75726365 
 3719      5C50536F 
 3720              	.LASF42:
 3721 168d 4359424C 		.ascii	"CYBLE_EVT_GAP_ENHANCE_CONN_COMPLETE\000"
 3721      455F4556 
 3721      545F4741 
 3721      505F454E 
 3721      48414E43 
 3722              	.LASF195:
 3723 16b1 64657669 		.ascii	"deviceNameCharHandle\000"
 3723      63654E61 
 3723      6D654368 
 3723      61724861 
 3723      6E646C65 
 3724              	.LASF51:
 3725 16c6 4359424C 		.ascii	"CYBLE_EVT_GATT_DISCONNECT_IND\000"
 3725      455F4556 
 3725      545F4741 
 3725      54545F44 
 3725      4953434F 
 3726              	.LASF109:
 3727 16e4 4359424C 		.ascii	"CYBLE_ERROR_GATT_DB_INVALID_ATTR_HANDLE\000"
 3727      455F4552 
 3727      524F525F 
 3727      47415454 
 3727      5F44425F 
 3728              	.LASF88:
 3729 170c 4359424C 		.ascii	"CYBLE_EVT_FLASH_CORRUPT\000"
 3729      455F4556 
 3729      545F464C 
 3729      4153485F 
 3729      434F5252 
ARM GAS  C:\Users\TTSS\AppData\Local\Temp\ccKqB1vQ.s 			page 107


 3730              	.LASF135:
 3731 1724 7265736F 		.ascii	"resolvingListSize\000"
 3731      6C76696E 
 3731      674C6973 
 3731      7453697A 
 3731      6500
 3732              		.ident	"GCC: (GNU Tools for ARM Embedded Processors) 5.4.1 20160609 (release) [ARM/embedded-5-bran
