ARM GAS  C:\Users\TTSS\AppData\Local\Temp\ccySleeg.s 			page 1


   1              		.syntax unified
   2              		.cpu cortex-m0
   3              		.fpu softvfp
   4              		.eabi_attribute 20, 1
   5              		.eabi_attribute 21, 1
   6              		.eabi_attribute 23, 3
   7              		.eabi_attribute 24, 1
   8              		.eabi_attribute 25, 1
   9              		.eabi_attribute 26, 1
  10              		.eabi_attribute 30, 6
  11              		.eabi_attribute 34, 0
  12              		.eabi_attribute 18, 4
  13              		.thumb
  14              		.syntax unified
  15              		.file	"BLE_eventHandler.c"
  16              		.text
  17              	.Ltext0:
  18              		.cfi_sections	.debug_frame
  19              		.comm	cyBle_connHandle,2,4
  20              		.comm	cyBle_eventHandlerFlag,1,1
  21              		.comm	cyBle_busyStatus,1,1
  22              		.global	cyBle_gaps
  23              		.section	.rodata
  24              		.align	2
  25              		.type	cyBle_gaps, %object
  26              		.size	cyBle_gaps, 12
  27              	cyBle_gaps:
  28 0000 0100     		.short	1
  29 0002 0300     		.short	3
  30 0004 0500     		.short	5
  31 0006 0000     		.short	0
  32 0008 0000     		.short	0
  33 000a 0000     		.short	0
  34              		.comm	cyBle_advertisingIntervalType,1,1
  35              		.global	cyBle_authInfo
  36              		.data
  37              		.align	2
  38              		.type	cyBle_authInfo, %object
  39              		.size	cyBle_authInfo, 5
  40              	cyBle_authInfo:
  41 0000 10       		.byte	16
  42 0001 01       		.byte	1
  43 0002 10       		.byte	16
  44 0003 00       		.byte	0
  45 0004 01       		.byte	1
  46              		.section	.text.CyBle_WriteReqHandler,"ax",%progbits
  47              		.align	2
  48              		.code	16
  49              		.thumb_func
  50              		.type	CyBle_WriteReqHandler, %function
  51              	CyBle_WriteReqHandler:
  52              	.LFB2:
  53              		.file 1 "Generated_Source\\PSoC4\\BLE_eventHandler.c"
   1:Generated_Source\PSoC4/BLE_eventHandler.c **** /***************************************************************************//**
   2:Generated_Source\PSoC4/BLE_eventHandler.c **** * \file CYBLE_eventHandler.c
   3:Generated_Source\PSoC4/BLE_eventHandler.c **** * \version 3.40
   4:Generated_Source\PSoC4/BLE_eventHandler.c **** * 
ARM GAS  C:\Users\TTSS\AppData\Local\Temp\ccySleeg.s 			page 2


   5:Generated_Source\PSoC4/BLE_eventHandler.c **** * \brief
   6:Generated_Source\PSoC4/BLE_eventHandler.c **** *  This file contains the source code for the Event Handler State Machine
   7:Generated_Source\PSoC4/BLE_eventHandler.c **** *  of the BLE Component.
   8:Generated_Source\PSoC4/BLE_eventHandler.c **** * 
   9:Generated_Source\PSoC4/BLE_eventHandler.c **** ********************************************************************************
  10:Generated_Source\PSoC4/BLE_eventHandler.c **** * \copyright
  11:Generated_Source\PSoC4/BLE_eventHandler.c **** * Copyright 2014-2016, Cypress Semiconductor Corporation.  All rights reserved.
  12:Generated_Source\PSoC4/BLE_eventHandler.c **** * You may use this file only in accordance with the license, terms, conditions,
  13:Generated_Source\PSoC4/BLE_eventHandler.c **** * disclaimers, and limitations in the end user license agreement accompanying
  14:Generated_Source\PSoC4/BLE_eventHandler.c **** * the software package with which this file was provided.
  15:Generated_Source\PSoC4/BLE_eventHandler.c **** *******************************************************************************/
  16:Generated_Source\PSoC4/BLE_eventHandler.c **** 
  17:Generated_Source\PSoC4/BLE_eventHandler.c **** #include "BLE_eventHandler.h"
  18:Generated_Source\PSoC4/BLE_eventHandler.c **** 
  19:Generated_Source\PSoC4/BLE_eventHandler.c **** 
  20:Generated_Source\PSoC4/BLE_eventHandler.c **** /***************************************
  21:Generated_Source\PSoC4/BLE_eventHandler.c **** * Private Function Prototypes
  22:Generated_Source\PSoC4/BLE_eventHandler.c **** ***************************************/
  23:Generated_Source\PSoC4/BLE_eventHandler.c **** 
  24:Generated_Source\PSoC4/BLE_eventHandler.c **** static void CyBle_GattDisconnectEventHandler(void);
  25:Generated_Source\PSoC4/BLE_eventHandler.c **** static void CyBle_TimeOutEventHandler(const CYBLE_TO_REASON_CODE_T *eventParam);
  26:Generated_Source\PSoC4/BLE_eventHandler.c **** static void CyBle_GattConnectReqHandler(void);
  27:Generated_Source\PSoC4/BLE_eventHandler.c **** static void CyBle_L2Cap_ConnParamUpdateRspEventHandler(uint16 response);
  28:Generated_Source\PSoC4/BLE_eventHandler.c **** static void CyBle_GapConnUpdateCompleteEventHandler(const CYBLE_GAP_CONN_PARAM_UPDATED_IN_CONTROLLE
  29:Generated_Source\PSoC4/BLE_eventHandler.c **** 
  30:Generated_Source\PSoC4/BLE_eventHandler.c **** 
  31:Generated_Source\PSoC4/BLE_eventHandler.c **** #if (CYBLE_GATT_ROLE_SERVER)
  32:Generated_Source\PSoC4/BLE_eventHandler.c **** 
  33:Generated_Source\PSoC4/BLE_eventHandler.c **** static void CyBle_WriteReqHandler(CYBLE_GATTS_WRITE_REQ_PARAM_T *eventParam);
  34:Generated_Source\PSoC4/BLE_eventHandler.c **** static void CyBle_ValueConfirmation(const CYBLE_CONN_HANDLE_T *eventParam);
  35:Generated_Source\PSoC4/BLE_eventHandler.c **** 
  36:Generated_Source\PSoC4/BLE_eventHandler.c **** #endif /* CYBLE_GATT_ROLE_SERVER */
  37:Generated_Source\PSoC4/BLE_eventHandler.c **** 
  38:Generated_Source\PSoC4/BLE_eventHandler.c **** #if (CYBLE_GATT_ROLE_CLIENT)
  39:Generated_Source\PSoC4/BLE_eventHandler.c **** 
  40:Generated_Source\PSoC4/BLE_eventHandler.c **** static void CyBle_GapcDiscoverCharacteristicsEventHandler(CYBLE_DISC_CHAR_INFO_T *discCharInfo);
  41:Generated_Source\PSoC4/BLE_eventHandler.c **** static CYBLE_GATT_ATTR_HANDLE_RANGE_T CyBle_GetCharRange(void);
  42:Generated_Source\PSoC4/BLE_eventHandler.c **** static void CyBle_GattcWriteResponseEventHandler(const CYBLE_CONN_HANDLE_T *eventParam);
  43:Generated_Source\PSoC4/BLE_eventHandler.c **** static void CyBle_NotificationEventHandler(CYBLE_GATTC_HANDLE_VALUE_NTF_PARAM_T *eventParam);
  44:Generated_Source\PSoC4/BLE_eventHandler.c **** static void CyBle_IndicationEventHandler(CYBLE_GATTC_HANDLE_VALUE_IND_PARAM_T *eventParam);
  45:Generated_Source\PSoC4/BLE_eventHandler.c **** static void CyBle_ReadResponseEventHandler(CYBLE_GATTC_READ_RSP_PARAM_T *eventParam);
  46:Generated_Source\PSoC4/BLE_eventHandler.c **** static void CyBle_ReadMultipleResponseEventHandler(CYBLE_GATTC_READ_RSP_PARAM_T *eventParam);
  47:Generated_Source\PSoC4/BLE_eventHandler.c **** 
  48:Generated_Source\PSoC4/BLE_eventHandler.c **** #endif /* CYBLE_GATT_ROLE_CLIENT */
  49:Generated_Source\PSoC4/BLE_eventHandler.c **** 
  50:Generated_Source\PSoC4/BLE_eventHandler.c **** 
  51:Generated_Source\PSoC4/BLE_eventHandler.c **** /***************************************
  52:Generated_Source\PSoC4/BLE_eventHandler.c **** * Global Variables
  53:Generated_Source\PSoC4/BLE_eventHandler.c **** ***************************************/
  54:Generated_Source\PSoC4/BLE_eventHandler.c **** 
  55:Generated_Source\PSoC4/BLE_eventHandler.c **** /* This global variable is initialized after connection with peer device, 
  56:Generated_Source\PSoC4/BLE_eventHandler.c ****    after CYBLE_EVT_GATT_CONNECT_IND event, and could be used by application code
  57:Generated_Source\PSoC4/BLE_eventHandler.c ****    to send data to peer device. 
  58:Generated_Source\PSoC4/BLE_eventHandler.c **** */
  59:Generated_Source\PSoC4/BLE_eventHandler.c **** CYBLE_CONN_HANDLE_T cyBle_connHandle;
  60:Generated_Source\PSoC4/BLE_eventHandler.c **** 
  61:Generated_Source\PSoC4/BLE_eventHandler.c **** volatile uint8 cyBle_eventHandlerFlag;
ARM GAS  C:\Users\TTSS\AppData\Local\Temp\ccySleeg.s 			page 3


  62:Generated_Source\PSoC4/BLE_eventHandler.c **** volatile uint8 cyBle_busyStatus;
  63:Generated_Source\PSoC4/BLE_eventHandler.c **** 
  64:Generated_Source\PSoC4/BLE_eventHandler.c **** const CYBLE_GAPS_T cyBle_gaps =
  65:Generated_Source\PSoC4/BLE_eventHandler.c **** {
  66:Generated_Source\PSoC4/BLE_eventHandler.c ****     0x0001u,    /* Handle of the GAP service */
  67:Generated_Source\PSoC4/BLE_eventHandler.c ****     0x0003u,    /* Handle of the Device Name characteristic */
  68:Generated_Source\PSoC4/BLE_eventHandler.c ****     0x0005u,    /* Handle of the Appearance characteristic */
  69:Generated_Source\PSoC4/BLE_eventHandler.c ****     CYBLE_GATT_INVALID_ATTR_HANDLE_VALUE, /* Handle of the Peripheral Preferred Connection Paramete
  70:Generated_Source\PSoC4/BLE_eventHandler.c ****     CYBLE_GATT_INVALID_ATTR_HANDLE_VALUE, /* Handle of the Central Address Resolution characteristi
  71:Generated_Source\PSoC4/BLE_eventHandler.c ****     CYBLE_GATT_INVALID_ATTR_HANDLE_VALUE, /* Handle of the Resolvable Private Address Only characte
  72:Generated_Source\PSoC4/BLE_eventHandler.c **** };
  73:Generated_Source\PSoC4/BLE_eventHandler.c **** 
  74:Generated_Source\PSoC4/BLE_eventHandler.c **** 
  75:Generated_Source\PSoC4/BLE_eventHandler.c **** #if(CYBLE_GAP_ROLE_PERIPHERAL || CYBLE_GAP_ROLE_BROADCASTER) 
  76:Generated_Source\PSoC4/BLE_eventHandler.c ****     uint8 cyBle_advertisingIntervalType;
  77:Generated_Source\PSoC4/BLE_eventHandler.c **** #endif /* CYBLE_GAP_ROLE_PERIPHERAL || CYBLE_GAP_ROLE_BROADCASTER) */
  78:Generated_Source\PSoC4/BLE_eventHandler.c **** 
  79:Generated_Source\PSoC4/BLE_eventHandler.c **** #if(CYBLE_GAP_ROLE_CENTRAL || CYBLE_GAP_ROLE_OBSERVER) 
  80:Generated_Source\PSoC4/BLE_eventHandler.c ****     uint8 cyBle_scanningIntervalType;
  81:Generated_Source\PSoC4/BLE_eventHandler.c **** #endif /* CYBLE_GAP_ROLE_CENTRAL || CYBLE_GAP_ROLE_OBSERVER */
  82:Generated_Source\PSoC4/BLE_eventHandler.c **** 
  83:Generated_Source\PSoC4/BLE_eventHandler.c **** #if(CYBLE_GATT_ROLE_SERVER)
  84:Generated_Source\PSoC4/BLE_eventHandler.c **** #if defined CYBLE_CTS_SERVER || defined CYBLE_ESS_SERVER
  85:Generated_Source\PSoC4/BLE_eventHandler.c **** CYBLE_GATT_ERR_CODE_T cyBle_gattError;
  86:Generated_Source\PSoC4/BLE_eventHandler.c **** #endif /* defined CYBLE_CTS_SERVER || defined CYBLE_ESS_SERVER */
  87:Generated_Source\PSoC4/BLE_eventHandler.c **** #endif /* CYBLE_GATT_ROLE_SERVER */
  88:Generated_Source\PSoC4/BLE_eventHandler.c **** 
  89:Generated_Source\PSoC4/BLE_eventHandler.c **** #if(CYBLE_GATT_ROLE_CLIENT)
  90:Generated_Source\PSoC4/BLE_eventHandler.c **** uint8 cyBle_disCount; /* Counter for discovery procedures */
  91:Generated_Source\PSoC4/BLE_eventHandler.c **** 
  92:Generated_Source\PSoC4/BLE_eventHandler.c **** #ifdef CYBLE_CUSTOM_CLIENT
  93:Generated_Source\PSoC4/BLE_eventHandler.c **** /* Discovery included service information, used for 128-bit UUID read response handle 
  94:Generated_Source\PSoC4/BLE_eventHandler.c ****    and for continue discovery. 
  95:Generated_Source\PSoC4/BLE_eventHandler.c **** */
  96:Generated_Source\PSoC4/BLE_eventHandler.c **** static CYBLE_DISC_INCL_INFO_T cyBle_discInclInfo;
  97:Generated_Source\PSoC4/BLE_eventHandler.c **** #endif /* CYBLE_CUSTOM_CLIENT */
  98:Generated_Source\PSoC4/BLE_eventHandler.c **** 
  99:Generated_Source\PSoC4/BLE_eventHandler.c **** #ifdef CYBLE_HIDS_CLIENT
 100:Generated_Source\PSoC4/BLE_eventHandler.c ****     static uint8 disServiceIndex;      /* To discovery descriptors for multiple HID service instanc
 101:Generated_Source\PSoC4/BLE_eventHandler.c **** #endif /* CYBLE_HIDS_CLIENT */
 102:Generated_Source\PSoC4/BLE_eventHandler.c **** 
 103:Generated_Source\PSoC4/BLE_eventHandler.c **** CYBLE_DISC_SRVC_INFO_T cyBle_serverInfo[CYBLE_SRVI_COUNT] = /*3*/
 104:Generated_Source\PSoC4/BLE_eventHandler.c **** {
 105:Generated_Source\PSoC4/BLE_eventHandler.c ****     {{CYBLE_GATT_INVALID_ATTR_HANDLE_VALUE, CYBLE_GATT_INVALID_ATTR_HANDLE_VALUE}, CYBLE_UUID_GAP_S
 106:Generated_Source\PSoC4/BLE_eventHandler.c ****     {{CYBLE_GATT_INVALID_ATTR_HANDLE_VALUE, CYBLE_GATT_INVALID_ATTR_HANDLE_VALUE}, CYBLE_UUID_GATT_
 107:Generated_Source\PSoC4/BLE_eventHandler.c **** #ifdef CYBLE_AIOS_CLIENT
 108:Generated_Source\PSoC4/BLE_eventHandler.c ****     {{CYBLE_GATT_INVALID_ATTR_HANDLE_VALUE, CYBLE_GATT_INVALID_ATTR_HANDLE_VALUE}, CYBLE_UUID_AUTOM
 109:Generated_Source\PSoC4/BLE_eventHandler.c **** #endif /* CYBLE_BCS_CLIENT */
 110:Generated_Source\PSoC4/BLE_eventHandler.c **** #ifdef CYBLE_ANCS_CLIENT
 111:Generated_Source\PSoC4/BLE_eventHandler.c ****     {{CYBLE_GATT_INVALID_ATTR_HANDLE_VALUE, CYBLE_GATT_INVALID_ATTR_HANDLE_VALUE}, 0x0000u},
 112:Generated_Source\PSoC4/BLE_eventHandler.c **** #endif /* CYBLE_ANCS_CLIENT */
 113:Generated_Source\PSoC4/BLE_eventHandler.c **** #ifdef CYBLE_ANS_CLIENT
 114:Generated_Source\PSoC4/BLE_eventHandler.c ****     {{CYBLE_GATT_INVALID_ATTR_HANDLE_VALUE, CYBLE_GATT_INVALID_ATTR_HANDLE_VALUE}, 
 115:Generated_Source\PSoC4/BLE_eventHandler.c ****         CYBLE_UUID_ALERT_NOTIFICATION_SERVICE},
 116:Generated_Source\PSoC4/BLE_eventHandler.c **** #endif /* CYBLE_ANS_CLIENT */
 117:Generated_Source\PSoC4/BLE_eventHandler.c **** #ifdef CYBLE_BAS_CLIENT
 118:Generated_Source\PSoC4/BLE_eventHandler.c ****     {{CYBLE_GATT_INVALID_ATTR_HANDLE_VALUE, CYBLE_GATT_INVALID_ATTR_HANDLE_VALUE}, CYBLE_UUID_BAS_S
ARM GAS  C:\Users\TTSS\AppData\Local\Temp\ccySleeg.s 			page 4


 119:Generated_Source\PSoC4/BLE_eventHandler.c ****     #if(CYBLE_BASC_SERVICE_COUNT > 1u) /* Generate it by GUI */
 120:Generated_Source\PSoC4/BLE_eventHandler.c ****         
 121:Generated_Source\PSoC4/BLE_eventHandler.c ****     #endif /* CYBLE_BASC_SERVICE_COUNT > 1u */
 122:Generated_Source\PSoC4/BLE_eventHandler.c **** #endif /* CYBLE_BAS_CLIENT */
 123:Generated_Source\PSoC4/BLE_eventHandler.c **** #ifdef CYBLE_BCS_CLIENT
 124:Generated_Source\PSoC4/BLE_eventHandler.c ****     {{CYBLE_GATT_INVALID_ATTR_HANDLE_VALUE, CYBLE_GATT_INVALID_ATTR_HANDLE_VALUE}, CYBLE_UUID_BODY_
 125:Generated_Source\PSoC4/BLE_eventHandler.c **** #endif /* CYBLE_BCS_CLIENT */
 126:Generated_Source\PSoC4/BLE_eventHandler.c **** #ifdef CYBLE_BLS_CLIENT
 127:Generated_Source\PSoC4/BLE_eventHandler.c ****     {{CYBLE_GATT_INVALID_ATTR_HANDLE_VALUE, CYBLE_GATT_INVALID_ATTR_HANDLE_VALUE}, CYBLE_UUID_BLOOD
 128:Generated_Source\PSoC4/BLE_eventHandler.c **** #endif /* CYBLE_BLS_CLIENT */
 129:Generated_Source\PSoC4/BLE_eventHandler.c **** #ifdef CYBLE_BMS_CLIENT
 130:Generated_Source\PSoC4/BLE_eventHandler.c ****     {{CYBLE_GATT_INVALID_ATTR_HANDLE_VALUE, CYBLE_GATT_INVALID_ATTR_HANDLE_VALUE}, CYBLE_UUID_BOND_
 131:Generated_Source\PSoC4/BLE_eventHandler.c **** #endif /* CYBLE_BMS_CLIENT */
 132:Generated_Source\PSoC4/BLE_eventHandler.c **** #ifdef CYBLE_CGMS_CLIENT
 133:Generated_Source\PSoC4/BLE_eventHandler.c ****     {{CYBLE_GATT_INVALID_ATTR_HANDLE_VALUE, CYBLE_GATT_INVALID_ATTR_HANDLE_VALUE}, CYBLE_UUID_CGM_S
 134:Generated_Source\PSoC4/BLE_eventHandler.c **** #endif /* CYBLE_CGMS_CLIENT */
 135:Generated_Source\PSoC4/BLE_eventHandler.c **** #ifdef CYBLE_CPS_CLIENT
 136:Generated_Source\PSoC4/BLE_eventHandler.c ****     {{CYBLE_GATT_INVALID_ATTR_HANDLE_VALUE, CYBLE_GATT_INVALID_ATTR_HANDLE_VALUE}, CYBLE_UUID_CPS_S
 137:Generated_Source\PSoC4/BLE_eventHandler.c **** #endif /* CYBLE_CPS_CLIENT */
 138:Generated_Source\PSoC4/BLE_eventHandler.c **** #ifdef CYBLE_CSCS_CLIENT
 139:Generated_Source\PSoC4/BLE_eventHandler.c ****     {{CYBLE_GATT_INVALID_ATTR_HANDLE_VALUE, CYBLE_GATT_INVALID_ATTR_HANDLE_VALUE}, 
 140:Generated_Source\PSoC4/BLE_eventHandler.c ****         CYBLE_UUID_CYCLING_SPEED_AND_CADENCE_SERVICE},
 141:Generated_Source\PSoC4/BLE_eventHandler.c **** #endif /* CYBLE_CSCS_CLIENT */
 142:Generated_Source\PSoC4/BLE_eventHandler.c **** #ifdef CYBLE_CTS_CLIENT
 143:Generated_Source\PSoC4/BLE_eventHandler.c ****     {{CYBLE_GATT_INVALID_ATTR_HANDLE_VALUE, CYBLE_GATT_INVALID_ATTR_HANDLE_VALUE}, CYBLE_UUID_CURRE
 144:Generated_Source\PSoC4/BLE_eventHandler.c **** #endif /* CYBLE_CTS_CLIENT */
 145:Generated_Source\PSoC4/BLE_eventHandler.c **** #ifdef CYBLE_CUSTOM_CLIENT
 146:Generated_Source\PSoC4/BLE_eventHandler.c ****     
 147:Generated_Source\PSoC4/BLE_eventHandler.c **** #endif /* CYBLE_CUSTOM_CLIENT */
 148:Generated_Source\PSoC4/BLE_eventHandler.c **** #ifdef CYBLE_DIS_CLIENT
 149:Generated_Source\PSoC4/BLE_eventHandler.c ****     {{CYBLE_GATT_INVALID_ATTR_HANDLE_VALUE, CYBLE_GATT_INVALID_ATTR_HANDLE_VALUE}, CYBLE_UUID_DEVIC
 150:Generated_Source\PSoC4/BLE_eventHandler.c **** #endif /* CYBLE_DIS_CLIENT */
 151:Generated_Source\PSoC4/BLE_eventHandler.c **** #ifdef CYBLE_ESS_CLIENT
 152:Generated_Source\PSoC4/BLE_eventHandler.c ****     {{CYBLE_GATT_INVALID_ATTR_HANDLE_VALUE, CYBLE_GATT_INVALID_ATTR_HANDLE_VALUE}, 
 153:Generated_Source\PSoC4/BLE_eventHandler.c ****         CYBLE_UUID_ENVIRONMENTAL_SENSING_SERVICE},
 154:Generated_Source\PSoC4/BLE_eventHandler.c **** #endif /* CYBLE_ESS_CLIENT */
 155:Generated_Source\PSoC4/BLE_eventHandler.c **** #ifdef CYBLE_GLS_CLIENT
 156:Generated_Source\PSoC4/BLE_eventHandler.c ****     {{CYBLE_GATT_INVALID_ATTR_HANDLE_VALUE, CYBLE_GATT_INVALID_ATTR_HANDLE_VALUE}, CYBLE_UUID_GLUCO
 157:Generated_Source\PSoC4/BLE_eventHandler.c **** #endif /* CYBLE_GLS_CLIENT */
 158:Generated_Source\PSoC4/BLE_eventHandler.c **** #ifdef CYBLE_HIDS_CLIENT
 159:Generated_Source\PSoC4/BLE_eventHandler.c ****     {{CYBLE_GATT_INVALID_ATTR_HANDLE_VALUE, CYBLE_GATT_INVALID_ATTR_HANDLE_VALUE}, CYBLE_UUID_HIDS_
 160:Generated_Source\PSoC4/BLE_eventHandler.c ****     #if(CYBLE_HIDSC_SERVICE_COUNT > 1u) /* Generate it by GUI */
 161:Generated_Source\PSoC4/BLE_eventHandler.c ****         
 162:Generated_Source\PSoC4/BLE_eventHandler.c ****     #endif /* CYBLE_HIDSC_SERVICE_COUNT > 1u */
 163:Generated_Source\PSoC4/BLE_eventHandler.c **** #endif /* CYBLE_HIDS_CLIENT */
 164:Generated_Source\PSoC4/BLE_eventHandler.c **** #ifdef CYBLE_HPS_CLIENT
 165:Generated_Source\PSoC4/BLE_eventHandler.c ****     {{CYBLE_GATT_INVALID_ATTR_HANDLE_VALUE, CYBLE_GATT_INVALID_ATTR_HANDLE_VALUE}, CYBLE_UUID_HTTP_
 166:Generated_Source\PSoC4/BLE_eventHandler.c **** #endif /* CYBLE_HPS_CLIENT */
 167:Generated_Source\PSoC4/BLE_eventHandler.c **** #ifdef CYBLE_HRS_CLIENT
 168:Generated_Source\PSoC4/BLE_eventHandler.c ****     {{CYBLE_GATT_INVALID_ATTR_HANDLE_VALUE, CYBLE_GATT_INVALID_ATTR_HANDLE_VALUE}, CYBLE_UUID_HEART
 169:Generated_Source\PSoC4/BLE_eventHandler.c **** #endif /* CYBLE_HRS_CLIENT */
 170:Generated_Source\PSoC4/BLE_eventHandler.c **** #ifdef CYBLE_HTS_CLIENT
 171:Generated_Source\PSoC4/BLE_eventHandler.c ****     {{CYBLE_GATT_INVALID_ATTR_HANDLE_VALUE, CYBLE_GATT_INVALID_ATTR_HANDLE_VALUE}, CYBLE_UUID_HEALT
 172:Generated_Source\PSoC4/BLE_eventHandler.c **** #endif /* CYBLE_HTS_CLIENT */
 173:Generated_Source\PSoC4/BLE_eventHandler.c **** #ifdef CYBLE_IAS_CLIENT
 174:Generated_Source\PSoC4/BLE_eventHandler.c ****     {{CYBLE_GATT_INVALID_ATTR_HANDLE_VALUE, CYBLE_GATT_INVALID_ATTR_HANDLE_VALUE}, CYBLE_UUID_IMMED
 175:Generated_Source\PSoC4/BLE_eventHandler.c **** #endif /* CYBLE_IAS_CLIENT */
ARM GAS  C:\Users\TTSS\AppData\Local\Temp\ccySleeg.s 			page 5


 176:Generated_Source\PSoC4/BLE_eventHandler.c **** #ifdef CYBLE_IPS_CLIENT
 177:Generated_Source\PSoC4/BLE_eventHandler.c ****     {{CYBLE_GATT_INVALID_ATTR_HANDLE_VALUE, CYBLE_GATT_INVALID_ATTR_HANDLE_VALUE}, CYBLE_UUID_IPS_S
 178:Generated_Source\PSoC4/BLE_eventHandler.c **** #endif /* CYBLE_IPS_CLIENT */
 179:Generated_Source\PSoC4/BLE_eventHandler.c **** #ifdef CYBLE_LLS_CLIENT
 180:Generated_Source\PSoC4/BLE_eventHandler.c ****     {{CYBLE_GATT_INVALID_ATTR_HANDLE_VALUE, CYBLE_GATT_INVALID_ATTR_HANDLE_VALUE}, CYBLE_UUID_LINK_
 181:Generated_Source\PSoC4/BLE_eventHandler.c **** #endif /* CYBLE_LLS_CLIENT */
 182:Generated_Source\PSoC4/BLE_eventHandler.c **** #ifdef CYBLE_LNS_CLIENT
 183:Generated_Source\PSoC4/BLE_eventHandler.c ****     {{CYBLE_GATT_INVALID_ATTR_HANDLE_VALUE, CYBLE_GATT_INVALID_ATTR_HANDLE_VALUE}, CYBLE_UUID_LOCAT
 184:Generated_Source\PSoC4/BLE_eventHandler.c **** #endif /* CYBLE_LNS_CLIENT */
 185:Generated_Source\PSoC4/BLE_eventHandler.c **** #ifdef CYBLE_NDCS_CLIENT
 186:Generated_Source\PSoC4/BLE_eventHandler.c ****     {{CYBLE_GATT_INVALID_ATTR_HANDLE_VALUE, CYBLE_GATT_INVALID_ATTR_HANDLE_VALUE}, CYBLE_UUID_NEXT_
 187:Generated_Source\PSoC4/BLE_eventHandler.c **** #endif /* CYBLE_NDCS_CLIENT */
 188:Generated_Source\PSoC4/BLE_eventHandler.c **** #ifdef CYBLE_IPSS_CLIENT
 189:Generated_Source\PSoC4/BLE_eventHandler.c ****     {{CYBLE_GATT_INVALID_ATTR_HANDLE_VALUE, CYBLE_GATT_INVALID_ATTR_HANDLE_VALUE}, CYBLE_UUID_INTER
 190:Generated_Source\PSoC4/BLE_eventHandler.c **** #endif /* CYBLE_IPSS_CLIENT */
 191:Generated_Source\PSoC4/BLE_eventHandler.c **** #ifdef CYBLE_PASS_CLIENT
 192:Generated_Source\PSoC4/BLE_eventHandler.c ****     {{CYBLE_GATT_INVALID_ATTR_HANDLE_VALUE, CYBLE_GATT_INVALID_ATTR_HANDLE_VALUE}, CYBLE_UUID_PHONE
 193:Generated_Source\PSoC4/BLE_eventHandler.c **** #endif /* CYBLE_PASS_CLIENT */
 194:Generated_Source\PSoC4/BLE_eventHandler.c **** #ifdef CYBLE_PLXS_CLIENT
 195:Generated_Source\PSoC4/BLE_eventHandler.c ****     {{CYBLE_GATT_INVALID_ATTR_HANDLE_VALUE, CYBLE_GATT_INVALID_ATTR_HANDLE_VALUE}, CYBLE_UUID_PLX_S
 196:Generated_Source\PSoC4/BLE_eventHandler.c **** #endif /* CYBLE_PLXS_CLIENT */
 197:Generated_Source\PSoC4/BLE_eventHandler.c **** #ifdef CYBLE_RSCS_CLIENT
 198:Generated_Source\PSoC4/BLE_eventHandler.c ****     {{CYBLE_GATT_INVALID_ATTR_HANDLE_VALUE, CYBLE_GATT_INVALID_ATTR_HANDLE_VALUE}, CYBLE_UUID_RUNNI
 199:Generated_Source\PSoC4/BLE_eventHandler.c **** #endif /* CYBLE_RSCS_CLIENT */
 200:Generated_Source\PSoC4/BLE_eventHandler.c **** #ifdef CYBLE_RTUS_CLIENT
 201:Generated_Source\PSoC4/BLE_eventHandler.c ****     {{CYBLE_GATT_INVALID_ATTR_HANDLE_VALUE, CYBLE_GATT_INVALID_ATTR_HANDLE_VALUE}, CYBLE_UUID_REF_T
 202:Generated_Source\PSoC4/BLE_eventHandler.c **** #endif /* CYBLE_RTUS_CLIENT */
 203:Generated_Source\PSoC4/BLE_eventHandler.c **** #ifdef CYBLE_SCPS_CLIENT
 204:Generated_Source\PSoC4/BLE_eventHandler.c ****     {{CYBLE_GATT_INVALID_ATTR_HANDLE_VALUE, CYBLE_GATT_INVALID_ATTR_HANDLE_VALUE}, CYBLE_UUID_SCAN_
 205:Generated_Source\PSoC4/BLE_eventHandler.c **** #endif /* CYBLE_SCPS_CLIENT */
 206:Generated_Source\PSoC4/BLE_eventHandler.c **** #ifdef CYBLE_TPS_CLIENT
 207:Generated_Source\PSoC4/BLE_eventHandler.c ****     {{CYBLE_GATT_INVALID_ATTR_HANDLE_VALUE, CYBLE_GATT_INVALID_ATTR_HANDLE_VALUE}, CYBLE_UUID_TX_PO
 208:Generated_Source\PSoC4/BLE_eventHandler.c **** #endif /* CYBLE_TPS_CLIENT */
 209:Generated_Source\PSoC4/BLE_eventHandler.c **** #ifdef CYBLE_UDS_CLIENT
 210:Generated_Source\PSoC4/BLE_eventHandler.c ****     {{CYBLE_GATT_INVALID_ATTR_HANDLE_VALUE, CYBLE_GATT_INVALID_ATTR_HANDLE_VALUE}, CYBLE_UUID_USER_
 211:Generated_Source\PSoC4/BLE_eventHandler.c **** #endif /* CYBLE_UDS_CLIENT */
 212:Generated_Source\PSoC4/BLE_eventHandler.c **** #ifdef CYBLE_WSS_CLIENT
 213:Generated_Source\PSoC4/BLE_eventHandler.c ****     {{CYBLE_GATT_INVALID_ATTR_HANDLE_VALUE, CYBLE_GATT_INVALID_ATTR_HANDLE_VALUE}, CYBLE_UUID_WEIGH
 214:Generated_Source\PSoC4/BLE_eventHandler.c **** #endif /* CYBLE_WSS_CLIENT */
 215:Generated_Source\PSoC4/BLE_eventHandler.c **** #ifdef CYBLE_WPTS_CLIENT
 216:Generated_Source\PSoC4/BLE_eventHandler.c ****     {{CYBLE_GATT_INVALID_ATTR_HANDLE_VALUE, CYBLE_GATT_INVALID_ATTR_HANDLE_VALUE}, CYBLE_UUID_WIREL
 217:Generated_Source\PSoC4/BLE_eventHandler.c **** #endif /* CYBLE_WPTS_CLIENT */
 218:Generated_Source\PSoC4/BLE_eventHandler.c **** };
 219:Generated_Source\PSoC4/BLE_eventHandler.c **** 
 220:Generated_Source\PSoC4/BLE_eventHandler.c **** CYBLE_GAPC_T cyBle_gapc;
 221:Generated_Source\PSoC4/BLE_eventHandler.c **** 
 222:Generated_Source\PSoC4/BLE_eventHandler.c **** #endif /* CYBLE_GATT_ROLE_CLIENT */
 223:Generated_Source\PSoC4/BLE_eventHandler.c **** 
 224:Generated_Source\PSoC4/BLE_eventHandler.c **** /* Default device security */
 225:Generated_Source\PSoC4/BLE_eventHandler.c **** CYBLE_GAP_AUTH_INFO_T cyBle_authInfo =
 226:Generated_Source\PSoC4/BLE_eventHandler.c **** {
 227:Generated_Source\PSoC4/BLE_eventHandler.c ****     (CYBLE_GAP_SEC_MODE_1 | CYBLE_GAP_SEC_LEVEL_1 ), /* uint8 security */
 228:Generated_Source\PSoC4/BLE_eventHandler.c ****     CYBLE_GAP_BONDING, /* uint8 bonding */
 229:Generated_Source\PSoC4/BLE_eventHandler.c ****     0x10u,      /* uint8 ekeySize */
 230:Generated_Source\PSoC4/BLE_eventHandler.c ****     CYBLE_GAP_AUTH_ERROR_NONE, /* CYBLE_AUTH_FAILED_REASON_T authErr */
 231:Generated_Source\PSoC4/BLE_eventHandler.c ****     0x01u,      /* uint8 pairingProperties */
 232:Generated_Source\PSoC4/BLE_eventHandler.c **** };
ARM GAS  C:\Users\TTSS\AppData\Local\Temp\ccySleeg.s 			page 6


 233:Generated_Source\PSoC4/BLE_eventHandler.c **** 
 234:Generated_Source\PSoC4/BLE_eventHandler.c **** #if(CYBLE_GATT_ROLE_SERVER)
 235:Generated_Source\PSoC4/BLE_eventHandler.c **** 
 236:Generated_Source\PSoC4/BLE_eventHandler.c **** 
 237:Generated_Source\PSoC4/BLE_eventHandler.c **** /******************************************************************************    
 238:Generated_Source\PSoC4/BLE_eventHandler.c **** * Function Name: CyBle_WriteReqHandler
 239:Generated_Source\PSoC4/BLE_eventHandler.c **** ***************************************************************************//**
 240:Generated_Source\PSoC4/BLE_eventHandler.c **** * 
 241:Generated_Source\PSoC4/BLE_eventHandler.c **** *  Handles the Write Request event from BLE stack.
 242:Generated_Source\PSoC4/BLE_eventHandler.c **** * 
 243:Generated_Source\PSoC4/BLE_eventHandler.c **** *  CYBLE_GATTS_WRITE_REQ_PARAM_T * eventParam - event parameter
 244:Generated_Source\PSoC4/BLE_eventHandler.c **** * 
 245:Generated_Source\PSoC4/BLE_eventHandler.c **** * \return
 246:Generated_Source\PSoC4/BLE_eventHandler.c **** *  None
 247:Generated_Source\PSoC4/BLE_eventHandler.c **** * 
 248:Generated_Source\PSoC4/BLE_eventHandler.c **** ******************************************************************************/
 249:Generated_Source\PSoC4/BLE_eventHandler.c **** static void CyBle_WriteReqHandler(CYBLE_GATTS_WRITE_REQ_PARAM_T *eventParam)
 250:Generated_Source\PSoC4/BLE_eventHandler.c **** {
  54              		.loc 1 250 0
  55              		.cfi_startproc
  56              		@ args = 0, pretend = 0, frame = 16
  57              		@ frame_needed = 1, uses_anonymous_args = 0
  58 0000 90B5     		push	{r4, r7, lr}
  59              		.cfi_def_cfa_offset 12
  60              		.cfi_offset 4, -12
  61              		.cfi_offset 7, -8
  62              		.cfi_offset 14, -4
  63 0002 85B0     		sub	sp, sp, #20
  64              		.cfi_def_cfa_offset 32
  65 0004 00AF     		add	r7, sp, #0
  66              		.cfi_def_cfa_register 7
  67 0006 7860     		str	r0, [r7, #4]
 251:Generated_Source\PSoC4/BLE_eventHandler.c ****     CYBLE_GATT_ERR_CODE_T gattErr;
 252:Generated_Source\PSoC4/BLE_eventHandler.c **** #if defined CYBLE_CTS_SERVER || defined CYBLE_ESS_SERVER
 253:Generated_Source\PSoC4/BLE_eventHandler.c ****     cyBle_gattError = CYBLE_GATT_ERR_NONE;
 254:Generated_Source\PSoC4/BLE_eventHandler.c **** #endif /* defined CYBLE_CTS_SERVER || defined CYBLE_ESS_SERVER */
 255:Generated_Source\PSoC4/BLE_eventHandler.c ****     
 256:Generated_Source\PSoC4/BLE_eventHandler.c ****     gattErr = CyBle_GattsWriteEventHandler(eventParam);
  68              		.loc 1 256 0
  69 0008 0F23     		movs	r3, #15
  70 000a FC18     		adds	r4, r7, r3
  71 000c 7B68     		ldr	r3, [r7, #4]
  72 000e 1800     		movs	r0, r3
  73 0010 FFF7FEFF 		bl	CyBle_GattsWriteEventHandler
  74 0014 0300     		movs	r3, r0
  75 0016 2370     		strb	r3, [r4]
 257:Generated_Source\PSoC4/BLE_eventHandler.c **** #ifdef CYBLE_AIOS_SERVER
 258:Generated_Source\PSoC4/BLE_eventHandler.c ****     if(((cyBle_eventHandlerFlag & CYBLE_CALLBACK) != 0u) && (gattErr == CYBLE_GATT_ERR_NONE))
 259:Generated_Source\PSoC4/BLE_eventHandler.c ****     {
 260:Generated_Source\PSoC4/BLE_eventHandler.c ****         gattErr = CyBle_AiossWriteEventHandler(eventParam);
 261:Generated_Source\PSoC4/BLE_eventHandler.c ****     }
 262:Generated_Source\PSoC4/BLE_eventHandler.c **** #endif /* CYBLE_AIOS_SERVER */
 263:Generated_Source\PSoC4/BLE_eventHandler.c **** #ifdef CYBLE_ANCS_SERVER
 264:Generated_Source\PSoC4/BLE_eventHandler.c ****     if(((cyBle_eventHandlerFlag & CYBLE_CALLBACK) != 0u) && (gattErr == CYBLE_GATT_ERR_NONE))
 265:Generated_Source\PSoC4/BLE_eventHandler.c ****     {
 266:Generated_Source\PSoC4/BLE_eventHandler.c ****         gattErr = CyBle_AncssWriteEventHandler(eventParam);
 267:Generated_Source\PSoC4/BLE_eventHandler.c ****     }
ARM GAS  C:\Users\TTSS\AppData\Local\Temp\ccySleeg.s 			page 7


 268:Generated_Source\PSoC4/BLE_eventHandler.c **** #endif /* CYBLE_ANCS_SERVER */
 269:Generated_Source\PSoC4/BLE_eventHandler.c **** #ifdef CYBLE_ANS_SERVER
 270:Generated_Source\PSoC4/BLE_eventHandler.c ****     if(((cyBle_eventHandlerFlag & CYBLE_CALLBACK) != 0u) && (gattErr == CYBLE_GATT_ERR_NONE))
 271:Generated_Source\PSoC4/BLE_eventHandler.c ****     {
 272:Generated_Source\PSoC4/BLE_eventHandler.c ****         gattErr = CyBle_AnssWriteEventHandler(eventParam);
 273:Generated_Source\PSoC4/BLE_eventHandler.c ****     }
 274:Generated_Source\PSoC4/BLE_eventHandler.c **** #endif /* CYBLE_ANS_SERVER */
 275:Generated_Source\PSoC4/BLE_eventHandler.c **** #ifdef CYBLE_BAS_SERVER
 276:Generated_Source\PSoC4/BLE_eventHandler.c ****     if(((cyBle_eventHandlerFlag & CYBLE_CALLBACK) != 0u) && (gattErr == CYBLE_GATT_ERR_NONE))
 277:Generated_Source\PSoC4/BLE_eventHandler.c ****     {
 278:Generated_Source\PSoC4/BLE_eventHandler.c ****         gattErr = CyBle_BassWriteEventHandler(eventParam);
 279:Generated_Source\PSoC4/BLE_eventHandler.c ****     }
 280:Generated_Source\PSoC4/BLE_eventHandler.c **** #endif /* CYBLE_BAS_SERVER */
 281:Generated_Source\PSoC4/BLE_eventHandler.c **** #ifdef CYBLE_BCS_SERVER
 282:Generated_Source\PSoC4/BLE_eventHandler.c ****     if(((cyBle_eventHandlerFlag & CYBLE_CALLBACK) != 0u) && (gattErr == CYBLE_GATT_ERR_NONE))
 283:Generated_Source\PSoC4/BLE_eventHandler.c ****     {
 284:Generated_Source\PSoC4/BLE_eventHandler.c ****         gattErr = CyBle_BcssWriteEventHandler(eventParam);
 285:Generated_Source\PSoC4/BLE_eventHandler.c ****     }
 286:Generated_Source\PSoC4/BLE_eventHandler.c **** #endif /* CYBLE_BCS_SERVER */
 287:Generated_Source\PSoC4/BLE_eventHandler.c **** #ifdef CYBLE_BLS_SERVER
 288:Generated_Source\PSoC4/BLE_eventHandler.c ****     if(((cyBle_eventHandlerFlag & CYBLE_CALLBACK) != 0u) && (gattErr == CYBLE_GATT_ERR_NONE))
 289:Generated_Source\PSoC4/BLE_eventHandler.c ****     {
 290:Generated_Source\PSoC4/BLE_eventHandler.c ****         gattErr = CyBle_BlssWriteEventHandler(eventParam);
 291:Generated_Source\PSoC4/BLE_eventHandler.c ****     }
 292:Generated_Source\PSoC4/BLE_eventHandler.c **** #endif /* CYBLE_BLS_SERVER */
 293:Generated_Source\PSoC4/BLE_eventHandler.c **** #ifdef CYBLE_BMS_SERVER
 294:Generated_Source\PSoC4/BLE_eventHandler.c ****     if(((cyBle_eventHandlerFlag & CYBLE_CALLBACK) != 0u) && (gattErr == CYBLE_GATT_ERR_NONE))
 295:Generated_Source\PSoC4/BLE_eventHandler.c ****     {
 296:Generated_Source\PSoC4/BLE_eventHandler.c ****         gattErr = CyBle_BmssWriteEventHandler(eventParam);
 297:Generated_Source\PSoC4/BLE_eventHandler.c ****     }
 298:Generated_Source\PSoC4/BLE_eventHandler.c **** #endif /* CYBLE_BMS_SERVER */
 299:Generated_Source\PSoC4/BLE_eventHandler.c **** #ifdef CYBLE_BTS_SERVER
 300:Generated_Source\PSoC4/BLE_eventHandler.c ****     if((cyBle_eventHandlerFlag & CYBLE_CALLBACK) != 0u)
 301:Generated_Source\PSoC4/BLE_eventHandler.c ****     {
 302:Generated_Source\PSoC4/BLE_eventHandler.c ****         gattErr = CyBle_BtsWriteEventHandler(eventParam);
 303:Generated_Source\PSoC4/BLE_eventHandler.c ****     }
 304:Generated_Source\PSoC4/BLE_eventHandler.c **** #endif /* CYBLE_BTS_SERVER */
 305:Generated_Source\PSoC4/BLE_eventHandler.c **** #ifdef CYBLE_CGMS_SERVER
 306:Generated_Source\PSoC4/BLE_eventHandler.c ****     if(((cyBle_eventHandlerFlag & CYBLE_CALLBACK) != 0u) && (gattErr == CYBLE_GATT_ERR_NONE))
 307:Generated_Source\PSoC4/BLE_eventHandler.c ****     {
 308:Generated_Source\PSoC4/BLE_eventHandler.c ****         gattErr = CyBle_CgmssWriteEventHandler(eventParam);
 309:Generated_Source\PSoC4/BLE_eventHandler.c ****     }
 310:Generated_Source\PSoC4/BLE_eventHandler.c **** #endif /* CYBLE_CGMS_SERVER */
 311:Generated_Source\PSoC4/BLE_eventHandler.c **** #ifdef CYBLE_CPS_SERVER
 312:Generated_Source\PSoC4/BLE_eventHandler.c ****     if(((cyBle_eventHandlerFlag & CYBLE_CALLBACK) != 0u) && (gattErr == CYBLE_GATT_ERR_NONE))
 313:Generated_Source\PSoC4/BLE_eventHandler.c ****     {
 314:Generated_Source\PSoC4/BLE_eventHandler.c ****         gattErr = CyBle_CpssWriteEventHandler(eventParam);
 315:Generated_Source\PSoC4/BLE_eventHandler.c ****     }
 316:Generated_Source\PSoC4/BLE_eventHandler.c **** #endif /* CYBLE_CPS_SERVER */
 317:Generated_Source\PSoC4/BLE_eventHandler.c **** #ifdef CYBLE_CSCS_SERVER
 318:Generated_Source\PSoC4/BLE_eventHandler.c ****     if(((cyBle_eventHandlerFlag & CYBLE_CALLBACK) != 0u) && (gattErr == CYBLE_GATT_ERR_NONE))
 319:Generated_Source\PSoC4/BLE_eventHandler.c ****     {
 320:Generated_Source\PSoC4/BLE_eventHandler.c ****         gattErr = CyBle_CscssWriteEventHandler(eventParam);
 321:Generated_Source\PSoC4/BLE_eventHandler.c ****     }
 322:Generated_Source\PSoC4/BLE_eventHandler.c **** #endif /* CYBLE_CSCS_SERVER */
 323:Generated_Source\PSoC4/BLE_eventHandler.c **** #ifdef CYBLE_CTS_SERVER
 324:Generated_Source\PSoC4/BLE_eventHandler.c ****     if(((cyBle_eventHandlerFlag & CYBLE_CALLBACK) != 0u) && (gattErr == CYBLE_GATT_ERR_NONE))
ARM GAS  C:\Users\TTSS\AppData\Local\Temp\ccySleeg.s 			page 8


 325:Generated_Source\PSoC4/BLE_eventHandler.c ****     {
 326:Generated_Source\PSoC4/BLE_eventHandler.c ****         gattErr = CyBle_CtssWriteEventHandler(eventParam);
 327:Generated_Source\PSoC4/BLE_eventHandler.c ****     }
 328:Generated_Source\PSoC4/BLE_eventHandler.c **** #endif /* CYBLE_CTS_SERVER */
 329:Generated_Source\PSoC4/BLE_eventHandler.c **** #ifdef CYBLE_ESS_SERVER
 330:Generated_Source\PSoC4/BLE_eventHandler.c ****     if(((cyBle_eventHandlerFlag & CYBLE_CALLBACK) != 0u) && (gattErr == CYBLE_GATT_ERR_NONE))
 331:Generated_Source\PSoC4/BLE_eventHandler.c ****     {
 332:Generated_Source\PSoC4/BLE_eventHandler.c ****         gattErr = CyBle_EsssWriteEventHandler(eventParam);
 333:Generated_Source\PSoC4/BLE_eventHandler.c ****     }
 334:Generated_Source\PSoC4/BLE_eventHandler.c **** #endif /* CYBLE_ESS_SERVER */
 335:Generated_Source\PSoC4/BLE_eventHandler.c **** #ifdef CYBLE_GLS_SERVER
 336:Generated_Source\PSoC4/BLE_eventHandler.c ****     if(((cyBle_eventHandlerFlag & CYBLE_CALLBACK) != 0u) && (gattErr == CYBLE_GATT_ERR_NONE))
 337:Generated_Source\PSoC4/BLE_eventHandler.c ****     {
 338:Generated_Source\PSoC4/BLE_eventHandler.c ****         gattErr = CyBle_GlssWriteEventHandler(eventParam);
 339:Generated_Source\PSoC4/BLE_eventHandler.c ****     }
 340:Generated_Source\PSoC4/BLE_eventHandler.c **** #endif /* CYBLE_GLS_SERVER */
 341:Generated_Source\PSoC4/BLE_eventHandler.c **** #ifdef CYBLE_HIDS_SERVER
 342:Generated_Source\PSoC4/BLE_eventHandler.c ****     if(((cyBle_eventHandlerFlag & CYBLE_CALLBACK) != 0u) && (gattErr == CYBLE_GATT_ERR_NONE))
 343:Generated_Source\PSoC4/BLE_eventHandler.c ****     {
 344:Generated_Source\PSoC4/BLE_eventHandler.c ****         gattErr = CyBle_HidssWriteEventHandler(eventParam);
 345:Generated_Source\PSoC4/BLE_eventHandler.c ****     }
 346:Generated_Source\PSoC4/BLE_eventHandler.c **** #endif /* CYBLE_HIDS_SERVER */
 347:Generated_Source\PSoC4/BLE_eventHandler.c **** #ifdef CYBLE_HPS_SERVER
 348:Generated_Source\PSoC4/BLE_eventHandler.c ****     if(((cyBle_eventHandlerFlag & CYBLE_CALLBACK) != 0u) && (gattErr == CYBLE_GATT_ERR_NONE))
 349:Generated_Source\PSoC4/BLE_eventHandler.c ****     {
 350:Generated_Source\PSoC4/BLE_eventHandler.c ****         gattErr = CyBle_HpssWriteEventHandler(eventParam);
 351:Generated_Source\PSoC4/BLE_eventHandler.c ****     }
 352:Generated_Source\PSoC4/BLE_eventHandler.c **** #endif /* CYBLE_HPS_SERVER */
 353:Generated_Source\PSoC4/BLE_eventHandler.c **** #ifdef CYBLE_HRS_SERVER
 354:Generated_Source\PSoC4/BLE_eventHandler.c ****     if(((cyBle_eventHandlerFlag & CYBLE_CALLBACK) != 0u) && (gattErr == CYBLE_GATT_ERR_NONE))
 355:Generated_Source\PSoC4/BLE_eventHandler.c ****     {
 356:Generated_Source\PSoC4/BLE_eventHandler.c ****         gattErr = CyBle_HrssWriteEventHandler(eventParam);
 357:Generated_Source\PSoC4/BLE_eventHandler.c ****     }
 358:Generated_Source\PSoC4/BLE_eventHandler.c **** #endif /* CYBLE_HRS_SERVER */
 359:Generated_Source\PSoC4/BLE_eventHandler.c **** #ifdef CYBLE_HTS_SERVER
 360:Generated_Source\PSoC4/BLE_eventHandler.c ****     if(((cyBle_eventHandlerFlag & CYBLE_CALLBACK) != 0u) && (gattErr == CYBLE_GATT_ERR_NONE))
 361:Generated_Source\PSoC4/BLE_eventHandler.c ****     {
 362:Generated_Source\PSoC4/BLE_eventHandler.c ****         gattErr = CyBle_HtssWriteEventHandler(eventParam);
 363:Generated_Source\PSoC4/BLE_eventHandler.c ****     }
 364:Generated_Source\PSoC4/BLE_eventHandler.c **** #endif /* CYBLE_HTS_SERVER */
 365:Generated_Source\PSoC4/BLE_eventHandler.c **** #ifdef CYBLE_IPS_SERVER
 366:Generated_Source\PSoC4/BLE_eventHandler.c ****     if(((cyBle_eventHandlerFlag & CYBLE_CALLBACK) != 0u) && (gattErr == CYBLE_GATT_ERR_NONE))
 367:Generated_Source\PSoC4/BLE_eventHandler.c ****     {
 368:Generated_Source\PSoC4/BLE_eventHandler.c ****         gattErr = CyBle_IpssWriteEventHandler(eventParam);
 369:Generated_Source\PSoC4/BLE_eventHandler.c ****     }
 370:Generated_Source\PSoC4/BLE_eventHandler.c **** #endif /* CYBLE_IPS_SERVER */
 371:Generated_Source\PSoC4/BLE_eventHandler.c **** #ifdef CYBLE_LLS_SERVER
 372:Generated_Source\PSoC4/BLE_eventHandler.c ****     if(((cyBle_eventHandlerFlag & CYBLE_CALLBACK) != 0u) && (gattErr == CYBLE_GATT_ERR_NONE))
 373:Generated_Source\PSoC4/BLE_eventHandler.c ****     {
 374:Generated_Source\PSoC4/BLE_eventHandler.c ****         gattErr = CyBle_LlssWriteEventHandler(eventParam);
 375:Generated_Source\PSoC4/BLE_eventHandler.c ****     }
 376:Generated_Source\PSoC4/BLE_eventHandler.c **** #endif /* CYBLE_LLS_SERVER */
 377:Generated_Source\PSoC4/BLE_eventHandler.c **** #ifdef CYBLE_LNS_SERVER
 378:Generated_Source\PSoC4/BLE_eventHandler.c ****     if(((cyBle_eventHandlerFlag & CYBLE_CALLBACK) != 0u) && (gattErr == CYBLE_GATT_ERR_NONE))
 379:Generated_Source\PSoC4/BLE_eventHandler.c ****     {
 380:Generated_Source\PSoC4/BLE_eventHandler.c ****         gattErr = CyBle_LnssWriteEventHandler(eventParam);
 381:Generated_Source\PSoC4/BLE_eventHandler.c ****     }
ARM GAS  C:\Users\TTSS\AppData\Local\Temp\ccySleeg.s 			page 9


 382:Generated_Source\PSoC4/BLE_eventHandler.c **** #endif /* CYBLE_LNS_SERVER */
 383:Generated_Source\PSoC4/BLE_eventHandler.c **** #ifdef CYBLE_PASS_SERVER
 384:Generated_Source\PSoC4/BLE_eventHandler.c ****     if(((cyBle_eventHandlerFlag & CYBLE_CALLBACK) != 0u) && (gattErr == CYBLE_GATT_ERR_NONE))
 385:Generated_Source\PSoC4/BLE_eventHandler.c ****     {
 386:Generated_Source\PSoC4/BLE_eventHandler.c ****         gattErr = CyBle_PasssWriteEventHandler(eventParam);
 387:Generated_Source\PSoC4/BLE_eventHandler.c ****     }
 388:Generated_Source\PSoC4/BLE_eventHandler.c **** #endif /* CYBLE_PASS_SERVER */
 389:Generated_Source\PSoC4/BLE_eventHandler.c **** #ifdef CYBLE_PLXS_SERVER
 390:Generated_Source\PSoC4/BLE_eventHandler.c ****     if(((cyBle_eventHandlerFlag & CYBLE_CALLBACK) != 0u) && (gattErr == CYBLE_GATT_ERR_NONE))
 391:Generated_Source\PSoC4/BLE_eventHandler.c ****     {
 392:Generated_Source\PSoC4/BLE_eventHandler.c ****         gattErr = CyBle_PlxssWriteEventHandler(eventParam);
 393:Generated_Source\PSoC4/BLE_eventHandler.c ****     }
 394:Generated_Source\PSoC4/BLE_eventHandler.c **** #endif /* CYBLE_PLXS_SERVER */    
 395:Generated_Source\PSoC4/BLE_eventHandler.c **** #ifdef CYBLE_RSCS_SERVER
 396:Generated_Source\PSoC4/BLE_eventHandler.c ****     if(((cyBle_eventHandlerFlag & CYBLE_CALLBACK) != 0u) && (gattErr == CYBLE_GATT_ERR_NONE))
 397:Generated_Source\PSoC4/BLE_eventHandler.c ****     {
 398:Generated_Source\PSoC4/BLE_eventHandler.c ****         gattErr = CyBle_RscssWriteEventHandler(eventParam);
 399:Generated_Source\PSoC4/BLE_eventHandler.c ****     }
 400:Generated_Source\PSoC4/BLE_eventHandler.c **** #endif /* CYBLE_RSCS_SERVER */
 401:Generated_Source\PSoC4/BLE_eventHandler.c **** #ifdef CYBLE_SCPS_SERVER
 402:Generated_Source\PSoC4/BLE_eventHandler.c ****     if(((cyBle_eventHandlerFlag & CYBLE_CALLBACK) != 0u) && (gattErr == CYBLE_GATT_ERR_NONE))
 403:Generated_Source\PSoC4/BLE_eventHandler.c ****     {
 404:Generated_Source\PSoC4/BLE_eventHandler.c ****         gattErr = CyBle_ScpssWriteEventHandler(eventParam);
 405:Generated_Source\PSoC4/BLE_eventHandler.c ****     }
 406:Generated_Source\PSoC4/BLE_eventHandler.c **** #endif /* CYBLE_SCPS_SERVER */
 407:Generated_Source\PSoC4/BLE_eventHandler.c **** #ifdef CYBLE_TPS_SERVER
 408:Generated_Source\PSoC4/BLE_eventHandler.c ****     if(((cyBle_eventHandlerFlag & CYBLE_CALLBACK) != 0u) && (gattErr == CYBLE_GATT_ERR_NONE))
 409:Generated_Source\PSoC4/BLE_eventHandler.c ****     {
 410:Generated_Source\PSoC4/BLE_eventHandler.c ****         gattErr = CyBle_TpssWriteEventHandler(eventParam);
 411:Generated_Source\PSoC4/BLE_eventHandler.c ****     }
 412:Generated_Source\PSoC4/BLE_eventHandler.c **** #endif /* CYBLE_TPS_SERVER */
 413:Generated_Source\PSoC4/BLE_eventHandler.c **** #ifdef CYBLE_UDS_SERVER
 414:Generated_Source\PSoC4/BLE_eventHandler.c ****     if(((cyBle_eventHandlerFlag & CYBLE_CALLBACK) != 0u) && (gattErr == CYBLE_GATT_ERR_NONE))
 415:Generated_Source\PSoC4/BLE_eventHandler.c ****     {
 416:Generated_Source\PSoC4/BLE_eventHandler.c ****         gattErr = CyBle_UdssWriteEventHandler(eventParam);
 417:Generated_Source\PSoC4/BLE_eventHandler.c ****     }
 418:Generated_Source\PSoC4/BLE_eventHandler.c **** #endif /* CYBLE_UDS_SERVER */
 419:Generated_Source\PSoC4/BLE_eventHandler.c **** #ifdef CYBLE_WPTS_SERVER
 420:Generated_Source\PSoC4/BLE_eventHandler.c ****     if(((cyBle_eventHandlerFlag & CYBLE_CALLBACK) != 0u) && (gattErr == CYBLE_GATT_ERR_NONE))
 421:Generated_Source\PSoC4/BLE_eventHandler.c ****     {
 422:Generated_Source\PSoC4/BLE_eventHandler.c ****         gattErr = CyBle_WptssWriteEventHandler(eventParam);
 423:Generated_Source\PSoC4/BLE_eventHandler.c ****     }
 424:Generated_Source\PSoC4/BLE_eventHandler.c **** #endif /* CYBLE_WPTS_SERVER */
 425:Generated_Source\PSoC4/BLE_eventHandler.c **** #ifdef CYBLE_WSS_SERVER
 426:Generated_Source\PSoC4/BLE_eventHandler.c ****     if(((cyBle_eventHandlerFlag & CYBLE_CALLBACK) != 0u) && (gattErr == CYBLE_GATT_ERR_NONE))
 427:Generated_Source\PSoC4/BLE_eventHandler.c ****     {
 428:Generated_Source\PSoC4/BLE_eventHandler.c ****         gattErr = CyBle_WsssWriteEventHandler(eventParam);
 429:Generated_Source\PSoC4/BLE_eventHandler.c ****     }
 430:Generated_Source\PSoC4/BLE_eventHandler.c **** #endif /* CYBLE_WSS_SERVER */
 431:Generated_Source\PSoC4/BLE_eventHandler.c **** 
 432:Generated_Source\PSoC4/BLE_eventHandler.c ****     /* Send response when event was handled by service */
 433:Generated_Source\PSoC4/BLE_eventHandler.c ****     if((cyBle_eventHandlerFlag & CYBLE_CALLBACK) == 0u)
  76              		.loc 1 433 0
  77 0018 154B     		ldr	r3, .L5
  78 001a 1B78     		ldrb	r3, [r3]
  79 001c DBB2     		uxtb	r3, r3
  80 001e 1A00     		movs	r2, r3
ARM GAS  C:\Users\TTSS\AppData\Local\Temp\ccySleeg.s 			page 10


  81 0020 0123     		movs	r3, #1
  82 0022 1340     		ands	r3, r2
  83 0024 1FD1     		bne	.L4
 434:Generated_Source\PSoC4/BLE_eventHandler.c ****     {
 435:Generated_Source\PSoC4/BLE_eventHandler.c ****         if(gattErr != CYBLE_GATT_ERR_NONE)
  84              		.loc 1 435 0
  85 0026 0F23     		movs	r3, #15
  86 0028 FB18     		adds	r3, r7, r3
  87 002a 1B78     		ldrb	r3, [r3]
  88 002c 002B     		cmp	r3, #0
  89 002e 16D0     		beq	.L3
  90              	.LBB2:
 436:Generated_Source\PSoC4/BLE_eventHandler.c ****         {
 437:Generated_Source\PSoC4/BLE_eventHandler.c ****             CYBLE_GATTS_ERR_PARAM_T err_param;
 438:Generated_Source\PSoC4/BLE_eventHandler.c ****             
 439:Generated_Source\PSoC4/BLE_eventHandler.c ****             err_param.opcode = (uint8) CYBLE_GATT_WRITE_REQ;
  91              		.loc 1 439 0
  92 0030 0823     		movs	r3, #8
  93 0032 FB18     		adds	r3, r7, r3
  94 0034 1222     		movs	r2, #18
  95 0036 9A70     		strb	r2, [r3, #2]
 440:Generated_Source\PSoC4/BLE_eventHandler.c ****             err_param.attrHandle = eventParam->handleValPair.attrHandle;
  96              		.loc 1 440 0
  97 0038 7B68     		ldr	r3, [r7, #4]
  98 003a 9A89     		ldrh	r2, [r3, #12]
  99 003c 0823     		movs	r3, #8
 100 003e FB18     		adds	r3, r7, r3
 101 0040 1A80     		strh	r2, [r3]
 441:Generated_Source\PSoC4/BLE_eventHandler.c ****             err_param.errorCode = gattErr;
 102              		.loc 1 441 0
 103 0042 0823     		movs	r3, #8
 104 0044 FB18     		adds	r3, r7, r3
 105 0046 0F22     		movs	r2, #15
 106 0048 BA18     		adds	r2, r7, r2
 107 004a 1278     		ldrb	r2, [r2]
 108 004c DA70     		strb	r2, [r3, #3]
 442:Generated_Source\PSoC4/BLE_eventHandler.c **** 
 443:Generated_Source\PSoC4/BLE_eventHandler.c ****             /* Send Error Response */
 444:Generated_Source\PSoC4/BLE_eventHandler.c ****             (void)CyBle_GattsErrorRsp(eventParam->connHandle, &err_param);
 109              		.loc 1 444 0
 110 004e 0823     		movs	r3, #8
 111 0050 FA18     		adds	r2, r7, r3
 112 0052 7B68     		ldr	r3, [r7, #4]
 113 0054 1100     		movs	r1, r2
 114 0056 1868     		ldr	r0, [r3]
 115 0058 FFF7FEFF 		bl	CyBle_GattsErrorRsp
 116              	.LBE2:
 445:Generated_Source\PSoC4/BLE_eventHandler.c ****         }
 446:Generated_Source\PSoC4/BLE_eventHandler.c ****         else
 447:Generated_Source\PSoC4/BLE_eventHandler.c ****         {
 448:Generated_Source\PSoC4/BLE_eventHandler.c ****             (void)CyBle_GattsWriteRsp(eventParam->connHandle);
 449:Generated_Source\PSoC4/BLE_eventHandler.c ****         }
 450:Generated_Source\PSoC4/BLE_eventHandler.c ****     }
 451:Generated_Source\PSoC4/BLE_eventHandler.c **** }
 117              		.loc 1 451 0
 118 005c 03E0     		b	.L4
 119              	.L3:
ARM GAS  C:\Users\TTSS\AppData\Local\Temp\ccySleeg.s 			page 11


 448:Generated_Source\PSoC4/BLE_eventHandler.c ****         }
 120              		.loc 1 448 0
 121 005e 7B68     		ldr	r3, [r7, #4]
 122 0060 1868     		ldr	r0, [r3]
 123 0062 FFF7FEFF 		bl	CyBle_GattsWriteRsp
 124              	.L4:
 125              		.loc 1 451 0
 126 0066 C046     		nop
 127 0068 BD46     		mov	sp, r7
 128 006a 05B0     		add	sp, sp, #20
 129              		@ sp needed
 130 006c 90BD     		pop	{r4, r7, pc}
 131              	.L6:
 132 006e C046     		.align	2
 133              	.L5:
 134 0070 00000000 		.word	cyBle_eventHandlerFlag
 135              		.cfi_endproc
 136              	.LFE2:
 137              		.size	CyBle_WriteReqHandler, .-CyBle_WriteReqHandler
 138              		.section	.text.CyBle_ValueConfirmation,"ax",%progbits
 139              		.align	2
 140              		.code	16
 141              		.thumb_func
 142              		.type	CyBle_ValueConfirmation, %function
 143              	CyBle_ValueConfirmation:
 144              	.LFB3:
 452:Generated_Source\PSoC4/BLE_eventHandler.c **** 
 453:Generated_Source\PSoC4/BLE_eventHandler.c **** 
 454:Generated_Source\PSoC4/BLE_eventHandler.c **** /****************************************************************************** 
 455:Generated_Source\PSoC4/BLE_eventHandler.c **** * Function Name: CyBle_ValueConfirmation
 456:Generated_Source\PSoC4/BLE_eventHandler.c **** ***************************************************************************//**
 457:Generated_Source\PSoC4/BLE_eventHandler.c **** * 
 458:Generated_Source\PSoC4/BLE_eventHandler.c **** *  Handles the Value Confirmation request event from the BLE stack.
 459:Generated_Source\PSoC4/BLE_eventHandler.c **** * 
 460:Generated_Source\PSoC4/BLE_eventHandler.c **** *  \param eventParam: Pointer to a structure of type 'CYBLE_CONN_HANDLE_T'
 461:Generated_Source\PSoC4/BLE_eventHandler.c **** * 
 462:Generated_Source\PSoC4/BLE_eventHandler.c **** * \return
 463:Generated_Source\PSoC4/BLE_eventHandler.c **** *  None
 464:Generated_Source\PSoC4/BLE_eventHandler.c **** * 
 465:Generated_Source\PSoC4/BLE_eventHandler.c **** ******************************************************************************/
 466:Generated_Source\PSoC4/BLE_eventHandler.c **** static void CyBle_ValueConfirmation(const CYBLE_CONN_HANDLE_T *eventParam)
 467:Generated_Source\PSoC4/BLE_eventHandler.c **** {
 145              		.loc 1 467 0
 146              		.cfi_startproc
 147              		@ args = 0, pretend = 0, frame = 8
 148              		@ frame_needed = 1, uses_anonymous_args = 0
 149 0000 80B5     		push	{r7, lr}
 150              		.cfi_def_cfa_offset 8
 151              		.cfi_offset 7, -8
 152              		.cfi_offset 14, -4
 153 0002 82B0     		sub	sp, sp, #8
 154              		.cfi_def_cfa_offset 16
 155 0004 00AF     		add	r7, sp, #0
 156              		.cfi_def_cfa_register 7
 157 0006 7860     		str	r0, [r7, #4]
 468:Generated_Source\PSoC4/BLE_eventHandler.c ****     if(eventParam != NULL)
 469:Generated_Source\PSoC4/BLE_eventHandler.c ****     {
ARM GAS  C:\Users\TTSS\AppData\Local\Temp\ccySleeg.s 			page 12


 470:Generated_Source\PSoC4/BLE_eventHandler.c ****     #ifdef CYBLE_AIOS_SERVER
 471:Generated_Source\PSoC4/BLE_eventHandler.c ****         if((cyBle_eventHandlerFlag & CYBLE_CALLBACK) != 0u)
 472:Generated_Source\PSoC4/BLE_eventHandler.c ****         {
 473:Generated_Source\PSoC4/BLE_eventHandler.c ****             CyBle_AiossConfirmationEventHandler(eventParam);
 474:Generated_Source\PSoC4/BLE_eventHandler.c ****         }
 475:Generated_Source\PSoC4/BLE_eventHandler.c ****     #endif /* CYBLE_AIOS_SERVER */
 476:Generated_Source\PSoC4/BLE_eventHandler.c ****     #ifdef CYBLE_BCS_SERVER
 477:Generated_Source\PSoC4/BLE_eventHandler.c ****         CyBle_BcssConfirmationEventHandler(eventParam);
 478:Generated_Source\PSoC4/BLE_eventHandler.c ****     #endif /* CYBLE_BCS_SERVER */
 479:Generated_Source\PSoC4/BLE_eventHandler.c ****     #ifdef CYBLE_BLS_SERVER
 480:Generated_Source\PSoC4/BLE_eventHandler.c ****         if((cyBle_eventHandlerFlag & CYBLE_CALLBACK) != 0u)
 481:Generated_Source\PSoC4/BLE_eventHandler.c ****         {
 482:Generated_Source\PSoC4/BLE_eventHandler.c ****             CyBle_BlssConfirmationEventHandler(eventParam);
 483:Generated_Source\PSoC4/BLE_eventHandler.c ****         }
 484:Generated_Source\PSoC4/BLE_eventHandler.c ****     #endif /* CYBLE_BLS_SERVER */
 485:Generated_Source\PSoC4/BLE_eventHandler.c ****     
 486:Generated_Source\PSoC4/BLE_eventHandler.c ****     #ifdef CYBLE_CGMS_SERVER
 487:Generated_Source\PSoC4/BLE_eventHandler.c ****         if((cyBle_eventHandlerFlag & CYBLE_CALLBACK) != 0u)
 488:Generated_Source\PSoC4/BLE_eventHandler.c ****         {
 489:Generated_Source\PSoC4/BLE_eventHandler.c ****             CyBle_CgmssConfirmationEventHandler(eventParam);
 490:Generated_Source\PSoC4/BLE_eventHandler.c ****         }
 491:Generated_Source\PSoC4/BLE_eventHandler.c ****     #endif /* CYBLE_CGMS_SERVER */
 492:Generated_Source\PSoC4/BLE_eventHandler.c ****     
 493:Generated_Source\PSoC4/BLE_eventHandler.c ****     #ifdef CYBLE_CPS_SERVER
 494:Generated_Source\PSoC4/BLE_eventHandler.c ****         if((cyBle_eventHandlerFlag & CYBLE_CALLBACK) != 0u)
 495:Generated_Source\PSoC4/BLE_eventHandler.c ****         {
 496:Generated_Source\PSoC4/BLE_eventHandler.c ****             CyBle_CpssConfirmationEventHandler(eventParam);
 497:Generated_Source\PSoC4/BLE_eventHandler.c ****         }
 498:Generated_Source\PSoC4/BLE_eventHandler.c ****     #endif /* CYBLE_CPS_SERVER */
 499:Generated_Source\PSoC4/BLE_eventHandler.c ****     
 500:Generated_Source\PSoC4/BLE_eventHandler.c ****     #ifdef CYBLE_CSCS_SERVER
 501:Generated_Source\PSoC4/BLE_eventHandler.c ****         if((cyBle_eventHandlerFlag & CYBLE_CALLBACK) != 0u)
 502:Generated_Source\PSoC4/BLE_eventHandler.c ****         {
 503:Generated_Source\PSoC4/BLE_eventHandler.c ****             CyBle_CscssConfirmationEventHandler(eventParam);
 504:Generated_Source\PSoC4/BLE_eventHandler.c ****         }
 505:Generated_Source\PSoC4/BLE_eventHandler.c ****     #endif /* CYBLE_CSCS_SERVER */
 506:Generated_Source\PSoC4/BLE_eventHandler.c ****     
 507:Generated_Source\PSoC4/BLE_eventHandler.c ****     #ifdef CYBLE_ESS_SERVER
 508:Generated_Source\PSoC4/BLE_eventHandler.c ****         if((cyBle_eventHandlerFlag & CYBLE_CALLBACK) != 0u)
 509:Generated_Source\PSoC4/BLE_eventHandler.c ****         {
 510:Generated_Source\PSoC4/BLE_eventHandler.c ****             CyBle_EsssConfirmationEventHandler(eventParam);
 511:Generated_Source\PSoC4/BLE_eventHandler.c ****         }
 512:Generated_Source\PSoC4/BLE_eventHandler.c ****     #endif /* CYBLE_ESS_SERVER */
 513:Generated_Source\PSoC4/BLE_eventHandler.c ****     
 514:Generated_Source\PSoC4/BLE_eventHandler.c ****     #ifdef CYBLE_GLS_SERVER
 515:Generated_Source\PSoC4/BLE_eventHandler.c ****         if((cyBle_eventHandlerFlag & CYBLE_CALLBACK) != 0u)
 516:Generated_Source\PSoC4/BLE_eventHandler.c ****         {
 517:Generated_Source\PSoC4/BLE_eventHandler.c ****             CyBle_GlssConfirmationEventHandler(eventParam);
 518:Generated_Source\PSoC4/BLE_eventHandler.c ****         }
 519:Generated_Source\PSoC4/BLE_eventHandler.c ****     #endif /* CYBLE_GLS_SERVER */
 520:Generated_Source\PSoC4/BLE_eventHandler.c ****     
 521:Generated_Source\PSoC4/BLE_eventHandler.c ****     #ifdef CYBLE_HTS_SERVER
 522:Generated_Source\PSoC4/BLE_eventHandler.c ****         if((cyBle_eventHandlerFlag & CYBLE_CALLBACK) != 0u)
 523:Generated_Source\PSoC4/BLE_eventHandler.c ****         {
 524:Generated_Source\PSoC4/BLE_eventHandler.c ****             CyBle_HtssConfirmationEventHandler(eventParam);
 525:Generated_Source\PSoC4/BLE_eventHandler.c ****         }
 526:Generated_Source\PSoC4/BLE_eventHandler.c ****     #endif /* CYBLE_HTS_SERVER */
ARM GAS  C:\Users\TTSS\AppData\Local\Temp\ccySleeg.s 			page 13


 527:Generated_Source\PSoC4/BLE_eventHandler.c **** 
 528:Generated_Source\PSoC4/BLE_eventHandler.c ****     #ifdef CYBLE_LNS_SERVER
 529:Generated_Source\PSoC4/BLE_eventHandler.c ****         if((cyBle_eventHandlerFlag & CYBLE_CALLBACK) != 0u)
 530:Generated_Source\PSoC4/BLE_eventHandler.c ****         {
 531:Generated_Source\PSoC4/BLE_eventHandler.c ****             CyBle_LnssConfirmationEventHandler(eventParam);
 532:Generated_Source\PSoC4/BLE_eventHandler.c ****         }
 533:Generated_Source\PSoC4/BLE_eventHandler.c ****     #endif /* CYBLE_LNS_SERVER */
 534:Generated_Source\PSoC4/BLE_eventHandler.c ****     
 535:Generated_Source\PSoC4/BLE_eventHandler.c ****     #ifdef CYBLE_PLXS_SERVER
 536:Generated_Source\PSoC4/BLE_eventHandler.c ****         if((cyBle_eventHandlerFlag & CYBLE_CALLBACK) != 0u)
 537:Generated_Source\PSoC4/BLE_eventHandler.c ****         {
 538:Generated_Source\PSoC4/BLE_eventHandler.c ****             CyBle_PlxssConfirmationEventHandler((CYBLE_CONN_HANDLE_T *)eventParam);
 539:Generated_Source\PSoC4/BLE_eventHandler.c ****         }
 540:Generated_Source\PSoC4/BLE_eventHandler.c ****     #endif /* CYBLE_PLXS_SERVER */
 541:Generated_Source\PSoC4/BLE_eventHandler.c ****     
 542:Generated_Source\PSoC4/BLE_eventHandler.c ****     #ifdef CYBLE_RSCS_SERVER
 543:Generated_Source\PSoC4/BLE_eventHandler.c ****         if((cyBle_eventHandlerFlag & CYBLE_CALLBACK) != 0u)
 544:Generated_Source\PSoC4/BLE_eventHandler.c ****         {
 545:Generated_Source\PSoC4/BLE_eventHandler.c ****             CyBle_RscssConfirmationEventHandler(eventParam);
 546:Generated_Source\PSoC4/BLE_eventHandler.c ****         }
 547:Generated_Source\PSoC4/BLE_eventHandler.c ****     #endif /* CYBLE_RSCS_SERVER */
 548:Generated_Source\PSoC4/BLE_eventHandler.c ****     
 549:Generated_Source\PSoC4/BLE_eventHandler.c ****     #ifdef CYBLE_UDS_SERVER
 550:Generated_Source\PSoC4/BLE_eventHandler.c ****         if((cyBle_eventHandlerFlag & CYBLE_CALLBACK) != 0u)
 551:Generated_Source\PSoC4/BLE_eventHandler.c ****         {
 552:Generated_Source\PSoC4/BLE_eventHandler.c ****             CyBle_UdssConfirmationEventHandler(eventParam);
 553:Generated_Source\PSoC4/BLE_eventHandler.c ****         }
 554:Generated_Source\PSoC4/BLE_eventHandler.c ****     #endif /* CYBLE_UDS_SERVER */
 555:Generated_Source\PSoC4/BLE_eventHandler.c ****     
 556:Generated_Source\PSoC4/BLE_eventHandler.c ****     #ifdef CYBLE_WPTS_SERVER
 557:Generated_Source\PSoC4/BLE_eventHandler.c ****         if((cyBle_eventHandlerFlag & CYBLE_CALLBACK) != 0u)
 558:Generated_Source\PSoC4/BLE_eventHandler.c ****         {
 559:Generated_Source\PSoC4/BLE_eventHandler.c ****             CyBle_WptssConfirmationEventHandler(eventParam);
 560:Generated_Source\PSoC4/BLE_eventHandler.c ****         }
 561:Generated_Source\PSoC4/BLE_eventHandler.c ****     #endif /* CYBLE_WPTS_SERVER */
 562:Generated_Source\PSoC4/BLE_eventHandler.c ****     
 563:Generated_Source\PSoC4/BLE_eventHandler.c ****     #ifdef CYBLE_WSS_SERVER
 564:Generated_Source\PSoC4/BLE_eventHandler.c ****         if((cyBle_eventHandlerFlag & CYBLE_CALLBACK) != 0u)
 565:Generated_Source\PSoC4/BLE_eventHandler.c ****         {
 566:Generated_Source\PSoC4/BLE_eventHandler.c ****             CyBle_WsssConfirmationEventHandler(eventParam);
 567:Generated_Source\PSoC4/BLE_eventHandler.c ****         }
 568:Generated_Source\PSoC4/BLE_eventHandler.c ****     #endif /* CYBLE_WSS_SERVER */
 569:Generated_Source\PSoC4/BLE_eventHandler.c ****     }
 570:Generated_Source\PSoC4/BLE_eventHandler.c **** }
 158              		.loc 1 570 0
 159 0008 C046     		nop
 160 000a BD46     		mov	sp, r7
 161 000c 02B0     		add	sp, sp, #8
 162              		@ sp needed
 163 000e 80BD     		pop	{r7, pc}
 164              		.cfi_endproc
 165              	.LFE3:
 166              		.size	CyBle_ValueConfirmation, .-CyBle_ValueConfirmation
 167              		.section	.text.CyBle_GattDisconnectEventHandler,"ax",%progbits
 168              		.align	2
 169              		.code	16
 170              		.thumb_func
ARM GAS  C:\Users\TTSS\AppData\Local\Temp\ccySleeg.s 			page 14


 171              		.type	CyBle_GattDisconnectEventHandler, %function
 172              	CyBle_GattDisconnectEventHandler:
 173              	.LFB4:
 571:Generated_Source\PSoC4/BLE_eventHandler.c **** 
 572:Generated_Source\PSoC4/BLE_eventHandler.c **** #endif /* CYBLE_GATT_ROLE_SERVER */
 573:Generated_Source\PSoC4/BLE_eventHandler.c **** 
 574:Generated_Source\PSoC4/BLE_eventHandler.c **** 
 575:Generated_Source\PSoC4/BLE_eventHandler.c **** #if (CYBLE_GATT_ROLE_CLIENT)
 576:Generated_Source\PSoC4/BLE_eventHandler.c **** 
 577:Generated_Source\PSoC4/BLE_eventHandler.c **** /****************************************************************************** 
 578:Generated_Source\PSoC4/BLE_eventHandler.c **** * Function Name: CyBle_GattcWriteResponseEventHandler
 579:Generated_Source\PSoC4/BLE_eventHandler.c **** ***************************************************************************//**
 580:Generated_Source\PSoC4/BLE_eventHandler.c **** * 
 581:Generated_Source\PSoC4/BLE_eventHandler.c **** *  Handles the Write response event from the BLE stack.
 582:Generated_Source\PSoC4/BLE_eventHandler.c **** * 
 583:Generated_Source\PSoC4/BLE_eventHandler.c **** *  \param eventParam: Pointer to a structure of type 'CYBLE_CONN_HANDLE_T'
 584:Generated_Source\PSoC4/BLE_eventHandler.c **** * 
 585:Generated_Source\PSoC4/BLE_eventHandler.c **** * \return
 586:Generated_Source\PSoC4/BLE_eventHandler.c **** *  None
 587:Generated_Source\PSoC4/BLE_eventHandler.c **** * 
 588:Generated_Source\PSoC4/BLE_eventHandler.c **** ******************************************************************************/
 589:Generated_Source\PSoC4/BLE_eventHandler.c **** static void CyBle_GattcWriteResponseEventHandler(const CYBLE_CONN_HANDLE_T *eventParam)
 590:Generated_Source\PSoC4/BLE_eventHandler.c **** {
 591:Generated_Source\PSoC4/BLE_eventHandler.c **** 
 592:Generated_Source\PSoC4/BLE_eventHandler.c **** #ifdef CYBLE_AIOS_CLIENT
 593:Generated_Source\PSoC4/BLE_eventHandler.c ****     if((cyBle_eventHandlerFlag & CYBLE_CALLBACK) != 0u)
 594:Generated_Source\PSoC4/BLE_eventHandler.c ****     {
 595:Generated_Source\PSoC4/BLE_eventHandler.c ****         CyBle_AioscWriteResponseEventHandler(eventParam);
 596:Generated_Source\PSoC4/BLE_eventHandler.c ****     }
 597:Generated_Source\PSoC4/BLE_eventHandler.c **** #endif /* CYBLE_AIOS_CLIENT */
 598:Generated_Source\PSoC4/BLE_eventHandler.c **** 
 599:Generated_Source\PSoC4/BLE_eventHandler.c **** #ifdef CYBLE_ANCS_CLIENT
 600:Generated_Source\PSoC4/BLE_eventHandler.c ****     CyBle_AncscWriteResponseEventHandler(eventParam);
 601:Generated_Source\PSoC4/BLE_eventHandler.c **** #endif /* CYBLE_ANCS_CLIENT */
 602:Generated_Source\PSoC4/BLE_eventHandler.c **** 
 603:Generated_Source\PSoC4/BLE_eventHandler.c **** #ifdef CYBLE_ANS_CLIENT
 604:Generated_Source\PSoC4/BLE_eventHandler.c ****     if((cyBle_eventHandlerFlag & CYBLE_CALLBACK) != 0u)
 605:Generated_Source\PSoC4/BLE_eventHandler.c ****     {
 606:Generated_Source\PSoC4/BLE_eventHandler.c ****         CyBle_AnscWriteResponseEventHandler(eventParam);
 607:Generated_Source\PSoC4/BLE_eventHandler.c ****     }
 608:Generated_Source\PSoC4/BLE_eventHandler.c **** #endif /* CYBLE_ANS_CLIENT */
 609:Generated_Source\PSoC4/BLE_eventHandler.c **** 
 610:Generated_Source\PSoC4/BLE_eventHandler.c **** #ifdef CYBLE_BAS_CLIENT
 611:Generated_Source\PSoC4/BLE_eventHandler.c ****     if((cyBle_eventHandlerFlag & CYBLE_CALLBACK) != 0u)
 612:Generated_Source\PSoC4/BLE_eventHandler.c ****     {
 613:Generated_Source\PSoC4/BLE_eventHandler.c ****         CyBle_BascWriteResponseEventHandler(eventParam);
 614:Generated_Source\PSoC4/BLE_eventHandler.c ****     }
 615:Generated_Source\PSoC4/BLE_eventHandler.c **** #endif /* CYBLE_BAS_CLIENT */
 616:Generated_Source\PSoC4/BLE_eventHandler.c **** 
 617:Generated_Source\PSoC4/BLE_eventHandler.c **** #ifdef CYBLE_BCS_CLIENT
 618:Generated_Source\PSoC4/BLE_eventHandler.c ****     if((cyBle_eventHandlerFlag & CYBLE_CALLBACK) != 0u)
 619:Generated_Source\PSoC4/BLE_eventHandler.c ****     {
 620:Generated_Source\PSoC4/BLE_eventHandler.c ****         CyBle_BcscWriteResponseEventHandler(eventParam);
 621:Generated_Source\PSoC4/BLE_eventHandler.c ****     }
 622:Generated_Source\PSoC4/BLE_eventHandler.c **** #endif /* CYBLE_BCS_CLIENT */
 623:Generated_Source\PSoC4/BLE_eventHandler.c **** 
 624:Generated_Source\PSoC4/BLE_eventHandler.c **** #ifdef CYBLE_BLS_CLIENT
ARM GAS  C:\Users\TTSS\AppData\Local\Temp\ccySleeg.s 			page 15


 625:Generated_Source\PSoC4/BLE_eventHandler.c ****     if((cyBle_eventHandlerFlag & CYBLE_CALLBACK) != 0u)
 626:Generated_Source\PSoC4/BLE_eventHandler.c ****     {
 627:Generated_Source\PSoC4/BLE_eventHandler.c ****         CyBle_BlscWriteResponseEventHandler(eventParam);
 628:Generated_Source\PSoC4/BLE_eventHandler.c ****     }
 629:Generated_Source\PSoC4/BLE_eventHandler.c **** #endif /* CYBLE_BLS_CLIENT */
 630:Generated_Source\PSoC4/BLE_eventHandler.c **** 
 631:Generated_Source\PSoC4/BLE_eventHandler.c **** #ifdef CYBLE_BMS_CLIENT
 632:Generated_Source\PSoC4/BLE_eventHandler.c ****     if((cyBle_eventHandlerFlag & CYBLE_CALLBACK) != 0u)
 633:Generated_Source\PSoC4/BLE_eventHandler.c ****     {
 634:Generated_Source\PSoC4/BLE_eventHandler.c ****         CyBle_BmscWriteResponseEventHandler(eventParam);
 635:Generated_Source\PSoC4/BLE_eventHandler.c ****     }
 636:Generated_Source\PSoC4/BLE_eventHandler.c **** #endif /* CYBLE_BMS_CLIENT */
 637:Generated_Source\PSoC4/BLE_eventHandler.c **** 
 638:Generated_Source\PSoC4/BLE_eventHandler.c **** #ifdef CYBLE_CGMS_CLIENT
 639:Generated_Source\PSoC4/BLE_eventHandler.c ****     if((cyBle_eventHandlerFlag & CYBLE_CALLBACK) != 0u)
 640:Generated_Source\PSoC4/BLE_eventHandler.c ****     {
 641:Generated_Source\PSoC4/BLE_eventHandler.c ****         CyBle_CgmscWriteResponseEventHandler(eventParam);
 642:Generated_Source\PSoC4/BLE_eventHandler.c ****     }
 643:Generated_Source\PSoC4/BLE_eventHandler.c **** #endif /* CYBLE_CGMS_CLIENT */
 644:Generated_Source\PSoC4/BLE_eventHandler.c **** 
 645:Generated_Source\PSoC4/BLE_eventHandler.c **** #ifdef CYBLE_CPS_CLIENT
 646:Generated_Source\PSoC4/BLE_eventHandler.c ****     if((cyBle_eventHandlerFlag & CYBLE_CALLBACK) != 0u)
 647:Generated_Source\PSoC4/BLE_eventHandler.c ****     {
 648:Generated_Source\PSoC4/BLE_eventHandler.c ****         CyBle_CpscWriteResponseEventHandler(eventParam);
 649:Generated_Source\PSoC4/BLE_eventHandler.c ****     }
 650:Generated_Source\PSoC4/BLE_eventHandler.c **** #endif /* CYBLE_CPS_CLIENT */
 651:Generated_Source\PSoC4/BLE_eventHandler.c **** 
 652:Generated_Source\PSoC4/BLE_eventHandler.c **** #ifdef CYBLE_CSCS_CLIENT
 653:Generated_Source\PSoC4/BLE_eventHandler.c ****     if((cyBle_eventHandlerFlag & CYBLE_CALLBACK) != 0u)
 654:Generated_Source\PSoC4/BLE_eventHandler.c ****     {
 655:Generated_Source\PSoC4/BLE_eventHandler.c ****         CyBle_CscscWriteResponseEventHandler(eventParam);
 656:Generated_Source\PSoC4/BLE_eventHandler.c ****     }
 657:Generated_Source\PSoC4/BLE_eventHandler.c **** #endif /* CYBLE_CSCS_CLIENT */
 658:Generated_Source\PSoC4/BLE_eventHandler.c **** 
 659:Generated_Source\PSoC4/BLE_eventHandler.c **** #ifdef CYBLE_CTS_CLIENT
 660:Generated_Source\PSoC4/BLE_eventHandler.c ****     if((cyBle_eventHandlerFlag & CYBLE_CALLBACK) != 0u)
 661:Generated_Source\PSoC4/BLE_eventHandler.c ****     {
 662:Generated_Source\PSoC4/BLE_eventHandler.c ****         CyBle_CtscWriteResponseEventHandler(eventParam);
 663:Generated_Source\PSoC4/BLE_eventHandler.c ****     }
 664:Generated_Source\PSoC4/BLE_eventHandler.c **** #endif /* CYBLE_CTS_CLIENT */
 665:Generated_Source\PSoC4/BLE_eventHandler.c **** 
 666:Generated_Source\PSoC4/BLE_eventHandler.c **** #ifdef CYBLE_ESS_CLIENT
 667:Generated_Source\PSoC4/BLE_eventHandler.c ****     if((cyBle_eventHandlerFlag & CYBLE_CALLBACK) != 0u)
 668:Generated_Source\PSoC4/BLE_eventHandler.c ****     {
 669:Generated_Source\PSoC4/BLE_eventHandler.c ****         CyBle_EsscWriteResponseEventHandler(eventParam);
 670:Generated_Source\PSoC4/BLE_eventHandler.c ****     }
 671:Generated_Source\PSoC4/BLE_eventHandler.c **** #endif /* CYBLE_ESS_CLIENT */
 672:Generated_Source\PSoC4/BLE_eventHandler.c **** 
 673:Generated_Source\PSoC4/BLE_eventHandler.c **** #ifdef CYBLE_GLS_CLIENT
 674:Generated_Source\PSoC4/BLE_eventHandler.c ****     if((cyBle_eventHandlerFlag & CYBLE_CALLBACK) != 0u)
 675:Generated_Source\PSoC4/BLE_eventHandler.c ****     {
 676:Generated_Source\PSoC4/BLE_eventHandler.c ****         CyBle_GlscWriteResponseEventHandler(eventParam);
 677:Generated_Source\PSoC4/BLE_eventHandler.c ****     }
 678:Generated_Source\PSoC4/BLE_eventHandler.c **** #endif /* CYBLE_GLS_CLIENT */
 679:Generated_Source\PSoC4/BLE_eventHandler.c **** 
 680:Generated_Source\PSoC4/BLE_eventHandler.c **** #ifdef CYBLE_HIDS_CLIENT
 681:Generated_Source\PSoC4/BLE_eventHandler.c ****     if((cyBle_eventHandlerFlag & CYBLE_CALLBACK) != 0u)
ARM GAS  C:\Users\TTSS\AppData\Local\Temp\ccySleeg.s 			page 16


 682:Generated_Source\PSoC4/BLE_eventHandler.c ****     {
 683:Generated_Source\PSoC4/BLE_eventHandler.c ****         CyBle_HidscWriteResponseEventHandler(eventParam);
 684:Generated_Source\PSoC4/BLE_eventHandler.c ****     }
 685:Generated_Source\PSoC4/BLE_eventHandler.c **** #endif /* CYBLE_HIDS_CLIENT */
 686:Generated_Source\PSoC4/BLE_eventHandler.c **** 
 687:Generated_Source\PSoC4/BLE_eventHandler.c **** #ifdef CYBLE_HPS_CLIENT
 688:Generated_Source\PSoC4/BLE_eventHandler.c ****     if((cyBle_eventHandlerFlag & CYBLE_CALLBACK) != 0u)
 689:Generated_Source\PSoC4/BLE_eventHandler.c ****     {
 690:Generated_Source\PSoC4/BLE_eventHandler.c ****         CyBle_HpscWriteResponseEventHandler(eventParam);
 691:Generated_Source\PSoC4/BLE_eventHandler.c ****     }
 692:Generated_Source\PSoC4/BLE_eventHandler.c **** #endif /* CYBLE_HPS_CLIENT */
 693:Generated_Source\PSoC4/BLE_eventHandler.c **** 
 694:Generated_Source\PSoC4/BLE_eventHandler.c **** #ifdef CYBLE_HRS_CLIENT
 695:Generated_Source\PSoC4/BLE_eventHandler.c ****     if((cyBle_eventHandlerFlag & CYBLE_CALLBACK) != 0u)
 696:Generated_Source\PSoC4/BLE_eventHandler.c ****     {
 697:Generated_Source\PSoC4/BLE_eventHandler.c ****         CyBle_HrscWriteResponseEventHandler(eventParam);
 698:Generated_Source\PSoC4/BLE_eventHandler.c ****     }
 699:Generated_Source\PSoC4/BLE_eventHandler.c **** #endif /* CYBLE_HRS_CLIENT */
 700:Generated_Source\PSoC4/BLE_eventHandler.c **** 
 701:Generated_Source\PSoC4/BLE_eventHandler.c **** #ifdef CYBLE_HTS_CLIENT
 702:Generated_Source\PSoC4/BLE_eventHandler.c ****     if((cyBle_eventHandlerFlag & CYBLE_CALLBACK) != 0u)
 703:Generated_Source\PSoC4/BLE_eventHandler.c ****     {
 704:Generated_Source\PSoC4/BLE_eventHandler.c ****         CyBle_HtscWriteResponseEventHandler(eventParam);
 705:Generated_Source\PSoC4/BLE_eventHandler.c ****     }
 706:Generated_Source\PSoC4/BLE_eventHandler.c **** #endif /* CYBLE_HTS_CLIENT */
 707:Generated_Source\PSoC4/BLE_eventHandler.c **** 
 708:Generated_Source\PSoC4/BLE_eventHandler.c **** #ifdef CYBLE_IPS_CLIENT
 709:Generated_Source\PSoC4/BLE_eventHandler.c ****     if((cyBle_eventHandlerFlag & CYBLE_CALLBACK) != 0u)
 710:Generated_Source\PSoC4/BLE_eventHandler.c ****     {
 711:Generated_Source\PSoC4/BLE_eventHandler.c ****         CyBle_IpscWriteResponseEventHandler(eventParam);
 712:Generated_Source\PSoC4/BLE_eventHandler.c ****     }
 713:Generated_Source\PSoC4/BLE_eventHandler.c **** #endif /* CYBLE_IPS_CLIENT */
 714:Generated_Source\PSoC4/BLE_eventHandler.c **** 
 715:Generated_Source\PSoC4/BLE_eventHandler.c **** #ifdef CYBLE_LLS_CLIENT
 716:Generated_Source\PSoC4/BLE_eventHandler.c ****     if((cyBle_eventHandlerFlag & CYBLE_CALLBACK) != 0u)
 717:Generated_Source\PSoC4/BLE_eventHandler.c ****     {
 718:Generated_Source\PSoC4/BLE_eventHandler.c ****         CyBle_LlscWriteResponseEventHandler(eventParam);
 719:Generated_Source\PSoC4/BLE_eventHandler.c ****     }
 720:Generated_Source\PSoC4/BLE_eventHandler.c **** #endif /* CYBLE_LLS_CLIENT */
 721:Generated_Source\PSoC4/BLE_eventHandler.c **** 
 722:Generated_Source\PSoC4/BLE_eventHandler.c **** #ifdef CYBLE_LNS_CLIENT
 723:Generated_Source\PSoC4/BLE_eventHandler.c ****     if((cyBle_eventHandlerFlag & CYBLE_CALLBACK) != 0u)
 724:Generated_Source\PSoC4/BLE_eventHandler.c ****     {
 725:Generated_Source\PSoC4/BLE_eventHandler.c ****         CyBle_LnscWriteResponseEventHandler(eventParam);
 726:Generated_Source\PSoC4/BLE_eventHandler.c ****     }
 727:Generated_Source\PSoC4/BLE_eventHandler.c **** #endif /* CYBLE_LNS_CLIENT */
 728:Generated_Source\PSoC4/BLE_eventHandler.c **** 
 729:Generated_Source\PSoC4/BLE_eventHandler.c **** #ifdef CYBLE_PASS_CLIENT
 730:Generated_Source\PSoC4/BLE_eventHandler.c ****     if((cyBle_eventHandlerFlag & CYBLE_CALLBACK) != 0u)
 731:Generated_Source\PSoC4/BLE_eventHandler.c ****     {
 732:Generated_Source\PSoC4/BLE_eventHandler.c ****         CyBle_PasscWriteResponseEventHandler(eventParam);
 733:Generated_Source\PSoC4/BLE_eventHandler.c ****     }
 734:Generated_Source\PSoC4/BLE_eventHandler.c **** #endif /* CYBLE_PASS_CLIENT */
 735:Generated_Source\PSoC4/BLE_eventHandler.c **** 
 736:Generated_Source\PSoC4/BLE_eventHandler.c **** #ifdef CYBLE_PLXS_CLIENT
 737:Generated_Source\PSoC4/BLE_eventHandler.c ****     if((cyBle_eventHandlerFlag & CYBLE_CALLBACK) != 0u)
 738:Generated_Source\PSoC4/BLE_eventHandler.c ****     {
ARM GAS  C:\Users\TTSS\AppData\Local\Temp\ccySleeg.s 			page 17


 739:Generated_Source\PSoC4/BLE_eventHandler.c ****         CyBle_PlxscWriteResponseEventHandler(eventParam);
 740:Generated_Source\PSoC4/BLE_eventHandler.c ****     }
 741:Generated_Source\PSoC4/BLE_eventHandler.c **** #endif /* CYBLE_PASS_CLIENT */
 742:Generated_Source\PSoC4/BLE_eventHandler.c **** 
 743:Generated_Source\PSoC4/BLE_eventHandler.c **** #ifdef CYBLE_RSCS_CLIENT
 744:Generated_Source\PSoC4/BLE_eventHandler.c ****     if((cyBle_eventHandlerFlag & CYBLE_CALLBACK) != 0u)
 745:Generated_Source\PSoC4/BLE_eventHandler.c ****     {
 746:Generated_Source\PSoC4/BLE_eventHandler.c ****         CyBle_RscscWriteResponseEventHandler(eventParam);
 747:Generated_Source\PSoC4/BLE_eventHandler.c ****     }
 748:Generated_Source\PSoC4/BLE_eventHandler.c **** #endif /* CYBLE_RSCS_CLIENT */
 749:Generated_Source\PSoC4/BLE_eventHandler.c **** 
 750:Generated_Source\PSoC4/BLE_eventHandler.c **** #ifdef CYBLE_SCPS_CLIENT
 751:Generated_Source\PSoC4/BLE_eventHandler.c ****     if((cyBle_eventHandlerFlag & CYBLE_CALLBACK) != 0u)
 752:Generated_Source\PSoC4/BLE_eventHandler.c ****     {
 753:Generated_Source\PSoC4/BLE_eventHandler.c ****         CyBle_ScpscWriteResponseEventHandler(eventParam);
 754:Generated_Source\PSoC4/BLE_eventHandler.c ****     }
 755:Generated_Source\PSoC4/BLE_eventHandler.c **** #endif /* CYBLE_SCPS_CLIENT */
 756:Generated_Source\PSoC4/BLE_eventHandler.c **** 
 757:Generated_Source\PSoC4/BLE_eventHandler.c **** #ifdef CYBLE_TPS_CLIENT
 758:Generated_Source\PSoC4/BLE_eventHandler.c ****     if((cyBle_eventHandlerFlag & CYBLE_CALLBACK) != 0u)
 759:Generated_Source\PSoC4/BLE_eventHandler.c ****     {
 760:Generated_Source\PSoC4/BLE_eventHandler.c ****         CyBle_TpscWriteResponseEventHandler(eventParam);
 761:Generated_Source\PSoC4/BLE_eventHandler.c ****     }
 762:Generated_Source\PSoC4/BLE_eventHandler.c **** #endif /* CYBLE_TPS_CLIENT */
 763:Generated_Source\PSoC4/BLE_eventHandler.c **** 
 764:Generated_Source\PSoC4/BLE_eventHandler.c **** #ifdef CYBLE_UDS_CLIENT
 765:Generated_Source\PSoC4/BLE_eventHandler.c ****     if((cyBle_eventHandlerFlag & CYBLE_CALLBACK) != 0u)
 766:Generated_Source\PSoC4/BLE_eventHandler.c ****     {
 767:Generated_Source\PSoC4/BLE_eventHandler.c ****         CyBle_UdscWriteResponseEventHandler(eventParam);
 768:Generated_Source\PSoC4/BLE_eventHandler.c ****     }
 769:Generated_Source\PSoC4/BLE_eventHandler.c **** #endif /* CYBLE_UDS_CLIENT */
 770:Generated_Source\PSoC4/BLE_eventHandler.c **** #ifdef CYBLE_WPTS_CLIENT
 771:Generated_Source\PSoC4/BLE_eventHandler.c ****     if((cyBle_eventHandlerFlag & CYBLE_CALLBACK) != 0u)
 772:Generated_Source\PSoC4/BLE_eventHandler.c ****     {
 773:Generated_Source\PSoC4/BLE_eventHandler.c ****         CyBle_WptscWriteResponseEventHandler(eventParam);
 774:Generated_Source\PSoC4/BLE_eventHandler.c ****     }
 775:Generated_Source\PSoC4/BLE_eventHandler.c **** #endif /* CYBLE_WPTS_CLIENT */
 776:Generated_Source\PSoC4/BLE_eventHandler.c **** #ifdef CYBLE_WSS_CLIENT
 777:Generated_Source\PSoC4/BLE_eventHandler.c ****     if((cyBle_eventHandlerFlag & CYBLE_CALLBACK) != 0u)
 778:Generated_Source\PSoC4/BLE_eventHandler.c ****     {
 779:Generated_Source\PSoC4/BLE_eventHandler.c ****         CyBle_WsscWriteResponseEventHandler(eventParam);
 780:Generated_Source\PSoC4/BLE_eventHandler.c ****     }
 781:Generated_Source\PSoC4/BLE_eventHandler.c **** #endif /* CYBLE_WSS_CLIENT */
 782:Generated_Source\PSoC4/BLE_eventHandler.c **** }
 783:Generated_Source\PSoC4/BLE_eventHandler.c **** 
 784:Generated_Source\PSoC4/BLE_eventHandler.c **** 
 785:Generated_Source\PSoC4/BLE_eventHandler.c **** /******************************************************************************    
 786:Generated_Source\PSoC4/BLE_eventHandler.c **** * Function Name: CyBle_NotificationEventHandler
 787:Generated_Source\PSoC4/BLE_eventHandler.c **** ***************************************************************************//**
 788:Generated_Source\PSoC4/BLE_eventHandler.c **** * 
 789:Generated_Source\PSoC4/BLE_eventHandler.c **** *  Handles the Notification event from BLE stack.
 790:Generated_Source\PSoC4/BLE_eventHandler.c **** * 
 791:Generated_Source\PSoC4/BLE_eventHandler.c **** *  \param eventParam: event parameter
 792:Generated_Source\PSoC4/BLE_eventHandler.c **** * 
 793:Generated_Source\PSoC4/BLE_eventHandler.c **** * \return
 794:Generated_Source\PSoC4/BLE_eventHandler.c **** *  None
 795:Generated_Source\PSoC4/BLE_eventHandler.c **** * 
ARM GAS  C:\Users\TTSS\AppData\Local\Temp\ccySleeg.s 			page 18


 796:Generated_Source\PSoC4/BLE_eventHandler.c **** ******************************************************************************/
 797:Generated_Source\PSoC4/BLE_eventHandler.c **** static void CyBle_NotificationEventHandler(CYBLE_GATTC_HANDLE_VALUE_NTF_PARAM_T *eventParam)
 798:Generated_Source\PSoC4/BLE_eventHandler.c **** {
 799:Generated_Source\PSoC4/BLE_eventHandler.c **** #ifdef CYBLE_AIOS_CLIENT
 800:Generated_Source\PSoC4/BLE_eventHandler.c ****     if((cyBle_eventHandlerFlag & CYBLE_CALLBACK) != 0u)
 801:Generated_Source\PSoC4/BLE_eventHandler.c ****     {
 802:Generated_Source\PSoC4/BLE_eventHandler.c ****         CyBle_AioscNotificationEventHandler(eventParam);
 803:Generated_Source\PSoC4/BLE_eventHandler.c ****     }
 804:Generated_Source\PSoC4/BLE_eventHandler.c **** #endif /* CYBLE_AIOS_CLIENT */
 805:Generated_Source\PSoC4/BLE_eventHandler.c **** #ifdef CYBLE_ANCS_CLIENT
 806:Generated_Source\PSoC4/BLE_eventHandler.c ****     CyBle_AncscNotificationEventHandler(eventParam);
 807:Generated_Source\PSoC4/BLE_eventHandler.c **** #endif /* CYBLE_ANCS_CLIENT */
 808:Generated_Source\PSoC4/BLE_eventHandler.c **** #ifdef CYBLE_ANS_CLIENT
 809:Generated_Source\PSoC4/BLE_eventHandler.c ****     if((cyBle_eventHandlerFlag & CYBLE_CALLBACK) != 0u)
 810:Generated_Source\PSoC4/BLE_eventHandler.c ****     {
 811:Generated_Source\PSoC4/BLE_eventHandler.c ****         CyBle_AnscNotificationEventHandler(eventParam);
 812:Generated_Source\PSoC4/BLE_eventHandler.c ****     }
 813:Generated_Source\PSoC4/BLE_eventHandler.c **** #endif /* CYBLE_ANS_CLIENT */
 814:Generated_Source\PSoC4/BLE_eventHandler.c **** #ifdef CYBLE_BAS_CLIENT
 815:Generated_Source\PSoC4/BLE_eventHandler.c ****     if((cyBle_eventHandlerFlag & CYBLE_CALLBACK) != 0u)
 816:Generated_Source\PSoC4/BLE_eventHandler.c ****     {
 817:Generated_Source\PSoC4/BLE_eventHandler.c ****         CyBle_BascNotificationEventHandler(eventParam);
 818:Generated_Source\PSoC4/BLE_eventHandler.c ****     }
 819:Generated_Source\PSoC4/BLE_eventHandler.c **** #endif /* CYBLE_BAS_CLIENT */
 820:Generated_Source\PSoC4/BLE_eventHandler.c **** #ifdef CYBLE_BLS_CLIENT
 821:Generated_Source\PSoC4/BLE_eventHandler.c ****     if((cyBle_eventHandlerFlag & CYBLE_CALLBACK) != 0u)
 822:Generated_Source\PSoC4/BLE_eventHandler.c ****     {
 823:Generated_Source\PSoC4/BLE_eventHandler.c ****         CyBle_BlscNotificationEventHandler(eventParam);
 824:Generated_Source\PSoC4/BLE_eventHandler.c ****     }
 825:Generated_Source\PSoC4/BLE_eventHandler.c **** #endif /* CYBLE_BLS_CLIENT */
 826:Generated_Source\PSoC4/BLE_eventHandler.c **** #ifdef CYBLE_CGMS_CLIENT
 827:Generated_Source\PSoC4/BLE_eventHandler.c ****     if((cyBle_eventHandlerFlag & CYBLE_CALLBACK) != 0u)
 828:Generated_Source\PSoC4/BLE_eventHandler.c ****     {
 829:Generated_Source\PSoC4/BLE_eventHandler.c ****         CyBle_CgmscNotificationEventHandler(eventParam);
 830:Generated_Source\PSoC4/BLE_eventHandler.c ****     }
 831:Generated_Source\PSoC4/BLE_eventHandler.c **** #endif /* CYBLE_CGMS_CLIENT */
 832:Generated_Source\PSoC4/BLE_eventHandler.c **** #ifdef CYBLE_CPS_CLIENT
 833:Generated_Source\PSoC4/BLE_eventHandler.c ****     if((cyBle_eventHandlerFlag & CYBLE_CALLBACK) != 0u)
 834:Generated_Source\PSoC4/BLE_eventHandler.c ****     {
 835:Generated_Source\PSoC4/BLE_eventHandler.c ****         CyBle_CpscNotificationEventHandler(eventParam);
 836:Generated_Source\PSoC4/BLE_eventHandler.c ****     }
 837:Generated_Source\PSoC4/BLE_eventHandler.c **** #endif /* CYBLE_CPS_CLIENT */
 838:Generated_Source\PSoC4/BLE_eventHandler.c **** #ifdef CYBLE_CSCS_CLIENT
 839:Generated_Source\PSoC4/BLE_eventHandler.c ****     if((cyBle_eventHandlerFlag & CYBLE_CALLBACK) != 0u)
 840:Generated_Source\PSoC4/BLE_eventHandler.c ****     {
 841:Generated_Source\PSoC4/BLE_eventHandler.c ****         CyBle_CscscNotificationEventHandler(eventParam);
 842:Generated_Source\PSoC4/BLE_eventHandler.c ****     }
 843:Generated_Source\PSoC4/BLE_eventHandler.c **** #endif /* CYBLE_CSCS_CLIENT */
 844:Generated_Source\PSoC4/BLE_eventHandler.c **** #ifdef CYBLE_CTS_CLIENT
 845:Generated_Source\PSoC4/BLE_eventHandler.c ****     if((cyBle_eventHandlerFlag & CYBLE_CALLBACK) != 0u)
 846:Generated_Source\PSoC4/BLE_eventHandler.c ****     {
 847:Generated_Source\PSoC4/BLE_eventHandler.c ****         CyBle_CtscNotificationEventHandler(eventParam);
 848:Generated_Source\PSoC4/BLE_eventHandler.c ****     }
 849:Generated_Source\PSoC4/BLE_eventHandler.c **** #endif /* CYBLE_CTS_CLIENT */
 850:Generated_Source\PSoC4/BLE_eventHandler.c **** #ifdef CYBLE_ESS_CLIENT
 851:Generated_Source\PSoC4/BLE_eventHandler.c ****     if((cyBle_eventHandlerFlag & CYBLE_CALLBACK) != 0u)
 852:Generated_Source\PSoC4/BLE_eventHandler.c ****     {
ARM GAS  C:\Users\TTSS\AppData\Local\Temp\ccySleeg.s 			page 19


 853:Generated_Source\PSoC4/BLE_eventHandler.c ****         CyBle_EsscNotificationEventHandler(eventParam);
 854:Generated_Source\PSoC4/BLE_eventHandler.c ****     }
 855:Generated_Source\PSoC4/BLE_eventHandler.c **** #endif /* CYBLE_ESS_CLIENT */
 856:Generated_Source\PSoC4/BLE_eventHandler.c **** #ifdef CYBLE_GLS_CLIENT
 857:Generated_Source\PSoC4/BLE_eventHandler.c ****     if((cyBle_eventHandlerFlag & CYBLE_CALLBACK) != 0u)
 858:Generated_Source\PSoC4/BLE_eventHandler.c ****     {
 859:Generated_Source\PSoC4/BLE_eventHandler.c ****         CyBle_GlscNotificationEventHandler(eventParam);
 860:Generated_Source\PSoC4/BLE_eventHandler.c ****     }
 861:Generated_Source\PSoC4/BLE_eventHandler.c **** #endif /* CYBLE_GLS_CLIENT */
 862:Generated_Source\PSoC4/BLE_eventHandler.c **** #ifdef CYBLE_HIDS_CLIENT
 863:Generated_Source\PSoC4/BLE_eventHandler.c ****     if((cyBle_eventHandlerFlag & CYBLE_CALLBACK) != 0u)
 864:Generated_Source\PSoC4/BLE_eventHandler.c ****     {
 865:Generated_Source\PSoC4/BLE_eventHandler.c ****         CyBle_HidscNotificationEventHandler(eventParam);
 866:Generated_Source\PSoC4/BLE_eventHandler.c ****     }
 867:Generated_Source\PSoC4/BLE_eventHandler.c **** #endif /* CYBLE_HIDS_CLIENT */
 868:Generated_Source\PSoC4/BLE_eventHandler.c **** #ifdef CYBLE_HPS_CLIENT
 869:Generated_Source\PSoC4/BLE_eventHandler.c ****     if((cyBle_eventHandlerFlag & CYBLE_CALLBACK) != 0u)
 870:Generated_Source\PSoC4/BLE_eventHandler.c ****     {
 871:Generated_Source\PSoC4/BLE_eventHandler.c ****         CyBle_HpscNotificationEventHandler(eventParam);
 872:Generated_Source\PSoC4/BLE_eventHandler.c ****     }
 873:Generated_Source\PSoC4/BLE_eventHandler.c **** #endif /* CYBLE_HPS_CLIENT */
 874:Generated_Source\PSoC4/BLE_eventHandler.c **** #ifdef CYBLE_HRS_CLIENT
 875:Generated_Source\PSoC4/BLE_eventHandler.c ****     if((cyBle_eventHandlerFlag & CYBLE_CALLBACK) != 0u)
 876:Generated_Source\PSoC4/BLE_eventHandler.c ****     {
 877:Generated_Source\PSoC4/BLE_eventHandler.c ****         CyBle_HrscNotificationEventHandler(eventParam);
 878:Generated_Source\PSoC4/BLE_eventHandler.c ****     }
 879:Generated_Source\PSoC4/BLE_eventHandler.c **** #endif /* CYBLE_HRS_CLIENT */
 880:Generated_Source\PSoC4/BLE_eventHandler.c **** #ifdef CYBLE_HTS_CLIENT
 881:Generated_Source\PSoC4/BLE_eventHandler.c ****     if((cyBle_eventHandlerFlag & CYBLE_CALLBACK) != 0u)
 882:Generated_Source\PSoC4/BLE_eventHandler.c ****     {
 883:Generated_Source\PSoC4/BLE_eventHandler.c ****         CyBle_HtscNotificationEventHandler(eventParam);
 884:Generated_Source\PSoC4/BLE_eventHandler.c ****     }
 885:Generated_Source\PSoC4/BLE_eventHandler.c **** #endif /* CYBLE_HTS_CLIENT */
 886:Generated_Source\PSoC4/BLE_eventHandler.c **** #ifdef CYBLE_LNS_CLIENT
 887:Generated_Source\PSoC4/BLE_eventHandler.c ****     if((cyBle_eventHandlerFlag & CYBLE_CALLBACK) != 0u)
 888:Generated_Source\PSoC4/BLE_eventHandler.c ****     {
 889:Generated_Source\PSoC4/BLE_eventHandler.c ****         CyBle_LnscNotificationEventHandler(eventParam);
 890:Generated_Source\PSoC4/BLE_eventHandler.c ****     }
 891:Generated_Source\PSoC4/BLE_eventHandler.c **** #endif /* CYBLE_LNS_CLIENT */
 892:Generated_Source\PSoC4/BLE_eventHandler.c **** #ifdef CYBLE_PASS_CLIENT
 893:Generated_Source\PSoC4/BLE_eventHandler.c ****     if((cyBle_eventHandlerFlag & CYBLE_CALLBACK) != 0u)
 894:Generated_Source\PSoC4/BLE_eventHandler.c ****     {
 895:Generated_Source\PSoC4/BLE_eventHandler.c ****         CyBle_PasscNotificationEventHandler(eventParam);
 896:Generated_Source\PSoC4/BLE_eventHandler.c ****     }
 897:Generated_Source\PSoC4/BLE_eventHandler.c **** #endif /* CYBLE_PASS_CLIENT */
 898:Generated_Source\PSoC4/BLE_eventHandler.c **** #ifdef CYBLE_PLXS_CLIENT
 899:Generated_Source\PSoC4/BLE_eventHandler.c ****     if((cyBle_eventHandlerFlag & CYBLE_CALLBACK) != 0u)
 900:Generated_Source\PSoC4/BLE_eventHandler.c ****     {
 901:Generated_Source\PSoC4/BLE_eventHandler.c ****         CyBle_PlxscNotificationEventHandler(eventParam);
 902:Generated_Source\PSoC4/BLE_eventHandler.c ****     }
 903:Generated_Source\PSoC4/BLE_eventHandler.c **** #endif /* CYBLE_PLXS_CLIENT */
 904:Generated_Source\PSoC4/BLE_eventHandler.c **** #ifdef CYBLE_RSCS_CLIENT
 905:Generated_Source\PSoC4/BLE_eventHandler.c ****     if((cyBle_eventHandlerFlag & CYBLE_CALLBACK) != 0u)
 906:Generated_Source\PSoC4/BLE_eventHandler.c ****     {
 907:Generated_Source\PSoC4/BLE_eventHandler.c ****         CyBle_RscscNotificationEventHandler(eventParam);
 908:Generated_Source\PSoC4/BLE_eventHandler.c ****     }
 909:Generated_Source\PSoC4/BLE_eventHandler.c **** #endif /* CYBLE_RSCS_CLIENT */
ARM GAS  C:\Users\TTSS\AppData\Local\Temp\ccySleeg.s 			page 20


 910:Generated_Source\PSoC4/BLE_eventHandler.c **** #ifdef CYBLE_SCPS_CLIENT
 911:Generated_Source\PSoC4/BLE_eventHandler.c ****     if((cyBle_eventHandlerFlag & CYBLE_CALLBACK) != 0u)
 912:Generated_Source\PSoC4/BLE_eventHandler.c ****     {
 913:Generated_Source\PSoC4/BLE_eventHandler.c ****         CyBle_ScpscNotificationEventHandler(eventParam);
 914:Generated_Source\PSoC4/BLE_eventHandler.c ****     }
 915:Generated_Source\PSoC4/BLE_eventHandler.c **** #endif /* CYBLE_SCPS_CLIENT */
 916:Generated_Source\PSoC4/BLE_eventHandler.c **** #ifdef CYBLE_TPS_CLIENT
 917:Generated_Source\PSoC4/BLE_eventHandler.c ****     if((cyBle_eventHandlerFlag & CYBLE_CALLBACK) != 0u)
 918:Generated_Source\PSoC4/BLE_eventHandler.c ****     {
 919:Generated_Source\PSoC4/BLE_eventHandler.c ****         CyBle_TpscNotificationEventHandler(eventParam);
 920:Generated_Source\PSoC4/BLE_eventHandler.c ****     }
 921:Generated_Source\PSoC4/BLE_eventHandler.c **** #endif /* CYBLE_TPS_CLIENT */
 922:Generated_Source\PSoC4/BLE_eventHandler.c **** #ifdef CYBLE_UDS_CLIENT
 923:Generated_Source\PSoC4/BLE_eventHandler.c ****     if((cyBle_eventHandlerFlag & CYBLE_CALLBACK) != 0u)
 924:Generated_Source\PSoC4/BLE_eventHandler.c ****     {
 925:Generated_Source\PSoC4/BLE_eventHandler.c ****         CyBle_UdscNotificationEventHandler(eventParam);
 926:Generated_Source\PSoC4/BLE_eventHandler.c ****     }
 927:Generated_Source\PSoC4/BLE_eventHandler.c **** #endif /* CYBLE_UDS_CLIENT */
 928:Generated_Source\PSoC4/BLE_eventHandler.c **** #ifdef CYBLE_WPTS_CLIENT
 929:Generated_Source\PSoC4/BLE_eventHandler.c ****     if((cyBle_eventHandlerFlag & CYBLE_CALLBACK) != 0u)
 930:Generated_Source\PSoC4/BLE_eventHandler.c ****     {
 931:Generated_Source\PSoC4/BLE_eventHandler.c ****         CyBle_WptscNotificationEventHandler(eventParam);
 932:Generated_Source\PSoC4/BLE_eventHandler.c ****     }
 933:Generated_Source\PSoC4/BLE_eventHandler.c **** #endif /* CYBLE_WPTS_CLIENT */
 934:Generated_Source\PSoC4/BLE_eventHandler.c **** }
 935:Generated_Source\PSoC4/BLE_eventHandler.c **** 
 936:Generated_Source\PSoC4/BLE_eventHandler.c **** 
 937:Generated_Source\PSoC4/BLE_eventHandler.c **** /******************************************************************************    
 938:Generated_Source\PSoC4/BLE_eventHandler.c **** * Function Name: CyBle_IndicationEventHandler
 939:Generated_Source\PSoC4/BLE_eventHandler.c **** ***************************************************************************//**
 940:Generated_Source\PSoC4/BLE_eventHandler.c **** * 
 941:Generated_Source\PSoC4/BLE_eventHandler.c **** *  Handles the Indication event from BLE stack.
 942:Generated_Source\PSoC4/BLE_eventHandler.c **** * 
 943:Generated_Source\PSoC4/BLE_eventHandler.c **** *  \param eventParam: event parameter
 944:Generated_Source\PSoC4/BLE_eventHandler.c **** * 
 945:Generated_Source\PSoC4/BLE_eventHandler.c **** * \return
 946:Generated_Source\PSoC4/BLE_eventHandler.c **** *  None
 947:Generated_Source\PSoC4/BLE_eventHandler.c **** * 
 948:Generated_Source\PSoC4/BLE_eventHandler.c **** ******************************************************************************/
 949:Generated_Source\PSoC4/BLE_eventHandler.c **** static void CyBle_IndicationEventHandler(CYBLE_GATTC_HANDLE_VALUE_IND_PARAM_T *eventParam)
 950:Generated_Source\PSoC4/BLE_eventHandler.c **** {
 951:Generated_Source\PSoC4/BLE_eventHandler.c **** #ifdef CYBLE_AIOS_CLIENT
 952:Generated_Source\PSoC4/BLE_eventHandler.c ****     if((cyBle_eventHandlerFlag & CYBLE_CALLBACK) != 0u)
 953:Generated_Source\PSoC4/BLE_eventHandler.c ****     {
 954:Generated_Source\PSoC4/BLE_eventHandler.c ****         CyBle_AioscIndicationEventHandler(eventParam);
 955:Generated_Source\PSoC4/BLE_eventHandler.c ****     }
 956:Generated_Source\PSoC4/BLE_eventHandler.c **** #endif /* CYBLE_AIOS_CLIENT */
 957:Generated_Source\PSoC4/BLE_eventHandler.c **** #ifdef CYBLE_BCS_CLIENT
 958:Generated_Source\PSoC4/BLE_eventHandler.c ****     if((cyBle_eventHandlerFlag & CYBLE_CALLBACK) != 0u)
 959:Generated_Source\PSoC4/BLE_eventHandler.c ****     {
 960:Generated_Source\PSoC4/BLE_eventHandler.c ****         CyBle_BcscIndicationEventHandler(eventParam);
 961:Generated_Source\PSoC4/BLE_eventHandler.c ****     }
 962:Generated_Source\PSoC4/BLE_eventHandler.c **** #endif /* CYBLE_BCS_CLIENT */
 963:Generated_Source\PSoC4/BLE_eventHandler.c **** #ifdef CYBLE_BLS_CLIENT
 964:Generated_Source\PSoC4/BLE_eventHandler.c ****     if((cyBle_eventHandlerFlag & CYBLE_CALLBACK) != 0u)
 965:Generated_Source\PSoC4/BLE_eventHandler.c ****     {
 966:Generated_Source\PSoC4/BLE_eventHandler.c ****         CyBle_BlscIndicationEventHandler(eventParam);
ARM GAS  C:\Users\TTSS\AppData\Local\Temp\ccySleeg.s 			page 21


 967:Generated_Source\PSoC4/BLE_eventHandler.c ****     }
 968:Generated_Source\PSoC4/BLE_eventHandler.c **** #endif /* CYBLE_BLS_CLIENT */
 969:Generated_Source\PSoC4/BLE_eventHandler.c **** #ifdef CYBLE_CGMS_CLIENT
 970:Generated_Source\PSoC4/BLE_eventHandler.c ****     if((cyBle_eventHandlerFlag & CYBLE_CALLBACK) != 0u)
 971:Generated_Source\PSoC4/BLE_eventHandler.c ****     {
 972:Generated_Source\PSoC4/BLE_eventHandler.c ****         CyBle_CgmscIndicationEventHandler(eventParam);
 973:Generated_Source\PSoC4/BLE_eventHandler.c ****     }
 974:Generated_Source\PSoC4/BLE_eventHandler.c **** #endif /* CYBLE_CGMS_CLIENT */
 975:Generated_Source\PSoC4/BLE_eventHandler.c **** #ifdef CYBLE_CPS_CLIENT
 976:Generated_Source\PSoC4/BLE_eventHandler.c ****     if((cyBle_eventHandlerFlag & CYBLE_CALLBACK) != 0u)
 977:Generated_Source\PSoC4/BLE_eventHandler.c ****     {
 978:Generated_Source\PSoC4/BLE_eventHandler.c ****         CyBle_CpscIndicationEventHandler(eventParam);
 979:Generated_Source\PSoC4/BLE_eventHandler.c ****     }
 980:Generated_Source\PSoC4/BLE_eventHandler.c **** #endif /* CYBLE_CPS_CLIENT */
 981:Generated_Source\PSoC4/BLE_eventHandler.c **** #ifdef CYBLE_CSCS_CLIENT
 982:Generated_Source\PSoC4/BLE_eventHandler.c ****     if((cyBle_eventHandlerFlag & CYBLE_CALLBACK) != 0u)
 983:Generated_Source\PSoC4/BLE_eventHandler.c ****     {
 984:Generated_Source\PSoC4/BLE_eventHandler.c ****         CyBle_CscscIndicationEventHandler(eventParam);
 985:Generated_Source\PSoC4/BLE_eventHandler.c ****     }
 986:Generated_Source\PSoC4/BLE_eventHandler.c **** #endif /* CYBLE_CSCS_CLIENT */
 987:Generated_Source\PSoC4/BLE_eventHandler.c **** #ifdef CYBLE_ESS_CLIENT
 988:Generated_Source\PSoC4/BLE_eventHandler.c ****     if((cyBle_eventHandlerFlag & CYBLE_CALLBACK) != 0u)
 989:Generated_Source\PSoC4/BLE_eventHandler.c ****     {
 990:Generated_Source\PSoC4/BLE_eventHandler.c ****         CyBle_EsscIndicationEventHandler(eventParam);
 991:Generated_Source\PSoC4/BLE_eventHandler.c ****     }
 992:Generated_Source\PSoC4/BLE_eventHandler.c **** #endif /* CYBLE_ESS_CLIENT */
 993:Generated_Source\PSoC4/BLE_eventHandler.c **** #ifdef CYBLE_GLS_CLIENT
 994:Generated_Source\PSoC4/BLE_eventHandler.c ****     if((cyBle_eventHandlerFlag & CYBLE_CALLBACK) != 0u)
 995:Generated_Source\PSoC4/BLE_eventHandler.c ****     {
 996:Generated_Source\PSoC4/BLE_eventHandler.c ****         CyBle_GlscIndicationEventHandler(eventParam);
 997:Generated_Source\PSoC4/BLE_eventHandler.c ****     }
 998:Generated_Source\PSoC4/BLE_eventHandler.c **** #endif /* CYBLE_GLS_CLIENT */
 999:Generated_Source\PSoC4/BLE_eventHandler.c **** #ifdef CYBLE_HTS_CLIENT
1000:Generated_Source\PSoC4/BLE_eventHandler.c ****     if((cyBle_eventHandlerFlag & CYBLE_CALLBACK) != 0u)
1001:Generated_Source\PSoC4/BLE_eventHandler.c ****     {
1002:Generated_Source\PSoC4/BLE_eventHandler.c ****         CyBle_HtscIndicationEventHandler(eventParam);
1003:Generated_Source\PSoC4/BLE_eventHandler.c ****     }
1004:Generated_Source\PSoC4/BLE_eventHandler.c **** #endif /* CYBLE_HTS_CLIENT */
1005:Generated_Source\PSoC4/BLE_eventHandler.c **** #ifdef CYBLE_LNS_CLIENT
1006:Generated_Source\PSoC4/BLE_eventHandler.c ****     if((cyBle_eventHandlerFlag & CYBLE_CALLBACK) != 0u)
1007:Generated_Source\PSoC4/BLE_eventHandler.c ****     {
1008:Generated_Source\PSoC4/BLE_eventHandler.c ****         CyBle_LnscIndicationEventHandler(eventParam);
1009:Generated_Source\PSoC4/BLE_eventHandler.c ****     }
1010:Generated_Source\PSoC4/BLE_eventHandler.c **** #endif /* CYBLE_LNS_CLIENT */
1011:Generated_Source\PSoC4/BLE_eventHandler.c **** #ifdef CYBLE_PLXS_CLIENT
1012:Generated_Source\PSoC4/BLE_eventHandler.c ****     if((cyBle_eventHandlerFlag & CYBLE_CALLBACK) != 0u)
1013:Generated_Source\PSoC4/BLE_eventHandler.c ****     {
1014:Generated_Source\PSoC4/BLE_eventHandler.c ****         CyBle_PlxscIndicationEventHandler(eventParam);
1015:Generated_Source\PSoC4/BLE_eventHandler.c ****     }
1016:Generated_Source\PSoC4/BLE_eventHandler.c **** #endif /* CYBLE_PLXS_CLIENT */
1017:Generated_Source\PSoC4/BLE_eventHandler.c **** #ifdef CYBLE_RSCS_CLIENT
1018:Generated_Source\PSoC4/BLE_eventHandler.c ****     if((cyBle_eventHandlerFlag & CYBLE_CALLBACK) != 0u)
1019:Generated_Source\PSoC4/BLE_eventHandler.c ****     {
1020:Generated_Source\PSoC4/BLE_eventHandler.c ****         CyBle_RscscIndicationEventHandler(eventParam);
1021:Generated_Source\PSoC4/BLE_eventHandler.c ****     }
1022:Generated_Source\PSoC4/BLE_eventHandler.c **** #endif /* CYBLE_RSCS_CLIENT */
1023:Generated_Source\PSoC4/BLE_eventHandler.c **** #ifdef CYBLE_UDS_CLIENT
ARM GAS  C:\Users\TTSS\AppData\Local\Temp\ccySleeg.s 			page 22


1024:Generated_Source\PSoC4/BLE_eventHandler.c ****     if((cyBle_eventHandlerFlag & CYBLE_CALLBACK) != 0u)
1025:Generated_Source\PSoC4/BLE_eventHandler.c ****     {
1026:Generated_Source\PSoC4/BLE_eventHandler.c ****         CyBle_UdscIndicationEventHandler(eventParam);
1027:Generated_Source\PSoC4/BLE_eventHandler.c ****     }
1028:Generated_Source\PSoC4/BLE_eventHandler.c **** #endif /* CYBLE_UDS_CLIENT */
1029:Generated_Source\PSoC4/BLE_eventHandler.c **** #ifdef CYBLE_WPTS_CLIENT
1030:Generated_Source\PSoC4/BLE_eventHandler.c ****     if((cyBle_eventHandlerFlag & CYBLE_CALLBACK) != 0u)
1031:Generated_Source\PSoC4/BLE_eventHandler.c ****     {
1032:Generated_Source\PSoC4/BLE_eventHandler.c ****         CyBle_WptscIndicationEventHandler(eventParam);
1033:Generated_Source\PSoC4/BLE_eventHandler.c ****     }
1034:Generated_Source\PSoC4/BLE_eventHandler.c **** #endif /* CYBLE_WPTS_CLIENT */
1035:Generated_Source\PSoC4/BLE_eventHandler.c **** #ifdef CYBLE_WSS_CLIENT
1036:Generated_Source\PSoC4/BLE_eventHandler.c ****     if((cyBle_eventHandlerFlag & CYBLE_CALLBACK) != 0u)
1037:Generated_Source\PSoC4/BLE_eventHandler.c ****     {
1038:Generated_Source\PSoC4/BLE_eventHandler.c ****         CyBle_WsscIndicationEventHandler(eventParam);
1039:Generated_Source\PSoC4/BLE_eventHandler.c ****     }
1040:Generated_Source\PSoC4/BLE_eventHandler.c **** #endif /* CYBLE_WSS_CLIENT */
1041:Generated_Source\PSoC4/BLE_eventHandler.c **** }
1042:Generated_Source\PSoC4/BLE_eventHandler.c **** 
1043:Generated_Source\PSoC4/BLE_eventHandler.c **** /******************************************************************************    
1044:Generated_Source\PSoC4/BLE_eventHandler.c **** * Function Name: CyBle_ReadResponseEventHandler
1045:Generated_Source\PSoC4/BLE_eventHandler.c **** ***************************************************************************//**
1046:Generated_Source\PSoC4/BLE_eventHandler.c **** * 
1047:Generated_Source\PSoC4/BLE_eventHandler.c **** *  Handles the Read Response event from BLE stack.
1048:Generated_Source\PSoC4/BLE_eventHandler.c **** * 
1049:Generated_Source\PSoC4/BLE_eventHandler.c **** *  \param eventParam: event parameter
1050:Generated_Source\PSoC4/BLE_eventHandler.c **** * 
1051:Generated_Source\PSoC4/BLE_eventHandler.c **** * \return
1052:Generated_Source\PSoC4/BLE_eventHandler.c **** *  None
1053:Generated_Source\PSoC4/BLE_eventHandler.c **** * 
1054:Generated_Source\PSoC4/BLE_eventHandler.c **** ******************************************************************************/
1055:Generated_Source\PSoC4/BLE_eventHandler.c **** static void CyBle_ReadResponseEventHandler(CYBLE_GATTC_READ_RSP_PARAM_T *eventParam)
1056:Generated_Source\PSoC4/BLE_eventHandler.c **** {
1057:Generated_Source\PSoC4/BLE_eventHandler.c **** #ifdef CYBLE_CUSTOM_CLIENT
1058:Generated_Source\PSoC4/BLE_eventHandler.c ****     /* Read response with 128-bit included service uuid */
1059:Generated_Source\PSoC4/BLE_eventHandler.c ****     if((CyBle_GetClientState() == CYBLE_CLIENT_STATE_INCL_DISCOVERING) &&
1060:Generated_Source\PSoC4/BLE_eventHandler.c ****        (cyBle_discInclInfo.inclDefHandle != 0u))
1061:Generated_Source\PSoC4/BLE_eventHandler.c ****     {
1062:Generated_Source\PSoC4/BLE_eventHandler.c ****         CYBLE_DISC_SRVC128_INFO_T discServInfo;
1063:Generated_Source\PSoC4/BLE_eventHandler.c **** 
1064:Generated_Source\PSoC4/BLE_eventHandler.c ****         /* Store service range */
1065:Generated_Source\PSoC4/BLE_eventHandler.c ****         discServInfo.range = cyBle_discInclInfo.inclHandleRange;
1066:Generated_Source\PSoC4/BLE_eventHandler.c ****         (void)memcpy((void *) discServInfo.uuid.uuid128.value, (void *)eventParam->value.val, event
1067:Generated_Source\PSoC4/BLE_eventHandler.c ****         CyBle_CustomcDiscoverServiceEventHandler(&discServInfo);
1068:Generated_Source\PSoC4/BLE_eventHandler.c ****         
1069:Generated_Source\PSoC4/BLE_eventHandler.c ****         /* Re-initiate CyBle_GattcFindIncludedServices function, setting the start
1070:Generated_Source\PSoC4/BLE_eventHandler.c ****            handle to the attribute handle which is placed next to the one used in
1071:Generated_Source\PSoC4/BLE_eventHandler.c ****            the above step.
1072:Generated_Source\PSoC4/BLE_eventHandler.c ****         */
1073:Generated_Source\PSoC4/BLE_eventHandler.c ****         discServInfo.range.startHandle = cyBle_discInclInfo.inclDefHandle + 1u;
1074:Generated_Source\PSoC4/BLE_eventHandler.c ****         discServInfo.range.endHandle = cyBle_serverInfo[cyBle_disCount].range.endHandle;
1075:Generated_Source\PSoC4/BLE_eventHandler.c ****         if(discServInfo.range.startHandle <= discServInfo.range.endHandle)
1076:Generated_Source\PSoC4/BLE_eventHandler.c ****         {
1077:Generated_Source\PSoC4/BLE_eventHandler.c ****             if(CYBLE_ERROR_OK != CyBle_GattcFindIncludedServices(cyBle_connHandle, &discServInfo.ra
1078:Generated_Source\PSoC4/BLE_eventHandler.c ****             {
1079:Generated_Source\PSoC4/BLE_eventHandler.c ****                 CyBle_ApplCallback(CYBLE_EVT_GATTC_INCL_DISCOVERY_FAILED, NULL);
1080:Generated_Source\PSoC4/BLE_eventHandler.c ****                 cyBle_eventHandlerFlag &= (uint8)~CYBLE_AUTO_DISCOVERY;
ARM GAS  C:\Users\TTSS\AppData\Local\Temp\ccySleeg.s 			page 23


1081:Generated_Source\PSoC4/BLE_eventHandler.c ****             }
1082:Generated_Source\PSoC4/BLE_eventHandler.c ****         }
1083:Generated_Source\PSoC4/BLE_eventHandler.c ****         else /* Continue discovery of the following service */
1084:Generated_Source\PSoC4/BLE_eventHandler.c ****         {
1085:Generated_Source\PSoC4/BLE_eventHandler.c ****             CyBle_NextInclDiscovery(CYBLE_DISCOVERY_CONTINUE);
1086:Generated_Source\PSoC4/BLE_eventHandler.c ****         }
1087:Generated_Source\PSoC4/BLE_eventHandler.c ****         
1088:Generated_Source\PSoC4/BLE_eventHandler.c ****         cyBle_eventHandlerFlag &= (uint8)~CYBLE_CALLBACK;
1089:Generated_Source\PSoC4/BLE_eventHandler.c ****     #ifdef CYBLE_CUSTOM_CLIENT
1090:Generated_Source\PSoC4/BLE_eventHandler.c ****         cyBle_discInclInfo.inclDefHandle = 0u;
1091:Generated_Source\PSoC4/BLE_eventHandler.c ****     #endif /* CYBLE_CUSTOM_CLIENT */
1092:Generated_Source\PSoC4/BLE_eventHandler.c ****     }
1093:Generated_Source\PSoC4/BLE_eventHandler.c **** #endif /* CYBLE_CUSTOM_CLIENT */
1094:Generated_Source\PSoC4/BLE_eventHandler.c **** #ifdef CYBLE_AIOS_CLIENT
1095:Generated_Source\PSoC4/BLE_eventHandler.c ****     if((cyBle_eventHandlerFlag & CYBLE_CALLBACK) != 0u)
1096:Generated_Source\PSoC4/BLE_eventHandler.c ****     {
1097:Generated_Source\PSoC4/BLE_eventHandler.c ****         CyBle_AioscReadResponseEventHandler(eventParam);
1098:Generated_Source\PSoC4/BLE_eventHandler.c ****     }
1099:Generated_Source\PSoC4/BLE_eventHandler.c **** #endif /* CYBLE_AIOS_CLIENT */
1100:Generated_Source\PSoC4/BLE_eventHandler.c **** #ifdef CYBLE_ANCS_CLIENT
1101:Generated_Source\PSoC4/BLE_eventHandler.c ****     if((cyBle_eventHandlerFlag & CYBLE_CALLBACK) != 0u)
1102:Generated_Source\PSoC4/BLE_eventHandler.c ****     {
1103:Generated_Source\PSoC4/BLE_eventHandler.c ****         CyBle_AncscReadResponseEventHandler(eventParam);
1104:Generated_Source\PSoC4/BLE_eventHandler.c ****     }
1105:Generated_Source\PSoC4/BLE_eventHandler.c **** #endif /* CYBLE_ANCS_CLIENT */
1106:Generated_Source\PSoC4/BLE_eventHandler.c **** #ifdef CYBLE_ANS_CLIENT
1107:Generated_Source\PSoC4/BLE_eventHandler.c ****     if((cyBle_eventHandlerFlag & CYBLE_CALLBACK) != 0u)
1108:Generated_Source\PSoC4/BLE_eventHandler.c ****     {
1109:Generated_Source\PSoC4/BLE_eventHandler.c ****         CyBle_AnscReadResponseEventHandler(eventParam);
1110:Generated_Source\PSoC4/BLE_eventHandler.c ****     }
1111:Generated_Source\PSoC4/BLE_eventHandler.c **** #endif /* CYBLE_ANS_CLIENT */
1112:Generated_Source\PSoC4/BLE_eventHandler.c **** #ifdef CYBLE_BAS_CLIENT
1113:Generated_Source\PSoC4/BLE_eventHandler.c ****     if((cyBle_eventHandlerFlag & CYBLE_CALLBACK) != 0u)
1114:Generated_Source\PSoC4/BLE_eventHandler.c ****     {
1115:Generated_Source\PSoC4/BLE_eventHandler.c ****         CyBle_BascReadResponseEventHandler(eventParam);
1116:Generated_Source\PSoC4/BLE_eventHandler.c ****     }
1117:Generated_Source\PSoC4/BLE_eventHandler.c **** #endif /* CYBLE_BAS_CLIENT */
1118:Generated_Source\PSoC4/BLE_eventHandler.c **** #ifdef CYBLE_BLS_CLIENT
1119:Generated_Source\PSoC4/BLE_eventHandler.c ****     if((cyBle_eventHandlerFlag & CYBLE_CALLBACK) != 0u)
1120:Generated_Source\PSoC4/BLE_eventHandler.c ****     {
1121:Generated_Source\PSoC4/BLE_eventHandler.c ****         CyBle_BlscReadResponseEventHandler(eventParam);
1122:Generated_Source\PSoC4/BLE_eventHandler.c ****     }
1123:Generated_Source\PSoC4/BLE_eventHandler.c **** #endif /* CYBLE_BLS_CLIENT */
1124:Generated_Source\PSoC4/BLE_eventHandler.c **** #ifdef CYBLE_BCS_CLIENT
1125:Generated_Source\PSoC4/BLE_eventHandler.c ****     if((cyBle_eventHandlerFlag & CYBLE_CALLBACK) != 0u)
1126:Generated_Source\PSoC4/BLE_eventHandler.c ****     {
1127:Generated_Source\PSoC4/BLE_eventHandler.c ****         CyBle_BcscReadResponseEventHandler(eventParam);
1128:Generated_Source\PSoC4/BLE_eventHandler.c ****     }
1129:Generated_Source\PSoC4/BLE_eventHandler.c **** #endif /* CYBLE_BCS_CLIENT */
1130:Generated_Source\PSoC4/BLE_eventHandler.c **** #ifdef CYBLE_BMS_CLIENT
1131:Generated_Source\PSoC4/BLE_eventHandler.c ****     if((cyBle_eventHandlerFlag & CYBLE_CALLBACK) != 0u)
1132:Generated_Source\PSoC4/BLE_eventHandler.c ****     {
1133:Generated_Source\PSoC4/BLE_eventHandler.c ****         CyBle_BmscReadResponseEventHandler(eventParam);
1134:Generated_Source\PSoC4/BLE_eventHandler.c ****     }
1135:Generated_Source\PSoC4/BLE_eventHandler.c **** #endif /* CYBLE_BMS_CLIENT */
1136:Generated_Source\PSoC4/BLE_eventHandler.c **** #ifdef CYBLE_CGMS_CLIENT
1137:Generated_Source\PSoC4/BLE_eventHandler.c ****     if((cyBle_eventHandlerFlag & CYBLE_CALLBACK) != 0u)
ARM GAS  C:\Users\TTSS\AppData\Local\Temp\ccySleeg.s 			page 24


1138:Generated_Source\PSoC4/BLE_eventHandler.c ****     {
1139:Generated_Source\PSoC4/BLE_eventHandler.c ****         CyBle_CgmscReadResponseEventHandler(eventParam);
1140:Generated_Source\PSoC4/BLE_eventHandler.c ****     }
1141:Generated_Source\PSoC4/BLE_eventHandler.c **** #endif /* CYBLE_CGMS_CLIENT */
1142:Generated_Source\PSoC4/BLE_eventHandler.c **** #ifdef CYBLE_CPS_CLIENT
1143:Generated_Source\PSoC4/BLE_eventHandler.c ****     if((cyBle_eventHandlerFlag & CYBLE_CALLBACK) != 0u)
1144:Generated_Source\PSoC4/BLE_eventHandler.c ****     {
1145:Generated_Source\PSoC4/BLE_eventHandler.c ****         CyBle_CpscReadResponseEventHandler(eventParam);
1146:Generated_Source\PSoC4/BLE_eventHandler.c ****     }
1147:Generated_Source\PSoC4/BLE_eventHandler.c **** #endif /* CYBLE_CPS_CLIENT */
1148:Generated_Source\PSoC4/BLE_eventHandler.c **** #ifdef CYBLE_CSCS_CLIENT
1149:Generated_Source\PSoC4/BLE_eventHandler.c ****     if((cyBle_eventHandlerFlag & CYBLE_CALLBACK) != 0u)
1150:Generated_Source\PSoC4/BLE_eventHandler.c ****     {
1151:Generated_Source\PSoC4/BLE_eventHandler.c ****         CyBle_CscscReadResponseEventHandler(eventParam);
1152:Generated_Source\PSoC4/BLE_eventHandler.c ****     }
1153:Generated_Source\PSoC4/BLE_eventHandler.c **** #endif /* CYBLE_CSCS_CLIENT */
1154:Generated_Source\PSoC4/BLE_eventHandler.c **** #ifdef CYBLE_CTS_CLIENT
1155:Generated_Source\PSoC4/BLE_eventHandler.c ****     if((cyBle_eventHandlerFlag & CYBLE_CALLBACK) != 0u)
1156:Generated_Source\PSoC4/BLE_eventHandler.c ****     {
1157:Generated_Source\PSoC4/BLE_eventHandler.c ****         CyBle_CtscReadResponseEventHandler(eventParam);
1158:Generated_Source\PSoC4/BLE_eventHandler.c ****     }
1159:Generated_Source\PSoC4/BLE_eventHandler.c **** #endif /* CYBLE_BAS_CLIENT */
1160:Generated_Source\PSoC4/BLE_eventHandler.c **** #ifdef CYBLE_DIS_CLIENT
1161:Generated_Source\PSoC4/BLE_eventHandler.c ****     if((cyBle_eventHandlerFlag & CYBLE_CALLBACK) != 0u)
1162:Generated_Source\PSoC4/BLE_eventHandler.c ****     {
1163:Generated_Source\PSoC4/BLE_eventHandler.c ****         CyBle_DiscReadResponseEventHandler(eventParam);
1164:Generated_Source\PSoC4/BLE_eventHandler.c ****     }
1165:Generated_Source\PSoC4/BLE_eventHandler.c **** #endif /* CYBLE_DIS_CLIENT */
1166:Generated_Source\PSoC4/BLE_eventHandler.c **** #ifdef CYBLE_ESS_CLIENT
1167:Generated_Source\PSoC4/BLE_eventHandler.c ****     if((cyBle_eventHandlerFlag & CYBLE_CALLBACK) != 0u)
1168:Generated_Source\PSoC4/BLE_eventHandler.c ****     {
1169:Generated_Source\PSoC4/BLE_eventHandler.c ****         CyBle_EsscReadResponseEventHandler(eventParam);
1170:Generated_Source\PSoC4/BLE_eventHandler.c ****     }
1171:Generated_Source\PSoC4/BLE_eventHandler.c **** #endif /* CYBLE_ESS_CLIENT */
1172:Generated_Source\PSoC4/BLE_eventHandler.c **** #ifdef CYBLE_GLS_CLIENT
1173:Generated_Source\PSoC4/BLE_eventHandler.c ****     if((cyBle_eventHandlerFlag & CYBLE_CALLBACK) != 0u)
1174:Generated_Source\PSoC4/BLE_eventHandler.c ****     {
1175:Generated_Source\PSoC4/BLE_eventHandler.c ****         CyBle_GlscReadResponseEventHandler(eventParam);
1176:Generated_Source\PSoC4/BLE_eventHandler.c ****     }
1177:Generated_Source\PSoC4/BLE_eventHandler.c **** #endif /* CYBLE_GLS_CLIENT */
1178:Generated_Source\PSoC4/BLE_eventHandler.c **** #ifdef CYBLE_HIDS_CLIENT
1179:Generated_Source\PSoC4/BLE_eventHandler.c ****     if((cyBle_eventHandlerFlag & CYBLE_CALLBACK) != 0u)
1180:Generated_Source\PSoC4/BLE_eventHandler.c ****     {
1181:Generated_Source\PSoC4/BLE_eventHandler.c ****         CyBle_HidscReadResponseEventHandler(eventParam);
1182:Generated_Source\PSoC4/BLE_eventHandler.c ****     }
1183:Generated_Source\PSoC4/BLE_eventHandler.c **** #endif /* CYBLE_HIDS_CLIENT */
1184:Generated_Source\PSoC4/BLE_eventHandler.c **** #ifdef CYBLE_HPS_CLIENT
1185:Generated_Source\PSoC4/BLE_eventHandler.c ****     if((cyBle_eventHandlerFlag & CYBLE_CALLBACK) != 0u)
1186:Generated_Source\PSoC4/BLE_eventHandler.c ****     {
1187:Generated_Source\PSoC4/BLE_eventHandler.c ****         CyBle_HpscReadResponseEventHandler(eventParam);
1188:Generated_Source\PSoC4/BLE_eventHandler.c ****     }
1189:Generated_Source\PSoC4/BLE_eventHandler.c **** #endif /* CYBLE_HPS_CLIENT */
1190:Generated_Source\PSoC4/BLE_eventHandler.c **** #ifdef CYBLE_HRS_CLIENT
1191:Generated_Source\PSoC4/BLE_eventHandler.c ****     if((cyBle_eventHandlerFlag & CYBLE_CALLBACK) != 0u)
1192:Generated_Source\PSoC4/BLE_eventHandler.c ****     {
1193:Generated_Source\PSoC4/BLE_eventHandler.c ****         CyBle_HrscReadResponseEventHandler(eventParam);
1194:Generated_Source\PSoC4/BLE_eventHandler.c ****     }
ARM GAS  C:\Users\TTSS\AppData\Local\Temp\ccySleeg.s 			page 25


1195:Generated_Source\PSoC4/BLE_eventHandler.c **** #endif /* CYBLE_HRS_CLIENT */
1196:Generated_Source\PSoC4/BLE_eventHandler.c **** #ifdef CYBLE_HTS_CLIENT
1197:Generated_Source\PSoC4/BLE_eventHandler.c ****     if((cyBle_eventHandlerFlag & CYBLE_CALLBACK) != 0u)
1198:Generated_Source\PSoC4/BLE_eventHandler.c ****     {
1199:Generated_Source\PSoC4/BLE_eventHandler.c ****         CyBle_HtscReadResponseEventHandler(eventParam);
1200:Generated_Source\PSoC4/BLE_eventHandler.c ****     }
1201:Generated_Source\PSoC4/BLE_eventHandler.c **** #endif /* CYBLE_HTS_CLIENT */
1202:Generated_Source\PSoC4/BLE_eventHandler.c **** #ifdef CYBLE_IPS_CLIENT
1203:Generated_Source\PSoC4/BLE_eventHandler.c ****     if((cyBle_eventHandlerFlag & CYBLE_CALLBACK) != 0u)
1204:Generated_Source\PSoC4/BLE_eventHandler.c ****     {
1205:Generated_Source\PSoC4/BLE_eventHandler.c ****         CyBle_IpscReadResponseEventHandler(eventParam);
1206:Generated_Source\PSoC4/BLE_eventHandler.c ****     }
1207:Generated_Source\PSoC4/BLE_eventHandler.c **** #endif /* CYBLE_IPS_CLIENT */
1208:Generated_Source\PSoC4/BLE_eventHandler.c **** #ifdef CYBLE_LLS_CLIENT
1209:Generated_Source\PSoC4/BLE_eventHandler.c ****     if((cyBle_eventHandlerFlag & CYBLE_CALLBACK) != 0u)
1210:Generated_Source\PSoC4/BLE_eventHandler.c ****     {
1211:Generated_Source\PSoC4/BLE_eventHandler.c ****         CyBle_LlscReadResponseEventHandler(eventParam);
1212:Generated_Source\PSoC4/BLE_eventHandler.c ****     }
1213:Generated_Source\PSoC4/BLE_eventHandler.c **** #endif /* CYBLE_LLS_CLIENT */
1214:Generated_Source\PSoC4/BLE_eventHandler.c **** #ifdef CYBLE_LNS_CLIENT
1215:Generated_Source\PSoC4/BLE_eventHandler.c ****     if((cyBle_eventHandlerFlag & CYBLE_CALLBACK) != 0u)
1216:Generated_Source\PSoC4/BLE_eventHandler.c ****     {
1217:Generated_Source\PSoC4/BLE_eventHandler.c ****         CyBle_LnscReadResponseEventHandler(eventParam);
1218:Generated_Source\PSoC4/BLE_eventHandler.c ****     }
1219:Generated_Source\PSoC4/BLE_eventHandler.c **** #endif /* CYBLE_LNS_CLIENT */
1220:Generated_Source\PSoC4/BLE_eventHandler.c **** #ifdef CYBLE_NDCS_CLIENT
1221:Generated_Source\PSoC4/BLE_eventHandler.c ****     if((cyBle_eventHandlerFlag & CYBLE_CALLBACK) != 0u)
1222:Generated_Source\PSoC4/BLE_eventHandler.c ****     {
1223:Generated_Source\PSoC4/BLE_eventHandler.c ****         CyBle_NdcscReadResponseEventHandler(eventParam);
1224:Generated_Source\PSoC4/BLE_eventHandler.c ****     }
1225:Generated_Source\PSoC4/BLE_eventHandler.c **** #endif /* CYBLE_NDCS_CLIENT */
1226:Generated_Source\PSoC4/BLE_eventHandler.c **** #ifdef CYBLE_PASS_CLIENT
1227:Generated_Source\PSoC4/BLE_eventHandler.c ****     if((cyBle_eventHandlerFlag & CYBLE_CALLBACK) != 0u)
1228:Generated_Source\PSoC4/BLE_eventHandler.c ****     {
1229:Generated_Source\PSoC4/BLE_eventHandler.c ****         CyBle_PasscReadResponseEventHandler(eventParam);
1230:Generated_Source\PSoC4/BLE_eventHandler.c ****     }
1231:Generated_Source\PSoC4/BLE_eventHandler.c **** #endif /* CYBLE_PASS_CLIENT */
1232:Generated_Source\PSoC4/BLE_eventHandler.c **** #ifdef CYBLE_PLXS_CLIENT
1233:Generated_Source\PSoC4/BLE_eventHandler.c ****     if((cyBle_eventHandlerFlag & CYBLE_CALLBACK) != 0u)
1234:Generated_Source\PSoC4/BLE_eventHandler.c ****     {
1235:Generated_Source\PSoC4/BLE_eventHandler.c ****         CyBle_PlxscReadResponseEventHandler(eventParam);
1236:Generated_Source\PSoC4/BLE_eventHandler.c ****     }
1237:Generated_Source\PSoC4/BLE_eventHandler.c **** #endif /* CYBLE_PLXS_CLIENT */
1238:Generated_Source\PSoC4/BLE_eventHandler.c **** #ifdef CYBLE_RSCS_CLIENT
1239:Generated_Source\PSoC4/BLE_eventHandler.c ****     if((cyBle_eventHandlerFlag & CYBLE_CALLBACK) != 0u)
1240:Generated_Source\PSoC4/BLE_eventHandler.c ****     {
1241:Generated_Source\PSoC4/BLE_eventHandler.c ****         CyBle_RscscReadResponseEventHandler(eventParam);
1242:Generated_Source\PSoC4/BLE_eventHandler.c ****     }
1243:Generated_Source\PSoC4/BLE_eventHandler.c **** #endif /* CYBLE_RSCS_CLIENT */
1244:Generated_Source\PSoC4/BLE_eventHandler.c **** #ifdef CYBLE_RTUS_CLIENT
1245:Generated_Source\PSoC4/BLE_eventHandler.c ****     if((cyBle_eventHandlerFlag & CYBLE_CALLBACK) != 0u)
1246:Generated_Source\PSoC4/BLE_eventHandler.c ****     {
1247:Generated_Source\PSoC4/BLE_eventHandler.c ****         CyBle_RtuscReadResponseEventHandler(eventParam);
1248:Generated_Source\PSoC4/BLE_eventHandler.c ****     }
1249:Generated_Source\PSoC4/BLE_eventHandler.c **** #endif /* CYBLE_RTUS_CLIENT */
1250:Generated_Source\PSoC4/BLE_eventHandler.c **** #ifdef CYBLE_SCPS_CLIENT
1251:Generated_Source\PSoC4/BLE_eventHandler.c ****     if((cyBle_eventHandlerFlag & CYBLE_CALLBACK) != 0u)
ARM GAS  C:\Users\TTSS\AppData\Local\Temp\ccySleeg.s 			page 26


1252:Generated_Source\PSoC4/BLE_eventHandler.c ****     {
1253:Generated_Source\PSoC4/BLE_eventHandler.c ****         CyBle_ScpscReadResponseEventHandler(eventParam);
1254:Generated_Source\PSoC4/BLE_eventHandler.c ****     }
1255:Generated_Source\PSoC4/BLE_eventHandler.c **** #endif /* CYBLE_SCPS_CLIENT */
1256:Generated_Source\PSoC4/BLE_eventHandler.c **** #ifdef CYBLE_TPS_CLIENT
1257:Generated_Source\PSoC4/BLE_eventHandler.c ****     if((cyBle_eventHandlerFlag & CYBLE_CALLBACK) != 0u)
1258:Generated_Source\PSoC4/BLE_eventHandler.c ****     {
1259:Generated_Source\PSoC4/BLE_eventHandler.c ****         CyBle_TpscReadResponseEventHandler(eventParam);
1260:Generated_Source\PSoC4/BLE_eventHandler.c ****     }
1261:Generated_Source\PSoC4/BLE_eventHandler.c **** #endif /* CYBLE_TPS_CLIENT */
1262:Generated_Source\PSoC4/BLE_eventHandler.c **** #ifdef CYBLE_UDS_CLIENT
1263:Generated_Source\PSoC4/BLE_eventHandler.c ****     if((cyBle_eventHandlerFlag & CYBLE_CALLBACK) != 0u)
1264:Generated_Source\PSoC4/BLE_eventHandler.c ****     {
1265:Generated_Source\PSoC4/BLE_eventHandler.c ****         CyBle_UdscReadResponseEventHandler(eventParam);
1266:Generated_Source\PSoC4/BLE_eventHandler.c ****     }
1267:Generated_Source\PSoC4/BLE_eventHandler.c **** #endif /* CYBLE_UDS_CLIENT */
1268:Generated_Source\PSoC4/BLE_eventHandler.c **** #ifdef CYBLE_WPTS_CLIENT
1269:Generated_Source\PSoC4/BLE_eventHandler.c ****     if((cyBle_eventHandlerFlag & CYBLE_CALLBACK) != 0u)
1270:Generated_Source\PSoC4/BLE_eventHandler.c ****     {
1271:Generated_Source\PSoC4/BLE_eventHandler.c ****         CyBle_WptscReadResponseEventHandler(eventParam);
1272:Generated_Source\PSoC4/BLE_eventHandler.c ****     }
1273:Generated_Source\PSoC4/BLE_eventHandler.c **** #endif /* CYBLE_WPTS_CLIENT */
1274:Generated_Source\PSoC4/BLE_eventHandler.c **** #ifdef CYBLE_WSS_CLIENT
1275:Generated_Source\PSoC4/BLE_eventHandler.c ****     if((cyBle_eventHandlerFlag & CYBLE_CALLBACK) != 0u)
1276:Generated_Source\PSoC4/BLE_eventHandler.c ****     {
1277:Generated_Source\PSoC4/BLE_eventHandler.c ****         CyBle_WsscReadResponseEventHandler(eventParam);
1278:Generated_Source\PSoC4/BLE_eventHandler.c ****     }
1279:Generated_Source\PSoC4/BLE_eventHandler.c **** #endif /* CYBLE_WSS_CLIENT */
1280:Generated_Source\PSoC4/BLE_eventHandler.c **** }
1281:Generated_Source\PSoC4/BLE_eventHandler.c **** 
1282:Generated_Source\PSoC4/BLE_eventHandler.c **** /******************************************************************************    
1283:Generated_Source\PSoC4/BLE_eventHandler.c **** * Function Name: CyBle_ReadMultipleResponseEventHandler
1284:Generated_Source\PSoC4/BLE_eventHandler.c **** ***************************************************************************//**
1285:Generated_Source\PSoC4/BLE_eventHandler.c **** * 
1286:Generated_Source\PSoC4/BLE_eventHandler.c **** *  Handles the Read Multiple Response event from BLE stack.
1287:Generated_Source\PSoC4/BLE_eventHandler.c **** * 
1288:Generated_Source\PSoC4/BLE_eventHandler.c **** *  \param eventParam: event parameter
1289:Generated_Source\PSoC4/BLE_eventHandler.c **** * 
1290:Generated_Source\PSoC4/BLE_eventHandler.c **** * \return
1291:Generated_Source\PSoC4/BLE_eventHandler.c **** *  None
1292:Generated_Source\PSoC4/BLE_eventHandler.c **** * 
1293:Generated_Source\PSoC4/BLE_eventHandler.c **** ******************************************************************************/
1294:Generated_Source\PSoC4/BLE_eventHandler.c **** static void CyBle_ReadMultipleResponseEventHandler(CYBLE_GATTC_READ_RSP_PARAM_T *eventParam)
1295:Generated_Source\PSoC4/BLE_eventHandler.c **** {
1296:Generated_Source\PSoC4/BLE_eventHandler.c **** #ifdef CYBLE_CUSTOM_CLIENT
1297:Generated_Source\PSoC4/BLE_eventHandler.c ****     /* Read response with 128-bit included service uuid */
1298:Generated_Source\PSoC4/BLE_eventHandler.c ****     if((CYBLE_CLIENT_STATE_INCL_DISCOVERING == CyBle_GetClientState()) &&
1299:Generated_Source\PSoC4/BLE_eventHandler.c ****        (cyBle_discInclInfo.inclDefHandle != 0u))
1300:Generated_Source\PSoC4/BLE_eventHandler.c ****     {
1301:Generated_Source\PSoC4/BLE_eventHandler.c ****         CYBLE_DISC_SRVC128_INFO_T discServInfo;
1302:Generated_Source\PSoC4/BLE_eventHandler.c **** 
1303:Generated_Source\PSoC4/BLE_eventHandler.c ****         /* Store service range */
1304:Generated_Source\PSoC4/BLE_eventHandler.c ****         discServInfo.range = cyBle_discInclInfo.inclHandleRange;
1305:Generated_Source\PSoC4/BLE_eventHandler.c ****         (void)memcpy((void *) discServInfo.uuid.uuid128.value, (void *)eventParam->value.val, event
1306:Generated_Source\PSoC4/BLE_eventHandler.c ****         CyBle_CustomcDiscoverServiceEventHandler(&discServInfo);
1307:Generated_Source\PSoC4/BLE_eventHandler.c ****         
1308:Generated_Source\PSoC4/BLE_eventHandler.c ****         /* Re-initiate CyBle_GattcFindIncludedServices function, setting the start
ARM GAS  C:\Users\TTSS\AppData\Local\Temp\ccySleeg.s 			page 27


1309:Generated_Source\PSoC4/BLE_eventHandler.c ****            handle to the attribute handle which is placed next to the one used in
1310:Generated_Source\PSoC4/BLE_eventHandler.c ****            the above step.
1311:Generated_Source\PSoC4/BLE_eventHandler.c ****         */
1312:Generated_Source\PSoC4/BLE_eventHandler.c ****         discServInfo.range.startHandle = cyBle_discInclInfo.inclDefHandle + 1;
1313:Generated_Source\PSoC4/BLE_eventHandler.c ****         discServInfo.range.endHandle = cyBle_serverInfo[cyBle_disCount].range.endHandle;
1314:Generated_Source\PSoC4/BLE_eventHandler.c ****         if(discServInfo.range.startHandle <= discServInfo.range.endHandle)
1315:Generated_Source\PSoC4/BLE_eventHandler.c ****         {
1316:Generated_Source\PSoC4/BLE_eventHandler.c ****             if(CYBLE_ERROR_OK != CyBle_GattcFindIncludedServices(cyBle_connHandle, &discServInfo.ra
1317:Generated_Source\PSoC4/BLE_eventHandler.c ****             {
1318:Generated_Source\PSoC4/BLE_eventHandler.c ****                 CyBle_ApplCallback(CYBLE_EVT_GATTC_INCL_DISCOVERY_FAILED, NULL);
1319:Generated_Source\PSoC4/BLE_eventHandler.c ****                 cyBle_eventHandlerFlag &= (uint8)~CYBLE_AUTO_DISCOVERY;
1320:Generated_Source\PSoC4/BLE_eventHandler.c ****             }
1321:Generated_Source\PSoC4/BLE_eventHandler.c ****         }
1322:Generated_Source\PSoC4/BLE_eventHandler.c ****         else /* Continue discovery of the following service */
1323:Generated_Source\PSoC4/BLE_eventHandler.c ****         {
1324:Generated_Source\PSoC4/BLE_eventHandler.c ****             CyBle_NextInclDiscovery(CYBLE_DISCOVERY_CONTINUE);
1325:Generated_Source\PSoC4/BLE_eventHandler.c ****         }
1326:Generated_Source\PSoC4/BLE_eventHandler.c ****         
1327:Generated_Source\PSoC4/BLE_eventHandler.c ****         cyBle_eventHandlerFlag &= (uint8)~CYBLE_CALLBACK;
1328:Generated_Source\PSoC4/BLE_eventHandler.c ****     #ifdef CYBLE_CUSTOM_CLIENT
1329:Generated_Source\PSoC4/BLE_eventHandler.c ****         cyBle_discInclInfo.inclDefHandle = 0u;
1330:Generated_Source\PSoC4/BLE_eventHandler.c ****     #endif /* CYBLE_CUSTOM_CLIENT */
1331:Generated_Source\PSoC4/BLE_eventHandler.c ****     }
1332:Generated_Source\PSoC4/BLE_eventHandler.c **** #endif /* CYBLE_CUSTOM_CLIENT */
1333:Generated_Source\PSoC4/BLE_eventHandler.c **** #ifdef CYBLE_IPS_CLIENT
1334:Generated_Source\PSoC4/BLE_eventHandler.c ****     if((cyBle_eventHandlerFlag & CYBLE_CALLBACK) != 0u)
1335:Generated_Source\PSoC4/BLE_eventHandler.c ****     {
1336:Generated_Source\PSoC4/BLE_eventHandler.c ****         CyBle_IpscReadMultipleResponseEventHandler(eventParam);
1337:Generated_Source\PSoC4/BLE_eventHandler.c ****     }
1338:Generated_Source\PSoC4/BLE_eventHandler.c **** #endif /* CYBLE_IPS_CLIENT */
1339:Generated_Source\PSoC4/BLE_eventHandler.c ****     /* MISRA 16.7 violation workaround */
1340:Generated_Source\PSoC4/BLE_eventHandler.c ****     eventParam = eventParam;
1341:Generated_Source\PSoC4/BLE_eventHandler.c **** }
1342:Generated_Source\PSoC4/BLE_eventHandler.c **** #endif /* CYBLE_GATT_ROLE_CLIENT */
1343:Generated_Source\PSoC4/BLE_eventHandler.c **** 
1344:Generated_Source\PSoC4/BLE_eventHandler.c **** 
1345:Generated_Source\PSoC4/BLE_eventHandler.c **** /****************************************************************************** 
1346:Generated_Source\PSoC4/BLE_eventHandler.c **** * Function Name: CyBle_DisconnectEventHandler
1347:Generated_Source\PSoC4/BLE_eventHandler.c **** ***************************************************************************//**
1348:Generated_Source\PSoC4/BLE_eventHandler.c **** * 
1349:Generated_Source\PSoC4/BLE_eventHandler.c **** *  Handles the GATT Disconnection event from the BLE stack.
1350:Generated_Source\PSoC4/BLE_eventHandler.c **** * 
1351:Generated_Source\PSoC4/BLE_eventHandler.c **** * \return
1352:Generated_Source\PSoC4/BLE_eventHandler.c **** *  None
1353:Generated_Source\PSoC4/BLE_eventHandler.c **** * 
1354:Generated_Source\PSoC4/BLE_eventHandler.c **** ******************************************************************************/
1355:Generated_Source\PSoC4/BLE_eventHandler.c **** static void CyBle_GattDisconnectEventHandler(void)
1356:Generated_Source\PSoC4/BLE_eventHandler.c **** {
 174              		.loc 1 1356 0
 175              		.cfi_startproc
 176              		@ args = 0, pretend = 0, frame = 0
 177              		@ frame_needed = 1, uses_anonymous_args = 0
 178 0000 80B5     		push	{r7, lr}
 179              		.cfi_def_cfa_offset 8
 180              		.cfi_offset 7, -8
 181              		.cfi_offset 14, -4
 182 0002 00AF     		add	r7, sp, #0
ARM GAS  C:\Users\TTSS\AppData\Local\Temp\ccySleeg.s 			page 28


 183              		.cfi_def_cfa_register 7
1357:Generated_Source\PSoC4/BLE_eventHandler.c ****     cyBle_connHandle.attId = 0u;
 184              		.loc 1 1357 0
 185 0004 044B     		ldr	r3, .L9
 186 0006 0022     		movs	r2, #0
 187 0008 5A70     		strb	r2, [r3, #1]
1358:Generated_Source\PSoC4/BLE_eventHandler.c ****     cyBle_connHandle.bdHandle = 0u;
 188              		.loc 1 1358 0
 189 000a 034B     		ldr	r3, .L9
 190 000c 0022     		movs	r2, #0
 191 000e 1A70     		strb	r2, [r3]
1359:Generated_Source\PSoC4/BLE_eventHandler.c ****     
1360:Generated_Source\PSoC4/BLE_eventHandler.c ****     #if (CYBLE_GATT_ROLE_CLIENT)
1361:Generated_Source\PSoC4/BLE_eventHandler.c ****         if(CyBle_GetClientState() == CYBLE_CLIENT_STATE_DISCOVERED)
1362:Generated_Source\PSoC4/BLE_eventHandler.c ****         {
1363:Generated_Source\PSoC4/BLE_eventHandler.c ****             CyBle_SetClientState(CYBLE_CLIENT_STATE_DISCONNECTED_DISCOVERED);
1364:Generated_Source\PSoC4/BLE_eventHandler.c ****         }
1365:Generated_Source\PSoC4/BLE_eventHandler.c ****         else
1366:Generated_Source\PSoC4/BLE_eventHandler.c ****         {
1367:Generated_Source\PSoC4/BLE_eventHandler.c ****             CyBle_SetClientState(CYBLE_CLIENT_STATE_DISCONNECTED);
1368:Generated_Source\PSoC4/BLE_eventHandler.c ****         }
1369:Generated_Source\PSoC4/BLE_eventHandler.c ****     #endif /* CYBLE_GATT_ROLE_CLIENT */
1370:Generated_Source\PSoC4/BLE_eventHandler.c ****         
1371:Generated_Source\PSoC4/BLE_eventHandler.c ****     #ifdef CYBLE_CPS_SERVER
1372:Generated_Source\PSoC4/BLE_eventHandler.c ****         #if CYBLE_GAP_ROLE_BROADCASTER
1373:Generated_Source\PSoC4/BLE_eventHandler.c ****             CyBle_CpssDisconnectEventHandler();
1374:Generated_Source\PSoC4/BLE_eventHandler.c ****         #endif /* CYBLE_GAP_ROLE_BROADCASTER */
1375:Generated_Source\PSoC4/BLE_eventHandler.c ****     #endif /* CYBLE_CPS_SERVER */
1376:Generated_Source\PSoC4/BLE_eventHandler.c **** 
1377:Generated_Source\PSoC4/BLE_eventHandler.c ****     #ifdef CYBLE_CPS_CLIENT
1378:Generated_Source\PSoC4/BLE_eventHandler.c ****         CyBle_CpscDisconnectEventHandler();
1379:Generated_Source\PSoC4/BLE_eventHandler.c ****     #endif /* CYBLE_CPS_CLIENT */
1380:Generated_Source\PSoC4/BLE_eventHandler.c **** 
1381:Generated_Source\PSoC4/BLE_eventHandler.c ****     #ifdef CYBLE_IAS_SERVER
1382:Generated_Source\PSoC4/BLE_eventHandler.c ****         CyBle_IassDisconnectEventHandler();
1383:Generated_Source\PSoC4/BLE_eventHandler.c ****     #endif /* CYBLE_IAS_SERVER */
1384:Generated_Source\PSoC4/BLE_eventHandler.c ****     
1385:Generated_Source\PSoC4/BLE_eventHandler.c ****     #ifdef CYBLE_GLS_SERVER
1386:Generated_Source\PSoC4/BLE_eventHandler.c ****         CyBle_GlsInit();
1387:Generated_Source\PSoC4/BLE_eventHandler.c ****     #endif /* CYBLE_GLS_SERVER */
1388:Generated_Source\PSoC4/BLE_eventHandler.c ****     
1389:Generated_Source\PSoC4/BLE_eventHandler.c ****     #ifdef CYBLE_LNS_SERVER
1390:Generated_Source\PSoC4/BLE_eventHandler.c ****         CyBle_LnsInit();
1391:Generated_Source\PSoC4/BLE_eventHandler.c ****     #endif /* CYBLE_LNS_SERVER */
1392:Generated_Source\PSoC4/BLE_eventHandler.c ****     
1393:Generated_Source\PSoC4/BLE_eventHandler.c ****     #ifdef CYBLE_UDS_SERVER
1394:Generated_Source\PSoC4/BLE_eventHandler.c ****         CyBle_UdsInit();
1395:Generated_Source\PSoC4/BLE_eventHandler.c ****     #endif /* CYBLE_UDS_SERVER */
1396:Generated_Source\PSoC4/BLE_eventHandler.c **** }
 192              		.loc 1 1396 0
 193 0010 C046     		nop
 194 0012 BD46     		mov	sp, r7
 195              		@ sp needed
 196 0014 80BD     		pop	{r7, pc}
 197              	.L10:
 198 0016 C046     		.align	2
 199              	.L9:
ARM GAS  C:\Users\TTSS\AppData\Local\Temp\ccySleeg.s 			page 29


 200 0018 00000000 		.word	cyBle_connHandle
 201              		.cfi_endproc
 202              	.LFE4:
 203              		.size	CyBle_GattDisconnectEventHandler, .-CyBle_GattDisconnectEventHandler
 204              		.section	.text.CyBle_TimeOutEventHandler,"ax",%progbits
 205              		.align	2
 206              		.code	16
 207              		.thumb_func
 208              		.type	CyBle_TimeOutEventHandler, %function
 209              	CyBle_TimeOutEventHandler:
 210              	.LFB5:
1397:Generated_Source\PSoC4/BLE_eventHandler.c **** 
1398:Generated_Source\PSoC4/BLE_eventHandler.c **** 
1399:Generated_Source\PSoC4/BLE_eventHandler.c **** /****************************************************************************** 
1400:Generated_Source\PSoC4/BLE_eventHandler.c **** * Function Name: CyBle_TimeOutEventHandler
1401:Generated_Source\PSoC4/BLE_eventHandler.c **** ***************************************************************************//**
1402:Generated_Source\PSoC4/BLE_eventHandler.c **** * 
1403:Generated_Source\PSoC4/BLE_eventHandler.c **** *  Handles the CYBLE_EVT_TIMEOUT event from the BLE stack.
1404:Generated_Source\PSoC4/BLE_eventHandler.c **** * 
1405:Generated_Source\PSoC4/BLE_eventHandler.c **** *  \param eventParam: The pointer to a structure of type CYBLE_TO_REASON_CODE_T.
1406:Generated_Source\PSoC4/BLE_eventHandler.c **** * 
1407:Generated_Source\PSoC4/BLE_eventHandler.c **** * \return
1408:Generated_Source\PSoC4/BLE_eventHandler.c **** *  None
1409:Generated_Source\PSoC4/BLE_eventHandler.c **** * 
1410:Generated_Source\PSoC4/BLE_eventHandler.c **** ******************************************************************************/
1411:Generated_Source\PSoC4/BLE_eventHandler.c **** static void CyBle_TimeOutEventHandler(const CYBLE_TO_REASON_CODE_T *eventParam)
1412:Generated_Source\PSoC4/BLE_eventHandler.c **** {
 211              		.loc 1 1412 0
 212              		.cfi_startproc
 213              		@ args = 0, pretend = 0, frame = 8
 214              		@ frame_needed = 1, uses_anonymous_args = 0
 215 0000 80B5     		push	{r7, lr}
 216              		.cfi_def_cfa_offset 8
 217              		.cfi_offset 7, -8
 218              		.cfi_offset 14, -4
 219 0002 82B0     		sub	sp, sp, #8
 220              		.cfi_def_cfa_offset 16
 221 0004 00AF     		add	r7, sp, #0
 222              		.cfi_def_cfa_register 7
 223 0006 7860     		str	r0, [r7, #4]
1413:Generated_Source\PSoC4/BLE_eventHandler.c ****     if(*eventParam == CYBLE_GATT_RSP_TO)
1414:Generated_Source\PSoC4/BLE_eventHandler.c ****     {
1415:Generated_Source\PSoC4/BLE_eventHandler.c ****     #if (CYBLE_GATT_ROLE_CLIENT)
1416:Generated_Source\PSoC4/BLE_eventHandler.c ****         if((cyBle_eventHandlerFlag & CYBLE_AUTO_DISCOVERY) != 0u)
1417:Generated_Source\PSoC4/BLE_eventHandler.c ****         {
1418:Generated_Source\PSoC4/BLE_eventHandler.c ****             switch(CyBle_GetClientState())
1419:Generated_Source\PSoC4/BLE_eventHandler.c ****             {
1420:Generated_Source\PSoC4/BLE_eventHandler.c ****                 case CYBLE_CLIENT_STATE_SRVC_DISCOVERING:
1421:Generated_Source\PSoC4/BLE_eventHandler.c ****                     CyBle_ApplCallback(CYBLE_EVT_GATTC_SRVC_DISCOVERY_FAILED, NULL);
1422:Generated_Source\PSoC4/BLE_eventHandler.c ****                     break;
1423:Generated_Source\PSoC4/BLE_eventHandler.c ****                 case CYBLE_CLIENT_STATE_INCL_DISCOVERING:
1424:Generated_Source\PSoC4/BLE_eventHandler.c ****                     CyBle_ApplCallback(CYBLE_EVT_GATTC_INCL_DISCOVERY_FAILED, NULL);
1425:Generated_Source\PSoC4/BLE_eventHandler.c ****                     break;
1426:Generated_Source\PSoC4/BLE_eventHandler.c ****                 case CYBLE_CLIENT_STATE_CHAR_DISCOVERING:
1427:Generated_Source\PSoC4/BLE_eventHandler.c ****                     CyBle_ApplCallback(CYBLE_EVT_GATTC_CHAR_DISCOVERY_FAILED, NULL);
1428:Generated_Source\PSoC4/BLE_eventHandler.c ****                     break;
1429:Generated_Source\PSoC4/BLE_eventHandler.c ****                 case CYBLE_CLIENT_STATE_DESCR_DISCOVERING:
ARM GAS  C:\Users\TTSS\AppData\Local\Temp\ccySleeg.s 			page 30


1430:Generated_Source\PSoC4/BLE_eventHandler.c ****                     CyBle_ApplCallback(CYBLE_EVT_GATTC_DESCR_DISCOVERY_FAILED, NULL);
1431:Generated_Source\PSoC4/BLE_eventHandler.c ****                     break;
1432:Generated_Source\PSoC4/BLE_eventHandler.c ****                 default:        /* Other states should not be set in Auto discovery mode */
1433:Generated_Source\PSoC4/BLE_eventHandler.c ****                     break;
1434:Generated_Source\PSoC4/BLE_eventHandler.c ****             }
1435:Generated_Source\PSoC4/BLE_eventHandler.c ****             cyBle_eventHandlerFlag &= (uint8)~CYBLE_AUTO_DISCOVERY;
1436:Generated_Source\PSoC4/BLE_eventHandler.c ****             CyBle_SetClientState(CYBLE_CLIENT_STATE_CONNECTED);
1437:Generated_Source\PSoC4/BLE_eventHandler.c ****         }
1438:Generated_Source\PSoC4/BLE_eventHandler.c ****     #endif /* CYBLE_GATT_ROLE_CLIENT */
1439:Generated_Source\PSoC4/BLE_eventHandler.c ****     #ifdef CYBLE_CPS_SERVER
1440:Generated_Source\PSoC4/BLE_eventHandler.c ****         CyBle_CpssTimeOutEventHandler();
1441:Generated_Source\PSoC4/BLE_eventHandler.c ****     #endif /* CYBLE_CPS_SERVER */
1442:Generated_Source\PSoC4/BLE_eventHandler.c ****     }
1443:Generated_Source\PSoC4/BLE_eventHandler.c ****     
1444:Generated_Source\PSoC4/BLE_eventHandler.c ****     /* Connection procedure timeout */
1445:Generated_Source\PSoC4/BLE_eventHandler.c ****     if(*eventParam == CYBLE_GENERIC_TO)
1446:Generated_Source\PSoC4/BLE_eventHandler.c ****     {
1447:Generated_Source\PSoC4/BLE_eventHandler.c ****     #if(CYBLE_GAP_ROLE_CENTRAL)
1448:Generated_Source\PSoC4/BLE_eventHandler.c ****         if(CyBle_GetState() == CYBLE_STATE_CONNECTING)
1449:Generated_Source\PSoC4/BLE_eventHandler.c ****         {
1450:Generated_Source\PSoC4/BLE_eventHandler.c ****             (void)CyBle_GapcCancelDeviceConnection();
1451:Generated_Source\PSoC4/BLE_eventHandler.c ****         }
1452:Generated_Source\PSoC4/BLE_eventHandler.c ****     #endif /* CYBLE_GAP_ROLE_CENTRAL */
1453:Generated_Source\PSoC4/BLE_eventHandler.c ****     }
1454:Generated_Source\PSoC4/BLE_eventHandler.c **** }
 224              		.loc 1 1454 0
 225 0008 C046     		nop
 226 000a BD46     		mov	sp, r7
 227 000c 02B0     		add	sp, sp, #8
 228              		@ sp needed
 229 000e 80BD     		pop	{r7, pc}
 230              		.cfi_endproc
 231              	.LFE5:
 232              		.size	CyBle_TimeOutEventHandler, .-CyBle_TimeOutEventHandler
 233              		.section	.text.CyBle_GattConnectReqHandler,"ax",%progbits
 234              		.align	2
 235              		.code	16
 236              		.thumb_func
 237              		.type	CyBle_GattConnectReqHandler, %function
 238              	CyBle_GattConnectReqHandler:
 239              	.LFB6:
1455:Generated_Source\PSoC4/BLE_eventHandler.c **** 
1456:Generated_Source\PSoC4/BLE_eventHandler.c **** 
1457:Generated_Source\PSoC4/BLE_eventHandler.c **** /****************************************************************************** 
1458:Generated_Source\PSoC4/BLE_eventHandler.c **** * Function Name: CyBle_GattConnectReqHandler
1459:Generated_Source\PSoC4/BLE_eventHandler.c **** ***************************************************************************//**
1460:Generated_Source\PSoC4/BLE_eventHandler.c **** * 
1461:Generated_Source\PSoC4/BLE_eventHandler.c **** *  Handles the GATT connect event from the BLE stack.
1462:Generated_Source\PSoC4/BLE_eventHandler.c **** * 
1463:Generated_Source\PSoC4/BLE_eventHandler.c **** * \return
1464:Generated_Source\PSoC4/BLE_eventHandler.c **** *  None
1465:Generated_Source\PSoC4/BLE_eventHandler.c **** * 
1466:Generated_Source\PSoC4/BLE_eventHandler.c **** ******************************************************************************/
1467:Generated_Source\PSoC4/BLE_eventHandler.c **** static void CyBle_GattConnectReqHandler(void)
1468:Generated_Source\PSoC4/BLE_eventHandler.c **** {
 240              		.loc 1 1468 0
 241              		.cfi_startproc
ARM GAS  C:\Users\TTSS\AppData\Local\Temp\ccySleeg.s 			page 31


 242              		@ args = 0, pretend = 0, frame = 0
 243              		@ frame_needed = 1, uses_anonymous_args = 0
 244 0000 80B5     		push	{r7, lr}
 245              		.cfi_def_cfa_offset 8
 246              		.cfi_offset 7, -8
 247              		.cfi_offset 14, -4
 248 0002 00AF     		add	r7, sp, #0
 249              		.cfi_def_cfa_register 7
1469:Generated_Source\PSoC4/BLE_eventHandler.c ****     #ifdef CYBLE_CGMS_SERVER
1470:Generated_Source\PSoC4/BLE_eventHandler.c ****         CyBle_CgmsInit();
1471:Generated_Source\PSoC4/BLE_eventHandler.c ****     #endif /* CYBLE_CGMS_SERVER */
1472:Generated_Source\PSoC4/BLE_eventHandler.c ****     
1473:Generated_Source\PSoC4/BLE_eventHandler.c ****     #ifdef CYBLE_CPS_SERVER
1474:Generated_Source\PSoC4/BLE_eventHandler.c ****         CyBle_CpssConnectEventHandler();
1475:Generated_Source\PSoC4/BLE_eventHandler.c ****     #endif /* CYBLE_CPS_SERVER */
1476:Generated_Source\PSoC4/BLE_eventHandler.c ****     
1477:Generated_Source\PSoC4/BLE_eventHandler.c ****     #ifdef CYBLE_CSCS_SERVER
1478:Generated_Source\PSoC4/BLE_eventHandler.c ****             CyBle_CscsInit();
1479:Generated_Source\PSoC4/BLE_eventHandler.c ****     #endif /* CYBLE_CSCS_SERVER */
1480:Generated_Source\PSoC4/BLE_eventHandler.c ****     
1481:Generated_Source\PSoC4/BLE_eventHandler.c ****     #ifdef CYBLE_LLS_SERVER
1482:Generated_Source\PSoC4/BLE_eventHandler.c ****         CyBle_LlssConnectEventHandler();
1483:Generated_Source\PSoC4/BLE_eventHandler.c ****     #endif /* CYBLE_LLS_SERVER */
1484:Generated_Source\PSoC4/BLE_eventHandler.c ****     
1485:Generated_Source\PSoC4/BLE_eventHandler.c ****     #ifdef CYBLE_HIDS_SERVER
1486:Generated_Source\PSoC4/BLE_eventHandler.c ****         CyBle_HidssOnDeviceConnected();
1487:Generated_Source\PSoC4/BLE_eventHandler.c ****     #endif /* CYBLE_HIDS_SERVER */
1488:Generated_Source\PSoC4/BLE_eventHandler.c **** 
1489:Generated_Source\PSoC4/BLE_eventHandler.c ****     #ifdef CYBLE_RSCS_SERVER
1490:Generated_Source\PSoC4/BLE_eventHandler.c ****         CyBle_RscsInit();
1491:Generated_Source\PSoC4/BLE_eventHandler.c ****     #endif /* CYBLE_RSCS_SERVER */
1492:Generated_Source\PSoC4/BLE_eventHandler.c **** }
 250              		.loc 1 1492 0
 251 0004 C046     		nop
 252 0006 BD46     		mov	sp, r7
 253              		@ sp needed
 254 0008 80BD     		pop	{r7, pc}
 255              		.cfi_endproc
 256              	.LFE6:
 257              		.size	CyBle_GattConnectReqHandler, .-CyBle_GattConnectReqHandler
 258 000a C046     		.section	.text.CyBle_IsDeviceAddressValid,"ax",%progbits
 259              		.align	2
 260              		.global	CyBle_IsDeviceAddressValid
 261              		.code	16
 262              		.thumb_func
 263              		.type	CyBle_IsDeviceAddressValid, %function
 264              	CyBle_IsDeviceAddressValid:
 265              	.LFB7:
1493:Generated_Source\PSoC4/BLE_eventHandler.c **** 
1494:Generated_Source\PSoC4/BLE_eventHandler.c **** 
1495:Generated_Source\PSoC4/BLE_eventHandler.c **** #if (CYBLE_GATT_ROLE_SERVER || CYBLE_GATT_ROLE_CLIENT)
1496:Generated_Source\PSoC4/BLE_eventHandler.c **** 
1497:Generated_Source\PSoC4/BLE_eventHandler.c **** /****************************************************************************** 
1498:Generated_Source\PSoC4/BLE_eventHandler.c **** * Function Name: CyBle_IsDeviceAddressValid
1499:Generated_Source\PSoC4/BLE_eventHandler.c **** ***************************************************************************//**
1500:Generated_Source\PSoC4/BLE_eventHandler.c **** * 
1501:Generated_Source\PSoC4/BLE_eventHandler.c **** *  This function verifies that BLE public address has been programmed to SFLASH 
ARM GAS  C:\Users\TTSS\AppData\Local\Temp\ccySleeg.s 			page 32


1502:Generated_Source\PSoC4/BLE_eventHandler.c **** *  during manufacture. It could be used to verify if public device address is 
1503:Generated_Source\PSoC4/BLE_eventHandler.c **** *  programmed to flash memory.
1504:Generated_Source\PSoC4/BLE_eventHandler.c **** * 
1505:Generated_Source\PSoC4/BLE_eventHandler.c **** *  \param deviceAddress: the pointer to the BD address of type CYBLE_GAP_BD_ADDR_T. 
1506:Generated_Source\PSoC4/BLE_eventHandler.c **** * 
1507:Generated_Source\PSoC4/BLE_eventHandler.c **** * \return
1508:Generated_Source\PSoC4/BLE_eventHandler.c **** *  Non zero value when a device address differs from the default SFLASH content.
1509:Generated_Source\PSoC4/BLE_eventHandler.c **** * 
1510:Generated_Source\PSoC4/BLE_eventHandler.c **** ******************************************************************************/
1511:Generated_Source\PSoC4/BLE_eventHandler.c **** uint8 CyBle_IsDeviceAddressValid(const CYBLE_GAP_BD_ADDR_T *deviceAddress)
1512:Generated_Source\PSoC4/BLE_eventHandler.c **** {
 266              		.loc 1 1512 0
 267              		.cfi_startproc
 268              		@ args = 0, pretend = 0, frame = 16
 269              		@ frame_needed = 1, uses_anonymous_args = 0
 270 0000 80B5     		push	{r7, lr}
 271              		.cfi_def_cfa_offset 8
 272              		.cfi_offset 7, -8
 273              		.cfi_offset 14, -4
 274 0002 84B0     		sub	sp, sp, #16
 275              		.cfi_def_cfa_offset 24
 276 0004 00AF     		add	r7, sp, #0
 277              		.cfi_def_cfa_register 7
 278 0006 7860     		str	r0, [r7, #4]
1513:Generated_Source\PSoC4/BLE_eventHandler.c ****     uint8 i;
1514:Generated_Source\PSoC4/BLE_eventHandler.c ****     uint8 addressValid = 0u;
 279              		.loc 1 1514 0
 280 0008 0E23     		movs	r3, #14
 281 000a FB18     		adds	r3, r7, r3
 282 000c 0022     		movs	r2, #0
 283 000e 1A70     		strb	r2, [r3]
1515:Generated_Source\PSoC4/BLE_eventHandler.c ****     
1516:Generated_Source\PSoC4/BLE_eventHandler.c ****     if(deviceAddress -> type == CYBLE_GAP_ADDR_TYPE_PUBLIC)  
 284              		.loc 1 1516 0
 285 0010 7B68     		ldr	r3, [r7, #4]
 286 0012 9B79     		ldrb	r3, [r3, #6]
 287 0014 002B     		cmp	r3, #0
 288 0016 1CD1     		bne	.L14
1517:Generated_Source\PSoC4/BLE_eventHandler.c ****     {
1518:Generated_Source\PSoC4/BLE_eventHandler.c ****         for(i = 0u; i < CYBLE_GAP_BD_ADDR_SIZE; i++)
 289              		.loc 1 1518 0
 290 0018 0F23     		movs	r3, #15
 291 001a FB18     		adds	r3, r7, r3
 292 001c 0022     		movs	r2, #0
 293 001e 1A70     		strb	r2, [r3]
 294 0020 12E0     		b	.L15
 295              	.L17:
1519:Generated_Source\PSoC4/BLE_eventHandler.c ****         {
1520:Generated_Source\PSoC4/BLE_eventHandler.c ****             if(deviceAddress->bdAddr[i] != 0u)
 296              		.loc 1 1520 0
 297 0022 0F23     		movs	r3, #15
 298 0024 FB18     		adds	r3, r7, r3
 299 0026 1B78     		ldrb	r3, [r3]
 300 0028 7A68     		ldr	r2, [r7, #4]
 301 002a D35C     		ldrb	r3, [r2, r3]
 302 002c 002B     		cmp	r3, #0
 303 002e 04D0     		beq	.L16
ARM GAS  C:\Users\TTSS\AppData\Local\Temp\ccySleeg.s 			page 33


1521:Generated_Source\PSoC4/BLE_eventHandler.c ****             {
1522:Generated_Source\PSoC4/BLE_eventHandler.c ****                 addressValid = 1u;
 304              		.loc 1 1522 0
 305 0030 0E23     		movs	r3, #14
 306 0032 FB18     		adds	r3, r7, r3
 307 0034 0122     		movs	r2, #1
 308 0036 1A70     		strb	r2, [r3]
1523:Generated_Source\PSoC4/BLE_eventHandler.c ****                 break;
 309              		.loc 1 1523 0
 310 0038 0BE0     		b	.L14
 311              	.L16:
1518:Generated_Source\PSoC4/BLE_eventHandler.c ****         {
 312              		.loc 1 1518 0 discriminator 2
 313 003a 0F23     		movs	r3, #15
 314 003c FB18     		adds	r3, r7, r3
 315 003e 1A78     		ldrb	r2, [r3]
 316 0040 0F23     		movs	r3, #15
 317 0042 FB18     		adds	r3, r7, r3
 318 0044 0132     		adds	r2, r2, #1
 319 0046 1A70     		strb	r2, [r3]
 320              	.L15:
1518:Generated_Source\PSoC4/BLE_eventHandler.c ****         {
 321              		.loc 1 1518 0 is_stmt 0 discriminator 1
 322 0048 0F23     		movs	r3, #15
 323 004a FB18     		adds	r3, r7, r3
 324 004c 1B78     		ldrb	r3, [r3]
 325 004e 052B     		cmp	r3, #5
 326 0050 E7D9     		bls	.L17
 327              	.L14:
1524:Generated_Source\PSoC4/BLE_eventHandler.c ****             }
1525:Generated_Source\PSoC4/BLE_eventHandler.c ****         }
1526:Generated_Source\PSoC4/BLE_eventHandler.c ****     }
1527:Generated_Source\PSoC4/BLE_eventHandler.c ****     return (addressValid);
 328              		.loc 1 1527 0 is_stmt 1
 329 0052 0E23     		movs	r3, #14
 330 0054 FB18     		adds	r3, r7, r3
 331 0056 1B78     		ldrb	r3, [r3]
1528:Generated_Source\PSoC4/BLE_eventHandler.c **** }
 332              		.loc 1 1528 0
 333 0058 1800     		movs	r0, r3
 334 005a BD46     		mov	sp, r7
 335 005c 04B0     		add	sp, sp, #16
 336              		@ sp needed
 337 005e 80BD     		pop	{r7, pc}
 338              		.cfi_endproc
 339              	.LFE7:
 340              		.size	CyBle_IsDeviceAddressValid, .-CyBle_IsDeviceAddressValid
 341              		.section	.text.CyBle_L2Cap_ConnParamUpdateRspEventHandler,"ax",%progbits
 342              		.align	2
 343              		.code	16
 344              		.thumb_func
 345              		.type	CyBle_L2Cap_ConnParamUpdateRspEventHandler, %function
 346              	CyBle_L2Cap_ConnParamUpdateRspEventHandler:
 347              	.LFB8:
1529:Generated_Source\PSoC4/BLE_eventHandler.c **** #endif /* CYBLE_GATT_ROLE_SERVER || CYBLE_GATT_ROLE_CLIENT */
1530:Generated_Source\PSoC4/BLE_eventHandler.c **** 
1531:Generated_Source\PSoC4/BLE_eventHandler.c **** 
ARM GAS  C:\Users\TTSS\AppData\Local\Temp\ccySleeg.s 			page 34


1532:Generated_Source\PSoC4/BLE_eventHandler.c **** /****************************************************************************** 
1533:Generated_Source\PSoC4/BLE_eventHandler.c **** * Function Name: CyBle_L2Cap_ConnParamUpdateRspHandler
1534:Generated_Source\PSoC4/BLE_eventHandler.c **** ***************************************************************************//**
1535:Generated_Source\PSoC4/BLE_eventHandler.c **** * 
1536:Generated_Source\PSoC4/BLE_eventHandler.c **** *  Handles the L2CAP connection parameter response event from
1537:Generated_Source\PSoC4/BLE_eventHandler.c **** *  the BLE stack.
1538:Generated_Source\PSoC4/BLE_eventHandler.c **** * 
1539:Generated_Source\PSoC4/BLE_eventHandler.c **** *  \param response:
1540:Generated_Source\PSoC4/BLE_eventHandler.c **** *      * Accepted = 0x0000
1541:Generated_Source\PSoC4/BLE_eventHandler.c **** *      * Rejected = 0x0001
1542:Generated_Source\PSoC4/BLE_eventHandler.c **** * 
1543:Generated_Source\PSoC4/BLE_eventHandler.c **** * \return
1544:Generated_Source\PSoC4/BLE_eventHandler.c **** *  None
1545:Generated_Source\PSoC4/BLE_eventHandler.c **** * 
1546:Generated_Source\PSoC4/BLE_eventHandler.c **** ******************************************************************************/
1547:Generated_Source\PSoC4/BLE_eventHandler.c **** static void CyBle_L2Cap_ConnParamUpdateRspEventHandler(uint16 response)
1548:Generated_Source\PSoC4/BLE_eventHandler.c **** {
 348              		.loc 1 1548 0
 349              		.cfi_startproc
 350              		@ args = 0, pretend = 0, frame = 8
 351              		@ frame_needed = 1, uses_anonymous_args = 0
 352 0000 80B5     		push	{r7, lr}
 353              		.cfi_def_cfa_offset 8
 354              		.cfi_offset 7, -8
 355              		.cfi_offset 14, -4
 356 0002 82B0     		sub	sp, sp, #8
 357              		.cfi_def_cfa_offset 16
 358 0004 00AF     		add	r7, sp, #0
 359              		.cfi_def_cfa_register 7
 360 0006 0200     		movs	r2, r0
 361 0008 BB1D     		adds	r3, r7, #6
 362 000a 1A80     		strh	r2, [r3]
1549:Generated_Source\PSoC4/BLE_eventHandler.c ****     #ifdef CYBLE_CPS_SERVER
1550:Generated_Source\PSoC4/BLE_eventHandler.c ****         CyBle_CpssConnParamUpdateRspEventHandler(response);
1551:Generated_Source\PSoC4/BLE_eventHandler.c ****     #endif /* CYBLE_CPS_SERVER */
1552:Generated_Source\PSoC4/BLE_eventHandler.c ****     
1553:Generated_Source\PSoC4/BLE_eventHandler.c ****     /* Unreferenced variable warning workaround */
1554:Generated_Source\PSoC4/BLE_eventHandler.c ****     if(response != 0u)
1555:Generated_Source\PSoC4/BLE_eventHandler.c ****     {
1556:Generated_Source\PSoC4/BLE_eventHandler.c ****     }
1557:Generated_Source\PSoC4/BLE_eventHandler.c **** }
 363              		.loc 1 1557 0
 364 000c C046     		nop
 365 000e BD46     		mov	sp, r7
 366 0010 02B0     		add	sp, sp, #8
 367              		@ sp needed
 368 0012 80BD     		pop	{r7, pc}
 369              		.cfi_endproc
 370              	.LFE8:
 371              		.size	CyBle_L2Cap_ConnParamUpdateRspEventHandler, .-CyBle_L2Cap_ConnParamUpdateRspEventHandler
 372              		.section	.text.CyBle_GapConnUpdateCompleteEventHandler,"ax",%progbits
 373              		.align	2
 374              		.code	16
 375              		.thumb_func
 376              		.type	CyBle_GapConnUpdateCompleteEventHandler, %function
 377              	CyBle_GapConnUpdateCompleteEventHandler:
 378              	.LFB9:
ARM GAS  C:\Users\TTSS\AppData\Local\Temp\ccySleeg.s 			page 35


1558:Generated_Source\PSoC4/BLE_eventHandler.c **** 
1559:Generated_Source\PSoC4/BLE_eventHandler.c **** 
1560:Generated_Source\PSoC4/BLE_eventHandler.c **** /****************************************************************************** 
1561:Generated_Source\PSoC4/BLE_eventHandler.c **** * Function Name: CyBle_GapConnUpdateCompleteEventHandler
1562:Generated_Source\PSoC4/BLE_eventHandler.c **** ***************************************************************************//**
1563:Generated_Source\PSoC4/BLE_eventHandler.c **** * 
1564:Generated_Source\PSoC4/BLE_eventHandler.c **** *  Handles the CYBLE_EVT_GAP_CONNECTION_UPDATE_COMPLETE event from
1565:Generated_Source\PSoC4/BLE_eventHandler.c **** *  the BLE stack.
1566:Generated_Source\PSoC4/BLE_eventHandler.c **** * 
1567:Generated_Source\PSoC4/BLE_eventHandler.c **** *  \param eventParam: The pointer to the data structure specified by the event.
1568:Generated_Source\PSoC4/BLE_eventHandler.c **** * 
1569:Generated_Source\PSoC4/BLE_eventHandler.c **** * \return
1570:Generated_Source\PSoC4/BLE_eventHandler.c **** *  None
1571:Generated_Source\PSoC4/BLE_eventHandler.c **** * 
1572:Generated_Source\PSoC4/BLE_eventHandler.c **** ******************************************************************************/
1573:Generated_Source\PSoC4/BLE_eventHandler.c **** static void CyBle_GapConnUpdateCompleteEventHandler(const CYBLE_GAP_CONN_PARAM_UPDATED_IN_CONTROLLE
1574:Generated_Source\PSoC4/BLE_eventHandler.c **** {
 379              		.loc 1 1574 0
 380              		.cfi_startproc
 381              		@ args = 0, pretend = 0, frame = 8
 382              		@ frame_needed = 1, uses_anonymous_args = 0
 383 0000 80B5     		push	{r7, lr}
 384              		.cfi_def_cfa_offset 8
 385              		.cfi_offset 7, -8
 386              		.cfi_offset 14, -4
 387 0002 82B0     		sub	sp, sp, #8
 388              		.cfi_def_cfa_offset 16
 389 0004 00AF     		add	r7, sp, #0
 390              		.cfi_def_cfa_register 7
 391 0006 7860     		str	r0, [r7, #4]
1575:Generated_Source\PSoC4/BLE_eventHandler.c ****     #ifdef CYBLE_CPS_SERVER
1576:Generated_Source\PSoC4/BLE_eventHandler.c ****         CyBle_CpssConnUpdateCompleteEventHandler(eventParam);
1577:Generated_Source\PSoC4/BLE_eventHandler.c ****     #endif /* CYBLE_CPS_SERVER */
1578:Generated_Source\PSoC4/BLE_eventHandler.c ****     
1579:Generated_Source\PSoC4/BLE_eventHandler.c ****     /* Unreferenced variable warning workaround */
1580:Generated_Source\PSoC4/BLE_eventHandler.c ****     if(eventParam != 0u)
1581:Generated_Source\PSoC4/BLE_eventHandler.c ****     {
1582:Generated_Source\PSoC4/BLE_eventHandler.c ****     }
1583:Generated_Source\PSoC4/BLE_eventHandler.c **** }
 392              		.loc 1 1583 0
 393 0008 C046     		nop
 394 000a BD46     		mov	sp, r7
 395 000c 02B0     		add	sp, sp, #8
 396              		@ sp needed
 397 000e 80BD     		pop	{r7, pc}
 398              		.cfi_endproc
 399              	.LFE9:
 400              		.size	CyBle_GapConnUpdateCompleteEventHandler, .-CyBle_GapConnUpdateCompleteEventHandler
 401              		.section	.text.CyBle_EventHandler,"ax",%progbits
 402              		.align	2
 403              		.global	CyBle_EventHandler
 404              		.code	16
 405              		.thumb_func
 406              		.type	CyBle_EventHandler, %function
 407              	CyBle_EventHandler:
 408              	.LFB10:
1584:Generated_Source\PSoC4/BLE_eventHandler.c **** 
ARM GAS  C:\Users\TTSS\AppData\Local\Temp\ccySleeg.s 			page 36


1585:Generated_Source\PSoC4/BLE_eventHandler.c **** 
1586:Generated_Source\PSoC4/BLE_eventHandler.c **** /****************************************************************************** 
1587:Generated_Source\PSoC4/BLE_eventHandler.c **** * Function Name: CyBle_EventHandler
1588:Generated_Source\PSoC4/BLE_eventHandler.c **** ***************************************************************************//**
1589:Generated_Source\PSoC4/BLE_eventHandler.c **** * 
1590:Generated_Source\PSoC4/BLE_eventHandler.c **** *  Handles the events from the BLE stack
1591:Generated_Source\PSoC4/BLE_eventHandler.c **** * 
1592:Generated_Source\PSoC4/BLE_eventHandler.c **** *  \param eventCode:    the event code
1593:Generated_Source\PSoC4/BLE_eventHandler.c **** *  \param eventParam:  the event parameters
1594:Generated_Source\PSoC4/BLE_eventHandler.c **** * 
1595:Generated_Source\PSoC4/BLE_eventHandler.c **** * \return
1596:Generated_Source\PSoC4/BLE_eventHandler.c **** *  None.
1597:Generated_Source\PSoC4/BLE_eventHandler.c **** * 
1598:Generated_Source\PSoC4/BLE_eventHandler.c **** ******************************************************************************/
1599:Generated_Source\PSoC4/BLE_eventHandler.c **** void CyBle_EventHandler(uint8 eventCode, void *eventParam)
1600:Generated_Source\PSoC4/BLE_eventHandler.c **** {
 409              		.loc 1 1600 0
 410              		.cfi_startproc
 411              		@ args = 0, pretend = 0, frame = 32
 412              		@ frame_needed = 1, uses_anonymous_args = 0
 413 0000 80B5     		push	{r7, lr}
 414              		.cfi_def_cfa_offset 8
 415              		.cfi_offset 7, -8
 416              		.cfi_offset 14, -4
 417 0002 88B0     		sub	sp, sp, #32
 418              		.cfi_def_cfa_offset 40
 419 0004 00AF     		add	r7, sp, #0
 420              		.cfi_def_cfa_register 7
 421 0006 0200     		movs	r2, r0
 422 0008 3960     		str	r1, [r7]
 423 000a FB1D     		adds	r3, r7, #7
 424 000c 1A70     		strb	r2, [r3]
1601:Generated_Source\PSoC4/BLE_eventHandler.c ****     cyBle_eventHandlerFlag |= CYBLE_CALLBACK;
 425              		.loc 1 1601 0
 426 000e C54B     		ldr	r3, .L62
 427 0010 1B78     		ldrb	r3, [r3]
 428 0012 DBB2     		uxtb	r3, r3
 429 0014 0122     		movs	r2, #1
 430 0016 1343     		orrs	r3, r2
 431 0018 DAB2     		uxtb	r2, r3
 432 001a C24B     		ldr	r3, .L62
 433 001c 1A70     		strb	r2, [r3]
1602:Generated_Source\PSoC4/BLE_eventHandler.c **** 
1603:Generated_Source\PSoC4/BLE_eventHandler.c ****     /* Common Profile event handling */
1604:Generated_Source\PSoC4/BLE_eventHandler.c ****     switch(eventCode)
 434              		.loc 1 1604 0
 435 001e FB1D     		adds	r3, r7, #7
 436 0020 1B78     		ldrb	r3, [r3]
 437 0022 712B     		cmp	r3, #113
 438 0024 00D9     		bls	.LCB332
 439 0026 5BE1     		b	.L57	@long jump
 440              	.LCB332:
 441 0028 9A00     		lsls	r2, r3, #2
 442 002a BF4B     		ldr	r3, .L62+4
 443 002c D318     		adds	r3, r2, r3
 444 002e 1B68     		ldr	r3, [r3]
 445 0030 9F46     		mov	pc, r3
ARM GAS  C:\Users\TTSS\AppData\Local\Temp\ccySleeg.s 			page 37


 446              		.section	.rodata
 447              		.align	2
 448              	.L24:
 449 000c E0020000 		.word	.L57
 450 0010 32000000 		.word	.L23
 451 0014 38010000 		.word	.L25
 452 0018 E0020000 		.word	.L57
 453 001c E0020000 		.word	.L57
 454 0020 42010000 		.word	.L26
 455 0024 4C010000 		.word	.L27
 456 0028 E0020000 		.word	.L57
 457 002c E0020000 		.word	.L57
 458 0030 E0020000 		.word	.L57
 459 0034 E0020000 		.word	.L57
 460 0038 E0020000 		.word	.L57
 461 003c E0020000 		.word	.L57
 462 0040 E0020000 		.word	.L57
 463 0044 E0020000 		.word	.L57
 464 0048 E0020000 		.word	.L57
 465 004c E0020000 		.word	.L57
 466 0050 E0020000 		.word	.L57
 467 0054 E0020000 		.word	.L57
 468 0058 E0020000 		.word	.L57
 469 005c E0020000 		.word	.L57
 470 0060 E0020000 		.word	.L57
 471 0064 E0020000 		.word	.L57
 472 0068 E0020000 		.word	.L57
 473 006c E0020000 		.word	.L57
 474 0070 E0020000 		.word	.L57
 475 0074 E0020000 		.word	.L57
 476 0078 E0020000 		.word	.L57
 477 007c E0020000 		.word	.L57
 478 0080 E0020000 		.word	.L57
 479 0084 E0020000 		.word	.L57
 480 0088 E0020000 		.word	.L57
 481 008c E0020000 		.word	.L57
 482 0090 8C010000 		.word	.L28
 483 0094 E0020000 		.word	.L57
 484 0098 E0020000 		.word	.L57
 485 009c E0020000 		.word	.L57
 486 00a0 E0020000 		.word	.L57
 487 00a4 D0010000 		.word	.L30
 488 00a8 B8010000 		.word	.L31
 489 00ac C8010000 		.word	.L32
 490 00b0 E0020000 		.word	.L57
 491 00b4 AE010000 		.word	.L33
 492 00b8 E0020000 		.word	.L57
 493 00bc E0020000 		.word	.L57
 494 00c0 E0020000 		.word	.L57
 495 00c4 E0020000 		.word	.L57
 496 00c8 E0020000 		.word	.L57
 497 00cc E0020000 		.word	.L57
 498 00d0 E0020000 		.word	.L57
 499 00d4 E0020000 		.word	.L57
 500 00d8 E0020000 		.word	.L57
 501 00dc E0020000 		.word	.L57
 502 00e0 E0020000 		.word	.L57
ARM GAS  C:\Users\TTSS\AppData\Local\Temp\ccySleeg.s 			page 38


 503 00e4 E0020000 		.word	.L57
 504 00e8 E0020000 		.word	.L57
 505 00ec E0020000 		.word	.L57
 506 00f0 E0020000 		.word	.L57
 507 00f4 E0020000 		.word	.L57
 508 00f8 E0020000 		.word	.L57
 509 00fc E0020000 		.word	.L57
 510 0100 E0020000 		.word	.L57
 511 0104 E0020000 		.word	.L57
 512 0108 E0020000 		.word	.L57
 513 010c E0020000 		.word	.L57
 514 0110 52020000 		.word	.L34
 515 0114 8C020000 		.word	.L35
 516 0118 92020000 		.word	.L36
 517 011c E0020000 		.word	.L57
 518 0120 E0020000 		.word	.L57
 519 0124 E0020000 		.word	.L57
 520 0128 E0020000 		.word	.L57
 521 012c E0020000 		.word	.L57
 522 0130 E0020000 		.word	.L57
 523 0134 E0020000 		.word	.L57
 524 0138 E0020000 		.word	.L57
 525 013c CC020000 		.word	.L37
 526 0140 E0020000 		.word	.L57
 527 0144 E0020000 		.word	.L57
 528 0148 E0020000 		.word	.L57
 529 014c E0020000 		.word	.L57
 530 0150 E0020000 		.word	.L57
 531 0154 E0020000 		.word	.L57
 532 0158 E0020000 		.word	.L57
 533 015c D6020000 		.word	.L41
 534 0160 E0020000 		.word	.L57
 535 0164 E0020000 		.word	.L57
 536 0168 E0020000 		.word	.L57
 537 016c E0020000 		.word	.L57
 538 0170 E0020000 		.word	.L57
 539 0174 E0020000 		.word	.L57
 540 0178 E0020000 		.word	.L57
 541 017c E0020000 		.word	.L57
 542 0180 E0020000 		.word	.L57
 543 0184 E0020000 		.word	.L57
 544 0188 E0020000 		.word	.L57
 545 018c E0020000 		.word	.L57
 546 0190 E0020000 		.word	.L57
 547 0194 E0020000 		.word	.L57
 548 0198 E0020000 		.word	.L57
 549 019c E0020000 		.word	.L57
 550 01a0 E0020000 		.word	.L57
 551 01a4 E0020000 		.word	.L57
 552 01a8 E0020000 		.word	.L57
 553 01ac E0020000 		.word	.L57
 554 01b0 E0020000 		.word	.L57
 555 01b4 E0020000 		.word	.L57
 556 01b8 E0020000 		.word	.L57
 557 01bc E0020000 		.word	.L57
 558 01c0 E0020000 		.word	.L57
 559 01c4 E0020000 		.word	.L57
ARM GAS  C:\Users\TTSS\AppData\Local\Temp\ccySleeg.s 			page 39


 560 01c8 E0020000 		.word	.L57
 561 01cc E0020000 		.word	.L57
 562 01d0 46020000 		.word	.L43
 563              		.section	.text.CyBle_EventHandler
 564              	.L23:
 565              	.LBB3:
1605:Generated_Source\PSoC4/BLE_eventHandler.c ****     {
1606:Generated_Source\PSoC4/BLE_eventHandler.c ****         /**********************************************************
1607:Generated_Source\PSoC4/BLE_eventHandler.c ****         * General events
1608:Generated_Source\PSoC4/BLE_eventHandler.c ****         ************************************************************/
1609:Generated_Source\PSoC4/BLE_eventHandler.c ****         case CYBLE_EVT_STACK_ON:
1610:Generated_Source\PSoC4/BLE_eventHandler.c ****         #if(CYBLE_MODE_PROFILE)
1611:Generated_Source\PSoC4/BLE_eventHandler.c ****         {
1612:Generated_Source\PSoC4/BLE_eventHandler.c ****             CYBLE_BLESS_PWR_IN_DB_T bleSsPowerLevel;
1613:Generated_Source\PSoC4/BLE_eventHandler.c ****             
1614:Generated_Source\PSoC4/BLE_eventHandler.c ****             /* Set Tx Power Level for advertising and connection channels */
1615:Generated_Source\PSoC4/BLE_eventHandler.c ****             bleSsPowerLevel.blePwrLevelInDbm = CYBLE_TX_POWER_LEVEL_ADV;
 566              		.loc 1 1615 0
 567 0032 1023     		movs	r3, #16
 568 0034 FB18     		adds	r3, r7, r3
 569 0036 0722     		movs	r2, #7
 570 0038 1A70     		strb	r2, [r3]
1616:Generated_Source\PSoC4/BLE_eventHandler.c ****             bleSsPowerLevel.bleSsChId = CYBLE_LL_ADV_CH_TYPE;
 571              		.loc 1 1616 0
 572 003a 1023     		movs	r3, #16
 573 003c FB18     		adds	r3, r7, r3
 574 003e 0022     		movs	r2, #0
 575 0040 5A70     		strb	r2, [r3, #1]
1617:Generated_Source\PSoC4/BLE_eventHandler.c ****             (void) CyBle_SetTxPowerLevel (&bleSsPowerLevel);
 576              		.loc 1 1617 0
 577 0042 1023     		movs	r3, #16
 578 0044 FB18     		adds	r3, r7, r3
 579 0046 1800     		movs	r0, r3
 580 0048 FFF7FEFF 		bl	CyBle_SetTxPowerLevel
1618:Generated_Source\PSoC4/BLE_eventHandler.c ****             bleSsPowerLevel.blePwrLevelInDbm = CYBLE_TX_POWER_LEVEL_CONN;
 581              		.loc 1 1618 0
 582 004c 1023     		movs	r3, #16
 583 004e FB18     		adds	r3, r7, r3
 584 0050 0722     		movs	r2, #7
 585 0052 1A70     		strb	r2, [r3]
1619:Generated_Source\PSoC4/BLE_eventHandler.c ****             bleSsPowerLevel.bleSsChId = CYBLE_LL_CONN_CH_TYPE;
 586              		.loc 1 1619 0
 587 0054 1023     		movs	r3, #16
 588 0056 FB18     		adds	r3, r7, r3
 589 0058 0122     		movs	r2, #1
 590 005a 5A70     		strb	r2, [r3, #1]
1620:Generated_Source\PSoC4/BLE_eventHandler.c ****             (void) CyBle_SetTxPowerLevel (&bleSsPowerLevel);
 591              		.loc 1 1620 0
 592 005c 1023     		movs	r3, #16
 593 005e FB18     		adds	r3, r7, r3
 594 0060 1800     		movs	r0, r3
 595 0062 FFF7FEFF 		bl	CyBle_SetTxPowerLevel
1621:Generated_Source\PSoC4/BLE_eventHandler.c ****             
1622:Generated_Source\PSoC4/BLE_eventHandler.c ****             #if (CYBLE_GATT_ROLE_SERVER)
1623:Generated_Source\PSoC4/BLE_eventHandler.c ****                 /* As per Privacy Errata a call to CyBle_EnableDefaultDevicePrivacy() is
1624:Generated_Source\PSoC4/BLE_eventHandler.c ****                   required to set a device to use device privacy instead of network privacy
1625:Generated_Source\PSoC4/BLE_eventHandler.c ****                   that is enabled by default starting from BLE Stack 3.3.
ARM GAS  C:\Users\TTSS\AppData\Local\Temp\ccySleeg.s 			page 40


1626:Generated_Source\PSoC4/BLE_eventHandler.c ****                 */
1627:Generated_Source\PSoC4/BLE_eventHandler.c ****                 if(cyBle_gaps.rpaOnlyCharHandle != CYBLE_GATT_INVALID_ATTR_HANDLE_VALUE)
 596              		.loc 1 1627 0
 597 0066 0023     		movs	r3, #0
 598 0068 002B     		cmp	r3, #0
 599 006a 01D0     		beq	.L44
1628:Generated_Source\PSoC4/BLE_eventHandler.c ****                 {
1629:Generated_Source\PSoC4/BLE_eventHandler.c ****                     CyBle_EnableDefaultDevicePrivacy();
 600              		.loc 1 1629 0
 601 006c FFF7FEFF 		bl	CyBle_EnableDefaultDevicePrivacy
 602              	.L44:
 603              	.LBE3:
1630:Generated_Source\PSoC4/BLE_eventHandler.c ****                 }
1631:Generated_Source\PSoC4/BLE_eventHandler.c ****             #endif /* (CYBLE_GATT_ROLE_SERVER) */
1632:Generated_Source\PSoC4/BLE_eventHandler.c ****             
1633:Generated_Source\PSoC4/BLE_eventHandler.c ****             #if (CYBLE_STRICT_PAIRING_ENABLED)
1634:Generated_Source\PSoC4/BLE_eventHandler.c ****                 (void) CyBle_GapSetSecurityRequirements(CYBLE_STRICT_PAIRING_REQ_VALUE, CYBLE_SECUR
1635:Generated_Source\PSoC4/BLE_eventHandler.c ****             #endif /* (CYBLE_STRICT_PAIRING_ENABLED) */
1636:Generated_Source\PSoC4/BLE_eventHandler.c ****             
1637:Generated_Source\PSoC4/BLE_eventHandler.c ****         }
1638:Generated_Source\PSoC4/BLE_eventHandler.c ****         #endif /* CYBLE_MODE_PROFILE */
1639:Generated_Source\PSoC4/BLE_eventHandler.c ****         #if (CYBLE_GATT_ROLE_SERVER || CYBLE_GATT_ROLE_CLIENT)
1640:Generated_Source\PSoC4/BLE_eventHandler.c ****             /* Set device Address  */
1641:Generated_Source\PSoC4/BLE_eventHandler.c ****             if(CyBle_IsDeviceAddressValid(cyBle_sflashDeviceAddress) != 0u)
 604              		.loc 1 1641 0
 605 0070 AE4B     		ldr	r3, .L62+8
 606 0072 1B68     		ldr	r3, [r3]
 607 0074 1800     		movs	r0, r3
 608 0076 FFF7FEFF 		bl	CyBle_IsDeviceAddressValid
 609 007a 031E     		subs	r3, r0, #0
 610 007c 11D0     		beq	.L45
1642:Generated_Source\PSoC4/BLE_eventHandler.c ****             {
1643:Generated_Source\PSoC4/BLE_eventHandler.c ****                 (void) CyBle_SetDeviceAddress(cyBle_sflashDeviceAddress);
 611              		.loc 1 1643 0
 612 007e AB4B     		ldr	r3, .L62+8
 613 0080 1B68     		ldr	r3, [r3]
 614 0082 1800     		movs	r0, r3
 615 0084 FFF7FEFF 		bl	CyBle_SetDeviceAddress
1644:Generated_Source\PSoC4/BLE_eventHandler.c ****                 #if(CYBLE_GAP_ROLE_PERIPHERAL || CYBLE_GAP_ROLE_BROADCASTER)
1645:Generated_Source\PSoC4/BLE_eventHandler.c ****                     CyBle_ChangeAdDeviceAddress(cyBle_sflashDeviceAddress, 0u);
 616              		.loc 1 1645 0
 617 0088 A84B     		ldr	r3, .L62+8
 618 008a 1B68     		ldr	r3, [r3]
 619 008c 0021     		movs	r1, #0
 620 008e 1800     		movs	r0, r3
 621 0090 FFF7FEFF 		bl	CyBle_ChangeAdDeviceAddress
1646:Generated_Source\PSoC4/BLE_eventHandler.c ****                     CyBle_ChangeAdDeviceAddress(cyBle_sflashDeviceAddress, 1u);
 622              		.loc 1 1646 0
 623 0094 A54B     		ldr	r3, .L62+8
 624 0096 1B68     		ldr	r3, [r3]
 625 0098 0121     		movs	r1, #1
 626 009a 1800     		movs	r0, r3
 627 009c FFF7FEFF 		bl	CyBle_ChangeAdDeviceAddress
 628 00a0 36E0     		b	.L46
 629              	.L45:
 630              	.LBB4:
1647:Generated_Source\PSoC4/BLE_eventHandler.c ****                 #endif /* CYBLE_GAP_ROLE_PERIPHERAL || CYBLE_GAP_ROLE_BROADCASTER */    
ARM GAS  C:\Users\TTSS\AppData\Local\Temp\ccySleeg.s 			page 41


1648:Generated_Source\PSoC4/BLE_eventHandler.c ****             }
1649:Generated_Source\PSoC4/BLE_eventHandler.c ****             else
1650:Generated_Source\PSoC4/BLE_eventHandler.c ****             {
1651:Generated_Source\PSoC4/BLE_eventHandler.c ****             #if (SILICON_GENERATED_DEVICE_ADDRESS != 0u)
1652:Generated_Source\PSoC4/BLE_eventHandler.c ****             {
1653:Generated_Source\PSoC4/BLE_eventHandler.c ****                 uint32 bdAddrLoc;
1654:Generated_Source\PSoC4/BLE_eventHandler.c ****                 bdAddrLoc = (CYBLE_SFLASH_DIE_X_REG & CYBLE_SFLASH_DIE_X_MASK) |
 631              		.loc 1 1654 0
 632 00a2 A34B     		ldr	r3, .L62+12
 633 00a4 1B78     		ldrb	r3, [r3]
 634 00a6 1A00     		movs	r2, r3
 635 00a8 3F23     		movs	r3, #63
 636 00aa 1A40     		ands	r2, r3
1655:Generated_Source\PSoC4/BLE_eventHandler.c ****                     ((uint32)(((uint32)CYBLE_SFLASH_DIE_Y_REG) & ((uint32)CYBLE_SFLASH_DIE_Y_MASK))
 637              		.loc 1 1655 0
 638 00ac A14B     		ldr	r3, .L62+16
 639 00ae 1B78     		ldrb	r3, [r3]
 640 00b0 9901     		lsls	r1, r3, #6
 641 00b2 FC23     		movs	r3, #252
 642 00b4 1B01     		lsls	r3, r3, #4
 643 00b6 0B40     		ands	r3, r1
1654:Generated_Source\PSoC4/BLE_eventHandler.c ****                     ((uint32)(((uint32)CYBLE_SFLASH_DIE_Y_REG) & ((uint32)CYBLE_SFLASH_DIE_Y_MASK))
 644              		.loc 1 1654 0
 645 00b8 1A43     		orrs	r2, r3
1656:Generated_Source\PSoC4/BLE_eventHandler.c ****                         CYBLE_SFLASH_DIE_X_BITS) |
1657:Generated_Source\PSoC4/BLE_eventHandler.c ****                     ((uint32)(((uint32)CYBLE_SFLASH_DIE_WAFER_REG) & ((uint32)CYBLE_SFLASH_DIE_WAFE
 646              		.loc 1 1657 0
 647 00ba 9F4B     		ldr	r3, .L62+20
 648 00bc 1B78     		ldrb	r3, [r3]
 649 00be 1903     		lsls	r1, r3, #12
 650 00c0 F823     		movs	r3, #248
 651 00c2 5B02     		lsls	r3, r3, #9
 652 00c4 0B40     		ands	r3, r1
1656:Generated_Source\PSoC4/BLE_eventHandler.c ****                         CYBLE_SFLASH_DIE_X_BITS) |
 653              		.loc 1 1656 0
 654 00c6 1A43     		orrs	r2, r3
1658:Generated_Source\PSoC4/BLE_eventHandler.c ****                         CYBLE_SFLASH_DIE_XY_BITS) |
1659:Generated_Source\PSoC4/BLE_eventHandler.c ****                     ((uint32)(((uint32)CYBLE_SFLASH_DIE_LOT_REG) & ((uint32)CYBLE_SFLASH_DIE_LOT_MA
 655              		.loc 1 1659 0
 656 00c8 9C4B     		ldr	r3, .L62+24
 657 00ca 1B78     		ldrb	r3, [r3]
 658 00cc 5904     		lsls	r1, r3, #17
 659 00ce FE23     		movs	r3, #254
 660 00d0 1B04     		lsls	r3, r3, #16
 661 00d2 0B40     		ands	r3, r1
1654:Generated_Source\PSoC4/BLE_eventHandler.c ****                     ((uint32)(((uint32)CYBLE_SFLASH_DIE_Y_REG) & ((uint32)CYBLE_SFLASH_DIE_Y_MASK))
 662              		.loc 1 1654 0
 663 00d4 1343     		orrs	r3, r2
 664 00d6 BB61     		str	r3, [r7, #24]
1660:Generated_Source\PSoC4/BLE_eventHandler.c ****                         CYBLE_SFLASH_DIE_XYWAFER_BITS);
1661:Generated_Source\PSoC4/BLE_eventHandler.c ****                             
1662:Generated_Source\PSoC4/BLE_eventHandler.c ****                 cyBle_deviceAddress.bdAddr[0] = (uint8)bdAddrLoc;
 665              		.loc 1 1662 0
 666 00d8 BB69     		ldr	r3, [r7, #24]
 667 00da DAB2     		uxtb	r2, r3
 668 00dc 984B     		ldr	r3, .L62+28
 669 00de 1A70     		strb	r2, [r3]
ARM GAS  C:\Users\TTSS\AppData\Local\Temp\ccySleeg.s 			page 42


1663:Generated_Source\PSoC4/BLE_eventHandler.c ****                 cyBle_deviceAddress.bdAddr[1] = (uint8)(bdAddrLoc >> 8u);
 670              		.loc 1 1663 0
 671 00e0 BB69     		ldr	r3, [r7, #24]
 672 00e2 1B0A     		lsrs	r3, r3, #8
 673 00e4 DAB2     		uxtb	r2, r3
 674 00e6 964B     		ldr	r3, .L62+28
 675 00e8 5A70     		strb	r2, [r3, #1]
1664:Generated_Source\PSoC4/BLE_eventHandler.c ****                 cyBle_deviceAddress.bdAddr[2] = (uint8)(bdAddrLoc >> 16u);
 676              		.loc 1 1664 0
 677 00ea BB69     		ldr	r3, [r7, #24]
 678 00ec 1B0C     		lsrs	r3, r3, #16
 679 00ee DAB2     		uxtb	r2, r3
 680 00f0 934B     		ldr	r3, .L62+28
 681 00f2 9A70     		strb	r2, [r3, #2]
 682              	.LBE4:
1665:Generated_Source\PSoC4/BLE_eventHandler.c ****             }
1666:Generated_Source\PSoC4/BLE_eventHandler.c ****             #endif /* SILICON_GENERATED_DEVICE_ADDRESS != 0u */
1667:Generated_Source\PSoC4/BLE_eventHandler.c ****                 (void) CyBle_SetDeviceAddress(&cyBle_deviceAddress);
 683              		.loc 1 1667 0
 684 00f4 924B     		ldr	r3, .L62+28
 685 00f6 1800     		movs	r0, r3
 686 00f8 FFF7FEFF 		bl	CyBle_SetDeviceAddress
1668:Generated_Source\PSoC4/BLE_eventHandler.c ****                 #if(CYBLE_GAP_ROLE_PERIPHERAL || CYBLE_GAP_ROLE_BROADCASTER)
1669:Generated_Source\PSoC4/BLE_eventHandler.c ****                     CyBle_ChangeAdDeviceAddress(&cyBle_deviceAddress, 0u);
 687              		.loc 1 1669 0
 688 00fc 904B     		ldr	r3, .L62+28
 689 00fe 0021     		movs	r1, #0
 690 0100 1800     		movs	r0, r3
 691 0102 FFF7FEFF 		bl	CyBle_ChangeAdDeviceAddress
1670:Generated_Source\PSoC4/BLE_eventHandler.c ****                     CyBle_ChangeAdDeviceAddress(&cyBle_deviceAddress, 1u);
 692              		.loc 1 1670 0
 693 0106 8E4B     		ldr	r3, .L62+28
 694 0108 0121     		movs	r1, #1
 695 010a 1800     		movs	r0, r3
 696 010c FFF7FEFF 		bl	CyBle_ChangeAdDeviceAddress
 697              	.L46:
1671:Generated_Source\PSoC4/BLE_eventHandler.c ****                 #endif /* CYBLE_GAP_ROLE_PERIPHERAL || CYBLE_GAP_ROLE_BROADCASTER */    
1672:Generated_Source\PSoC4/BLE_eventHandler.c ****             }
1673:Generated_Source\PSoC4/BLE_eventHandler.c ****             /* Set device IO Capability  */
1674:Generated_Source\PSoC4/BLE_eventHandler.c ****             (void) CyBle_GapSetIoCap(CYBLE_IO_CAPABILITY);    
 698              		.loc 1 1674 0
 699 0110 0020     		movs	r0, #0
 700 0112 FFF7FEFF 		bl	CyBle_GapSetIoCap
 701              	.LBB5:
1675:Generated_Source\PSoC4/BLE_eventHandler.c ****             {
1676:Generated_Source\PSoC4/BLE_eventHandler.c ****                 /* Enable all 4.1 events and configured 4.2 events */
1677:Generated_Source\PSoC4/BLE_eventHandler.c ****                 uint8 leMask[CYBLE_LE_MASK_LENGTH] = {LO8(CYBLE_LE_MASK), HI8(CYBLE_LE_MASK)};
 702              		.loc 1 1677 0
 703 0116 0C23     		movs	r3, #12
 704 0118 FB18     		adds	r3, r7, r3
 705 011a 3F22     		movs	r2, #63
 706 011c 1A70     		strb	r2, [r3]
 707 011e 0C23     		movs	r3, #12
 708 0120 FB18     		adds	r3, r7, r3
 709 0122 0022     		movs	r2, #0
 710 0124 5A70     		strb	r2, [r3, #1]
1678:Generated_Source\PSoC4/BLE_eventHandler.c ****                 (void) CyBle_GapSetLeEventMask(leMask);
ARM GAS  C:\Users\TTSS\AppData\Local\Temp\ccySleeg.s 			page 43


 711              		.loc 1 1678 0
 712 0126 0C23     		movs	r3, #12
 713 0128 FB18     		adds	r3, r7, r3
 714 012a 1800     		movs	r0, r3
 715 012c FFF7FEFF 		bl	CyBle_GapSetLeEventMask
 716              	.LBE5:
1679:Generated_Source\PSoC4/BLE_eventHandler.c ****             }
1680:Generated_Source\PSoC4/BLE_eventHandler.c ****         #if(CYBLE_DLE_FEATURE_ENABLED)
1681:Generated_Source\PSoC4/BLE_eventHandler.c ****         {
1682:Generated_Source\PSoC4/BLE_eventHandler.c ****             /* Set maximum suggested TX payload size */
1683:Generated_Source\PSoC4/BLE_eventHandler.c ****             uint16 payloadTime = CYBLE_LL_MAX_TX_TIME;
1684:Generated_Source\PSoC4/BLE_eventHandler.c ****             (void) CyBle_GapConvertOctetToTime(CYBLE_GAP_PHY_1MBPS, CYBLE_LL_MAX_TX_PAYLOAD_SIZE, &
1685:Generated_Source\PSoC4/BLE_eventHandler.c ****             (void) CyBle_GapSetSuggestedDataLength(CYBLE_LL_MAX_TX_PAYLOAD_SIZE, payloadTime); 
1686:Generated_Source\PSoC4/BLE_eventHandler.c ****         }
1687:Generated_Source\PSoC4/BLE_eventHandler.c ****         #endif /* CYBLE_DLE_FEATURE != 0u */
1688:Generated_Source\PSoC4/BLE_eventHandler.c ****         
1689:Generated_Source\PSoC4/BLE_eventHandler.c ****         #endif /* CYBLE_GATT_ROLE_SERVER || CYBLE_GATT_ROLE_CLIENT */
1690:Generated_Source\PSoC4/BLE_eventHandler.c ****             CyBle_SetState(CYBLE_STATE_DISCONNECTED);
 717              		.loc 1 1690 0
 718 0130 844B     		ldr	r3, .L62+32
 719 0132 0422     		movs	r2, #4
 720 0134 1A70     		strb	r2, [r3]
1691:Generated_Source\PSoC4/BLE_eventHandler.c ****             break;
 721              		.loc 1 1691 0
 722 0136 DAE0     		b	.L47
 723              	.L25:
1692:Generated_Source\PSoC4/BLE_eventHandler.c ****         case CYBLE_EVT_TIMEOUT:
1693:Generated_Source\PSoC4/BLE_eventHandler.c ****             CyBle_TimeOutEventHandler((CYBLE_TO_REASON_CODE_T *)eventParam);
 724              		.loc 1 1693 0
 725 0138 3B68     		ldr	r3, [r7]
 726 013a 1800     		movs	r0, r3
 727 013c FFF7FEFF 		bl	CyBle_TimeOutEventHandler
1694:Generated_Source\PSoC4/BLE_eventHandler.c ****             break;
 728              		.loc 1 1694 0
 729 0140 D5E0     		b	.L47
 730              	.L26:
1695:Generated_Source\PSoC4/BLE_eventHandler.c ****     	case CYBLE_EVT_STACK_BUSY_STATUS:
1696:Generated_Source\PSoC4/BLE_eventHandler.c ****             cyBle_busyStatus = *(uint8 *)eventParam;
 731              		.loc 1 1696 0
 732 0142 3B68     		ldr	r3, [r7]
 733 0144 1A78     		ldrb	r2, [r3]
 734 0146 804B     		ldr	r3, .L62+36
 735 0148 1A70     		strb	r2, [r3]
1697:Generated_Source\PSoC4/BLE_eventHandler.c ****             break;
 736              		.loc 1 1697 0
 737 014a D0E0     		b	.L47
 738              	.L27:
 739              	.LBB6:
1698:Generated_Source\PSoC4/BLE_eventHandler.c ****     	case CYBLE_EVT_MEMORY_REQUEST:
1699:Generated_Source\PSoC4/BLE_eventHandler.c ****         #if(CYBLE_MODE_PROFILE)
1700:Generated_Source\PSoC4/BLE_eventHandler.c ****         {
1701:Generated_Source\PSoC4/BLE_eventHandler.c ****             CYBLE_MEMORY_REQUEST_T *memReq = (CYBLE_MEMORY_REQUEST_T *)eventParam;
 740              		.loc 1 1701 0
 741 014c 3B68     		ldr	r3, [r7]
 742 014e 7B61     		str	r3, [r7, #20]
1702:Generated_Source\PSoC4/BLE_eventHandler.c ****             if(memReq->request == CYBLE_PREPARED_WRITE_REQUEST)
 743              		.loc 1 1702 0
ARM GAS  C:\Users\TTSS\AppData\Local\Temp\ccySleeg.s 			page 44


 744 0150 7B69     		ldr	r3, [r7, #20]
 745 0152 1B78     		ldrb	r3, [r3]
 746 0154 002B     		cmp	r3, #0
 747 0156 00D0     		beq	.LCB501
 748 0158 C4E0     		b	.L58	@long jump
 749              	.LCB501:
1703:Generated_Source\PSoC4/BLE_eventHandler.c ****             {  
1704:Generated_Source\PSoC4/BLE_eventHandler.c ****             #if(CYBLE_GATT_ENABLE_EXTERNAL_PREP_WRITE_BUFF == 0u)
1705:Generated_Source\PSoC4/BLE_eventHandler.c ****                 /* Stack requests to provide memory to process remote request */
1706:Generated_Source\PSoC4/BLE_eventHandler.c ****                 if(memReq->allocFree == CYBLE_ALLOC_MEMORY)
 750              		.loc 1 1706 0
 751 015a 7B69     		ldr	r3, [r7, #20]
 752 015c 5B78     		ldrb	r3, [r3, #1]
 753 015e 002B     		cmp	r3, #0
 754 0160 0BD1     		bne	.L49
 755              	.LBB7:
1707:Generated_Source\PSoC4/BLE_eventHandler.c ****                 {
1708:Generated_Source\PSoC4/BLE_eventHandler.c ****                     static CYBLE_PREPARE_WRITE_REQUEST_MEMORY_T gPrepWriteReqMem;
1709:Generated_Source\PSoC4/BLE_eventHandler.c ****                     
1710:Generated_Source\PSoC4/BLE_eventHandler.c ****                     /* Configure and return statically allocated buffer at the end of cyBle_stackMe
1711:Generated_Source\PSoC4/BLE_eventHandler.c ****                     gPrepWriteReqMem.prepareWriteQueueSize = CYBLE_GATT_MAX_PREPARE_BUFF_COUNT;
 756              		.loc 1 1711 0
 757 0162 7A4B     		ldr	r3, .L62+40
 758 0164 0022     		movs	r2, #0
 759 0166 DA80     		strh	r2, [r3, #6]
1712:Generated_Source\PSoC4/BLE_eventHandler.c ****                     gPrepWriteReqMem.totalAttrValueLength = CYBLE_GATT_PREPARE_LENGTH_ALIGN;
 760              		.loc 1 1712 0
 761 0168 784B     		ldr	r3, .L62+40
 762 016a 0022     		movs	r2, #0
 763 016c 9A80     		strh	r2, [r3, #4]
1713:Generated_Source\PSoC4/BLE_eventHandler.c ****                     gPrepWriteReqMem.queueBuffer = &cyBle_stackMemoryRam[CYBLE_STACK_RAM_SIZE - 
 764              		.loc 1 1713 0
 765 016e 774B     		ldr	r3, .L62+40
 766 0170 774A     		ldr	r2, .L62+44
 767 0172 1A60     		str	r2, [r3]
1714:Generated_Source\PSoC4/BLE_eventHandler.c ****                                                                          CYBLE_GATT_PREPARE_WRITE_B
1715:Generated_Source\PSoC4/BLE_eventHandler.c ****                     memReq->configMemory = &gPrepWriteReqMem;  
 768              		.loc 1 1715 0
 769 0174 7B69     		ldr	r3, [r7, #20]
 770 0176 754A     		ldr	r2, .L62+40
 771 0178 5A60     		str	r2, [r3, #4]
 772              	.L49:
 773              	.LBE7:
1716:Generated_Source\PSoC4/BLE_eventHandler.c ****                 }                
1717:Generated_Source\PSoC4/BLE_eventHandler.c ****                 /* Clear CYBLE_CALLBACK flag not to provide handled event to application */
1718:Generated_Source\PSoC4/BLE_eventHandler.c ****                 cyBle_eventHandlerFlag &= (uint8)~CYBLE_CALLBACK;
 774              		.loc 1 1718 0
 775 017a 6A4B     		ldr	r3, .L62
 776 017c 1B78     		ldrb	r3, [r3]
 777 017e DBB2     		uxtb	r3, r3
 778 0180 0122     		movs	r2, #1
 779 0182 9343     		bics	r3, r2
 780 0184 DAB2     		uxtb	r2, r3
 781 0186 674B     		ldr	r3, .L62
 782 0188 1A70     		strb	r2, [r3]
 783              	.LBE6:
1719:Generated_Source\PSoC4/BLE_eventHandler.c ****             #endif  /* CYBLE_GATT_ENABLE_EXTERNAL_PREP_WRITE_BUFF == 0u */
ARM GAS  C:\Users\TTSS\AppData\Local\Temp\ccySleeg.s 			page 45


1720:Generated_Source\PSoC4/BLE_eventHandler.c ****             }
1721:Generated_Source\PSoC4/BLE_eventHandler.c ****         }
1722:Generated_Source\PSoC4/BLE_eventHandler.c ****         #endif /* CYBLE_MODE_PROFILE */
1723:Generated_Source\PSoC4/BLE_eventHandler.c ****             break;
 784              		.loc 1 1723 0
 785 018a ABE0     		b	.L58
 786              	.L28:
1724:Generated_Source\PSoC4/BLE_eventHandler.c ****         /**********************************************************
1725:Generated_Source\PSoC4/BLE_eventHandler.c ****         * GAP events
1726:Generated_Source\PSoC4/BLE_eventHandler.c ****         ************************************************************/
1727:Generated_Source\PSoC4/BLE_eventHandler.c ****         case CYBLE_EVT_GAP_AUTH_REQ:
1728:Generated_Source\PSoC4/BLE_eventHandler.c ****         #if(CYBLE_MODE_PROFILE)
1729:Generated_Source\PSoC4/BLE_eventHandler.c ****             if((cyBle_eventHandlerFlag & CYBLE_DISABLE_AUTOMATIC_AUTH) == 0u)
 787              		.loc 1 1729 0
 788 018c 654B     		ldr	r3, .L62
 789 018e 1B78     		ldrb	r3, [r3]
 790 0190 DBB2     		uxtb	r3, r3
 791 0192 1A00     		movs	r2, r3
 792 0194 2023     		movs	r3, #32
 793 0196 1340     		ands	r3, r2
 794 0198 00D0     		beq	.LCB542
 795 019a A5E0     		b	.L59	@long jump
 796              	.LCB542:
1730:Generated_Source\PSoC4/BLE_eventHandler.c ****             {
1731:Generated_Source\PSoC4/BLE_eventHandler.c ****                 /* If the responding device does not support pairing then the responding 
1732:Generated_Source\PSoC4/BLE_eventHandler.c ****                    device shall respond using the Pairing Failed message with the error 
1733:Generated_Source\PSoC4/BLE_eventHandler.c ****                    code "Pairing Not Supported" otherwise it responds with a Pairing 
1734:Generated_Source\PSoC4/BLE_eventHandler.c ****                    Response message.
1735:Generated_Source\PSoC4/BLE_eventHandler.c ****                 */
1736:Generated_Source\PSoC4/BLE_eventHandler.c ****                 if(cyBle_authInfo.security == (CYBLE_GAP_SEC_MODE_1 | CYBLE_GAP_SEC_LEVEL_1))
 797              		.loc 1 1736 0
 798 019c 6D4B     		ldr	r3, .L62+48
 799 019e 1B78     		ldrb	r3, [r3]
 800 01a0 102B     		cmp	r3, #16
 801 01a2 00D0     		beq	.LCB546
 802 01a4 A0E0     		b	.L59	@long jump
 803              	.LCB546:
1737:Generated_Source\PSoC4/BLE_eventHandler.c ****                 {
1738:Generated_Source\PSoC4/BLE_eventHandler.c ****                     cyBle_authInfo.authErr = CYBLE_GAP_AUTH_ERROR_PAIRING_NOT_SUPPORTED;
 804              		.loc 1 1738 0
 805 01a6 6B4B     		ldr	r3, .L62+48
 806 01a8 0522     		movs	r2, #5
 807 01aa DA70     		strb	r2, [r3, #3]
1739:Generated_Source\PSoC4/BLE_eventHandler.c ****                 }    
1740:Generated_Source\PSoC4/BLE_eventHandler.c ****             #if(CYBLE_GAP_ROLE_PERIPHERAL)
1741:Generated_Source\PSoC4/BLE_eventHandler.c ****                 {
1742:Generated_Source\PSoC4/BLE_eventHandler.c ****                     CYBLE_API_RESULT_T apiResult;
1743:Generated_Source\PSoC4/BLE_eventHandler.c ****                     
1744:Generated_Source\PSoC4/BLE_eventHandler.c ****                     apiResult = CyBle_GappAuthReqReply(cyBle_connHandle.bdHandle, &cyBle_authInfo);
1745:Generated_Source\PSoC4/BLE_eventHandler.c ****                     /* Setting callback flag again as CyBle_GappAuthReqReply() will generate
1746:Generated_Source\PSoC4/BLE_eventHandler.c ****                     * CYBLE_EVT_GAP_SMP_NEGOTIATED_AUTH_INFO event which will clear the callback
1747:Generated_Source\PSoC4/BLE_eventHandler.c ****                     * flag.
1748:Generated_Source\PSoC4/BLE_eventHandler.c ****                     */
1749:Generated_Source\PSoC4/BLE_eventHandler.c ****                     if (apiResult != CYBLE_ERROR_OK)
1750:Generated_Source\PSoC4/BLE_eventHandler.c ****                     {   
1751:Generated_Source\PSoC4/BLE_eventHandler.c ****                         CyBle_ApplCallback(CYBLE_EVT_GAP_AUTH_REQ_REPLY_ERR , &apiResult);
1752:Generated_Source\PSoC4/BLE_eventHandler.c ****                     }
ARM GAS  C:\Users\TTSS\AppData\Local\Temp\ccySleeg.s 			page 46


1753:Generated_Source\PSoC4/BLE_eventHandler.c ****                     cyBle_eventHandlerFlag |= CYBLE_CALLBACK;
1754:Generated_Source\PSoC4/BLE_eventHandler.c ****                 }
1755:Generated_Source\PSoC4/BLE_eventHandler.c ****             #endif /* CYBLE_GAP_ROLE_PERIPHERAL */
1756:Generated_Source\PSoC4/BLE_eventHandler.c ****             #if (CYBLE_GAP_ROLE_CENTRAL)
1757:Generated_Source\PSoC4/BLE_eventHandler.c ****                 (void)CyBle_GapAuthReq(cyBle_connHandle.bdHandle, &cyBle_authInfo);
1758:Generated_Source\PSoC4/BLE_eventHandler.c ****             #endif /* CYBLE_GAP_ROLE_CENTRAL */
1759:Generated_Source\PSoC4/BLE_eventHandler.c ****             }
1760:Generated_Source\PSoC4/BLE_eventHandler.c ****         #endif /* CYBLE_MODE_PROFILE */
1761:Generated_Source\PSoC4/BLE_eventHandler.c ****             break;
 808              		.loc 1 1761 0
 809 01ac 9CE0     		b	.L59
 810              	.L33:
1762:Generated_Source\PSoC4/BLE_eventHandler.c ****         
1763:Generated_Source\PSoC4/BLE_eventHandler.c ****         case CYBLE_EVT_GAP_AUTH_COMPLETE:
1764:Generated_Source\PSoC4/BLE_eventHandler.c ****         #if((CYBLE_GAP_ROLE_PERIPHERAL || CYBLE_GAP_ROLE_CENTRAL) && (CYBLE_BONDING_REQUIREMENT == 
1765:Generated_Source\PSoC4/BLE_eventHandler.c ****             cyBle_peerBonding = ((CYBLE_GAP_AUTH_INFO_T *)eventParam)->bonding;
1766:Generated_Source\PSoC4/BLE_eventHandler.c ****         #endif  /* CYBLE_BONDING_REQUIREMENT == CYBLE_BONDING_YES */
1767:Generated_Source\PSoC4/BLE_eventHandler.c ****             break;
1768:Generated_Source\PSoC4/BLE_eventHandler.c ****         
1769:Generated_Source\PSoC4/BLE_eventHandler.c ****         case CYBLE_EVT_GAP_CONNECTION_UPDATE_COMPLETE:
1770:Generated_Source\PSoC4/BLE_eventHandler.c ****             CyBle_GapConnUpdateCompleteEventHandler((const CYBLE_GAP_CONN_PARAM_UPDATED_IN_CONTROLL
 811              		.loc 1 1770 0
 812 01ae 3B68     		ldr	r3, [r7]
 813 01b0 1800     		movs	r0, r3
 814 01b2 FFF7FEFF 		bl	CyBle_GapConnUpdateCompleteEventHandler
1771:Generated_Source\PSoC4/BLE_eventHandler.c ****             break;
 815              		.loc 1 1771 0
 816 01b6 9AE0     		b	.L47
 817              	.L31:
1772:Generated_Source\PSoC4/BLE_eventHandler.c ****             
1773:Generated_Source\PSoC4/BLE_eventHandler.c ****     #if(CYBLE_LL_PRIVACY_FEATURE != 0u)        
1774:Generated_Source\PSoC4/BLE_eventHandler.c ****         case CYBLE_EVT_GAP_ENHANCE_CONN_COMPLETE:
1775:Generated_Source\PSoC4/BLE_eventHandler.c ****         {
1776:Generated_Source\PSoC4/BLE_eventHandler.c ****             CYBLE_GAP_CONN_PARAM_UPDATED_IN_CONTROLLER_T  connCParam;
1777:Generated_Source\PSoC4/BLE_eventHandler.c ****             CYBLE_GAP_ENHANCE_CONN_COMPLETE_T *connEnhanceParam;
1778:Generated_Source\PSoC4/BLE_eventHandler.c ****             
1779:Generated_Source\PSoC4/BLE_eventHandler.c ****             connEnhanceParam = (CYBLE_GAP_ENHANCE_CONN_COMPLETE_T *)eventParam;
1780:Generated_Source\PSoC4/BLE_eventHandler.c ****             connCParam.status = connEnhanceParam->status;
1781:Generated_Source\PSoC4/BLE_eventHandler.c ****             connCParam.connIntv = connEnhanceParam->connIntv;
1782:Generated_Source\PSoC4/BLE_eventHandler.c ****             connCParam.connLatency = connEnhanceParam->connLatency;
1783:Generated_Source\PSoC4/BLE_eventHandler.c ****             connCParam.supervisionTO = connEnhanceParam->supervisionTo;
1784:Generated_Source\PSoC4/BLE_eventHandler.c ****             CyBle_GapConnUpdateCompleteEventHandler((const CYBLE_GAP_CONN_PARAM_UPDATED_IN_CONTROLL
1785:Generated_Source\PSoC4/BLE_eventHandler.c ****             
1786:Generated_Source\PSoC4/BLE_eventHandler.c ****             #if(CYBLE_GAP_ROLE_CENTRAL)
1787:Generated_Source\PSoC4/BLE_eventHandler.c ****                 if(cyBle_connectingTimeout != 0u)
1788:Generated_Source\PSoC4/BLE_eventHandler.c ****                 {
1789:Generated_Source\PSoC4/BLE_eventHandler.c ****                    (void)CyBle_StopTimer();
1790:Generated_Source\PSoC4/BLE_eventHandler.c ****                 }
1791:Generated_Source\PSoC4/BLE_eventHandler.c ****             #endif /* CYBLE_GAP_ROLE_CENTRAL */
1792:Generated_Source\PSoC4/BLE_eventHandler.c ****             CyBle_SetState(CYBLE_STATE_CONNECTED);
1793:Generated_Source\PSoC4/BLE_eventHandler.c ****         }
1794:Generated_Source\PSoC4/BLE_eventHandler.c ****             break;
1795:Generated_Source\PSoC4/BLE_eventHandler.c ****     #endif /* CYBLE_LL_PRIVACY_FEATURE != 0u */      
1796:Generated_Source\PSoC4/BLE_eventHandler.c ****             
1797:Generated_Source\PSoC4/BLE_eventHandler.c ****         case CYBLE_EVT_GAP_DEVICE_CONNECTED:
1798:Generated_Source\PSoC4/BLE_eventHandler.c ****             CyBle_GapConnUpdateCompleteEventHandler((const CYBLE_GAP_CONN_PARAM_UPDATED_IN_CONTROLL
 818              		.loc 1 1798 0
ARM GAS  C:\Users\TTSS\AppData\Local\Temp\ccySleeg.s 			page 47


 819 01b8 3B68     		ldr	r3, [r7]
 820 01ba 1800     		movs	r0, r3
 821 01bc FFF7FEFF 		bl	CyBle_GapConnUpdateCompleteEventHandler
1799:Generated_Source\PSoC4/BLE_eventHandler.c ****             #if(CYBLE_GAP_ROLE_CENTRAL)
1800:Generated_Source\PSoC4/BLE_eventHandler.c ****                 if(cyBle_connectingTimeout != 0u)
1801:Generated_Source\PSoC4/BLE_eventHandler.c ****                 {
1802:Generated_Source\PSoC4/BLE_eventHandler.c ****                    (void)CyBle_StopTimer();
1803:Generated_Source\PSoC4/BLE_eventHandler.c ****                 }
1804:Generated_Source\PSoC4/BLE_eventHandler.c ****             #endif /* CYBLE_GAP_ROLE_CENTRAL */
1805:Generated_Source\PSoC4/BLE_eventHandler.c ****             CyBle_SetState(CYBLE_STATE_CONNECTED);
 822              		.loc 1 1805 0
 823 01c0 604B     		ldr	r3, .L62+32
 824 01c2 0222     		movs	r2, #2
 825 01c4 1A70     		strb	r2, [r3]
1806:Generated_Source\PSoC4/BLE_eventHandler.c ****             break;
 826              		.loc 1 1806 0
 827 01c6 92E0     		b	.L47
 828              	.L32:
1807:Generated_Source\PSoC4/BLE_eventHandler.c **** 
1808:Generated_Source\PSoC4/BLE_eventHandler.c ****         case CYBLE_EVT_GAP_DEVICE_DISCONNECTED:
1809:Generated_Source\PSoC4/BLE_eventHandler.c ****             CyBle_SetState(CYBLE_STATE_DISCONNECTED);
 829              		.loc 1 1809 0
 830 01c8 5E4B     		ldr	r3, .L62+32
 831 01ca 0422     		movs	r2, #4
 832 01cc 1A70     		strb	r2, [r3]
1810:Generated_Source\PSoC4/BLE_eventHandler.c ****             break;
 833              		.loc 1 1810 0
 834 01ce 8EE0     		b	.L47
 835              	.L30:
1811:Generated_Source\PSoC4/BLE_eventHandler.c ****         #if(CYBLE_GAP_ROLE_PERIPHERAL || CYBLE_GAP_ROLE_BROADCASTER)
1812:Generated_Source\PSoC4/BLE_eventHandler.c ****             
1813:Generated_Source\PSoC4/BLE_eventHandler.c ****         case CYBLE_EVT_GAPP_ADVERTISEMENT_START_STOP:
1814:Generated_Source\PSoC4/BLE_eventHandler.c ****             #ifdef CYBLE_CPS_SERVER
1815:Generated_Source\PSoC4/BLE_eventHandler.c ****                 #if(CYBLE_GAP_ROLE_BROADCASTER)
1816:Generated_Source\PSoC4/BLE_eventHandler.c ****                     CyBle_CpssAdvertisementStartStopEventHandler();
1817:Generated_Source\PSoC4/BLE_eventHandler.c ****                 #endif /* CYBLE_GAP_ROLE_BROADCASTER */
1818:Generated_Source\PSoC4/BLE_eventHandler.c ****             #endif /* CYBLE_CPS_SERVER */
1819:Generated_Source\PSoC4/BLE_eventHandler.c ****             
1820:Generated_Source\PSoC4/BLE_eventHandler.c ****             if((CYBLE_STATE_CONNECTED != CyBle_GetState()) && ((cyBle_eventHandlerFlag & CYBLE_CALL
 836              		.loc 1 1820 0
 837 01d0 5C4B     		ldr	r3, .L62+32
 838 01d2 1B78     		ldrb	r3, [r3]
 839 01d4 022B     		cmp	r3, #2
 840 01d6 00D1     		bne	.LCB581
 841 01d8 88E0     		b	.L60	@long jump
 842              	.LCB581:
 843              		.loc 1 1820 0 is_stmt 0 discriminator 1
 844 01da 524B     		ldr	r3, .L62
 845 01dc 1B78     		ldrb	r3, [r3]
 846 01de DBB2     		uxtb	r3, r3
 847 01e0 1A00     		movs	r2, r3
 848 01e2 0123     		movs	r3, #1
 849 01e4 1340     		ands	r3, r2
 850 01e6 00D1     		bne	.LCB589
 851 01e8 80E0     		b	.L60	@long jump
 852              	.LCB589:
1821:Generated_Source\PSoC4/BLE_eventHandler.c ****             {
ARM GAS  C:\Users\TTSS\AppData\Local\Temp\ccySleeg.s 			page 48


1822:Generated_Source\PSoC4/BLE_eventHandler.c ****                 /* After CyBle_GappStartAdvertisement first event indicates that advertising has be
1823:Generated_Source\PSoC4/BLE_eventHandler.c ****                 if(0u != (cyBle_eventHandlerFlag & CYBLE_START_FLAG))
 853              		.loc 1 1823 0 is_stmt 1
 854 01ea 4E4B     		ldr	r3, .L62
 855 01ec 1B78     		ldrb	r3, [r3]
 856 01ee DBB2     		uxtb	r3, r3
 857 01f0 1A00     		movs	r2, r3
 858 01f2 0423     		movs	r3, #4
 859 01f4 1340     		ands	r3, r2
 860 01f6 0BD0     		beq	.L52
1824:Generated_Source\PSoC4/BLE_eventHandler.c ****                 {
1825:Generated_Source\PSoC4/BLE_eventHandler.c ****                     CyBle_SetState(CYBLE_STATE_ADVERTISING);
 861              		.loc 1 1825 0
 862 01f8 524B     		ldr	r3, .L62+32
 863 01fa 0322     		movs	r2, #3
 864 01fc 1A70     		strb	r2, [r3]
1826:Generated_Source\PSoC4/BLE_eventHandler.c ****                     cyBle_eventHandlerFlag &= (uint8)~CYBLE_START_FLAG;
 865              		.loc 1 1826 0
 866 01fe 494B     		ldr	r3, .L62
 867 0200 1B78     		ldrb	r3, [r3]
 868 0202 DBB2     		uxtb	r3, r3
 869 0204 0422     		movs	r2, #4
 870 0206 9343     		bics	r3, r2
 871 0208 DAB2     		uxtb	r2, r3
 872 020a 464B     		ldr	r3, .L62
 873 020c 1A70     		strb	r2, [r3]
1827:Generated_Source\PSoC4/BLE_eventHandler.c ****                 }
1828:Generated_Source\PSoC4/BLE_eventHandler.c ****                 /* When application initiated stop advertisement */
1829:Generated_Source\PSoC4/BLE_eventHandler.c ****                 else if(0u != (cyBle_eventHandlerFlag & CYBLE_STOP_FLAG))
1830:Generated_Source\PSoC4/BLE_eventHandler.c ****                 {
1831:Generated_Source\PSoC4/BLE_eventHandler.c ****                     CyBle_SetState(CYBLE_STATE_DISCONNECTED);  
1832:Generated_Source\PSoC4/BLE_eventHandler.c ****                     cyBle_eventHandlerFlag &= (uint8)~CYBLE_STOP_FLAG;
1833:Generated_Source\PSoC4/BLE_eventHandler.c ****                 }
1834:Generated_Source\PSoC4/BLE_eventHandler.c ****                 else /* Following event indicates that advertising has been stopped */
1835:Generated_Source\PSoC4/BLE_eventHandler.c ****                 {
1836:Generated_Source\PSoC4/BLE_eventHandler.c ****                     if(CyBle_GetState() == CYBLE_STATE_ADVERTISING)
1837:Generated_Source\PSoC4/BLE_eventHandler.c ****                     {
1838:Generated_Source\PSoC4/BLE_eventHandler.c ****                         CyBle_SetState(CYBLE_STATE_DISCONNECTED);
1839:Generated_Source\PSoC4/BLE_eventHandler.c ****                     #if ((CYBLE_SLOW_ADV_ENABLED != 0u) && (CYBLE_FAST_ADV_TIMEOUT != 0u))
1840:Generated_Source\PSoC4/BLE_eventHandler.c ****                         if(cyBle_advertisingIntervalType == CYBLE_ADVERTISING_FAST)
1841:Generated_Source\PSoC4/BLE_eventHandler.c ****                         {
1842:Generated_Source\PSoC4/BLE_eventHandler.c ****                             /* When fast advertising time out occur: Start slow advertising */
1843:Generated_Source\PSoC4/BLE_eventHandler.c ****                             if(CyBle_GappStartAdvertisement(CYBLE_ADVERTISING_SLOW) == CYBLE_ERROR_
1844:Generated_Source\PSoC4/BLE_eventHandler.c ****                             {
1845:Generated_Source\PSoC4/BLE_eventHandler.c ****                                 CyBle_SetState(CYBLE_STATE_ADVERTISING);
1846:Generated_Source\PSoC4/BLE_eventHandler.c ****                             }
1847:Generated_Source\PSoC4/BLE_eventHandler.c ****                         }
1848:Generated_Source\PSoC4/BLE_eventHandler.c ****                     #endif /* CYBLE_SLOW_ADV_ENABLED */
1849:Generated_Source\PSoC4/BLE_eventHandler.c ****                     }
1850:Generated_Source\PSoC4/BLE_eventHandler.c ****                 }
1851:Generated_Source\PSoC4/BLE_eventHandler.c ****             }
1852:Generated_Source\PSoC4/BLE_eventHandler.c ****             break;
 874              		.loc 1 1852 0
 875 020e 6DE0     		b	.L60
 876              	.L52:
1829:Generated_Source\PSoC4/BLE_eventHandler.c ****                 {
 877              		.loc 1 1829 0
ARM GAS  C:\Users\TTSS\AppData\Local\Temp\ccySleeg.s 			page 49


 878 0210 444B     		ldr	r3, .L62
 879 0212 1B78     		ldrb	r3, [r3]
 880 0214 DBB2     		uxtb	r3, r3
 881 0216 1A00     		movs	r2, r3
 882 0218 0823     		movs	r3, #8
 883 021a 1340     		ands	r3, r2
 884 021c 0BD0     		beq	.L53
1831:Generated_Source\PSoC4/BLE_eventHandler.c ****                     cyBle_eventHandlerFlag &= (uint8)~CYBLE_STOP_FLAG;
 885              		.loc 1 1831 0
 886 021e 494B     		ldr	r3, .L62+32
 887 0220 0422     		movs	r2, #4
 888 0222 1A70     		strb	r2, [r3]
1832:Generated_Source\PSoC4/BLE_eventHandler.c ****                 }
 889              		.loc 1 1832 0
 890 0224 3F4B     		ldr	r3, .L62
 891 0226 1B78     		ldrb	r3, [r3]
 892 0228 DBB2     		uxtb	r3, r3
 893 022a 0822     		movs	r2, #8
 894 022c 9343     		bics	r3, r2
 895 022e DAB2     		uxtb	r2, r3
 896 0230 3C4B     		ldr	r3, .L62
 897 0232 1A70     		strb	r2, [r3]
 898              		.loc 1 1852 0
 899 0234 5AE0     		b	.L60
 900              	.L53:
1836:Generated_Source\PSoC4/BLE_eventHandler.c ****                     {
 901              		.loc 1 1836 0
 902 0236 434B     		ldr	r3, .L62+32
 903 0238 1B78     		ldrb	r3, [r3]
 904 023a 032B     		cmp	r3, #3
 905 023c 56D1     		bne	.L60
1838:Generated_Source\PSoC4/BLE_eventHandler.c ****                     #if ((CYBLE_SLOW_ADV_ENABLED != 0u) && (CYBLE_FAST_ADV_TIMEOUT != 0u))
 906              		.loc 1 1838 0
 907 023e 414B     		ldr	r3, .L62+32
 908 0240 0422     		movs	r2, #4
 909 0242 1A70     		strb	r2, [r3]
 910              		.loc 1 1852 0
 911 0244 52E0     		b	.L60
 912              	.L43:
1853:Generated_Source\PSoC4/BLE_eventHandler.c ****         #endif /* CYBLE_GAP_ROLE_PERIPHERAL || CYBLE_GAP_ROLE_BROADCASTER */
1854:Generated_Source\PSoC4/BLE_eventHandler.c ****         
1855:Generated_Source\PSoC4/BLE_eventHandler.c ****         #if(CYBLE_GAP_ROLE_CENTRAL || CYBLE_GAP_ROLE_OBSERVER)    
1856:Generated_Source\PSoC4/BLE_eventHandler.c ****         case CYBLE_EVT_GAPC_SCAN_START_STOP:
1857:Generated_Source\PSoC4/BLE_eventHandler.c ****             #ifdef CYBLE_CPS_CLIENT
1858:Generated_Source\PSoC4/BLE_eventHandler.c ****                 CyBle_CpscScanStartStopEventHandler();
1859:Generated_Source\PSoC4/BLE_eventHandler.c ****             #endif /* CYBLE_CPS_CLIENT */
1860:Generated_Source\PSoC4/BLE_eventHandler.c ****             
1861:Generated_Source\PSoC4/BLE_eventHandler.c ****             if((CYBLE_STATE_CONNECTED != CyBle_GetState()) && ((cyBle_eventHandlerFlag & CYBLE_CALL
1862:Generated_Source\PSoC4/BLE_eventHandler.c ****             {
1863:Generated_Source\PSoC4/BLE_eventHandler.c ****                 /* After CyBle_GapcStartScan first event indicates that scanning has been started *
1864:Generated_Source\PSoC4/BLE_eventHandler.c ****                 if(0u != (cyBle_eventHandlerFlag & CYBLE_START_FLAG))
1865:Generated_Source\PSoC4/BLE_eventHandler.c ****                 {
1866:Generated_Source\PSoC4/BLE_eventHandler.c ****                     CyBle_SetState(CYBLE_STATE_SCANNING);
1867:Generated_Source\PSoC4/BLE_eventHandler.c ****                     cyBle_eventHandlerFlag &= (uint8)~CYBLE_START_FLAG;
1868:Generated_Source\PSoC4/BLE_eventHandler.c ****                 }
1869:Generated_Source\PSoC4/BLE_eventHandler.c ****                 /* When application initiated stop scanning */
1870:Generated_Source\PSoC4/BLE_eventHandler.c ****                 else if(0u != (cyBle_eventHandlerFlag & CYBLE_STOP_FLAG))
ARM GAS  C:\Users\TTSS\AppData\Local\Temp\ccySleeg.s 			page 50


1871:Generated_Source\PSoC4/BLE_eventHandler.c ****                 {
1872:Generated_Source\PSoC4/BLE_eventHandler.c ****                     CyBle_SetState(CYBLE_STATE_DISCONNECTED);  
1873:Generated_Source\PSoC4/BLE_eventHandler.c ****                     cyBle_eventHandlerFlag &= (uint8)~CYBLE_STOP_FLAG;
1874:Generated_Source\PSoC4/BLE_eventHandler.c ****                 }
1875:Generated_Source\PSoC4/BLE_eventHandler.c ****                 else /* Following event indicates that scanning has been stopped by stack */
1876:Generated_Source\PSoC4/BLE_eventHandler.c ****                 {
1877:Generated_Source\PSoC4/BLE_eventHandler.c ****                     if(CyBle_GetState() == CYBLE_STATE_SCANNING)
1878:Generated_Source\PSoC4/BLE_eventHandler.c ****                     {
1879:Generated_Source\PSoC4/BLE_eventHandler.c ****                         CyBle_SetState(CYBLE_STATE_DISCONNECTED);  
1880:Generated_Source\PSoC4/BLE_eventHandler.c ****                     #if ((CYBLE_SLOW_SCAN_ENABLED != 0u) && (CYBLE_FAST_SCAN_TIMEOUT != 0u))
1881:Generated_Source\PSoC4/BLE_eventHandler.c ****                         if(cyBle_scanningIntervalType == CYBLE_SCANNING_FAST)
1882:Generated_Source\PSoC4/BLE_eventHandler.c ****                         {
1883:Generated_Source\PSoC4/BLE_eventHandler.c ****                             /* When fast scanning time out occur: Start slow scanning */
1884:Generated_Source\PSoC4/BLE_eventHandler.c ****                             if(CyBle_GapcStartScan(CYBLE_SCANNING_SLOW) == CYBLE_ERROR_OK)
1885:Generated_Source\PSoC4/BLE_eventHandler.c ****                             {
1886:Generated_Source\PSoC4/BLE_eventHandler.c ****                                 CyBle_SetState(CYBLE_STATE_SCANNING);
1887:Generated_Source\PSoC4/BLE_eventHandler.c ****                             }
1888:Generated_Source\PSoC4/BLE_eventHandler.c ****                         }
1889:Generated_Source\PSoC4/BLE_eventHandler.c ****                     #endif /* CYBLE_SLOW_SCAN_ENABLED */
1890:Generated_Source\PSoC4/BLE_eventHandler.c ****                     }
1891:Generated_Source\PSoC4/BLE_eventHandler.c ****                 }
1892:Generated_Source\PSoC4/BLE_eventHandler.c ****             }
1893:Generated_Source\PSoC4/BLE_eventHandler.c ****             break;
1894:Generated_Source\PSoC4/BLE_eventHandler.c ****         #endif /* CYBLE_GAP_ROLE_CENTRAL || CYBLE_GAP_ROLE_OBSERVER */
1895:Generated_Source\PSoC4/BLE_eventHandler.c **** 
1896:Generated_Source\PSoC4/BLE_eventHandler.c ****         /**********************************************************
1897:Generated_Source\PSoC4/BLE_eventHandler.c ****         * L2AP events 
1898:Generated_Source\PSoC4/BLE_eventHandler.c ****         ************************************************************/
1899:Generated_Source\PSoC4/BLE_eventHandler.c ****         case CYBLE_EVT_L2CAP_CONN_PARAM_UPDATE_RSP:
1900:Generated_Source\PSoC4/BLE_eventHandler.c ****             CyBle_L2Cap_ConnParamUpdateRspEventHandler(*(uint16 *)eventParam);
 913              		.loc 1 1900 0
 914 0246 3B68     		ldr	r3, [r7]
 915 0248 1B88     		ldrh	r3, [r3]
 916 024a 1800     		movs	r0, r3
 917 024c FFF7FEFF 		bl	CyBle_L2Cap_ConnParamUpdateRspEventHandler
1901:Generated_Source\PSoC4/BLE_eventHandler.c ****             break;
 918              		.loc 1 1901 0
 919 0250 4DE0     		b	.L47
 920              	.L34:
1902:Generated_Source\PSoC4/BLE_eventHandler.c ****         
1903:Generated_Source\PSoC4/BLE_eventHandler.c ****         /**********************************************************
1904:Generated_Source\PSoC4/BLE_eventHandler.c ****         * GATT events
1905:Generated_Source\PSoC4/BLE_eventHandler.c ****         ************************************************************/        
1906:Generated_Source\PSoC4/BLE_eventHandler.c ****         case CYBLE_EVT_GATT_CONNECT_IND:
1907:Generated_Source\PSoC4/BLE_eventHandler.c ****             cyBle_connHandle = *(CYBLE_CONN_HANDLE_T *)eventParam;
 921              		.loc 1 1907 0
 922 0252 414A     		ldr	r2, .L62+52
 923 0254 3B68     		ldr	r3, [r7]
 924 0256 1000     		movs	r0, r2
 925 0258 1900     		movs	r1, r3
 926 025a 0223     		movs	r3, #2
 927 025c 1A00     		movs	r2, r3
 928 025e FFF7FEFF 		bl	memcpy
1908:Generated_Source\PSoC4/BLE_eventHandler.c ****             cyBle_busyStatus = CYBLE_STACK_STATE_FREE;
 929              		.loc 1 1908 0
 930 0262 394B     		ldr	r3, .L62+36
 931 0264 0022     		movs	r2, #0
ARM GAS  C:\Users\TTSS\AppData\Local\Temp\ccySleeg.s 			page 51


 932 0266 1A70     		strb	r2, [r3]
1909:Generated_Source\PSoC4/BLE_eventHandler.c ****             
1910:Generated_Source\PSoC4/BLE_eventHandler.c ****         #if((CYBLE_GATT_ROLE_SERVER) && (CYBLE_GATT_DB_CCCD_COUNT != 0u) && \
1911:Generated_Source\PSoC4/BLE_eventHandler.c ****             (CYBLE_BONDING_REQUIREMENT == CYBLE_BONDING_YES))
1912:Generated_Source\PSoC4/BLE_eventHandler.c ****             /* Init CCCD values in RAM when bonding is enabled */
1913:Generated_Source\PSoC4/BLE_eventHandler.c ****         	(void) memcpy (cyBle_attValuesCCCD, cyBle_flashStorage.attValuesCCCDFlashMemory[cyBle_conn
 933              		.loc 1 1913 0
 934 0268 3B4B     		ldr	r3, .L62+52
 935 026a 1B78     		ldrb	r3, [r3]
 936 026c 3D33     		adds	r3, r3, #61
 937 026e FF33     		adds	r3, r3, #255
 938 0270 5A00     		lsls	r2, r3, #1
 939 0272 3A4B     		ldr	r3, .L62+56
 940 0274 D318     		adds	r3, r2, r3
 941 0276 0133     		adds	r3, r3, #1
 942 0278 394A     		ldr	r2, .L62+60
 943 027a 1000     		movs	r0, r2
 944 027c 1900     		movs	r1, r3
 945 027e 0223     		movs	r3, #2
 946 0280 1A00     		movs	r2, r3
 947 0282 FFF7FEFF 		bl	memcpy
1914:Generated_Source\PSoC4/BLE_eventHandler.c ****                             CYBLE_GATT_DB_CCCD_COUNT);
1915:Generated_Source\PSoC4/BLE_eventHandler.c ****         #endif /* CYBLE_GATT_ROLE_SERVER && (CYBLE_BONDING_REQUIREMENT == CYBLE_BONDING_YES) */
1916:Generated_Source\PSoC4/BLE_eventHandler.c ****         
1917:Generated_Source\PSoC4/BLE_eventHandler.c ****         #if (CYBLE_GATT_ROLE_CLIENT)
1918:Generated_Source\PSoC4/BLE_eventHandler.c ****             CyBle_SetClientState(CYBLE_CLIENT_STATE_CONNECTED);
1919:Generated_Source\PSoC4/BLE_eventHandler.c ****         #endif /* CYBLE_GATT_ROLE_CLIENT */
1920:Generated_Source\PSoC4/BLE_eventHandler.c ****         
1921:Generated_Source\PSoC4/BLE_eventHandler.c ****             CyBle_GattConnectReqHandler();
 948              		.loc 1 1921 0
 949 0286 FFF7FEFF 		bl	CyBle_GattConnectReqHandler
1922:Generated_Source\PSoC4/BLE_eventHandler.c ****             break;
 950              		.loc 1 1922 0
 951 028a 30E0     		b	.L47
 952              	.L35:
1923:Generated_Source\PSoC4/BLE_eventHandler.c **** 
1924:Generated_Source\PSoC4/BLE_eventHandler.c ****         case CYBLE_EVT_GATT_DISCONNECT_IND:
1925:Generated_Source\PSoC4/BLE_eventHandler.c ****             CyBle_GattDisconnectEventHandler();
 953              		.loc 1 1925 0
 954 028c FFF7FEFF 		bl	CyBle_GattDisconnectEventHandler
1926:Generated_Source\PSoC4/BLE_eventHandler.c ****             break;
 955              		.loc 1 1926 0
 956 0290 2DE0     		b	.L47
 957              	.L36:
 958              	.LBB8:
1927:Generated_Source\PSoC4/BLE_eventHandler.c **** 
1928:Generated_Source\PSoC4/BLE_eventHandler.c ****     #if((CYBLE_GATT_ROLE_SERVER) || (CYBLE_GATT_ROLE_CLIENT))
1929:Generated_Source\PSoC4/BLE_eventHandler.c ****         case CYBLE_EVT_GATTS_XCNHG_MTU_REQ:
1930:Generated_Source\PSoC4/BLE_eventHandler.c ****             {
1931:Generated_Source\PSoC4/BLE_eventHandler.c ****                 uint16 cyBle_mtuSize;
1932:Generated_Source\PSoC4/BLE_eventHandler.c ****                 if(CYBLE_GATT_MTU > ((CYBLE_GATT_XCHG_MTU_PARAM_T *)eventParam)->mtu)
 959              		.loc 1 1932 0
 960 0292 3B68     		ldr	r3, [r7]
 961 0294 5B88     		ldrh	r3, [r3, #2]
 962 0296 162B     		cmp	r3, #22
 963 0298 05D8     		bhi	.L54
1933:Generated_Source\PSoC4/BLE_eventHandler.c ****                 {
ARM GAS  C:\Users\TTSS\AppData\Local\Temp\ccySleeg.s 			page 52


1934:Generated_Source\PSoC4/BLE_eventHandler.c ****                     cyBle_mtuSize = ((CYBLE_GATT_XCHG_MTU_PARAM_T *)eventParam)->mtu;
 964              		.loc 1 1934 0
 965 029a 1E23     		movs	r3, #30
 966 029c FB18     		adds	r3, r7, r3
 967 029e 3A68     		ldr	r2, [r7]
 968 02a0 5288     		ldrh	r2, [r2, #2]
 969 02a2 1A80     		strh	r2, [r3]
 970 02a4 03E0     		b	.L55
 971              	.L54:
1935:Generated_Source\PSoC4/BLE_eventHandler.c ****                 }
1936:Generated_Source\PSoC4/BLE_eventHandler.c ****                 else
1937:Generated_Source\PSoC4/BLE_eventHandler.c ****                 {
1938:Generated_Source\PSoC4/BLE_eventHandler.c ****                     cyBle_mtuSize = CYBLE_GATT_MTU;
 972              		.loc 1 1938 0
 973 02a6 1E23     		movs	r3, #30
 974 02a8 FB18     		adds	r3, r7, r3
 975 02aa 1722     		movs	r2, #23
 976 02ac 1A80     		strh	r2, [r3]
 977              	.L55:
1939:Generated_Source\PSoC4/BLE_eventHandler.c ****                 }
1940:Generated_Source\PSoC4/BLE_eventHandler.c ****                 (void)CyBle_GattsExchangeMtuRsp(((CYBLE_GATT_XCHG_MTU_PARAM_T *)eventParam)->connHa
 978              		.loc 1 1940 0
 979 02ae 1E23     		movs	r3, #30
 980 02b0 FB18     		adds	r3, r7, r3
 981 02b2 1988     		ldrh	r1, [r3]
 982 02b4 3B68     		ldr	r3, [r7]
 983 02b6 1A88     		ldrh	r2, [r3]
 984 02b8 0023     		movs	r3, #0
 985 02ba 1204     		lsls	r2, r2, #16
 986 02bc 120C     		lsrs	r2, r2, #16
 987 02be 1B0C     		lsrs	r3, r3, #16
 988 02c0 1B04     		lsls	r3, r3, #16
 989 02c2 1343     		orrs	r3, r2
 990 02c4 1800     		movs	r0, r3
 991 02c6 FFF7FEFF 		bl	CyBle_GattsExchangeMtuRsp
 992              	.LBE8:
1941:Generated_Source\PSoC4/BLE_eventHandler.c ****             }
1942:Generated_Source\PSoC4/BLE_eventHandler.c ****             break;
 993              		.loc 1 1942 0
 994 02ca 10E0     		b	.L47
 995              	.L37:
1943:Generated_Source\PSoC4/BLE_eventHandler.c ****     #endif /* CYBLE_GATT_ROLE_SERVER || CYBLE_GATT_ROLE_CLIENT */
1944:Generated_Source\PSoC4/BLE_eventHandler.c ****     
1945:Generated_Source\PSoC4/BLE_eventHandler.c ****     #if (CYBLE_GATT_ROLE_CLIENT)
1946:Generated_Source\PSoC4/BLE_eventHandler.c ****         case CYBLE_EVT_GAPC_SCAN_PROGRESS_RESULT:
1947:Generated_Source\PSoC4/BLE_eventHandler.c ****         #ifdef CYBLE_CPS_CLIENT
1948:Generated_Source\PSoC4/BLE_eventHandler.c ****             CyBle_CpscScanProcessEventHandler((CYBLE_GAPC_ADV_REPORT_T *)eventParam);
1949:Generated_Source\PSoC4/BLE_eventHandler.c ****         #endif /* CYBLE_CPS_CLIENT */
1950:Generated_Source\PSoC4/BLE_eventHandler.c ****             break;
1951:Generated_Source\PSoC4/BLE_eventHandler.c ****     #endif /* CYBLE_GATT_ROLE_CLIENT */
1952:Generated_Source\PSoC4/BLE_eventHandler.c **** 
1953:Generated_Source\PSoC4/BLE_eventHandler.c ****     #if(CYBLE_GATT_ROLE_SERVER)
1954:Generated_Source\PSoC4/BLE_eventHandler.c ****         case CYBLE_EVT_GATTS_WRITE_REQ:
1955:Generated_Source\PSoC4/BLE_eventHandler.c ****             CyBle_WriteReqHandler((CYBLE_GATTS_WRITE_REQ_PARAM_T *)eventParam);
 996              		.loc 1 1955 0
 997 02cc 3B68     		ldr	r3, [r7]
 998 02ce 1800     		movs	r0, r3
ARM GAS  C:\Users\TTSS\AppData\Local\Temp\ccySleeg.s 			page 53


 999 02d0 FFF7FEFF 		bl	CyBle_WriteReqHandler
1956:Generated_Source\PSoC4/BLE_eventHandler.c ****             break;
 1000              		.loc 1 1956 0
 1001 02d4 0BE0     		b	.L47
 1002              	.L41:
1957:Generated_Source\PSoC4/BLE_eventHandler.c **** 
1958:Generated_Source\PSoC4/BLE_eventHandler.c ****         case CYBLE_EVT_GATTS_WRITE_CMD_REQ:
1959:Generated_Source\PSoC4/BLE_eventHandler.c ****         #ifdef CYBLE_AIOS_SERVER
1960:Generated_Source\PSoC4/BLE_eventHandler.c ****             if((cyBle_eventHandlerFlag & CYBLE_CALLBACK) != 0u)
1961:Generated_Source\PSoC4/BLE_eventHandler.c ****             {
1962:Generated_Source\PSoC4/BLE_eventHandler.c ****                 (void)CyBle_AiossWriteEventHandler((CYBLE_GATTS_WRITE_REQ_PARAM_T *)eventParam);
1963:Generated_Source\PSoC4/BLE_eventHandler.c ****             }
1964:Generated_Source\PSoC4/BLE_eventHandler.c ****         #endif /* CYBLE_AIOS_SERVER */
1965:Generated_Source\PSoC4/BLE_eventHandler.c ****         #ifdef CYBLE_IAS_SERVER
1966:Generated_Source\PSoC4/BLE_eventHandler.c ****             if((cyBle_eventHandlerFlag & CYBLE_CALLBACK) != 0u)
1967:Generated_Source\PSoC4/BLE_eventHandler.c ****             {
1968:Generated_Source\PSoC4/BLE_eventHandler.c ****                 (void)CyBle_IassWriteCmdEventHandler((CYBLE_GATTS_WRITE_REQ_PARAM_T *)eventParam);
1969:Generated_Source\PSoC4/BLE_eventHandler.c ****             }
1970:Generated_Source\PSoC4/BLE_eventHandler.c ****         #endif /* CYBLE_IAS_SERVER */
1971:Generated_Source\PSoC4/BLE_eventHandler.c ****         #ifdef CYBLE_IPS_SERVER
1972:Generated_Source\PSoC4/BLE_eventHandler.c ****             if((cyBle_eventHandlerFlag & CYBLE_CALLBACK) != 0u)
1973:Generated_Source\PSoC4/BLE_eventHandler.c ****             {
1974:Generated_Source\PSoC4/BLE_eventHandler.c ****                 (void)CyBle_IpssWriteCmdEventHandler((CYBLE_GATTS_WRITE_REQ_PARAM_T *)eventParam);
1975:Generated_Source\PSoC4/BLE_eventHandler.c ****             }
1976:Generated_Source\PSoC4/BLE_eventHandler.c ****         #endif /* CYBLE_IPS_SERVER */
1977:Generated_Source\PSoC4/BLE_eventHandler.c ****         #ifdef CYBLE_HIDS_SERVER
1978:Generated_Source\PSoC4/BLE_eventHandler.c ****             if((cyBle_eventHandlerFlag & CYBLE_CALLBACK) != 0u)
1979:Generated_Source\PSoC4/BLE_eventHandler.c ****             {
1980:Generated_Source\PSoC4/BLE_eventHandler.c ****                 (void)CyBle_HidssWriteEventHandler((CYBLE_GATTS_WRITE_REQ_PARAM_T *)eventParam);
1981:Generated_Source\PSoC4/BLE_eventHandler.c ****             }
1982:Generated_Source\PSoC4/BLE_eventHandler.c ****         #endif /* CYBLE_HIDS_SERVER */
1983:Generated_Source\PSoC4/BLE_eventHandler.c ****         #ifdef CYBLE_PASS_SERVER
1984:Generated_Source\PSoC4/BLE_eventHandler.c ****             if((cyBle_eventHandlerFlag & CYBLE_CALLBACK) != 0u)
1985:Generated_Source\PSoC4/BLE_eventHandler.c ****             {
1986:Generated_Source\PSoC4/BLE_eventHandler.c ****                 (void)CyBle_PasssWriteCmdEventHandler((CYBLE_GATTS_WRITE_REQ_PARAM_T *)eventParam);
1987:Generated_Source\PSoC4/BLE_eventHandler.c ****             }
1988:Generated_Source\PSoC4/BLE_eventHandler.c ****         #endif /* CYBLE_PASS_SERVER */
1989:Generated_Source\PSoC4/BLE_eventHandler.c ****         #ifdef CYBLE_RTUS_SERVER
1990:Generated_Source\PSoC4/BLE_eventHandler.c ****             if((cyBle_eventHandlerFlag & CYBLE_CALLBACK) != 0u)
1991:Generated_Source\PSoC4/BLE_eventHandler.c ****             {
1992:Generated_Source\PSoC4/BLE_eventHandler.c ****                 (void)CyBle_RtussWriteCmdEventHandler((CYBLE_GATTS_WRITE_REQ_PARAM_T *)eventParam);
1993:Generated_Source\PSoC4/BLE_eventHandler.c ****             }
1994:Generated_Source\PSoC4/BLE_eventHandler.c ****         #endif /* CYBLE_RTUS_SERVER */
1995:Generated_Source\PSoC4/BLE_eventHandler.c ****         #ifdef CYBLE_SCPS_SERVER
1996:Generated_Source\PSoC4/BLE_eventHandler.c ****             if((cyBle_eventHandlerFlag & CYBLE_CALLBACK) != 0u)
1997:Generated_Source\PSoC4/BLE_eventHandler.c ****             {
1998:Generated_Source\PSoC4/BLE_eventHandler.c ****                 (void)CyBle_ScpssWriteEventHandler((CYBLE_GATTS_WRITE_REQ_PARAM_T *)eventParam);
1999:Generated_Source\PSoC4/BLE_eventHandler.c ****             }
2000:Generated_Source\PSoC4/BLE_eventHandler.c ****         #endif /* CYBLE_SCPS_SERVER */
2001:Generated_Source\PSoC4/BLE_eventHandler.c ****             break;
2002:Generated_Source\PSoC4/BLE_eventHandler.c ****         
2003:Generated_Source\PSoC4/BLE_eventHandler.c ****         case CYBLE_EVT_GATTS_PREP_WRITE_REQ:
2004:Generated_Source\PSoC4/BLE_eventHandler.c ****         #ifdef CYBLE_BMS_SERVER
2005:Generated_Source\PSoC4/BLE_eventHandler.c ****             CyBle_BmssPrepareWriteRequestEventHandler((CYBLE_GATTS_PREP_WRITE_REQ_PARAM_T *)eventPa
2006:Generated_Source\PSoC4/BLE_eventHandler.c ****         #endif /* CYBLE_BMS_SERVER */
2007:Generated_Source\PSoC4/BLE_eventHandler.c ****         #ifdef CYBLE_BTS_SERVER
2008:Generated_Source\PSoC4/BLE_eventHandler.c ****             if((cyBle_eventHandlerFlag & CYBLE_CALLBACK) != 0u)
ARM GAS  C:\Users\TTSS\AppData\Local\Temp\ccySleeg.s 			page 54


2009:Generated_Source\PSoC4/BLE_eventHandler.c ****             {
2010:Generated_Source\PSoC4/BLE_eventHandler.c ****                 CyBle_BtssPrepareWriteRequestEventHandler((CYBLE_GATTS_PREP_WRITE_REQ_PARAM_T *)eve
2011:Generated_Source\PSoC4/BLE_eventHandler.c ****             }
2012:Generated_Source\PSoC4/BLE_eventHandler.c ****         #endif /* CYBLE_BTS_SERVER */
2013:Generated_Source\PSoC4/BLE_eventHandler.c ****         #ifdef CYBLE_ESS_SERVER
2014:Generated_Source\PSoC4/BLE_eventHandler.c ****             if((cyBle_eventHandlerFlag & CYBLE_CALLBACK) != 0u)
2015:Generated_Source\PSoC4/BLE_eventHandler.c ****             {
2016:Generated_Source\PSoC4/BLE_eventHandler.c ****                 CyBle_EsssPrepareWriteRequestEventHandler((CYBLE_GATTS_PREP_WRITE_REQ_PARAM_T *)eve
2017:Generated_Source\PSoC4/BLE_eventHandler.c ****             }
2018:Generated_Source\PSoC4/BLE_eventHandler.c ****         #endif /* CYBLE_ESS_SERVER */
2019:Generated_Source\PSoC4/BLE_eventHandler.c ****         #ifdef CYBLE_HPS_SERVER
2020:Generated_Source\PSoC4/BLE_eventHandler.c ****             if((cyBle_eventHandlerFlag & CYBLE_CALLBACK) != 0u)
2021:Generated_Source\PSoC4/BLE_eventHandler.c ****             {
2022:Generated_Source\PSoC4/BLE_eventHandler.c ****                 CyBle_HpssPrepareWriteRequestEventHandler((CYBLE_GATTS_PREP_WRITE_REQ_PARAM_T *)eve
2023:Generated_Source\PSoC4/BLE_eventHandler.c ****             }
2024:Generated_Source\PSoC4/BLE_eventHandler.c ****         #endif /* CYBLE_HPS_SERVER */
2025:Generated_Source\PSoC4/BLE_eventHandler.c ****         #ifdef CYBLE_IPS_SERVER
2026:Generated_Source\PSoC4/BLE_eventHandler.c ****             if((cyBle_eventHandlerFlag & CYBLE_CALLBACK) != 0u)
2027:Generated_Source\PSoC4/BLE_eventHandler.c ****             {
2028:Generated_Source\PSoC4/BLE_eventHandler.c ****                 CyBle_IpssPrepareWriteRequestEventHandler((CYBLE_GATTS_PREP_WRITE_REQ_PARAM_T *)eve
2029:Generated_Source\PSoC4/BLE_eventHandler.c ****             }
2030:Generated_Source\PSoC4/BLE_eventHandler.c ****         #endif /* CYBLE_IPS_SERVER */
2031:Generated_Source\PSoC4/BLE_eventHandler.c ****         #ifdef CYBLE_UDS_SERVER
2032:Generated_Source\PSoC4/BLE_eventHandler.c ****             if((cyBle_eventHandlerFlag & CYBLE_CALLBACK) != 0u)
2033:Generated_Source\PSoC4/BLE_eventHandler.c ****             {
2034:Generated_Source\PSoC4/BLE_eventHandler.c ****                 CyBle_UdssPrepareWriteRequestEventHandler((CYBLE_GATTS_PREP_WRITE_REQ_PARAM_T *)eve
2035:Generated_Source\PSoC4/BLE_eventHandler.c ****             }
2036:Generated_Source\PSoC4/BLE_eventHandler.c ****         #endif /* CYBLE_UDS_SERVER */
2037:Generated_Source\PSoC4/BLE_eventHandler.c ****             break;
2038:Generated_Source\PSoC4/BLE_eventHandler.c **** 
2039:Generated_Source\PSoC4/BLE_eventHandler.c ****         case CYBLE_EVT_GATTS_EXEC_WRITE_REQ:
2040:Generated_Source\PSoC4/BLE_eventHandler.c ****         #ifdef CYBLE_BMS_SERVER
2041:Generated_Source\PSoC4/BLE_eventHandler.c ****             CyBle_BmssExecuteWriteRequestEventHandler((CYBLE_GATTS_EXEC_WRITE_REQ_T *)eventParam);
2042:Generated_Source\PSoC4/BLE_eventHandler.c ****         #endif /* CYBLE_BMS_SERVER */
2043:Generated_Source\PSoC4/BLE_eventHandler.c ****         #ifdef CYBLE_BTS_SERVER
2044:Generated_Source\PSoC4/BLE_eventHandler.c ****             CyBle_BtssExecuteWriteRequestEventHandler((CYBLE_GATTS_EXEC_WRITE_REQ_T *)eventParam);
2045:Generated_Source\PSoC4/BLE_eventHandler.c ****         #endif /* CYBLE_BTS_SERVER */
2046:Generated_Source\PSoC4/BLE_eventHandler.c ****         #ifdef CYBLE_ESS_SERVER
2047:Generated_Source\PSoC4/BLE_eventHandler.c ****             CyBle_EsssExecuteWriteRequestEventHandler((CYBLE_GATTS_EXEC_WRITE_REQ_T *)eventParam);
2048:Generated_Source\PSoC4/BLE_eventHandler.c ****         #endif /* CYBLE_ESS_SERVER */
2049:Generated_Source\PSoC4/BLE_eventHandler.c ****         #ifdef CYBLE_HPS_SERVER
2050:Generated_Source\PSoC4/BLE_eventHandler.c ****             CyBle_HpssExecuteWriteRequestEventHandler((CYBLE_GATTS_EXEC_WRITE_REQ_T *)eventParam);
2051:Generated_Source\PSoC4/BLE_eventHandler.c ****         #endif /* CYBLE_HPS_SERVER */
2052:Generated_Source\PSoC4/BLE_eventHandler.c ****         #ifdef CYBLE_IPS_SERVER
2053:Generated_Source\PSoC4/BLE_eventHandler.c ****             CyBle_IpssExecuteWriteRequestEventHandler((CYBLE_GATTS_EXEC_WRITE_REQ_T *)eventParam);
2054:Generated_Source\PSoC4/BLE_eventHandler.c ****         #endif /* CYBLE_IPS_SERVER */
2055:Generated_Source\PSoC4/BLE_eventHandler.c **** 		#ifdef CYBLE_UDS_SERVER
2056:Generated_Source\PSoC4/BLE_eventHandler.c ****             CyBle_UdssExecuteWriteRequestEventHandler((CYBLE_GATTS_EXEC_WRITE_REQ_T *)eventParam);
2057:Generated_Source\PSoC4/BLE_eventHandler.c ****         #endif /* CYBLE_UDS_SERVER */
2058:Generated_Source\PSoC4/BLE_eventHandler.c ****             break;
2059:Generated_Source\PSoC4/BLE_eventHandler.c ****         
2060:Generated_Source\PSoC4/BLE_eventHandler.c ****         case CYBLE_EVT_GATTS_HANDLE_VALUE_CNF:
2061:Generated_Source\PSoC4/BLE_eventHandler.c ****             CyBle_ValueConfirmation((CYBLE_CONN_HANDLE_T *)eventParam);
 1003              		.loc 1 2061 0
 1004 02d6 3B68     		ldr	r3, [r7]
 1005 02d8 1800     		movs	r0, r3
 1006 02da FFF7FEFF 		bl	CyBle_ValueConfirmation
ARM GAS  C:\Users\TTSS\AppData\Local\Temp\ccySleeg.s 			page 55


2062:Generated_Source\PSoC4/BLE_eventHandler.c ****             break;
 1007              		.loc 1 2062 0
 1008 02de 06E0     		b	.L47
 1009              	.L57:
2063:Generated_Source\PSoC4/BLE_eventHandler.c ****             
2064:Generated_Source\PSoC4/BLE_eventHandler.c ****         case CYBLE_EVT_GATTS_READ_CHAR_VAL_ACCESS_REQ:
2065:Generated_Source\PSoC4/BLE_eventHandler.c ****         #ifdef CYBLE_UDS_SERVER
2066:Generated_Source\PSoC4/BLE_eventHandler.c ****             CyBle_UdssReadRequestEventHandler((CYBLE_GATTS_CHAR_VAL_READ_REQ_T *)eventParam);
2067:Generated_Source\PSoC4/BLE_eventHandler.c ****         #endif /* CYBLE_UDS_SERVER */
2068:Generated_Source\PSoC4/BLE_eventHandler.c ****             break;
2069:Generated_Source\PSoC4/BLE_eventHandler.c ****             
2070:Generated_Source\PSoC4/BLE_eventHandler.c ****     #endif /* CYBLE_GATT_ROLE_SERVER */
2071:Generated_Source\PSoC4/BLE_eventHandler.c **** 
2072:Generated_Source\PSoC4/BLE_eventHandler.c ****     #if (CYBLE_GATT_ROLE_CLIENT)
2073:Generated_Source\PSoC4/BLE_eventHandler.c ****         
2074:Generated_Source\PSoC4/BLE_eventHandler.c ****         case CYBLE_EVT_GATTC_READ_BY_GROUP_TYPE_RSP:
2075:Generated_Source\PSoC4/BLE_eventHandler.c ****             CyBle_ReadByGroupEventHandler((CYBLE_GATTC_READ_BY_GRP_RSP_PARAM_T *)eventParam);
2076:Generated_Source\PSoC4/BLE_eventHandler.c ****             break;
2077:Generated_Source\PSoC4/BLE_eventHandler.c **** 
2078:Generated_Source\PSoC4/BLE_eventHandler.c ****         case CYBLE_EVT_GATTC_READ_BY_TYPE_RSP:
2079:Generated_Source\PSoC4/BLE_eventHandler.c ****             CyBle_ReadByTypeEventHandler((CYBLE_GATTC_READ_BY_TYPE_RSP_PARAM_T *)eventParam);
2080:Generated_Source\PSoC4/BLE_eventHandler.c ****             break;
2081:Generated_Source\PSoC4/BLE_eventHandler.c **** 
2082:Generated_Source\PSoC4/BLE_eventHandler.c ****         case CYBLE_EVT_GATTC_READ_BLOB_RSP:
2083:Generated_Source\PSoC4/BLE_eventHandler.c ****         #ifdef CYBLE_ESS_CLIENT
2084:Generated_Source\PSoC4/BLE_eventHandler.c ****             CyBle_EsscReadLongRespEventHandler((CYBLE_GATTC_READ_RSP_PARAM_T *)eventParam);
2085:Generated_Source\PSoC4/BLE_eventHandler.c ****         #endif /* CYBLE_ESS_CLIENT */
2086:Generated_Source\PSoC4/BLE_eventHandler.c ****         #ifdef CYBLE_HPS_CLIENT
2087:Generated_Source\PSoC4/BLE_eventHandler.c ****             CyBle_HpscReadLongRespEventHandler((CYBLE_GATTC_READ_RSP_PARAM_T *)eventParam);
2088:Generated_Source\PSoC4/BLE_eventHandler.c ****         #endif /* CYBLE_HPS_CLIENT */
2089:Generated_Source\PSoC4/BLE_eventHandler.c **** 		#ifdef CYBLE_IPS_CLIENT
2090:Generated_Source\PSoC4/BLE_eventHandler.c ****             CyBle_IpscReadLongRespEventHandler((CYBLE_GATTC_READ_RSP_PARAM_T *)eventParam);
2091:Generated_Source\PSoC4/BLE_eventHandler.c ****         #endif /* CYBLE_IPS_CLIENT */
2092:Generated_Source\PSoC4/BLE_eventHandler.c ****         #ifdef CYBLE_UDS_CLIENT
2093:Generated_Source\PSoC4/BLE_eventHandler.c ****             if((cyBle_eventHandlerFlag & CYBLE_CALLBACK) != 0u)
2094:Generated_Source\PSoC4/BLE_eventHandler.c ****             {
2095:Generated_Source\PSoC4/BLE_eventHandler.c ****                 CyBle_UdscReadLongRespEventHandler((CYBLE_GATTC_READ_RSP_PARAM_T *)eventParam);
2096:Generated_Source\PSoC4/BLE_eventHandler.c ****             }
2097:Generated_Source\PSoC4/BLE_eventHandler.c ****         #endif /* CYBLE_UDS_CLIENT */
2098:Generated_Source\PSoC4/BLE_eventHandler.c ****             break;
2099:Generated_Source\PSoC4/BLE_eventHandler.c ****         
2100:Generated_Source\PSoC4/BLE_eventHandler.c ****         case CYBLE_EVT_GATTC_LONG_PROCEDURE_END:
2101:Generated_Source\PSoC4/BLE_eventHandler.c ****             CyBle_LongProcedureEndEventHandler();
2102:Generated_Source\PSoC4/BLE_eventHandler.c ****             break;
2103:Generated_Source\PSoC4/BLE_eventHandler.c ****         
2104:Generated_Source\PSoC4/BLE_eventHandler.c ****         case CYBLE_EVT_GATTC_FIND_INFO_RSP:
2105:Generated_Source\PSoC4/BLE_eventHandler.c ****             CyBle_FindInfoEventHandler((CYBLE_GATTC_FIND_INFO_RSP_PARAM_T *)eventParam);
2106:Generated_Source\PSoC4/BLE_eventHandler.c ****             break;
2107:Generated_Source\PSoC4/BLE_eventHandler.c **** 
2108:Generated_Source\PSoC4/BLE_eventHandler.c ****         case CYBLE_EVT_GATTC_ERROR_RSP:
2109:Generated_Source\PSoC4/BLE_eventHandler.c ****             CyBle_ErrorResponseEventHandler((CYBLE_GATTC_ERR_RSP_PARAM_T *)eventParam);
2110:Generated_Source\PSoC4/BLE_eventHandler.c ****             break;
2111:Generated_Source\PSoC4/BLE_eventHandler.c **** 
2112:Generated_Source\PSoC4/BLE_eventHandler.c ****         case CYBLE_EVT_GATTC_HANDLE_VALUE_NTF:
2113:Generated_Source\PSoC4/BLE_eventHandler.c ****             CyBle_NotificationEventHandler((CYBLE_GATTC_HANDLE_VALUE_NTF_PARAM_T *)eventParam);
2114:Generated_Source\PSoC4/BLE_eventHandler.c ****             break;
2115:Generated_Source\PSoC4/BLE_eventHandler.c **** 
ARM GAS  C:\Users\TTSS\AppData\Local\Temp\ccySleeg.s 			page 56


2116:Generated_Source\PSoC4/BLE_eventHandler.c ****         case CYBLE_EVT_GATTC_HANDLE_VALUE_IND:
2117:Generated_Source\PSoC4/BLE_eventHandler.c ****             CyBle_GattcIndicationEventHandler((CYBLE_GATTC_HANDLE_VALUE_IND_PARAM_T *)eventParam);
2118:Generated_Source\PSoC4/BLE_eventHandler.c ****             CyBle_IndicationEventHandler((CYBLE_GATTC_HANDLE_VALUE_IND_PARAM_T *)eventParam);
2119:Generated_Source\PSoC4/BLE_eventHandler.c ****         
2120:Generated_Source\PSoC4/BLE_eventHandler.c ****             /* Respond with a Handle Value Confirmation when request handled */
2121:Generated_Source\PSoC4/BLE_eventHandler.c ****             if((cyBle_eventHandlerFlag & CYBLE_CALLBACK) == 0u)
2122:Generated_Source\PSoC4/BLE_eventHandler.c ****             {
2123:Generated_Source\PSoC4/BLE_eventHandler.c ****                 (void)CyBle_GattcConfirmation(((CYBLE_GATTC_HANDLE_VALUE_IND_PARAM_T *)eventParam)-
2124:Generated_Source\PSoC4/BLE_eventHandler.c ****             }
2125:Generated_Source\PSoC4/BLE_eventHandler.c ****             break;
2126:Generated_Source\PSoC4/BLE_eventHandler.c ****         
2127:Generated_Source\PSoC4/BLE_eventHandler.c ****         case CYBLE_EVT_GATTC_READ_RSP:
2128:Generated_Source\PSoC4/BLE_eventHandler.c ****             CyBle_ReadResponseEventHandler((CYBLE_GATTC_READ_RSP_PARAM_T *)eventParam);
2129:Generated_Source\PSoC4/BLE_eventHandler.c ****             break;
2130:Generated_Source\PSoC4/BLE_eventHandler.c ****         
2131:Generated_Source\PSoC4/BLE_eventHandler.c ****         case CYBLE_EVT_GATTC_READ_MULTI_RSP:
2132:Generated_Source\PSoC4/BLE_eventHandler.c ****             CyBle_ReadMultipleResponseEventHandler((CYBLE_GATTC_READ_RSP_PARAM_T *)eventParam);
2133:Generated_Source\PSoC4/BLE_eventHandler.c ****             break;
2134:Generated_Source\PSoC4/BLE_eventHandler.c ****             
2135:Generated_Source\PSoC4/BLE_eventHandler.c ****         case CYBLE_EVT_GATTC_WRITE_RSP:
2136:Generated_Source\PSoC4/BLE_eventHandler.c ****             CyBle_GattcWriteResponseEventHandler((CYBLE_CONN_HANDLE_T *)eventParam);
2137:Generated_Source\PSoC4/BLE_eventHandler.c ****             break;
2138:Generated_Source\PSoC4/BLE_eventHandler.c ****             
2139:Generated_Source\PSoC4/BLE_eventHandler.c ****         case CYBLE_EVT_GATTC_EXEC_WRITE_RSP:
2140:Generated_Source\PSoC4/BLE_eventHandler.c ****         #ifdef CYBLE_BMS_CLIENT
2141:Generated_Source\PSoC4/BLE_eventHandler.c ****             CyBle_BmscExecuteWriteResponseEventHandler((CYBLE_GATTC_EXEC_WRITE_RSP_T *)eventParam);
2142:Generated_Source\PSoC4/BLE_eventHandler.c ****         #endif /* CYBLE_BMS_CLIENT */
2143:Generated_Source\PSoC4/BLE_eventHandler.c ****         #ifdef CYBLE_ESS_CLIENT
2144:Generated_Source\PSoC4/BLE_eventHandler.c ****             if((cyBle_eventHandlerFlag & CYBLE_CALLBACK) != 0u)
2145:Generated_Source\PSoC4/BLE_eventHandler.c ****             {
2146:Generated_Source\PSoC4/BLE_eventHandler.c ****                 CyBle_EsscExecuteWriteResponseEventHandler((CYBLE_GATTC_EXEC_WRITE_RSP_T *)eventPar
2147:Generated_Source\PSoC4/BLE_eventHandler.c ****             }
2148:Generated_Source\PSoC4/BLE_eventHandler.c ****         #endif /* CYBLE_ESS_CLIENT */
2149:Generated_Source\PSoC4/BLE_eventHandler.c ****         #ifdef CYBLE_HPS_CLIENT
2150:Generated_Source\PSoC4/BLE_eventHandler.c ****             if((cyBle_eventHandlerFlag & CYBLE_CALLBACK) != 0u)
2151:Generated_Source\PSoC4/BLE_eventHandler.c ****             {
2152:Generated_Source\PSoC4/BLE_eventHandler.c ****                 CyBle_HpscExecuteWriteResponseEventHandler((CYBLE_GATTC_EXEC_WRITE_RSP_T *)eventPar
2153:Generated_Source\PSoC4/BLE_eventHandler.c ****             }
2154:Generated_Source\PSoC4/BLE_eventHandler.c ****         #endif /* CYBLE_HPS_CLIENT */
2155:Generated_Source\PSoC4/BLE_eventHandler.c ****         #ifdef CYBLE_IPS_CLIENT
2156:Generated_Source\PSoC4/BLE_eventHandler.c ****             if((cyBle_eventHandlerFlag & CYBLE_CALLBACK) != 0u)
2157:Generated_Source\PSoC4/BLE_eventHandler.c ****             {
2158:Generated_Source\PSoC4/BLE_eventHandler.c ****                 CyBle_IpscExecuteWriteResponseEventHandler((CYBLE_GATTC_EXEC_WRITE_RSP_T *)eventPar
2159:Generated_Source\PSoC4/BLE_eventHandler.c ****             }
2160:Generated_Source\PSoC4/BLE_eventHandler.c ****         #endif /* CYBLE_IPS_CLIENT */
2161:Generated_Source\PSoC4/BLE_eventHandler.c ****         #ifdef CYBLE_UDS_CLIENT
2162:Generated_Source\PSoC4/BLE_eventHandler.c ****             if((cyBle_eventHandlerFlag & CYBLE_CALLBACK) != 0u)
2163:Generated_Source\PSoC4/BLE_eventHandler.c ****             {
2164:Generated_Source\PSoC4/BLE_eventHandler.c ****                 CyBle_UdscExecuteWriteResponseEventHandler((CYBLE_GATTC_EXEC_WRITE_RSP_T *)eventPar
2165:Generated_Source\PSoC4/BLE_eventHandler.c ****             }
2166:Generated_Source\PSoC4/BLE_eventHandler.c ****         #endif /* CYBLE_UDS_CLIENT */
2167:Generated_Source\PSoC4/BLE_eventHandler.c ****             break;
2168:Generated_Source\PSoC4/BLE_eventHandler.c ****             
2169:Generated_Source\PSoC4/BLE_eventHandler.c ****     #endif /* CYBLE_GATT_ROLE_CLIENT */
2170:Generated_Source\PSoC4/BLE_eventHandler.c **** 
2171:Generated_Source\PSoC4/BLE_eventHandler.c ****     #if((CYBLE_GAP_ROLE_PERIPHERAL || CYBLE_GAP_ROLE_CENTRAL) && (CYBLE_BONDING_REQUIREMENT == CYBL
2172:Generated_Source\PSoC4/BLE_eventHandler.c **** 
ARM GAS  C:\Users\TTSS\AppData\Local\Temp\ccySleeg.s 			page 57


2173:Generated_Source\PSoC4/BLE_eventHandler.c ****         case CYBLE_EVT_PENDING_FLASH_WRITE:
2174:Generated_Source\PSoC4/BLE_eventHandler.c ****             cyBle_pendingFlashWrite |= CYBLE_PENDING_STACK_FLASH_WRITE_BIT;
2175:Generated_Source\PSoC4/BLE_eventHandler.c ****             break;
2176:Generated_Source\PSoC4/BLE_eventHandler.c ****         
2177:Generated_Source\PSoC4/BLE_eventHandler.c ****     #endif  /* (CYBLE_BONDING_REQUIREMENT == CYBLE_BONDING_YES) */
2178:Generated_Source\PSoC4/BLE_eventHandler.c ****     
2179:Generated_Source\PSoC4/BLE_eventHandler.c ****         default:
2180:Generated_Source\PSoC4/BLE_eventHandler.c ****             break;
 1010              		.loc 1 2180 0
 1011 02e0 C046     		nop
 1012 02e2 04E0     		b	.L47
 1013              	.L58:
1723:Generated_Source\PSoC4/BLE_eventHandler.c ****         /**********************************************************
 1014              		.loc 1 1723 0
 1015 02e4 C046     		nop
 1016 02e6 02E0     		b	.L47
 1017              	.L59:
1761:Generated_Source\PSoC4/BLE_eventHandler.c ****         
 1018              		.loc 1 1761 0
 1019 02e8 C046     		nop
 1020 02ea 00E0     		b	.L47
 1021              	.L60:
1852:Generated_Source\PSoC4/BLE_eventHandler.c ****         #endif /* CYBLE_GAP_ROLE_PERIPHERAL || CYBLE_GAP_ROLE_BROADCASTER */
 1022              		.loc 1 1852 0
 1023 02ec C046     		nop
 1024              	.L47:
2181:Generated_Source\PSoC4/BLE_eventHandler.c ****     }
2182:Generated_Source\PSoC4/BLE_eventHandler.c **** 
2183:Generated_Source\PSoC4/BLE_eventHandler.c ****     if(0u != (cyBle_eventHandlerFlag & (CYBLE_CALLBACK | CYBLE_ENABLE_ALL_EVENTS))) 
 1025              		.loc 1 2183 0
 1026 02ee 0D4B     		ldr	r3, .L62
 1027 02f0 1B78     		ldrb	r3, [r3]
 1028 02f2 DBB2     		uxtb	r3, r3
 1029 02f4 1A00     		movs	r2, r3
 1030 02f6 1123     		movs	r3, #17
 1031 02f8 1340     		ands	r3, r2
 1032 02fa 0ED0     		beq	.L61
2184:Generated_Source\PSoC4/BLE_eventHandler.c ****     {
2185:Generated_Source\PSoC4/BLE_eventHandler.c ****         cyBle_eventHandlerFlag &= (uint8)~CYBLE_CALLBACK;
 1033              		.loc 1 2185 0
 1034 02fc 094B     		ldr	r3, .L62
 1035 02fe 1B78     		ldrb	r3, [r3]
 1036 0300 DBB2     		uxtb	r3, r3
 1037 0302 0122     		movs	r2, #1
 1038 0304 9343     		bics	r3, r2
 1039 0306 DAB2     		uxtb	r2, r3
 1040 0308 064B     		ldr	r3, .L62
 1041 030a 1A70     		strb	r2, [r3]
2186:Generated_Source\PSoC4/BLE_eventHandler.c ****         CyBle_ApplCallback((uint32)eventCode, eventParam);
 1042              		.loc 1 2186 0
 1043 030c 154B     		ldr	r3, .L62+64
 1044 030e 1B68     		ldr	r3, [r3]
 1045 0310 FA1D     		adds	r2, r7, #7
 1046 0312 1278     		ldrb	r2, [r2]
 1047 0314 3968     		ldr	r1, [r7]
 1048 0316 1000     		movs	r0, r2
 1049 0318 9847     		blx	r3
ARM GAS  C:\Users\TTSS\AppData\Local\Temp\ccySleeg.s 			page 58


 1050              	.L61:
2187:Generated_Source\PSoC4/BLE_eventHandler.c ****     }
2188:Generated_Source\PSoC4/BLE_eventHandler.c **** }
 1051              		.loc 1 2188 0
 1052 031a C046     		nop
 1053 031c BD46     		mov	sp, r7
 1054 031e 08B0     		add	sp, sp, #32
 1055              		@ sp needed
 1056 0320 80BD     		pop	{r7, pc}
 1057              	.L63:
 1058 0322 C046     		.align	2
 1059              	.L62:
 1060 0324 00000000 		.word	cyBle_eventHandlerFlag
 1061 0328 0C000000 		.word	.L24
 1062 032c 00000000 		.word	cyBle_sflashDeviceAddress
 1063 0330 7CF2FF0F 		.word	268431996
 1064 0334 7DF2FF0F 		.word	268431997
 1065 0338 7BF2FF0F 		.word	268431995
 1066 033c 78F2FF0F 		.word	268431992
 1067 0340 00000000 		.word	cyBle_deviceAddress
 1068 0344 00000000 		.word	cyBle_state
 1069 0348 00000000 		.word	cyBle_busyStatus
 1070 034c 00000000 		.word	gPrepWriteReqMem.6651
 1071 0350 E00A0000 		.word	cyBle_stackMemoryRam+2784
 1072 0354 00000000 		.word	cyBle_authInfo
 1073 0358 00000000 		.word	cyBle_connHandle
 1074 035c 00000000 		.word	cyBle_flashStorage
 1075 0360 00000000 		.word	cyBle_attValuesCCCD
 1076 0364 00000000 		.word	CyBle_ApplCallback
 1077              		.cfi_endproc
 1078              	.LFE10:
 1079              		.size	CyBle_EventHandler, .-CyBle_EventHandler
 1080              		.bss
 1081              		.align	2
 1082              	gPrepWriteReqMem.6651:
 1083 0000 00000000 		.space	8
 1083      00000000 
 1084              		.text
 1085              	.Letext0:
 1086              		.file 2 "Generated_Source\\PSoC4\\cytypes.h"
 1087              		.file 3 "Generated_Source\\PSoC4\\BLE_Stack.h"
 1088              		.file 4 "Generated_Source\\PSoC4\\BLE_StackHostMain.h"
 1089              		.file 5 "Generated_Source\\PSoC4\\BLE_StackGap.h"
 1090              		.file 6 "Generated_Source\\PSoC4\\BLE_StackGatt.h"
 1091              		.file 7 "Generated_Source\\PSoC4\\BLE_StackGattServer.h"
 1092              		.file 8 "Generated_Source\\PSoC4\\BLE.h"
 1093              		.file 9 "Generated_Source\\PSoC4\\BLE_gatt.h"
 1094              		.file 10 "Generated_Source\\PSoC4\\BLE_eventHandler.h"