ARM GAS  C:\Users\TTSS\AppData\Local\Temp\ccySleeg.s 			page 1


   1              		.syntax unified
   2              		.cpu cortex-m0
   3              		.fpu softvfp
   4              		.eabi_attribute 20, 1
   5              		.eabi_attribute 21, 1
   6              		.eabi_attribute 23, 3
   7              		.eabi_attribute 24, 1
   8              		.eabi_attribute 25, 1
   9              		.eabi_attribute 26, 1
  10              		.eabi_attribute 30, 6
  11              		.eabi_attribute 34, 0
  12              		.eabi_attribute 18, 4
  13              		.thumb
  14              		.syntax unified
  15              		.file	"BLE_eventHandler.c"
  16              		.text
  17              	.Ltext0:
  18              		.cfi_sections	.debug_frame
  19              		.comm	cyBle_connHandle,2,4
  20              		.comm	cyBle_eventHandlerFlag,1,1
  21              		.comm	cyBle_busyStatus,1,1
  22              		.global	cyBle_gaps
  23              		.section	.rodata
  24              		.align	2
  25              		.type	cyBle_gaps, %object
  26              		.size	cyBle_gaps, 12
  27              	cyBle_gaps:
  28 0000 0100     		.short	1
  29 0002 0300     		.short	3
  30 0004 0500     		.short	5
  31 0006 0000     		.short	0
  32 0008 0000     		.short	0
  33 000a 0000     		.short	0
  34              		.comm	cyBle_advertisingIntervalType,1,1
  35              		.global	cyBle_authInfo
  36              		.data
  37              		.align	2
  38              		.type	cyBle_authInfo, %object
  39              		.size	cyBle_authInfo, 5
  40              	cyBle_authInfo:
  41 0000 10       		.byte	16
  42 0001 01       		.byte	1
  43 0002 10       		.byte	16
  44 0003 00       		.byte	0
  45 0004 01       		.byte	1
  46              		.section	.text.CyBle_WriteReqHandler,"ax",%progbits
  47              		.align	2
  48              		.code	16
  49              		.thumb_func
  50              		.type	CyBle_WriteReqHandler, %function
  51              	CyBle_WriteReqHandler:
  52              	.LFB2:
  53              		.file 1 "Generated_Source\\PSoC4\\BLE_eventHandler.c"
   1:Generated_Source\PSoC4/BLE_eventHandler.c **** /***************************************************************************//**
   2:Generated_Source\PSoC4/BLE_eventHandler.c **** * \file CYBLE_eventHandler.c
   3:Generated_Source\PSoC4/BLE_eventHandler.c **** * \version 3.40
   4:Generated_Source\PSoC4/BLE_eventHandler.c **** * 
ARM GAS  C:\Users\TTSS\AppData\Local\Temp\ccySleeg.s 			page 2


   5:Generated_Source\PSoC4/BLE_eventHandler.c **** * \brief
   6:Generated_Source\PSoC4/BLE_eventHandler.c **** *  This file contains the source code for the Event Handler State Machine
   7:Generated_Source\PSoC4/BLE_eventHandler.c **** *  of the BLE Component.
   8:Generated_Source\PSoC4/BLE_eventHandler.c **** * 
   9:Generated_Source\PSoC4/BLE_eventHandler.c **** ********************************************************************************
  10:Generated_Source\PSoC4/BLE_eventHandler.c **** * \copyright
  11:Generated_Source\PSoC4/BLE_eventHandler.c **** * Copyright 2014-2016, Cypress Semiconductor Corporation.  All rights reserved.
  12:Generated_Source\PSoC4/BLE_eventHandler.c **** * You may use this file only in accordance with the license, terms, conditions,
  13:Generated_Source\PSoC4/BLE_eventHandler.c **** * disclaimers, and limitations in the end user license agreement accompanying
  14:Generated_Source\PSoC4/BLE_eventHandler.c **** * the software package with which this file was provided.
  15:Generated_Source\PSoC4/BLE_eventHandler.c **** *******************************************************************************/
  16:Generated_Source\PSoC4/BLE_eventHandler.c **** 
  17:Generated_Source\PSoC4/BLE_eventHandler.c **** #include "BLE_eventHandler.h"
  18:Generated_Source\PSoC4/BLE_eventHandler.c **** 
  19:Generated_Source\PSoC4/BLE_eventHandler.c **** 
  20:Generated_Source\PSoC4/BLE_eventHandler.c **** /***************************************
  21:Generated_Source\PSoC4/BLE_eventHandler.c **** * Private Function Prototypes
  22:Generated_Source\PSoC4/BLE_eventHandler.c **** ***************************************/
  23:Generated_Source\PSoC4/BLE_eventHandler.c **** 
  24:Generated_Source\PSoC4/BLE_eventHandler.c **** static void CyBle_GattDisconnectEventHandler(void);
  25:Generated_Source\PSoC4/BLE_eventHandler.c **** static void CyBle_TimeOutEventHandler(const CYBLE_TO_REASON_CODE_T *eventParam);
  26:Generated_Source\PSoC4/BLE_eventHandler.c **** static void CyBle_GattConnectReqHandler(void);
  27:Generated_Source\PSoC4/BLE_eventHandler.c **** static void CyBle_L2Cap_ConnParamUpdateRspEventHandler(uint16 response);
  28:Generated_Source\PSoC4/BLE_eventHandler.c **** static void CyBle_GapConnUpdateCompleteEventHandler(const CYBLE_GAP_CONN_PARAM_UPDATED_IN_CONTROLLE
  29:Generated_Source\PSoC4/BLE_eventHandler.c **** 
  30:Generated_Source\PSoC4/BLE_eventHandler.c **** 
  31:Generated_Source\PSoC4/BLE_eventHandler.c **** #if (CYBLE_GATT_ROLE_SERVER)
  32:Generated_Source\PSoC4/BLE_eventHandler.c **** 
  33:Generated_Source\PSoC4/BLE_eventHandler.c **** static void CyBle_WriteReqHandler(CYBLE_GATTS_WRITE_REQ_PARAM_T *eventParam);
  34:Generated_Source\PSoC4/BLE_eventHandler.c **** static void CyBle_ValueConfirmation(const CYBLE_CONN_HANDLE_T *eventParam);
  35:Generated_Source\PSoC4/BLE_eventHandler.c **** 
  36:Generated_Source\PSoC4/BLE_eventHandler.c **** #endif /* CYBLE_GATT_ROLE_SERVER */
  37:Generated_Source\PSoC4/BLE_eventHandler.c **** 
  38:Generated_Source\PSoC4/BLE_eventHandler.c **** #if (CYBLE_GATT_ROLE_CLIENT)
  39:Generated_Source\PSoC4/BLE_eventHandler.c **** 
  40:Generated_Source\PSoC4/BLE_eventHandler.c **** static void CyBle_GapcDiscoverCharacteristicsEventHandler(CYBLE_DISC_CHAR_INFO_T *discCharInfo);
  41:Generated_Source\PSoC4/BLE_eventHandler.c **** static CYBLE_GATT_ATTR_HANDLE_RANGE_T CyBle_GetCharRange(void);
  42:Generated_Source\PSoC4/BLE_eventHandler.c **** static void CyBle_GattcWriteResponseEventHandler(const CYBLE_CONN_HANDLE_T *eventParam);
  43:Generated_Source\PSoC4/BLE_eventHandler.c **** static void CyBle_NotificationEventHandler(CYBLE_GATTC_HANDLE_VALUE_NTF_PARAM_T *eventParam);
  44:Generated_Source\PSoC4/BLE_eventHandler.c **** static void CyBle_IndicationEventHandler(CYBLE_GATTC_HANDLE_VALUE_IND_PARAM_T *eventParam);
  45:Generated_Source\PSoC4/BLE_eventHandler.c **** static void CyBle_ReadResponseEventHandler(CYBLE_GATTC_READ_RSP_PARAM_T *eventParam);
  46:Generated_Source\PSoC4/BLE_eventHandler.c **** static void CyBle_ReadMultipleResponseEventHandler(CYBLE_GATTC_READ_RSP_PARAM_T *eventParam);
  47:Generated_Source\PSoC4/BLE_eventHandler.c **** 
  48:Generated_Source\PSoC4/BLE_eventHandler.c **** #endif /* CYBLE_GATT_ROLE_CLIENT */
  49:Generated_Source\PSoC4/BLE_eventHandler.c **** 
  50:Generated_Source\PSoC4/BLE_eventHandler.c **** 
  51:Generated_Source\PSoC4/BLE_eventHandler.c **** /***************************************
  52:Generated_Source\PSoC4/BLE_eventHandler.c **** * Global Variables
  53:Generated_Source\PSoC4/BLE_eventHandler.c **** ***************************************/
  54:Generated_Source\PSoC4/BLE_eventHandler.c **** 
  55:Generated_Source\PSoC4/BLE_eventHandler.c **** /* This global variable is initialized after connection with peer device, 
  56:Generated_Source\PSoC4/BLE_eventHandler.c ****    after CYBLE_EVT_GATT_CONNECT_IND event, and could be used by application code
  57:Generated_Source\PSoC4/BLE_eventHandler.c ****    to send data to peer device. 
  58:Generated_Source\PSoC4/BLE_eventHandler.c **** */
  59:Generated_Source\PSoC4/BLE_eventHandler.c **** CYBLE_CONN_HANDLE_T cyBle_connHandle;
  60:Generated_Source\PSoC4/BLE_eventHandler.c **** 
  61:Generated_Source\PSoC4/BLE_eventHandler.c **** volatile uint8 cyBle_eventHandlerFlag;
ARM GAS  C:\Users\TTSS\AppData\Local\Temp\ccySleeg.s 			page 3


  62:Generated_Source\PSoC4/BLE_eventHandler.c **** volatile uint8 cyBle_busyStatus;
  63:Generated_Source\PSoC4/BLE_eventHandler.c **** 
  64:Generated_Source\PSoC4/BLE_eventHandler.c **** const CYBLE_GAPS_T cyBle_gaps =
  65:Generated_Source\PSoC4/BLE_eventHandler.c **** {
  66:Generated_Source\PSoC4/BLE_eventHandler.c ****     0x0001u,    /* Handle of the GAP service */
  67:Generated_Source\PSoC4/BLE_eventHandler.c ****     0x0003u,    /* Handle of the Device Name characteristic */
  68:Generated_Source\PSoC4/BLE_eventHandler.c ****     0x0005u,    /* Handle of the Appearance characteristic */
  69:Generated_Source\PSoC4/BLE_eventHandler.c ****     CYBLE_GATT_INVALID_ATTR_HANDLE_VALUE, /* Handle of the Peripheral Preferred Connection Paramete
  70:Generated_Source\PSoC4/BLE_eventHandler.c ****     CYBLE_GATT_INVALID_ATTR_HANDLE_VALUE, /* Handle of the Central Address Resolution characteristi
  71:Generated_Source\PSoC4/BLE_eventHandler.c ****     CYBLE_GATT_INVALID_ATTR_HANDLE_VALUE, /* Handle of the Resolvable Private Address Only characte
  72:Generated_Source\PSoC4/BLE_eventHandler.c **** };
  73:Generated_Source\PSoC4/BLE_eventHandler.c **** 
  74:Generated_Source\PSoC4/BLE_eventHandler.c **** 
  75:Generated_Source\PSoC4/BLE_eventHandler.c **** #if(CYBLE_GAP_ROLE_PERIPHERAL || CYBLE_GAP_ROLE_BROADCASTER) 
  76:Generated_Source\PSoC4/BLE_eventHandler.c ****     uint8 cyBle_advertisingIntervalType;
  77:Generated_Source\PSoC4/BLE_eventHandler.c **** #endif /* CYBLE_GAP_ROLE_PERIPHERAL || CYBLE_GAP_ROLE_BROADCASTER) */
  78:Generated_Source\PSoC4/BLE_eventHandler.c **** 
  79:Generated_Source\PSoC4/BLE_eventHandler.c **** #if(CYBLE_GAP_ROLE_CENTRAL || CYBLE_GAP_ROLE_OBSERVER) 
  80:Generated_Source\PSoC4/BLE_eventHandler.c ****     uint8 cyBle_scanningIntervalType;
  81:Generated_Source\PSoC4/BLE_eventHandler.c **** #endif /* CYBLE_GAP_ROLE_CENTRAL || CYBLE_GAP_ROLE_OBSERVER */
  82:Generated_Source\PSoC4/BLE_eventHandler.c **** 
  83:Generated_Source\PSoC4/BLE_eventHandler.c **** #if(CYBLE_GATT_ROLE_SERVER)
  84:Generated_Source\PSoC4/BLE_eventHandler.c **** #if defined CYBLE_CTS_SERVER || defined CYBLE_ESS_SERVER
  85:Generated_Source\PSoC4/BLE_eventHandler.c **** CYBLE_GATT_ERR_CODE_T cyBle_gattError;
  86:Generated_Source\PSoC4/BLE_eventHandler.c **** #endif /* defined CYBLE_CTS_SERVER || defined CYBLE_ESS_SERVER */
  87:Generated_Source\PSoC4/BLE_eventHandler.c **** #endif /* CYBLE_GATT_ROLE_SERVER */
  88:Generated_Source\PSoC4/BLE_eventHandler.c **** 
  89:Generated_Source\PSoC4/BLE_eventHandler.c **** #if(CYBLE_GATT_ROLE_CLIENT)
  90:Generated_Source\PSoC4/BLE_eventHandler.c **** uint8 cyBle_disCount; /* Counter for discovery procedures */
  91:Generated_Source\PSoC4/BLE_eventHandler.c **** 
  92:Generated_Source\PSoC4/BLE_eventHandler.c **** #ifdef CYBLE_CUSTOM_CLIENT
  93:Generated_Source\PSoC4/BLE_eventHandler.c **** /* Discovery included service information, used for 128-bit UUID read response handle 
  94:Generated_Source\PSoC4/BLE_eventHandler.c ****    and for continue discovery. 
  95:Generated_Source\PSoC4/BLE_eventHandler.c **** */
  96:Generated_Source\PSoC4/BLE_eventHandler.c **** static CYBLE_DISC_INCL_INFO_T cyBle_discInclInfo;
  97:Generated_Source\PSoC4/BLE_eventHandler.c **** #endif /* CYBLE_CUSTOM_CLIENT */
  98:Generated_Source\PSoC4/BLE_eventHandler.c **** 
  99:Generated_Source\PSoC4/BLE_eventHandler.c **** #ifdef CYBLE_HIDS_CLIENT
 100:Generated_Source\PSoC4/BLE_eventHandler.c ****     static uint8 disServiceIndex;      /* To discovery descriptors for multiple HID service instanc
 101:Generated_Source\PSoC4/BLE_eventHandler.c **** #endif /* CYBLE_HIDS_CLIENT */
 102:Generated_Source\PSoC4/BLE_eventHandler.c **** 
 103:Generated_Source\PSoC4/BLE_eventHandler.c **** CYBLE_DISC_SRVC_INFO_T cyBle_serverInfo[CYBLE_SRVI_COUNT] = /*3*/
 104:Generated_Source\PSoC4/BLE_eventHandler.c **** {
 105:Generated_Source\PSoC4/BLE_eventHandler.c ****     {{CYBLE_GATT_INVALID_ATTR_HANDLE_VALUE, CYBLE_GATT_INVALID_ATTR_HANDLE_VALUE}, CYBLE_UUID_GAP_S
 106:Generated_Source\PSoC4/BLE_eventHandler.c ****     {{CYBLE_GATT_INVALID_ATTR_HANDLE_VALUE, CYBLE_GATT_INVALID_ATTR_HANDLE_VALUE}, CYBLE_UUID_GATT_
 107:Generated_Source\PSoC4/BLE_eventHandler.c **** #ifdef CYBLE_AIOS_CLIENT
 108:Generated_Source\PSoC4/BLE_eventHandler.c ****     {{CYBLE_GATT_INVALID_ATTR_HANDLE_VALUE, CYBLE_GATT_INVALID_ATTR_HANDLE_VALUE}, CYBLE_UUID_AUTOM
 109:Generated_Source\PSoC4/BLE_eventHandler.c **** #endif /* CYBLE_BCS_CLIENT */
 110:Generated_Source\PSoC4/BLE_eventHandler.c **** #ifdef CYBLE_ANCS_CLIENT
 111:Generated_Source\PSoC4/BLE_eventHandler.c ****     {{CYBLE_GATT_INVALID_ATTR_HANDLE_VALUE, CYBLE_GATT_INVALID_ATTR_HANDLE_VALUE}, 0x0000u},
 112:Generated_Source\PSoC4/BLE_eventHandler.c **** #endif /* CYBLE_ANCS_CLIENT */
 113:Generated_Source\PSoC4/BLE_eventHandler.c **** #ifdef CYBLE_ANS_CLIENT
 114:Generated_Source\PSoC4/BLE_eventHandler.c ****     {{CYBLE_GATT_INVALID_ATTR_HANDLE_VALUE, CYBLE_GATT_INVALID_ATTR_HANDLE_VALUE}, 
 115:Generated_Source\PSoC4/BLE_eventHandler.c ****         CYBLE_UUID_ALERT_NOTIFICATION_SERVICE},
 116:Generated_Source\PSoC4/BLE_eventHandler.c **** #endif /* CYBLE_ANS_CLIENT */
 117:Generated_Source\PSoC4/BLE_eventHandler.c **** #ifdef CYBLE_BAS_CLIENT
 118:Generated_Source\PSoC4/BLE_eventHandler.c ****     {{CYBLE_GATT_INVALID_ATTR_HANDLE_VALUE, CYBLE_GATT_INVALID_ATTR_HANDLE_VALUE}, CYBLE_UUID_BAS_S
ARM GAS  C:\Users\TTSS\AppData\Local\Temp\ccySleeg.s 			page 4


 119:Generated_Source\PSoC4/BLE_eventHandler.c ****     #if(CYBLE_BASC_SERVICE_COUNT > 1u) /* Generate it by GUI */
 120:Generated_Source\PSoC4/BLE_eventHandler.c ****         
 121:Generated_Source\PSoC4/BLE_eventHandler.c ****     #endif /* CYBLE_BASC_SERVICE_COUNT > 1u */
 122:Generated_Source\PSoC4/BLE_eventHandler.c **** #endif /* CYBLE_BAS_CLIENT */
 123:Generated_Source\PSoC4/BLE_eventHandler.c **** #ifdef CYBLE_BCS_CLIENT
 124:Generated_Source\PSoC4/BLE_eventHandler.c ****     {{CYBLE_GATT_INVALID_ATTR_HANDLE_VALUE, CYBLE_GATT_INVALID_ATTR_HANDLE_VALUE}, CYBLE_UUID_BODY_
 125:Generated_Source\PSoC4/BLE_eventHandler.c **** #endif /* CYBLE_BCS_CLIENT */
 126:Generated_Source\PSoC4/BLE_eventHandler.c **** #ifdef CYBLE_BLS_CLIENT
 127:Generated_Source\PSoC4/BLE_eventHandler.c ****     {{CYBLE_GATT_INVALID_ATTR_HANDLE_VALUE, CYBLE_GATT_INVALID_ATTR_HANDLE_VALUE}, CYBLE_UUID_BLOOD
 128:Generated_Source\PSoC4/BLE_eventHandler.c **** #endif /* CYBLE_BLS_CLIENT */
 129:Generated_Source\PSoC4/BLE_eventHandler.c **** #ifdef CYBLE_BMS_CLIENT
 130:Generated_Source\PSoC4/BLE_eventHandler.c ****     {{CYBLE_GATT_INVALID_ATTR_HANDLE_VALUE, CYBLE_GATT_INVALID_ATTR_HANDLE_VALUE}, CYBLE_UUID_BOND_
 131:Generated_Source\PSoC4/BLE_eventHandler.c **** #endif /* CYBLE_BMS_CLIENT */
 132:Generated_Source\PSoC4/BLE_eventHandler.c **** #ifdef CYBLE_CGMS_CLIENT
 133:Generated_Source\PSoC4/BLE_eventHandler.c ****     {{CYBLE_GATT_INVALID_ATTR_HANDLE_VALUE, CYBLE_GATT_INVALID_ATTR_HANDLE_VALUE}, CYBLE_UUID_CGM_S
 134:Generated_Source\PSoC4/BLE_eventHandler.c **** #endif /* CYBLE_CGMS_CLIENT */
 135:Generated_Source\PSoC4/BLE_eventHandler.c **** #ifdef CYBLE_CPS_CLIENT
 136:Generated_Source\PSoC4/BLE_eventHandler.c ****     {{CYBLE_GATT_INVALID_ATTR_HANDLE_VALUE, CYBLE_GATT_INVALID_ATTR_HANDLE_VALUE}, CYBLE_UUID_CPS_S
 137:Generated_Source\PSoC4/BLE_eventHandler.c **** #endif /* CYBLE_CPS_CLIENT */
 138:Generated_Source\PSoC4/BLE_eventHandler.c **** #ifdef CYBLE_CSCS_CLIENT
 139:Generated_Source\PSoC4/BLE_eventHandler.c ****     {{CYBLE_GATT_INVALID_ATTR_HANDLE_VALUE, CYBLE_GATT_INVALID_ATTR_HANDLE_VALUE}, 
 140:Generated_Source\PSoC4/BLE_eventHandler.c ****         CYBLE_UUID_CYCLING_SPEED_AND_CADENCE_SERVICE},
 141:Generated_Source\PSoC4/BLE_eventHandler.c **** #endif /* CYBLE_CSCS_CLIENT */
 142:Generated_Source\PSoC4/BLE_eventHandler.c **** #ifdef CYBLE_CTS_CLIENT
 143:Generated_Source\PSoC4/BLE_eventHandler.c ****     {{CYBLE_GATT_INVALID_ATTR_HANDLE_VALUE, CYBLE_GATT_INVALID_ATTR_HANDLE_VALUE}, CYBLE_UUID_CURRE
 144:Generated_Source\PSoC4/BLE_eventHandler.c **** #endif /* CYBLE_CTS_CLIENT */
 145:Generated_Source\PSoC4/BLE_eventHandler.c **** #ifdef CYBLE_CUSTOM_CLIENT
 146:Generated_Source\PSoC4/BLE_eventHandler.c ****     
 147:Generated_Source\PSoC4/BLE_eventHandler.c **** #endif /* CYBLE_CUSTOM_CLIENT */
 148:Generated_Source\PSoC4/BLE_eventHandler.c **** #ifdef CYBLE_DIS_CLIENT
 149:Generated_Source\PSoC4/BLE_eventHandler.c ****     {{CYBLE_GATT_INVALID_ATTR_HANDLE_VALUE, CYBLE_GATT_INVALID_ATTR_HANDLE_VALUE}, CYBLE_UUID_DEVIC
 150:Generated_Source\PSoC4/BLE_eventHandler.c **** #endif /* CYBLE_DIS_CLIENT */
 151:Generated_Source\PSoC4/BLE_eventHandler.c **** #ifdef CYBLE_ESS_CLIENT
 152:Generated_Source\PSoC4/BLE_eventHandler.c ****     {{CYBLE_GATT_INVALID_ATTR_HANDLE_VALUE, CYBLE_GATT_INVALID_ATTR_HANDLE_VALUE}, 
 153:Generated_Source\PSoC4/BLE_eventHandler.c ****         CYBLE_UUID_ENVIRONMENTAL_SENSING_SERVICE},
 154:Generated_Source\PSoC4/BLE_eventHandler.c **** #endif /* CYBLE_ESS_CLIENT */
 155:Generated_Source\PSoC4/BLE_eventHandler.c **** #ifdef CYBLE_GLS_CLIENT
 156:Generated_Source\PSoC4/BLE_eventHandler.c ****     {{CYBLE_GATT_INVALID_ATTR_HANDLE_VALUE, CYBLE_GATT_INVALID_ATTR_HANDLE_VALUE}, CYBLE_UUID_GLUCO
 157:Generated_Source\PSoC4/BLE_eventHandler.c **** #endif /* CYBLE_GLS_CLIENT */
 158:Generated_Source\PSoC4/BLE_eventHandler.c **** #ifdef CYBLE_HIDS_CLIENT
 159:Generated_Source\PSoC4/BLE_eventHandler.c ****     {{CYBLE_GATT_INVALID_ATTR_HANDLE_VALUE, CYBLE_GATT_INVALID_ATTR_HANDLE_VALUE}, CYBLE_UUID_HIDS_
 160:Generated_Source\PSoC4/BLE_eventHandler.c ****     #if(CYBLE_HIDSC_SERVICE_COUNT > 1u) /* Generate it by GUI */
 161:Generated_Source\PSoC4/BLE_eventHandler.c ****         
 162:Generated_Source\PSoC4/BLE_eventHandler.c ****     #endif /* CYBLE_HIDSC_SERVICE_COUNT > 1u */
 163:Generated_Source\PSoC4/BLE_eventHandler.c **** #endif /* CYBLE_HIDS_CLIENT */
 164:Generated_Source\PSoC4/BLE_eventHandler.c **** #ifdef CYBLE_HPS_CLIENT
 165:Generated_Source\PSoC4/BLE_eventHandler.c ****     {{CYBLE_GATT_INVALID_ATTR_HANDLE_VALUE, CYBLE_GATT_INVALID_ATTR_HANDLE_VALUE}, CYBLE_UUID_HTTP_
 166:Generated_Source\PSoC4/BLE_eventHandler.c **** #endif /* CYBLE_HPS_CLIENT */
 167:Generated_Source\PSoC4/BLE_eventHandler.c **** #ifdef CYBLE_HRS_CLIENT
 168:Generated_Source\PSoC4/BLE_eventHandler.c ****     {{CYBLE_GATT_INVALID_ATTR_HANDLE_VALUE, CYBLE_GATT_INVALID_ATTR_HANDLE_VALUE}, CYBLE_UUID_HEART
 169:Generated_Source\PSoC4/BLE_eventHandler.c **** #endif /* CYBLE_HRS_CLIENT */
 170:Generated_Source\PSoC4/BLE_eventHandler.c **** #ifdef CYBLE_HTS_CLIENT
 171:Generated_Source\PSoC4/BLE_eventHandler.c ****     {{CYBLE_GATT_INVALID_ATTR_HANDLE_VALUE, CYBLE_GATT_INVALID_ATTR_HANDLE_VALUE}, CYBLE_UUID_HEALT
 172:Generated_Source\PSoC4/BLE_eventHandler.c **** #endif /* CYBLE_HTS_CLIENT */
 173:Generated_Source\PSoC4/BLE_eventHandler.c **** #ifdef CYBLE_IAS_CLIENT
 174:Generated_Source\PSoC4/BLE_eventHandler.c ****     {{CYBLE_GATT_INVALID_ATTR_HANDLE_VALUE, CYBLE_GATT_INVALID_ATTR_HANDLE_VALUE}, CYBLE_UUID_IMMED
 175:Generated_Source\PSoC4/BLE_eventHandler.c **** #endif /* CYBLE_IAS_CLIENT */
ARM GAS  C:\Users\TTSS\AppData\Local\Temp\ccySleeg.s 			page 5


 176:Generated_Source\PSoC4/BLE_eventHandler.c **** #ifdef CYBLE_IPS_CLIENT
 177:Generated_Source\PSoC4/BLE_eventHandler.c ****     {{CYBLE_GATT_INVALID_ATTR_HANDLE_VALUE, CYBLE_GATT_INVALID_ATTR_HANDLE_VALUE}, CYBLE_UUID_IPS_S
 178:Generated_Source\PSoC4/BLE_eventHandler.c **** #endif /* CYBLE_IPS_CLIENT */
 179:Generated_Source\PSoC4/BLE_eventHandler.c **** #ifdef CYBLE_LLS_CLIENT
 180:Generated_Source\PSoC4/BLE_eventHandler.c ****     {{CYBLE_GATT_INVALID_ATTR_HANDLE_VALUE, CYBLE_GATT_INVALID_ATTR_HANDLE_VALUE}, CYBLE_UUID_LINK_
 181:Generated_Source\PSoC4/BLE_eventHandler.c **** #endif /* CYBLE_LLS_CLIENT */
 182:Generated_Source\PSoC4/BLE_eventHandler.c **** #ifdef CYBLE_LNS_CLIENT
 183:Generated_Source\PSoC4/BLE_eventHandler.c ****     {{CYBLE_GATT_INVALID_ATTR_HANDLE_VALUE, CYBLE_GATT_INVALID_ATTR_HANDLE_VALUE}, CYBLE_UUID_LOCAT
 184:Generated_Source\PSoC4/BLE_eventHandler.c **** #endif /* CYBLE_LNS_CLIENT */
 185:Generated_Source\PSoC4/BLE_eventHandler.c **** #ifdef CYBLE_NDCS_CLIENT
 186:Generated_Source\PSoC4/BLE_eventHandler.c ****     {{CYBLE_GATT_INVALID_ATTR_HANDLE_VALUE, CYBLE_GATT_INVALID_ATTR_HANDLE_VALUE}, CYBLE_UUID_NEXT_
 187:Generated_Source\PSoC4/BLE_eventHandler.c **** #endif /* CYBLE_NDCS_CLIENT */
 188:Generated_Source\PSoC4/BLE_eventHandler.c **** #ifdef CYBLE_IPSS_CLIENT
 189:Generated_Source\PSoC4/BLE_eventHandler.c ****     {{CYBLE_GATT_INVALID_ATTR_HANDLE_VALUE, CYBLE_GATT_INVALID_ATTR_HANDLE_VALUE}, CYBLE_UUID_INTER
 190:Generated_Source\PSoC4/BLE_eventHandler.c **** #endif /* CYBLE_IPSS_CLIENT */
 191:Generated_Source\PSoC4/BLE_eventHandler.c **** #ifdef CYBLE_PASS_CLIENT
 192:Generated_Source\PSoC4/BLE_eventHandler.c ****     {{CYBLE_GATT_INVALID_ATTR_HANDLE_VALUE, CYBLE_GATT_INVALID_ATTR_HANDLE_VALUE}, CYBLE_UUID_PHONE
 193:Generated_Source\PSoC4/BLE_eventHandler.c **** #endif /* CYBLE_PASS_CLIENT */
 194:Generated_Source\PSoC4/BLE_eventHandler.c **** #ifdef CYBLE_PLXS_CLIENT
 195:Generated_Source\PSoC4/BLE_eventHandler.c ****     {{CYBLE_GATT_INVALID_ATTR_HANDLE_VALUE, CYBLE_GATT_INVALID_ATTR_HANDLE_VALUE}, CYBLE_UUID_PLX_S
 196:Generated_Source\PSoC4/BLE_eventHandler.c **** #endif /* CYBLE_PLXS_CLIENT */
 197:Generated_Source\PSoC4/BLE_eventHandler.c **** #ifdef CYBLE_RSCS_CLIENT
 198:Generated_Source\PSoC4/BLE_eventHandler.c ****     {{CYBLE_GATT_INVALID_ATTR_HANDLE_VALUE, CYBLE_GATT_INVALID_ATTR_HANDLE_VALUE}, CYBLE_UUID_RUNNI
 199:Generated_Source\PSoC4/BLE_eventHandler.c **** #endif /* CYBLE_RSCS_CLIENT */
 200:Generated_Source\PSoC4/BLE_eventHandler.c **** #ifdef CYBLE_RTUS_CLIENT
 201:Generated_Source\PSoC4/BLE_eventHandler.c ****     {{CYBLE_GATT_INVALID_ATTR_HANDLE_VALUE, CYBLE_GATT_INVALID_ATTR_HANDLE_VALUE}, CYBLE_UUID_REF_T
 202:Generated_Source\PSoC4/BLE_eventHandler.c **** #endif /* CYBLE_RTUS_CLIENT */
 203:Generated_Source\PSoC4/BLE_eventHandler.c **** #ifdef CYBLE_SCPS_CLIENT
 204:Generated_Source\PSoC4/BLE_eventHandler.c ****     {{CYBLE_GATT_INVALID_ATTR_HANDLE_VALUE, CYBLE_GATT_INVALID_ATTR_HANDLE_VALUE}, CYBLE_UUID_SCAN_
 205:Generated_Source\PSoC4/BLE_eventHandler.c **** #endif /* CYBLE_SCPS_CLIENT */
 206:Generated_Source\PSoC4/BLE_eventHandler.c **** #ifdef CYBLE_TPS_CLIENT
 207:Generated_Source\PSoC4/BLE_eventHandler.c ****     {{CYBLE_GATT_INVALID_ATTR_HANDLE_VALUE, CYBLE_GATT_INVALID_ATTR_HANDLE_VALUE}, CYBLE_UUID_TX_PO
 208:Generated_Source\PSoC4/BLE_eventHandler.c **** #endif /* CYBLE_TPS_CLIENT */
 209:Generated_Source\PSoC4/BLE_eventHandler.c **** #ifdef CYBLE_UDS_CLIENT
 210:Generated_Source\PSoC4/BLE_eventHandler.c ****     {{CYBLE_GATT_INVALID_ATTR_HANDLE_VALUE, CYBLE_GATT_INVALID_ATTR_HANDLE_VALUE}, CYBLE_UUID_USER_
 211:Generated_Source\PSoC4/BLE_eventHandler.c **** #endif /* CYBLE_UDS_CLIENT */
 212:Generated_Source\PSoC4/BLE_eventHandler.c **** #ifdef CYBLE_WSS_CLIENT
 213:Generated_Source\PSoC4/BLE_eventHandler.c ****     {{CYBLE_GATT_INVALID_ATTR_HANDLE_VALUE, CYBLE_GATT_INVALID_ATTR_HANDLE_VALUE}, CYBLE_UUID_WEIGH
 214:Generated_Source\PSoC4/BLE_eventHandler.c **** #endif /* CYBLE_WSS_CLIENT */
 215:Generated_Source\PSoC4/BLE_eventHandler.c **** #ifdef CYBLE_WPTS_CLIENT
 216:Generated_Source\PSoC4/BLE_eventHandler.c ****     {{CYBLE_GATT_INVALID_ATTR_HANDLE_VALUE, CYBLE_GATT_INVALID_ATTR_HANDLE_VALUE}, CYBLE_UUID_WIREL
 217:Generated_Source\PSoC4/BLE_eventHandler.c **** #endif /* CYBLE_WPTS_CLIENT */
 218:Generated_Source\PSoC4/BLE_eventHandler.c **** };
 219:Generated_Source\PSoC4/BLE_eventHandler.c **** 
 220:Generated_Source\PSoC4/BLE_eventHandler.c **** CYBLE_GAPC_T cyBle_gapc;
 221:Generated_Source\PSoC4/BLE_eventHandler.c **** 
 222:Generated_Source\PSoC4/BLE_eventHandler.c **** #endif /* CYBLE_GATT_ROLE_CLIENT */
 223:Generated_Source\PSoC4/BLE_eventHandler.c **** 
 224:Generated_Source\PSoC4/BLE_eventHandler.c **** /* Default device security */
 225:Generated_Source\PSoC4/BLE_eventHandler.c **** CYBLE_GAP_AUTH_INFO_T cyBle_authInfo =
 226:Generated_Source\PSoC4/BLE_eventHandler.c **** {
 227:Generated_Source\PSoC4/BLE_eventHandler.c ****     (CYBLE_GAP_SEC_MODE_1 | CYBLE_GAP_SEC_LEVEL_1 ), /* uint8 security */
 228:Generated_Source\PSoC4/BLE_eventHandler.c ****     CYBLE_GAP_BONDING, /* uint8 bonding */
 229:Generated_Source\PSoC4/BLE_eventHandler.c ****     0x10u,      /* uint8 ekeySize */
 230:Generated_Source\PSoC4/BLE_eventHandler.c ****     CYBLE_GAP_AUTH_ERROR_NONE, /* CYBLE_AUTH_FAILED_REASON_T authErr */
 231:Generated_Source\PSoC4/BLE_eventHandler.c ****     0x01u,      /* uint8 pairingProperties */
 232:Generated_Source\PSoC4/BLE_eventHandler.c **** };
ARM GAS  C:\Users\TTSS\AppData\Local\Temp\ccySleeg.s 			page 6


 233:Generated_Source\PSoC4/BLE_eventHandler.c **** 
 234:Generated_Source\PSoC4/BLE_eventHandler.c **** #if(CYBLE_GATT_ROLE_SERVER)
 235:Generated_Source\PSoC4/BLE_eventHandler.c **** 
 236:Generated_Source\PSoC4/BLE_eventHandler.c **** 
 237:Generated_Source\PSoC4/BLE_eventHandler.c **** /******************************************************************************    
 238:Generated_Source\PSoC4/BLE_eventHandler.c **** * Function Name: CyBle_WriteReqHandler
 239:Generated_Source\PSoC4/BLE_eventHandler.c **** ***************************************************************************//**
 240:Generated_Source\PSoC4/BLE_eventHandler.c **** * 
 241:Generated_Source\PSoC4/BLE_eventHandler.c **** *  Handles the Write Request event from BLE stack.
 242:Generated_Source\PSoC4/BLE_eventHandler.c **** * 
 243:Generated_Source\PSoC4/BLE_eventHandler.c **** *  CYBLE_GATTS_WRITE_REQ_PARAM_T * eventParam - event parameter
 244:Generated_Source\PSoC4/BLE_eventHandler.c **** * 
 245:Generated_Source\PSoC4/BLE_eventHandler.c **** * \return
 246:Generated_Source\PSoC4/BLE_eventHandler.c **** *  None
 247:Generated_Source\PSoC4/BLE_eventHandler.c **** * 
 248:Generated_Source\PSoC4/BLE_eventHandler.c **** ******************************************************************************/
 249:Generated_Source\PSoC4/BLE_eventHandler.c **** static void CyBle_WriteReqHandler(CYBLE_GATTS_WRITE_REQ_PARAM_T *eventParam)
 250:Generated_Source\PSoC4/BLE_eventHandler.c **** {
  54              		.loc 1 250 0
  55              		.cfi_startproc
  56              		@ args = 0, pretend = 0, frame = 16
  57              		@ frame_needed = 1, uses_anonymous_args = 0
  58 0000 90B5     		push	{r4, r7, lr}
  59              		.cfi_def_cfa_offset 12
  60              		.cfi_offset 4, -12
  61              		.cfi_offset 7, -8
  62              		.cfi_offset 14, -4
  63 0002 85B0     		sub	sp, sp, #20
  64              		.cfi_def_cfa_offset 32
  65 0004 00AF     		add	r7, sp, #0
  66              		.cfi_def_cfa_register 7
  67 0006 7860     		str	r0, [r7, #4]
 251:Generated_Source\PSoC4/BLE_eventHandler.c ****     CYBLE_GATT_ERR_CODE_T gattErr;
 252:Generated_Source\PSoC4/BLE_eventHandler.c **** #if defined CYBLE_CTS_SERVER || defined CYBLE_ESS_SERVER
 253:Generated_Source\PSoC4/BLE_eventHandler.c ****     cyBle_gattError = CYBLE_GATT_ERR_NONE;
 254:Generated_Source\PSoC4/BLE_eventHandler.c **** #endif /* defined CYBLE_CTS_SERVER || defined CYBLE_ESS_SERVER */
 255:Generated_Source\PSoC4/BLE_eventHandler.c ****     
 256:Generated_Source\PSoC4/BLE_eventHandler.c ****     gattErr = CyBle_GattsWriteEventHandler(eventParam);
  68              		.loc 1 256 0
  69 0008 0F23     		movs	r3, #15
  70 000a FC18     		adds	r4, r7, r3
  71 000c 7B68     		ldr	r3, [r7, #4]
  72 000e 1800     		movs	r0, r3
  73 0010 FFF7FEFF 		bl	CyBle_GattsWriteEventHandler
  74 0014 0300     		movs	r3, r0
  75 0016 2370     		strb	r3, [r4]
 257:Generated_Source\PSoC4/BLE_eventHandler.c **** #ifdef CYBLE_AIOS_SERVER
 258:Generated_Source\PSoC4/BLE_eventHandler.c ****     if(((cyBle_eventHandlerFlag & CYBLE_CALLBACK) != 0u) && (gattErr == CYBLE_GATT_ERR_NONE))
 259:Generated_Source\PSoC4/BLE_eventHandler.c ****     {
 260:Generated_Source\PSoC4/BLE_eventHandler.c ****         gattErr = CyBle_AiossWriteEventHandler(eventParam);
 261:Generated_Source\PSoC4/BLE_eventHandler.c ****     }
 262:Generated_Source\PSoC4/BLE_eventHandler.c **** #endif /* CYBLE_AIOS_SERVER */
 263:Generated_Source\PSoC4/BLE_eventHandler.c **** #ifdef CYBLE_ANCS_SERVER
 264:Generated_Source\PSoC4/BLE_eventHandler.c ****     if(((cyBle_eventHandlerFlag & CYBLE_CALLBACK) != 0u) && (gattErr == CYBLE_GATT_ERR_NONE))
 265:Generated_Source\PSoC4/BLE_eventHandler.c ****     {
 266:Generated_Source\PSoC4/BLE_eventHandler.c ****         gattErr = CyBle_AncssWriteEventHandler(eventParam);
 267:Generated_Source\PSoC4/BLE_eventHandler.c ****     }
ARM GAS  C:\Users\TTSS\AppData\Local\Temp\ccySleeg.s 			page 7


 268:Generated_Source\PSoC4/BLE_eventHandler.c **** #endif /* CYBLE_ANCS_SERVER */
 269:Generated_Source\PSoC4/BLE_eventHandler.c **** #ifdef CYBLE_ANS_SERVER
 270:Generated_Source\PSoC4/BLE_eventHandler.c ****     if(((cyBle_eventHandlerFlag & CYBLE_CALLBACK) != 0u) && (gattErr == CYBLE_GATT_ERR_NONE))
 271:Generated_Source\PSoC4/BLE_eventHandler.c ****     {
 272:Generated_Source\PSoC4/BLE_eventHandler.c ****         gattErr = CyBle_AnssWriteEventHandler(eventParam);
 273:Generated_Source\PSoC4/BLE_eventHandler.c ****     }
 274:Generated_Source\PSoC4/BLE_eventHandler.c **** #endif /* CYBLE_ANS_SERVER */
 275:Generated_Source\PSoC4/BLE_eventHandler.c **** #ifdef CYBLE_BAS_SERVER
 276:Generated_Source\PSoC4/BLE_eventHandler.c ****     if(((cyBle_eventHandlerFlag & CYBLE_CALLBACK) != 0u) && (gattErr == CYBLE_GATT_ERR_NONE))
 277:Generated_Source\PSoC4/BLE_eventHandler.c ****     {
 278:Generated_Source\PSoC4/BLE_eventHandler.c ****         gattErr = CyBle_BassWriteEventHandler(eventParam);
 279:Generated_Source\PSoC4/BLE_eventHandler.c ****     }
 280:Generated_Source\PSoC4/BLE_eventHandler.c **** #endif /* CYBLE_BAS_SERVER */
 281:Generated_Source\PSoC4/BLE_eventHandler.c **** #ifdef CYBLE_BCS_SERVER
 282:Generated_Source\PSoC4/BLE_eventHandler.c ****     if(((cyBle_eventHandlerFlag & CYBLE_CALLBACK) != 0u) && (gattErr == CYBLE_GATT_ERR_NONE))
 283:Generated_Source\PSoC4/BLE_eventHandler.c ****     {
 284:Generated_Source\PSoC4/BLE_eventHandler.c ****         gattErr = CyBle_BcssWriteEventHandler(eventParam);
 285:Generated_Source\PSoC4/BLE_eventHandler.c ****     }
 286:Generated_Source\PSoC4/BLE_eventHandler.c **** #endif /* CYBLE_BCS_SERVER */
 287:Generated_Source\PSoC4/BLE_eventHandler.c **** #ifdef CYBLE_BLS_SERVER
 288:Generated_Source\PSoC4/BLE_eventHandler.c ****     if(((cyBle_eventHandlerFlag & CYBLE_CALLBACK) != 0u) && (gattErr == CYBLE_GATT_ERR_NONE))
 289:Generated_Source\PSoC4/BLE_eventHandler.c ****     {
 290:Generated_Source\PSoC4/BLE_eventHandler.c ****         gattErr = CyBle_BlssWriteEventHandler(eventParam);
 291:Generated_Source\PSoC4/BLE_eventHandler.c ****     }
 292:Generated_Source\PSoC4/BLE_eventHandler.c **** #endif /* CYBLE_BLS_SERVER */
 293:Generated_Source\PSoC4/BLE_eventHandler.c **** #ifdef CYBLE_BMS_SERVER
 294:Generated_Source\PSoC4/BLE_eventHandler.c ****     if(((cyBle_eventHandlerFlag & CYBLE_CALLBACK) != 0u) && (gattErr == CYBLE_GATT_ERR_NONE))
 295:Generated_Source\PSoC4/BLE_eventHandler.c ****     {
 296:Generated_Source\PSoC4/BLE_eventHandler.c ****         gattErr = CyBle_BmssWriteEventHandler(eventParam);
 297:Generated_Source\PSoC4/BLE_eventHandler.c ****     }
 298:Generated_Source\PSoC4/BLE_eventHandler.c **** #endif /* CYBLE_BMS_SERVER */
 299:Generated_Source\PSoC4/BLE_eventHandler.c **** #ifdef CYBLE_BTS_SERVER
 300:Generated_Source\PSoC4/BLE_eventHandler.c ****     if((cyBle_eventHandlerFlag & CYBLE_CALLBACK) != 0u)
 301:Generated_Source\PSoC4/BLE_eventHandler.c ****     {
 302:Generated_Source\PSoC4/BLE_eventHandler.c ****         gattErr = CyBle_BtsWriteEventHandler(eventParam);
 303:Generated_Source\PSoC4/BLE_eventHandler.c ****     }
 304:Generated_Source\PSoC4/BLE_eventHandler.c **** #endif /* CYBLE_BTS_SERVER */
 305:Generated_Source\PSoC4/BLE_eventHandler.c **** #ifdef CYBLE_CGMS_SERVER
 306:Generated_Source\PSoC4/BLE_eventHandler.c ****     if(((cyBle_eventHandlerFlag & CYBLE_CALLBACK) != 0u) && (gattErr == CYBLE_GATT_ERR_NONE))
 307:Generated_Source\PSoC4/BLE_eventHandler.c ****     {
 308:Generated_Source\PSoC4/BLE_eventHandler.c ****         gattErr = CyBle_CgmssWriteEventHandler(eventParam);
 309:Generated_Source\PSoC4/BLE_eventHandler.c ****     }
 310:Generated_Source\PSoC4/BLE_eventHandler.c **** #endif /* CYBLE_CGMS_SERVER */
 311:Generated_Source\PSoC4/BLE_eventHandler.c **** #ifdef CYBLE_CPS_SERVER
 312:Generated_Source\PSoC4/BLE_eventHandler.c ****     if(((cyBle_eventHandlerFlag & CYBLE_CALLBACK) != 0u) && (gattErr == CYBLE_GATT_ERR_NONE))
 313:Generated_Source\PSoC4/BLE_eventHandler.c ****     {
 314:Generated_Source\PSoC4/BLE_eventHandler.c ****         gattErr = CyBle_CpssWriteEventHandler(eventParam);
 315:Generated_Source\PSoC4/BLE_eventHandler.c ****     }
 316:Generated_Source\PSoC4/BLE_eventHandler.c **** #endif /* CYBLE_CPS_SERVER */
 317:Generated_Source\PSoC4/BLE_eventHandler.c **** #ifdef CYBLE_CSCS_SERVER
 318:Generated_Source\PSoC4/BLE_eventHandler.c ****     if(((cyBle_eventHandlerFlag & CYBLE_CALLBACK) != 0u) && (gattErr == CYBLE_GATT_ERR_NONE))
 319:Generated_Source\PSoC4/BLE_eventHandler.c ****     {
 320:Generated_Source\PSoC4/BLE_eventHandler.c ****         gattErr = CyBle_CscssWriteEventHandler(eventParam);
 321:Generated_Source\PSoC4/BLE_eventHandler.c ****     }
 322:Generated_Source\PSoC4/BLE_eventHandler.c **** #endif /* CYBLE_CSCS_SERVER */
 323:Generated_Source\PSoC4/BLE_eventHandler.c **** #ifdef CYBLE_CTS_SERVER
 324:Generated_Source\PSoC4/BLE_eventHandler.c ****     if(((cyBle_eventHandlerFlag & CYBLE_CALLBACK) != 0u) && (gattErr == CYBLE_GATT_ERR_NONE))
ARM GAS  C:\Users\TTSS\AppData\Local\Temp\ccySleeg.s 			page 8


 325:Generated_Source\PSoC4/BLE_eventHandler.c ****     {
 326:Generated_Source\PSoC4/BLE_eventHandler.c ****         gattErr = CyBle_CtssWriteEventHandler(eventParam);
 327:Generated_Source\PSoC4/BLE_eventHandler.c ****     }
 328:Generated_Source\PSoC4/BLE_eventHandler.c **** #endif /* CYBLE_CTS_SERVER */
 329:Generated_Source\PSoC4/BLE_eventHandler.c **** #ifdef CYBLE_ESS_SERVER
 330:Generated_Source\PSoC4/BLE_eventHandler.c ****     if(((cyBle_eventHandlerFlag & CYBLE_CALLBACK) != 0u) && (gattErr == CYBLE_GATT_ERR_NONE))
 331:Generated_Source\PSoC4/BLE_eventHandler.c ****     {
 332:Generated_Source\PSoC4/BLE_eventHandler.c ****         gattErr = CyBle_EsssWriteEventHandler(eventParam);
 333:Generated_Source\PSoC4/BLE_eventHandler.c ****     }
 334:Generated_Source\PSoC4/BLE_eventHandler.c **** #endif /* CYBLE_ESS_SERVER */
 335:Generated_Source\PSoC4/BLE_eventHandler.c **** #ifdef CYBLE_GLS_SERVER
 336:Generated_Source\PSoC4/BLE_eventHandler.c ****     if(((cyBle_eventHandlerFlag & CYBLE_CALLBACK) != 0u) && (gattErr == CYBLE_GATT_ERR_NONE))
 337:Generated_Source\PSoC4/BLE_eventHandler.c ****     {
 338:Generated_Source\PSoC4/BLE_eventHandler.c ****         gattErr = CyBle_GlssWriteEventHandler(eventParam);
 339:Generated_Source\PSoC4/BLE_eventHandler.c ****     }
 340:Generated_Source\PSoC4/BLE_eventHandler.c **** #endif /* CYBLE_GLS_SERVER */
 341:Generated_Source\PSoC4/BLE_eventHandler.c **** #ifdef CYBLE_HIDS_SERVER
 342:Generated_Source\PSoC4/BLE_eventHandler.c ****     if(((cyBle_eventHandlerFlag & CYBLE_CALLBACK) != 0u) && (gattErr == CYBLE_GATT_ERR_NONE))
 343:Generated_Source\PSoC4/BLE_eventHandler.c ****     {
 344:Generated_Source\PSoC4/BLE_eventHandler.c ****         gattErr = CyBle_HidssWriteEventHandler(eventParam);
 345:Generated_Source\PSoC4/BLE_eventHandler.c ****     }
 346:Generated_Source\PSoC4/BLE_eventHandler.c **** #endif /* CYBLE_HIDS_SERVER */
 347:Generated_Source\PSoC4/BLE_eventHandler.c **** #ifdef CYBLE_HPS_SERVER
 348:Generated_Source\PSoC4/BLE_eventHandler.c ****     if(((cyBle_eventHandlerFlag & CYBLE_CALLBACK) != 0u) && (gattErr == CYBLE_GATT_ERR_NONE))
 349:Generated_Source\PSoC4/BLE_eventHandler.c ****     {
 350:Generated_Source\PSoC4/BLE_eventHandler.c ****         gattErr = CyBle_HpssWriteEventHandler(eventParam);
 351:Generated_Source\PSoC4/BLE_eventHandler.c ****     }
 352:Generated_Source\PSoC4/BLE_eventHandler.c **** #endif /* CYBLE_HPS_SERVER */
 353:Generated_Source\PSoC4/BLE_eventHandler.c **** #ifdef CYBLE_HRS_SERVER
 354:Generated_Source\PSoC4/BLE_eventHandler.c ****     if(((cyBle_eventHandlerFlag & CYBLE_CALLBACK) != 0u) && (gattErr == CYBLE_GATT_ERR_NONE))
 355:Generated_Source\PSoC4/BLE_eventHandler.c ****     {
 356:Generated_Source\PSoC4/BLE_eventHandler.c ****         gattErr = CyBle_HrssWriteEventHandler(eventParam);
 357:Generated_Source\PSoC4/BLE_eventHandler.c ****     }
 358:Generated_Source\PSoC4/BLE_eventHandler.c **** #endif /* CYBLE_HRS_SERVER */
 359:Generated_Source\PSoC4/BLE_eventHandler.c **** #ifdef CYBLE_HTS_SERVER
 360:Generated_Source\PSoC4/BLE_eventHandler.c ****     if(((cyBle_eventHandlerFlag & CYBLE_CALLBACK) != 0u) && (gattErr == CYBLE_GATT_ERR_NONE))
 361:Generated_Source\PSoC4/BLE_eventHandler.c ****     {
 362:Generated_Source\PSoC4/BLE_eventHandler.c ****         gattErr = CyBle_HtssWriteEventHandler(eventParam);
 363:Generated_Source\PSoC4/BLE_eventHandler.c ****     }
 364:Generated_Source\PSoC4/BLE_eventHandler.c **** #endif /* CYBLE_HTS_SERVER */
 365:Generated_Source\PSoC4/BLE_eventHandler.c **** #ifdef CYBLE_IPS_SERVER
 366:Generated_Source\PSoC4/BLE_eventHandler.c ****     if(((cyBle_eventHandlerFlag & CYBLE_CALLBACK) != 0u) && (gattErr == CYBLE_GATT_ERR_NONE))
 367:Generated_Source\PSoC4/BLE_eventHandler.c ****     {
 368:Generated_Source\PSoC4/BLE_eventHandler.c ****         gattErr = CyBle_IpssWriteEventHandler(eventParam);
 369:Generated_Source\PSoC4/BLE_eventHandler.c ****     }
 370:Generated_Source\PSoC4/BLE_eventHandler.c **** #endif /* CYBLE_IPS_SERVER */
 371:Generated_Source\PSoC4/BLE_eventHandler.c **** #ifdef CYBLE_LLS_SERVER
 372:Generated_Source\PSoC4/BLE_eventHandler.c ****     if(((cyBle_eventHandlerFlag & CYBLE_CALLBACK) != 0u) && (gattErr == CYBLE_GATT_ERR_NONE))
 373:Generated_Source\PSoC4/BLE_eventHandler.c ****     {
 374:Generated_Source\PSoC4/BLE_eventHandler.c ****         gattErr = CyBle_LlssWriteEventHandler(eventParam);
 375:Generated_Source\PSoC4/BLE_eventHandler.c ****     }
 376:Generated_Source\PSoC4/BLE_eventHandler.c **** #endif /* CYBLE_LLS_SERVER */
 377:Generated_Source\PSoC4/BLE_eventHandler.c **** #ifdef CYBLE_LNS_SERVER
 378:Generated_Source\PSoC4/BLE_eventHandler.c ****     if(((cyBle_eventHandlerFlag & CYBLE_CALLBACK) != 0u) && (gattErr == CYBLE_GATT_ERR_NONE))
 379:Generated_Source\PSoC4/BLE_eventHandler.c ****     {
 380:Generated_Source\PSoC4/BLE_eventHandler.c ****         gattErr = CyBle_LnssWriteEventHandler(eventParam);
 381:Generated_Source\PSoC4/BLE_eventHandler.c ****     }
ARM GAS  C:\Users\TTSS\AppData\Local\Temp\ccySleeg.s 			page 9


 382:Generated_Source\PSoC4/BLE_eventHandler.c **** #endif /* CYBLE_LNS_SERVER */
 383:Generated_Source\PSoC4/BLE_eventHandler.c **** #ifdef CYBLE_PASS_SERVER
 384:Generated_Source\PSoC4/BLE_eventHandler.c ****     if(((cyBle_eventHandlerFlag & CYBLE_CALLBACK) != 0u) && (gattErr == CYBLE_GATT_ERR_NONE))
 385:Generated_Source\PSoC4/BLE_eventHandler.c ****     {
 386:Generated_Source\PSoC4/BLE_eventHandler.c ****         gattErr = CyBle_PasssWriteEventHandler(eventParam);
 387:Generated_Source\PSoC4/BLE_eventHandler.c ****     }
 388:Generated_Source\PSoC4/BLE_eventHandler.c **** #endif /* CYBLE_PASS_SERVER */
 389:Generated_Source\PSoC4/BLE_eventHandler.c **** #ifdef CYBLE_PLXS_SERVER
 390:Generated_Source\PSoC4/BLE_eventHandler.c ****     if(((cyBle_eventHandlerFlag & CYBLE_CALLBACK) != 0u) && (gattErr == CYBLE_GATT_ERR_NONE))
 391:Generated_Source\PSoC4/BLE_eventHandler.c ****     {
 392:Generated_Source\PSoC4/BLE_eventHandler.c ****         gattErr = CyBle_PlxssWriteEventHandler(eventParam);
 393:Generated_Source\PSoC4/BLE_eventHandler.c ****     }
 394:Generated_Source\PSoC4/BLE_eventHandler.c **** #endif /* CYBLE_PLXS_SERVER */    
 395:Generated_Source\PSoC4/BLE_eventHandler.c **** #ifdef CYBLE_RSCS_SERVER
 396:Generated_Source\PSoC4/BLE_eventHandler.c ****     if(((cyBle_eventHandlerFlag & CYBLE_CALLBACK) != 0u) && (gattErr == CYBLE_GATT_ERR_NONE))
 397:Generated_Source\PSoC4/BLE_eventHandler.c ****     {
 398:Generated_Source\PSoC4/BLE_eventHandler.c ****         gattErr = CyBle_RscssWriteEventHandler(eventParam);
 399:Generated_Source\PSoC4/BLE_eventHandler.c ****     }
 400:Generated_Source\PSoC4/BLE_eventHandler.c **** #endif /* CYBLE_RSCS_SERVER */
 401:Generated_Source\PSoC4/BLE_eventHandler.c **** #ifdef CYBLE_SCPS_SERVER
 402:Generated_Source\PSoC4/BLE_eventHandler.c ****     if(((cyBle_eventHandlerFlag & CYBLE_CALLBACK) != 0u) && (gattErr == CYBLE_GATT_ERR_NONE))
 403:Generated_Source\PSoC4/BLE_eventHandler.c ****     {
 404:Generated_Source\PSoC4/BLE_eventHandler.c ****         gattErr = CyBle_ScpssWriteEventHandler(eventParam);
 405:Generated_Source\PSoC4/BLE_eventHandler.c ****     }
 406:Generated_Source\PSoC4/BLE_eventHandler.c **** #endif /* CYBLE_SCPS_SERVER */
 407:Generated_Source\PSoC4/BLE_eventHandler.c **** #ifdef CYBLE_TPS_SERVER
 408:Generated_Source\PSoC4/BLE_eventHandler.c ****     if(((cyBle_eventHandlerFlag & CYBLE_CALLBACK) != 0u) && (gattErr == CYBLE_GATT_ERR_NONE))
 409:Generated_Source\PSoC4/BLE_eventHandler.c ****     {
 410:Generated_Source\PSoC4/BLE_eventHandler.c ****         gattErr = CyBle_TpssWriteEventHandler(eventParam);
 411:Generated_Source\PSoC4/BLE_eventHandler.c ****     }
 412:Generated_Source\PSoC4/BLE_eventHandler.c **** #endif /* CYBLE_TPS_SERVER */
 413:Generated_Source\PSoC4/BLE_eventHandler.c **** #ifdef CYBLE_UDS_SERVER
 414:Generated_Source\PSoC4/BLE_eventHandler.c ****     if(((cyBle_eventHandlerFlag & CYBLE_CALLBACK) != 0u) && (gattErr == CYBLE_GATT_ERR_NONE))
 415:Generated_Source\PSoC4/BLE_eventHandler.c ****     {
 416:Generated_Source\PSoC4/BLE_eventHandler.c ****         gattErr = CyBle_UdssWriteEventHandler(eventParam);
 417:Generated_Source\PSoC4/BLE_eventHandler.c ****     }
 418:Generated_Source\PSoC4/BLE_eventHandler.c **** #endif /* CYBLE_UDS_SERVER */
 419:Generated_Source\PSoC4/BLE_eventHandler.c **** #ifdef CYBLE_WPTS_SERVER
 420:Generated_Source\PSoC4/BLE_eventHandler.c ****     if(((cyBle_eventHandlerFlag & CYBLE_CALLBACK) != 0u) && (gattErr == CYBLE_GATT_ERR_NONE))
 421:Generated_Source\PSoC4/BLE_eventHandler.c ****     {
 422:Generated_Source\PSoC4/BLE_eventHandler.c ****         gattErr = CyBle_WptssWriteEventHandler(eventParam);
 423:Generated_Source\PSoC4/BLE_eventHandler.c ****     }
 424:Generated_Source\PSoC4/BLE_eventHandler.c **** #endif /* CYBLE_WPTS_SERVER */
 425:Generated_Source\PSoC4/BLE_eventHandler.c **** #ifdef CYBLE_WSS_SERVER
 426:Generated_Source\PSoC4/BLE_eventHandler.c ****     if(((cyBle_eventHandlerFlag & CYBLE_CALLBACK) != 0u) && (gattErr == CYBLE_GATT_ERR_NONE))
 427:Generated_Source\PSoC4/BLE_eventHandler.c ****     {
 428:Generated_Source\PSoC4/BLE_eventHandler.c ****         gattErr = CyBle_WsssWriteEventHandler(eventParam);
 429:Generated_Source\PSoC4/BLE_eventHandler.c ****     }
 430:Generated_Source\PSoC4/BLE_eventHandler.c **** #endif /* CYBLE_WSS_SERVER */
 431:Generated_Source\PSoC4/BLE_eventHandler.c **** 
 432:Generated_Source\PSoC4/BLE_eventHandler.c ****     /* Send response when event was handled by service */
 433:Generated_Source\PSoC4/BLE_eventHandler.c ****     if((cyBle_eventHandlerFlag & CYBLE_CALLBACK) == 0u)
  76              		.loc 1 433 0
  77 0018 154B     		ldr	r3, .L5
  78 001a 1B78     		ldrb	r3, [r3]
  79 001c DBB2     		uxtb	r3, r3
  80 001e 1A00     		movs	r2, r3
ARM GAS  C:\Users\TTSS\AppData\Local\Temp\ccySleeg.s 			page 10


  81 0020 0123     		movs	r3, #1
  82 0022 1340     		ands	r3, r2
  83 0024 1FD1     		bne	.L4
 434:Generated_Source\PSoC4/BLE_eventHandler.c ****     {
 435:Generated_Source\PSoC4/BLE_eventHandler.c ****         if(gattErr != CYBLE_GATT_ERR_NONE)
  84              		.loc 1 435 0
  85 0026 0F23     		movs	r3, #15
  86 0028 FB18     		adds	r3, r7, r3
  87 002a 1B78     		ldrb	r3, [r3]
  88 002c 002B     		cmp	r3, #0
  89 002e 16D0     		beq	.L3
  90              	.LBB2:
 436:Generated_Source\PSoC4/BLE_eventHandler.c ****         {
 437:Generated_Source\PSoC4/BLE_eventHandler.c ****             CYBLE_GATTS_ERR_PARAM_T err_param;
 438:Generated_Source\PSoC4/BLE_eventHandler.c ****             
 439:Generated_Source\PSoC4/BLE_eventHandler.c ****             err_param.opcode = (uint8) CYBLE_GATT_WRITE_REQ;
  91              		.loc 1 439 0
  92 0030 0823     		movs	r3, #8
  93 0032 FB18     		adds	r3, r7, r3
  94 0034 1222     		movs	r2, #18
  95 0036 9A70     		strb	r2, [r3, #2]
 440:Generated_Source\PSoC4/BLE_eventHandler.c ****             err_param.attrHandle = eventParam->handleValPair.attrHandle;
  96              		.loc 1 440 0
  97 0038 7B68     		ldr	r3, [r7, #4]
  98 003a 9A89     		ldrh	r2, [r3, #12]
  99 003c 0823     		movs	r3, #8
 100 003e FB18     		adds	r3, r7, r3
 101 0040 1A80     		strh	r2, [r3]
 441:Generated_Source\PSoC4/BLE_eventHandler.c ****             err_param.errorCode = gattErr;
 102              		.loc 1 441 0
 103 0042 0823     		movs	r3, #8
 104 0044 FB18     		adds	r3, r7, r3
 105 0046 0F22     		movs	r2, #15
 106 0048 BA18     		adds	r2, r7, r2
 107 004a 1278     		ldrb	r2, [r2]
 108 004c DA70     		strb	r2, [r3, #3]
 442:Generated_Source\PSoC4/BLE_eventHandler.c **** 
 443:Generated_Source\PSoC4/BLE_eventHandler.c ****             /* Send Error Response */
 444:Generated_Source\PSoC4/BLE_eventHandler.c ****             (void)CyBle_GattsErrorRsp(eventParam->connHandle, &err_param);
 109              		.loc 1 444 0
 110 004e 0823     		movs	r3, #8
 111 0050 FA18     		adds	r2, r7, r3
 112 0052 7B68     		ldr	r3, [r7, #4]
 113 0054 1100     		movs	r1, r2
 114 0056 1868     		ldr	r0, [r3]
 115 0058 FFF7FEFF 		bl	CyBle_GattsErrorRsp
 116              	.LBE2:
 445:Generated_Source\PSoC4/BLE_eventHandler.c ****         }
 446:Generated_Source\PSoC4/BLE_eventHandler.c ****         else
 447:Generated_Source\PSoC4/BLE_eventHandler.c ****         {
 448:Generated_Source\PSoC4/BLE_eventHandler.c ****             (void)CyBle_GattsWriteRsp(eventParam->connHandle);
 449:Generated_Source\PSoC4/BLE_eventHandler.c ****         }
 450:Generated_Source\PSoC4/BLE_eventHandler.c ****     }
 451:Generated_Source\PSoC4/BLE_eventHandler.c **** }
 117              		.loc 1 451 0
 118 005c 03E0     		b	.L4
 119              	.L3:
ARM GAS  C:\Users\TTSS\AppData\Local\Temp\ccySleeg.s 			page 11


 448:Generated_Source\PSoC4/BLE_eventHandler.c ****         }
 120              		.loc 1 448 0
 121 005e 7B68     		ldr	r3, [r7, #4]
 122 0060 1868     		ldr	r0, [r3]
 123 0062 FFF7FEFF 		bl	CyBle_GattsWriteRsp
 124              	.L4:
 125              		.loc 1 451 0
 126 0066 C046     		nop
 127 0068 BD46     		mov	sp, r7
 128 006a 05B0     		add	sp, sp, #20
 129              		@ sp needed
 130 006c 90BD     		pop	{r4, r7, pc}
 131              	.L6:
 132 006e C046     		.align	2
 133              	.L5:
 134 0070 00000000 		.word	cyBle_eventHandlerFlag
 135              		.cfi_endproc
 136              	.LFE2:
 137              		.size	CyBle_WriteReqHandler, .-CyBle_WriteReqHandler
 138              		.section	.text.CyBle_ValueConfirmation,"ax",%progbits
 139              		.align	2
 140              		.code	16
 141              		.thumb_func
 142              		.type	CyBle_ValueConfirmation, %function
 143              	CyBle_ValueConfirmation:
 144              	.LFB3:
 452:Generated_Source\PSoC4/BLE_eventHandler.c **** 
 453:Generated_Source\PSoC4/BLE_eventHandler.c **** 
 454:Generated_Source\PSoC4/BLE_eventHandler.c **** /****************************************************************************** 
 455:Generated_Source\PSoC4/BLE_eventHandler.c **** * Function Name: CyBle_ValueConfirmation
 456:Generated_Source\PSoC4/BLE_eventHandler.c **** ***************************************************************************//**
 457:Generated_Source\PSoC4/BLE_eventHandler.c **** * 
 458:Generated_Source\PSoC4/BLE_eventHandler.c **** *  Handles the Value Confirmation request event from the BLE stack.
 459:Generated_Source\PSoC4/BLE_eventHandler.c **** * 
 460:Generated_Source\PSoC4/BLE_eventHandler.c **** *  \param eventParam: Pointer to a structure of type 'CYBLE_CONN_HANDLE_T'
 461:Generated_Source\PSoC4/BLE_eventHandler.c **** * 
 462:Generated_Source\PSoC4/BLE_eventHandler.c **** * \return
 463:Generated_Source\PSoC4/BLE_eventHandler.c **** *  None
 464:Generated_Source\PSoC4/BLE_eventHandler.c **** * 
 465:Generated_Source\PSoC4/BLE_eventHandler.c **** ******************************************************************************/
 466:Generated_Source\PSoC4/BLE_eventHandler.c **** static void CyBle_ValueConfirmation(const CYBLE_CONN_HANDLE_T *eventParam)
 467:Generated_Source\PSoC4/BLE_eventHandler.c **** {
 145              		.loc 1 467 0
 146              		.cfi_startproc
 147              		@ args = 0, pretend = 0, frame = 8
 148              		@ frame_needed = 1, uses_anonymous_args = 0
 149 0000 80B5     		push	{r7, lr}
 150              		.cfi_def_cfa_offset 8
 151              		.cfi_offset 7, -8
 152              		.cfi_offset 14, -4
 153 0002 82B0     		sub	sp, sp, #8
 154              		.cfi_def_cfa_offset 16
 155 0004 00AF     		add	r7, sp, #0
 156              		.cfi_def_cfa_register 7
 157 0006 7860     		str	r0, [r7, #4]
 468:Generated_Source\PSoC4/BLE_eventHandler.c ****     if(eventParam != NULL)
 469:Generated_Source\PSoC4/BLE_eventHandler.c ****     {
ARM GAS  C:\Users\TTSS\AppData\Local\Temp\ccySleeg.s 			page 12


 470:Generated_Source\PSoC4/BLE_eventHandler.c ****     #ifdef CYBLE_AIOS_SERVER
 471:Generated_Source\PSoC4/BLE_eventHandler.c ****         if((cyBle_eventHandlerFlag & CYBLE_CALLBACK) != 0u)
 472:Generated_Source\PSoC4/BLE_eventHandler.c ****         {
 473:Generated_Source\PSoC4/BLE_eventHandler.c ****             CyBle_AiossConfirmationEventHandler(eventParam);
 474:Generated_Source\PSoC4/BLE_eventHandler.c ****         }
 475:Generated_Source\PSoC4/BLE_eventHandler.c ****     #endif /* CYBLE_AIOS_SERVER */
 476:Generated_Source\PSoC4/BLE_eventHandler.c ****     #ifdef CYBLE_BCS_SERVER
 477:Generated_Source\PSoC4/BLE_eventHandler.c ****         CyBle_BcssConfirmationEventHandler(eventParam);
 478:Generated_Source\PSoC4/BLE_eventHandler.c ****     #endif /* CYBLE_BCS_SERVER */
 479:Generated_Source\PSoC4/BLE_eventHandler.c ****     #ifdef CYBLE_BLS_SERVER
 480:Generated_Source\PSoC4/BLE_eventHandler.c ****         if((cyBle_eventHandlerFlag & CYBLE_CALLBACK) != 0u)
 481:Generated_Source\PSoC4/BLE_eventHandler.c ****         {
 482:Generated_Source\PSoC4/BLE_eventHandler.c ****             CyBle_BlssConfirmationEventHandler(eventParam);
 483:Generated_Source\PSoC4/BLE_eventHandler.c ****         }
 484:Generated_Source\PSoC4/BLE_eventHandler.c ****     #endif /* CYBLE_BLS_SERVER */
 485:Generated_Source\PSoC4/BLE_eventHandler.c ****     
 486:Generated_Source\PSoC4/BLE_eventHandler.c ****     #ifdef CYBLE_CGMS_SERVER
 487:Generated_Source\PSoC4/BLE_eventHandler.c ****         if((cyBle_eventHandlerFlag & CYBLE_CALLBACK) != 0u)
 488:Generated_Source\PSoC4/BLE_eventHandler.c ****         {
 489:Generated_Source\PSoC4/BLE_eventHandler.c ****             CyBle_CgmssConfirmationEventHandler(eventParam);
 490:Generated_Source\PSoC4/BLE_eventHandler.c ****         }
 491:Generated_Source\PSoC4/BLE_eventHandler.c ****     #endif /* CYBLE_CGMS_SERVER */
 492:Generated_Source\PSoC4/BLE_eventHandler.c ****     
 493:Generated_Source\PSoC4/BLE_eventHandler.c ****     #ifdef CYBLE_CPS_SERVER
 494:Generated_Source\PSoC4/BLE_eventHandler.c ****         if((cyBle_eventHandlerFlag & CYBLE_CALLBACK) != 0u)
 495:Generated_Source\PSoC4/BLE_eventHandler.c ****         {
 496:Generated_Source\PSoC4/BLE_eventHandler.c ****             CyBle_CpssConfirmationEventHandler(eventParam);
 497:Generated_Source\PSoC4/BLE_eventHandler.c ****         }
 498:Generated_Source\PSoC4/BLE_eventHandler.c ****     #endif /* CYBLE_CPS_SERVER */
 499:Generated_Source\PSoC4/BLE_eventHandler.c ****     
 500:Generated_Source\PSoC4/BLE_eventHandler.c ****     #ifdef CYBLE_CSCS_SERVER
 501:Generated_Source\PSoC4/BLE_eventHandler.c ****         if((cyBle_eventHandlerFlag & CYBLE_CALLBACK) != 0u)
 502:Generated_Source\PSoC4/BLE_eventHandler.c ****         {
 503:Generated_Source\PSoC4/BLE_eventHandler.c ****             CyBle_CscssConfirmationEventHandler(eventParam);
 504:Generated_Source\PSoC4/BLE_eventHandler.c ****         }
 505:Generated_Source\PSoC4/BLE_eventHandler.c ****     #endif /* CYBLE_CSCS_SERVER */
 506:Generated_Source\PSoC4/BLE_eventHandler.c ****     
 507:Generated_Source\PSoC4/BLE_eventHandler.c ****     #ifdef CYBLE_ESS_SERVER
 508:Generated_Source\PSoC4/BLE_eventHandler.c ****         if((cyBle_eventHandlerFlag & CYBLE_CALLBACK) != 0u)
 509:Generated_Source\PSoC4/BLE_eventHandler.c ****         {
 510:Generated_Source\PSoC4/BLE_eventHandler.c ****             CyBle_EsssConfirmationEventHandler(eventParam);
 511:Generated_Source\PSoC4/BLE_eventHandler.c ****         }
 512:Generated_Source\PSoC4/BLE_eventHandler.c ****     #endif /* CYBLE_ESS_SERVER */
 513:Generated_Source\PSoC4/BLE_eventHandler.c ****     
 514:Generated_Source\PSoC4/BLE_eventHandler.c ****     #ifdef CYBLE_GLS_SERVER
 515:Generated_Source\PSoC4/BLE_eventHandler.c ****         if((cyBle_eventHandlerFlag & CYBLE_CALLBACK) != 0u)
 516:Generated_Source\PSoC4/BLE_eventHandler.c ****         {
 517:Generated_Source\PSoC4/BLE_eventHandler.c ****             CyBle_GlssConfirmationEventHandler(eventParam);
 518:Generated_Source\PSoC4/BLE_eventHandler.c ****         }
 519:Generated_Source\PSoC4/BLE_eventHandler.c ****     #endif /* CYBLE_GLS_SERVER */
 520:Generated_Source\PSoC4/BLE_eventHandler.c ****     
 521:Generated_Source\PSoC4/BLE_eventHandler.c ****     #ifdef CYBLE_HTS_SERVER
 522:Generated_Source\PSoC4/BLE_eventHandler.c ****         if((cyBle_eventHandlerFlag & CYBLE_CALLBACK) != 0u)
 523:Generated_Source\PSoC4/BLE_eventHandler.c ****         {
 524:Generated_Source\PSoC4/BLE_eventHandler.c ****             CyBle_HtssConfirmationEventHandler(eventParam);
 525:Generated_Source\PSoC4/BLE_eventHandler.c ****         }
 526:Generated_Source\PSoC4/BLE_eventHandler.c ****     #endif /* CYBLE_HTS_SERVER */
ARM GAS  C:\Users\TTSS\AppData\Local\Temp\ccySleeg.s 			page 13


 527:Generated_Source\PSoC4/BLE_eventHandler.c **** 
 528:Generated_Source\PSoC4/BLE_eventHandler.c ****     #ifdef CYBLE_LNS_SERVER
 529:Generated_Source\PSoC4/BLE_eventHandler.c ****         if((cyBle_eventHandlerFlag & CYBLE_CALLBACK) != 0u)
 530:Generated_Source\PSoC4/BLE_eventHandler.c ****         {
 531:Generated_Source\PSoC4/BLE_eventHandler.c ****             CyBle_LnssConfirmationEventHandler(eventParam);
 532:Generated_Source\PSoC4/BLE_eventHandler.c ****         }
 533:Generated_Source\PSoC4/BLE_eventHandler.c ****     #endif /* CYBLE_LNS_SERVER */
 534:Generated_Source\PSoC4/BLE_eventHandler.c ****     
 535:Generated_Source\PSoC4/BLE_eventHandler.c ****     #ifdef CYBLE_PLXS_SERVER
 536:Generated_Source\PSoC4/BLE_eventHandler.c ****         if((cyBle_eventHandlerFlag & CYBLE_CALLBACK) != 0u)
 537:Generated_Source\PSoC4/BLE_eventHandler.c ****         {
 538:Generated_Source\PSoC4/BLE_eventHandler.c ****             CyBle_PlxssConfirmationEventHandler((CYBLE_CONN_HANDLE_T *)eventParam);
 539:Generated_Source\PSoC4/BLE_eventHandler.c ****         }
 540:Generated_Source\PSoC4/BLE_eventHandler.c ****     #endif /* CYBLE_PLXS_SERVER */
 541:Generated_Source\PSoC4/BLE_eventHandler.c ****     
 542:Generated_Source\PSoC4/BLE_eventHandler.c ****     #ifdef CYBLE_RSCS_SERVER
 543:Generated_Source\PSoC4/BLE_eventHandler.c ****         if((cyBle_eventHandlerFlag & CYBLE_CALLBACK) != 0u)
 544:Generated_Source\PSoC4/BLE_eventHandler.c ****         {
 545:Generated_Source\PSoC4/BLE_eventHandler.c ****             CyBle_RscssConfirmationEventHandler(eventParam);
 546:Generated_Source\PSoC4/BLE_eventHandler.c ****         }
 547:Generated_Source\PSoC4/BLE_eventHandler.c ****     #endif /* CYBLE_RSCS_SERVER */
 548:Generated_Source\PSoC4/BLE_eventHandler.c ****     
 549:Generated_Source\PSoC4/BLE_eventHandler.c ****     #ifdef CYBLE_UDS_SERVER
 550:Generated_Source\PSoC4/BLE_eventHandler.c ****         if((cyBle_eventHandlerFlag & CYBLE_CALLBACK) != 0u)
 551:Generated_Source\PSoC4/BLE_eventHandler.c ****         {
 552:Generated_Source\PSoC4/BLE_eventHandler.c ****             CyBle_UdssConfirmationEventHandler(eventParam);
 553:Generated_Source\PSoC4/BLE_eventHandler.c ****         }
 554:Generated_Source\PSoC4/BLE_eventHandler.c ****     #endif /* CYBLE_UDS_SERVER */
 555:Generated_Source\PSoC4/BLE_eventHandler.c ****     
 556:Generated_Source\PSoC4/BLE_eventHandler.c ****     #ifdef CYBLE_WPTS_SERVER
 557:Generated_Source\PSoC4/BLE_eventHandler.c ****         if((cyBle_eventHandlerFlag & CYBLE_CALLBACK) != 0u)
 558:Generated_Source\PSoC4/BLE_eventHandler.c ****         {
 559:Generated_Source\PSoC4/BLE_eventHandler.c ****             CyBle_WptssConfirmationEventHandler(eventParam);
 560:Generated_Source\PSoC4/BLE_eventHandler.c ****         }
 561:Generated_Source\PSoC4/BLE_eventHandler.c ****     #endif /* CYBLE_WPTS_SERVER */
 562:Generated_Source\PSoC4/BLE_eventHandler.c ****     
 563:Generated_Source\PSoC4/BLE_eventHandler.c ****     #ifdef CYBLE_WSS_SERVER
 564:Generated_Source\PSoC4/BLE_eventHandler.c ****         if((cyBle_eventHandlerFlag & CYBLE_CALLBACK) != 0u)
 565:Generated_Source\PSoC4/BLE_eventHandler.c ****         {
 566:Generated_Source\PSoC4/BLE_eventHandler.c ****             CyBle_WsssConfirmationEventHandler(eventParam);
 567:Generated_Source\PSoC4/BLE_eventHandler.c ****         }
 568:Generated_Source\PSoC4/BLE_eventHandler.c ****     #endif /* CYBLE_WSS_SERVER */
 569:Generated_Source\PSoC4/BLE_eventHandler.c ****     }
 570:Generated_Source\PSoC4/BLE_eventHandler.c **** }
 158              		.loc 1 570 0
 159 0008 C046     		nop
 160 000a BD46     		mov	sp, r7
 161 000c 02B0     		add	sp, sp, #8
 162              		@ sp needed
 163 000e 80BD     		pop	{r7, pc}
 164              		.cfi_endproc
 165              	.LFE3:
 166              		.size	CyBle_ValueConfirmation, .-CyBle_ValueConfirmation
 167              		.section	.text.CyBle_GattDisconnectEventHandler,"ax",%progbits
 168              		.align	2
 169              		.code	16
 170              		.thumb_func
ARM GAS  C:\Users\TTSS\AppData\Local\Temp\ccySleeg.s 			page 14


 171              		.type	CyBle_GattDisconnectEventHandler, %function
 172              	CyBle_GattDisconnectEventHandler:
 173              	.LFB4:
 571:Generated_Source\PSoC4/BLE_eventHandler.c **** 
 572:Generated_Source\PSoC4/BLE_eventHandler.c **** #endif /* CYBLE_GATT_ROLE_SERVER */
 573:Generated_Source\PSoC4/BLE_eventHandler.c **** 
 574:Generated_Source\PSoC4/BLE_eventHandler.c **** 
 575:Generated_Source\PSoC4/BLE_eventHandler.c **** #if (CYBLE_GATT_ROLE_CLIENT)
 576:Generated_Source\PSoC4/BLE_eventHandler.c **** 
 577:Generated_Source\PSoC4/BLE_eventHandler.c **** /****************************************************************************** 
 578:Generated_Source\PSoC4/BLE_eventHandler.c **** * Function Name: CyBle_GattcWriteResponseEventHandler
 579:Generated_Source\PSoC4/BLE_eventHandler.c **** ***************************************************************************//**
 580:Generated_Source\PSoC4/BLE_eventHandler.c **** * 
 581:Generated_Source\PSoC4/BLE_eventHandler.c **** *  Handles the Write response event from the BLE stack.
 582:Generated_Source\PSoC4/BLE_eventHandler.c **** * 
 583:Generated_Source\PSoC4/BLE_eventHandler.c **** *  \param eventParam: Pointer to a structure of type 'CYBLE_CONN_HANDLE_T'
 584:Generated_Source\PSoC4/BLE_eventHandler.c **** * 
 585:Generated_Source\PSoC4/BLE_eventHandler.c **** * \return
 586:Generated_Source\PSoC4/BLE_eventHandler.c **** *  None
 587:Generated_Source\PSoC4/BLE_eventHandler.c **** * 
 588:Generated_Source\PSoC4/BLE_eventHandler.c **** ******************************************************************************/
 589:Generated_Source\PSoC4/BLE_eventHandler.c **** static void CyBle_GattcWriteResponseEventHandler(const CYBLE_CONN_HANDLE_T *eventParam)
 590:Generated_Source\PSoC4/BLE_eventHandler.c **** {
 591:Generated_Source\PSoC4/BLE_eventHandler.c **** 
 592:Generated_Source\PSoC4/BLE_eventHandler.c **** #ifdef CYBLE_AIOS_CLIENT
 593:Generated_Source\PSoC4/BLE_eventHandler.c ****     if((cyBle_eventHandlerFlag & CYBLE_CALLBACK) != 0u)
 594:Generated_Source\PSoC4/BLE_eventHandler.c ****     {
 595:Generated_Source\PSoC4/BLE_eventHandler.c ****         CyBle_AioscWriteResponseEventHandler(eventParam);
 596:Generated_Source\PSoC4/BLE_eventHandler.c ****     }
 597:Generated_Source\PSoC4/BLE_eventHandler.c **** #endif /* CYBLE_AIOS_CLIENT */
 598:Generated_Source\PSoC4/BLE_eventHandler.c **** 
 599:Generated_Source\PSoC4/BLE_eventHandler.c **** #ifdef CYBLE_ANCS_CLIENT
 600:Generated_Source\PSoC4/BLE_eventHandler.c ****     CyBle_AncscWriteResponseEventHandler(eventParam);
 601:Generated_Source\PSoC4/BLE_eventHandler.c **** #endif /* CYBLE_ANCS_CLIENT */
 602:Generated_Source\PSoC4/BLE_eventHandler.c **** 
 603:Generated_Source\PSoC4/BLE_eventHandler.c **** #ifdef CYBLE_ANS_CLIENT
 604:Generated_Source\PSoC4/BLE_eventHandler.c ****     if((cyBle_eventHandlerFlag & CYBLE_CALLBACK) != 0u)
 605:Generated_Source\PSoC4/BLE_eventHandler.c ****     {
 606:Generated_Source\PSoC4/BLE_eventHandler.c ****         CyBle_AnscWriteResponseEventHandler(eventParam);
 607:Generated_Source\PSoC4/BLE_eventHandler.c ****     }
 608:Generated_Source\PSoC4/BLE_eventHandler.c **** #endif /* CYBLE_ANS_CLIENT */
 609:Generated_Source\PSoC4/BLE_eventHandler.c **** 
 610:Generated_Source\PSoC4/BLE_eventHandler.c **** #ifdef CYBLE_BAS_CLIENT
 611:Generated_Source\PSoC4/BLE_eventHandler.c ****     if((cyBle_eventHandlerFlag & CYBLE_CALLBACK) != 0u)
 612:Generated_Source\PSoC4/BLE_eventHandler.c ****     {
 613:Generated_Source\PSoC4/BLE_eventHandler.c ****         CyBle_BascWriteResponseEventHandler(eventParam);
 614:Generated_Source\PSoC4/BLE_eventHandler.c ****     }
 615:Generated_Source\PSoC4/BLE_eventHandler.c **** #endif /* CYBLE_BAS_CLIENT */
 616:Generated_Source\PSoC4/BLE_eventHandler.c **** 
 617:Generated_Source\PSoC4/BLE_eventHandler.c **** #ifdef CYBLE_BCS_CLIENT
 618:Generated_Source\PSoC4/BLE_eventHandler.c ****     if((cyBle_eventHandlerFlag & CYBLE_CALLBACK) != 0u)
 619:Generated_Source\PSoC4/BLE_eventHandler.c ****     {
 620:Generated_Source\PSoC4/BLE_eventHandler.c ****         CyBle_BcscWriteResponseEventHandler(eventParam);
 621:Generated_Source\PSoC4/BLE_eventHandler.c ****     }
 622:Generated_Source\PSoC4/BLE_eventHandler.c **** #endif /* CYBLE_BCS_CLIENT */
 623:Generated_Source\PSoC4/BLE_eventHandler.c **** 
 624:Generated_Source\PSoC4/BLE_eventHandler.c **** #ifdef CYBLE_BLS_CLIENT
ARM GAS  C:\Users\TTSS\AppData\Local\Temp\ccySleeg.s 			page 15


 625:Generated_Source\PSoC4/BLE_eventHandler.c ****     if((cyBle_eventHandlerFlag & CYBLE_CALLBACK) != 0u)
 626:Generated_Source\PSoC4/BLE_eventHandler.c ****     {
 627:Generated_Source\PSoC4/BLE_eventHandler.c ****         CyBle_BlscWriteResponseEventHandler(eventParam);
 628:Generated_Source\PSoC4/BLE_eventHandler.c ****     }
 629:Generated_Source\PSoC4/BLE_eventHandler.c **** #endif /* CYBLE_BLS_CLIENT */
 630:Generated_Source\PSoC4/BLE_eventHandler.c **** 
 631:Generated_Source\PSoC4/BLE_eventHandler.c **** #ifdef CYBLE_BMS_CLIENT
 632:Generated_Source\PSoC4/BLE_eventHandler.c ****     if((cyBle_eventHandlerFlag & CYBLE_CALLBACK) != 0u)
 633:Generated_Source\PSoC4/BLE_eventHandler.c ****     {
 634:Generated_Source\PSoC4/BLE_eventHandler.c ****         CyBle_BmscWriteResponseEventHandler(eventParam);
 635:Generated_Source\PSoC4/BLE_eventHandler.c ****     }
 636:Generated_Source\PSoC4/BLE_eventHandler.c **** #endif /* CYBLE_BMS_CLIENT */
 637:Generated_Source\PSoC4/BLE_eventHandler.c **** 
 638:Generated_Source\PSoC4/BLE_eventHandler.c **** #ifdef CYBLE_CGMS_CLIENT
 639:Generated_Source\PSoC4/BLE_eventHandler.c ****     if((cyBle_eventHandlerFlag & CYBLE_CALLBACK) != 0u)
 640:Generated_Source\PSoC4/BLE_eventHandler.c ****     {
 641:Generated_Source\PSoC4/BLE_eventHandler.c ****         CyBle_CgmscWriteResponseEventHandler(eventParam);
 642:Generated_Source\PSoC4/BLE_eventHandler.c ****     }
 643:Generated_Source\PSoC4/BLE_eventHandler.c **** #endif /* CYBLE_CGMS_CLIENT */
 644:Generated_Source\PSoC4/BLE_eventHandler.c **** 
 645:Generated_Source\PSoC4/BLE_eventHandler.c **** #ifdef CYBLE_CPS_CLIENT
 646:Generated_Source\PSoC4/BLE_eventHandler.c ****     if((cyBle_eventHandlerFlag & CYBLE_CALLBACK) != 0u)
 647:Generated_Source\PSoC4/BLE_eventHandler.c ****     {
 648:Generated_Source\PSoC4/BLE_eventHandler.c ****         CyBle_CpscWriteResponseEventHandler(eventParam);
 649:Generated_Source\PSoC4/BLE_eventHandler.c ****     }
 650:Generated_Source\PSoC4/BLE_eventHandler.c **** #endif /* CYBLE_CPS_CLIENT */
 651:Generated_Source\PSoC4/BLE_eventHandler.c **** 
 652:Generated_Source\PSoC4/BLE_eventHandler.c **** #ifdef CYBLE_CSCS_CLIENT
 653:Generated_Source\PSoC4/BLE_eventHandler.c ****     if((cyBle_eventHandlerFlag & CYBLE_CALLBACK) != 0u)
 654:Generated_Source\PSoC4/BLE_eventHandler.c ****     {
 655:Generated_Source\PSoC4/BLE_eventHandler.c ****         CyBle_CscscWriteResponseEventHandler(eventParam);
 656:Generated_Source\PSoC4/BLE_eventHandler.c ****     }
 657:Generated_Source\PSoC4/BLE_eventHandler.c **** #endif /* CYBLE_CSCS_CLIENT */
 658:Generated_Source\PSoC4/BLE_eventHandler.c **** 
 659:Generated_Source\PSoC4/BLE_eventHandler.c **** #ifdef CYBLE_CTS_CLIENT
 660:Generated_Source\PSoC4/BLE_eventHandler.c ****     if((cyBle_eventHandlerFlag & CYBLE_CALLBACK) != 0u)
 661:Generated_Source\PSoC4/BLE_eventHandler.c ****     {
 662:Generated_Source\PSoC4/BLE_eventHandler.c ****         CyBle_CtscWriteResponseEventHandler(eventParam);
 663:Generated_Source\PSoC4/BLE_eventHandler.c ****     }
 664:Generated_Source\PSoC4/BLE_eventHandler.c **** #endif /* CYBLE_CTS_CLIENT */
 665:Generated_Source\PSoC4/BLE_eventHandler.c **** 
 666:Generated_Source\PSoC4/BLE_eventHandler.c **** #ifdef CYBLE_ESS_CLIENT
 667:Generated_Source\PSoC4/BLE_eventHandler.c ****     if((cyBle_eventHandlerFlag & CYBLE_CALLBACK) != 0u)
 668:Generated_Source\PSoC4/BLE_eventHandler.c ****     {
 669:Generated_Source\PSoC4/BLE_eventHandler.c ****         CyBle_EsscWriteResponseEventHandler(eventParam);
 670:Generated_Source\PSoC4/BLE_eventHandler.c ****     }
 671:Generated_Source\PSoC4/BLE_eventHandler.c **** #endif /* CYBLE_ESS_CLIENT */
 672:Generated_Source\PSoC4/BLE_eventHandler.c **** 
 673:Generated_Source\PSoC4/BLE_eventHandler.c **** #ifdef CYBLE_GLS_CLIENT
 674:Generated_Source\PSoC4/BLE_eventHandler.c ****     if((cyBle_eventHandlerFlag & CYBLE_CALLBACK) != 0u)
 675:Generated_Source\PSoC4/BLE_eventHandler.c ****     {
 676:Generated_Source\PSoC4/BLE_eventHandler.c ****         CyBle_GlscWriteResponseEventHandler(eventParam);
 677:Generated_Source\PSoC4/BLE_eventHandler.c ****     }
 678:Generated_Source\PSoC4/BLE_eventHandler.c **** #endif /* CYBLE_GLS_CLIENT */
 679:Generated_Source\PSoC4/BLE_eventHandler.c **** 
 680:Generated_Source\PSoC4/BLE_eventHandler.c **** #ifdef CYBLE_HIDS_CLIENT
 681:Generated_Source\PSoC4/BLE_eventHandler.c ****     if((cyBle_eventHandlerFlag & CYBLE_CALLBACK) != 0u)
ARM GAS  C:\Users\TTSS\AppData\Local\Temp\ccySleeg.s 			page 16


 682:Generated_Source\PSoC4/BLE_eventHandler.c ****     {
 683:Generated_Source\PSoC4/BLE_eventHandler.c ****         CyBle_HidscWriteResponseEventHandler(eventParam);
 684:Generated_Source\PSoC4/BLE_eventHandler.c ****     }
 685:Generated_Source\PSoC4/BLE_eventHandler.c **** #endif /* CYBLE_HIDS_CLIENT */
 686:Generated_Source\PSoC4/BLE_eventHandler.c **** 
 687:Generated_Source\PSoC4/BLE_eventHandler.c **** #ifdef CYBLE_HPS_CLIENT
 688:Generated_Source\PSoC4/BLE_eventHandler.c ****     if((cyBle_eventHandlerFlag & CYBLE_CALLBACK) != 0u)
 689:Generated_Source\PSoC4/BLE_eventHandler.c ****     {
 690:Generated_Source\PSoC4/BLE_eventHandler.c ****         CyBle_HpscWriteResponseEventHandler(eventParam);
 691:Generated_Source\PSoC4/BLE_eventHandler.c ****     }
 692:Generated_Source\PSoC4/BLE_eventHandler.c **** #endif /* CYBLE_HPS_CLIENT */
 693:Generated_Source\PSoC4/BLE_eventHandler.c **** 
 694:Generated_Source\PSoC4/BLE_eventHandler.c **** #ifdef CYBLE_HRS_CLIENT
 695:Generated_Source\PSoC4/BLE_eventHandler.c ****     if((cyBle_eventHandlerFlag & CYBLE_CALLBACK) != 0u)
 696:Generated_Source\PSoC4/BLE_eventHandler.c ****     {
 697:Generated_Source\PSoC4/BLE_eventHandler.c ****         CyBle_HrscWriteResponseEventHandler(eventParam);
 698:Generated_Source\PSoC4/BLE_eventHandler.c ****     }
 699:Generated_Source\PSoC4/BLE_eventHandler.c **** #endif /* CYBLE_HRS_CLIENT */
 700:Generated_Source\PSoC4/BLE_eventHandler.c **** 
 701:Generated_Source\PSoC4/BLE_eventHandler.c **** #ifdef CYBLE_HTS_CLIENT
 702:Generated_Source\PSoC4/BLE_eventHandler.c ****     if((cyBle_eventHandlerFlag & CYBLE_CALLBACK) != 0u)
 703:Generated_Source\PSoC4/BLE_eventHandler.c ****     {
 704:Generated_Source\PSoC4/BLE_eventHandler.c ****         CyBle_HtscWriteResponseEventHandler(eventParam);
 705:Generated_Source\PSoC4/BLE_eventHandler.c ****     }
 706:Generated_Source\PSoC4/BLE_eventHandler.c **** #endif /* CYBLE_HTS_CLIENT */
 707:Generated_Source\PSoC4/BLE_eventHandler.c **** 
 708:Generated_Source\PSoC4/BLE_eventHandler.c **** #ifdef CYBLE_IPS_CLIENT
 709:Generated_Source\PSoC4/BLE_eventHandler.c ****     if((cyBle_eventHandlerFlag & CYBLE_CALLBACK) != 0u)
 710:Generated_Source\PSoC4/BLE_eventHandler.c ****     {
 711:Generated_Source\PSoC4/BLE_eventHandler.c ****         CyBle_IpscWriteResponseEventHandler(eventParam);
 712:Generated_Source\PSoC4/BLE_eventHandler.c ****     }
 713:Generated_Source\PSoC4/BLE_eventHandler.c **** #endif /* CYBLE_IPS_CLIENT */
 714:Generated_Source\PSoC4/BLE_eventHandler.c **** 
 715:Generated_Source\PSoC4/BLE_eventHandler.c **** #ifdef CYBLE_LLS_CLIENT
 716:Generated_Source\PSoC4/BLE_eventHandler.c ****     if((cyBle_eventHandlerFlag & CYBLE_CALLBACK) != 0u)
 717:Generated_Source\PSoC4/BLE_eventHandler.c ****     {
 718:Generated_Source\PSoC4/BLE_eventHandler.c ****         CyBle_LlscWriteResponseEventHandler(eventParam);
 719:Generated_Source\PSoC4/BLE_eventHandler.c ****     }
 720:Generated_Source\PSoC4/BLE_eventHandler.c **** #endif /* CYBLE_LLS_CLIENT */
 721:Generated_Source\PSoC4/BLE_eventHandler.c **** 
 722:Generated_Source\PSoC4/BLE_eventHandler.c **** #ifdef CYBLE_LNS_CLIENT
 723:Generated_Source\PSoC4/BLE_eventHandler.c ****     if((cyBle_eventHandlerFlag & CYBLE_CALLBACK) != 0u)
 724:Generated_Source\PSoC4/BLE_eventHandler.c ****     {
 725:Generated_Source\PSoC4/BLE_eventHandler.c ****         CyBle_LnscWriteResponseEventHandler(eventParam);
 726:Generated_Source\PSoC4/BLE_eventHandler.c ****     }
 727:Generated_Source\PSoC4/BLE_eventHandler.c **** #endif /* CYBLE_LNS_CLIENT */
 728:Generated_Source\PSoC4/BLE_eventHandler.c **** 
 729:Generated_Source\PSoC4/BLE_eventHandler.c **** #ifdef CYBLE_PASS_CLIENT
 730:Generated_Source\PSoC4/BLE_eventHandler.c ****     if((cyBle_eventHandlerFlag & CYBLE_CALLBACK) != 0u)
 731:Generated_Source\PSoC4/BLE_eventHandler.c ****     {
 732:Generated_Source\PSoC4/BLE_eventHandler.c ****         CyBle_PasscWriteResponseEventHandler(eventParam);
 733:Generated_Source\PSoC4/BLE_eventHandler.c ****     }
 734:Generated_Source\PSoC4/BLE_eventHandler.c **** #endif /* CYBLE_PASS_CLIENT */
 735:Generated_Source\PSoC4/BLE_eventHandler.c **** 
 736:Generated_Source\PSoC4/BLE_eventHandler.c **** #ifdef CYBLE_PLXS_CLIENT
 737:Generated_Source\PSoC4/BLE_eventHandler.c ****     if((cyBle_eventHandlerFlag & CYBLE_CALLBACK) != 0u)
 738:Generated_Source\PSoC4/BLE_eventHandler.c ****     {
ARM GAS  C:\Users\TTSS\AppData\Local\Temp\ccySleeg.s 			page 17


 739:Generated_Source\PSoC4/BLE_eventHandler.c ****         CyBle_PlxscWriteResponseEventHandler(eventParam);
 740:Generated_Source\PSoC4/BLE_eventHandler.c ****     }
 741:Generated_Source\PSoC4/BLE_eventHandler.c **** #endif /* CYBLE_PASS_CLIENT */
 742:Generated_Source\PSoC4/BLE_eventHandler.c **** 
 743:Generated_Source\PSoC4/BLE_eventHandler.c **** #ifdef CYBLE_RSCS_CLIENT
 744:Generated_Source\PSoC4/BLE_eventHandler.c ****     if((cyBle_eventHandlerFlag & CYBLE_CALLBACK) != 0u)
 745:Generated_Source\PSoC4/BLE_eventHandler.c ****     {
 746:Generated_Source\PSoC4/BLE_eventHandler.c ****         CyBle_RscscWriteResponseEventHandler(eventParam);
 747:Generated_Source\PSoC4/BLE_eventHandler.c ****     }
 748:Generated_Source\PSoC4/BLE_eventHandler.c **** #endif /* CYBLE_RSCS_CLIENT */
 749:Generated_Source\PSoC4/BLE_eventHandler.c **** 
 750:Generated_Source\PSoC4/BLE_eventHandler.c **** #ifdef CYBLE_SCPS_CLIENT
 751:Generated_Source\PSoC4/BLE_eventHandler.c ****     if((cyBle_eventHandlerFlag & CYBLE_CALLBACK) != 0u)
 752:Generated_Source\PSoC4/BLE_eventHandler.c ****     {
 753:Generated_Source\PSoC4/BLE_eventHandler.c ****         CyBle_ScpscWriteResponseEventHandler(eventParam);
 754:Generated_Source\PSoC4/BLE_eventHandler.c ****     }
 755:Generated_Source\PSoC4/BLE_eventHandler.c **** #endif /* CYBLE_SCPS_CLIENT */
 756:Generated_Source\PSoC4/BLE_eventHandler.c **** 
 757:Generated_Source\PSoC4/BLE_eventHandler.c **** #ifdef CYBLE_TPS_CLIENT
 758:Generated_Source\PSoC4/BLE_eventHandler.c ****     if((cyBle_eventHandlerFlag & CYBLE_CALLBACK) != 0u)
 759:Generated_Source\PSoC4/BLE_eventHandler.c ****     {
 760:Generated_Source\PSoC4/BLE_eventHandler.c ****         CyBle_TpscWriteResponseEventHandler(eventParam);
 761:Generated_Source\PSoC4/BLE_eventHandler.c ****     }
 762:Generated_Source\PSoC4/BLE_eventHandler.c **** #endif /* CYBLE_TPS_CLIENT */
 763:Generated_Source\PSoC4/BLE_eventHandler.c **** 
 764:Generated_Source\PSoC4/BLE_eventHandler.c **** #ifdef CYBLE_UDS_CLIENT
 765:Generated_Source\PSoC4/BLE_eventHandler.c ****     if((cyBle_eventHandlerFlag & CYBLE_CALLBACK) != 0u)
 766:Generated_Source\PSoC4/BLE_eventHandler.c ****     {
 767:Generated_Source\PSoC4/BLE_eventHandler.c ****         CyBle_UdscWriteResponseEventHandler(eventParam);
 768:Generated_Source\PSoC4/BLE_eventHandler.c ****     }
 769:Generated_Source\PSoC4/BLE_eventHandler.c **** #endif /* CYBLE_UDS_CLIENT */
 770:Generated_Source\PSoC4/BLE_eventHandler.c **** #ifdef CYBLE_WPTS_CLIENT
 771:Generated_Source\PSoC4/BLE_eventHandler.c ****     if((cyBle_eventHandlerFlag & CYBLE_CALLBACK) != 0u)
 772:Generated_Source\PSoC4/BLE_eventHandler.c ****     {
 773:Generated_Source\PSoC4/BLE_eventHandler.c ****         CyBle_WptscWriteResponseEventHandler(eventParam);
 774:Generated_Source\PSoC4/BLE_eventHandler.c ****     }
 775:Generated_Source\PSoC4/BLE_eventHandler.c **** #endif /* CYBLE_WPTS_CLIENT */
 776:Generated_Source\PSoC4/BLE_eventHandler.c **** #ifdef CYBLE_WSS_CLIENT
 777:Generated_Source\PSoC4/BLE_eventHandler.c ****     if((cyBle_eventHandlerFlag & CYBLE_CALLBACK) != 0u)
 778:Generated_Source\PSoC4/BLE_eventHandler.c ****     {
 779:Generated_Source\PSoC4/BLE_eventHandler.c ****         CyBle_WsscWriteResponseEventHandler(eventParam);
 780:Generated_Source\PSoC4/BLE_eventHandler.c ****     }
 781:Generated_Source\PSoC4/BLE_eventHandler.c **** #endif /* CYBLE_WSS_CLIENT */
 782:Generated_Source\PSoC4/BLE_eventHandler.c **** }
 783:Generated_Source\PSoC4/BLE_eventHandler.c **** 
 784:Generated_Source\PSoC4/BLE_eventHandler.c **** 
 785:Generated_Source\PSoC4/BLE_eventHandler.c **** /******************************************************************************    
 786:Generated_Source\PSoC4/BLE_eventHandler.c **** * Function Name: CyBle_NotificationEventHandler
 787:Generated_Source\PSoC4/BLE_eventHandler.c **** ***************************************************************************//**
 788:Generated_Source\PSoC4/BLE_eventHandler.c **** * 
 789:Generated_Source\PSoC4/BLE_eventHandler.c **** *  Handles the Notification event from BLE stack.
 790:Generated_Source\PSoC4/BLE_eventHandler.c **** * 
 791:Generated_Source\PSoC4/BLE_eventHandler.c **** *  \param eventParam: event parameter
 792:Generated_Source\PSoC4/BLE_eventHandler.c **** * 
 793:Generated_Source\PSoC4/BLE_eventHandler.c **** * \return
 794:Generated_Source\PSoC4/BLE_eventHandler.c **** *  None
 795:Generated_Source\PSoC4/BLE_eventHandler.c **** * 
ARM GAS  C:\Users\TTSS\AppData\Local\Temp\ccySleeg.s 			page 18


 796:Generated_Source\PSoC4/BLE_eventHandler.c **** ******************************************************************************/
 797:Generated_Source\PSoC4/BLE_eventHandler.c **** static void CyBle_NotificationEventHandler(CYBLE_GATTC_HANDLE_VALUE_NTF_PARAM_T *eventParam)
 798:Generated_Source\PSoC4/BLE_eventHandler.c **** {
 799:Generated_Source\PSoC4/BLE_eventHandler.c **** #ifdef CYBLE_AIOS_CLIENT
 800:Generated_Source\PSoC4/BLE_eventHandler.c ****     if((cyBle_eventHandlerFlag & CYBLE_CALLBACK) != 0u)
 801:Generated_Source\PSoC4/BLE_eventHandler.c ****     {
 802:Generated_Source\PSoC4/BLE_eventHandler.c ****         CyBle_AioscNotificationEventHandler(eventParam);
 803:Generated_Source\PSoC4/BLE_eventHandler.c ****     }
 804:Generated_Source\PSoC4/BLE_eventHandler.c **** #endif /* CYBLE_AIOS_CLIENT */
 805:Generated_Source\PSoC4/BLE_eventHandler.c **** #ifdef CYBLE_ANCS_CLIENT
 806:Generated_Source\PSoC4/BLE_eventHandler.c ****     CyBle_AncscNotificationEventHandler(eventParam);
 807:Generated_Source\PSoC4/BLE_eventHandler.c **** #endif /* CYBLE_ANCS_CLIENT */
 808:Generated_Source\PSoC4/BLE_eventHandler.c **** #ifdef CYBLE_ANS_CLIENT
 809:Generated_Source\PSoC4/BLE_eventHandler.c ****     if((cyBle_eventHandlerFlag & CYBLE_CALLBACK) != 0u)
 810:Generated_Source\PSoC4/BLE_eventHandler.c ****     {
 811:Generated_Source\PSoC4/BLE_eventHandler.c ****         CyBle_AnscNotificationEventHandler(eventParam);
 812:Generated_Source\PSoC4/BLE_eventHandler.c ****     }
 813:Generated_Source\PSoC4/BLE_eventHandler.c **** #endif /* CYBLE_ANS_CLIENT */
 814:Generated_Source\PSoC4/BLE_eventHandler.c **** #ifdef CYBLE_BAS_CLIENT
 815:Generated_Source\PSoC4/BLE_eventHandler.c ****     if((cyBle_eventHandlerFlag & CYBLE_CALLBACK) != 0u)
 816:Generated_Source\PSoC4/BLE_eventHandler.c ****     {
 817:Generated_Source\PSoC4/BLE_eventHandler.c ****         CyBle_BascNotificationEventHandler(eventParam);
 818:Generated_Source\PSoC4/BLE_eventHandler.c ****     }
 819:Generated_Source\PSoC4/BLE_eventHandler.c **** #endif /* CYBLE_BAS_CLIENT */
 820:Generated_Source\PSoC4/BLE_eventHandler.c **** #ifdef CYBLE_BLS_CLIENT
 821:Generated_Source\PSoC4/BLE_eventHandler.c ****     if((cyBle_eventHandlerFlag & CYBLE_CALLBACK) != 0u)
 822:Generated_Source\PSoC4/BLE_eventHandler.c ****     {
 823:Generated_Source\PSoC4/BLE_eventHandler.c ****         CyBle_BlscNotificationEventHandler(eventParam);
 824:Generated_Source\PSoC4/BLE_eventHandler.c ****     }
 825:Generated_Source\PSoC4/BLE_eventHandler.c **** #endif /* CYBLE_BLS_CLIENT */
 826:Generated_Source\PSoC4/BLE_eventHandler.c **** #ifdef CYBLE_CGMS_CLIENT
 827:Generated_Source\PSoC4/BLE_eventHandler.c ****     if((cyBle_eventHandlerFlag & CYBLE_CALLBACK) != 0u)
 828:Generated_Source\PSoC4/BLE_eventHandler.c ****     {
 829:Generated_Source\PSoC4/BLE_eventHandler.c ****         CyBle_CgmscNotificationEventHandler(eventParam);
 830:Generated_Source\PSoC4/BLE_eventHandler.c ****     }
 831:Generated_Source\PSoC4/BLE_eventHandler.c **** #endif /* CYBLE_CGMS_CLIENT */
 832:Generated_Source\PSoC4/BLE_eventHandler.c **** #ifdef CYBLE_CPS_CLIENT
 833:Generated_Source\PSoC4/BLE_eventHandler.c ****     if((cyBle_eventHandlerFlag & CYBLE_CALLBACK) != 0u)
 834:Generated_Source\PSoC4/BLE_eventHandler.c ****     {
 835:Generated_Source\PSoC4/BLE_eventHandler.c ****         CyBle_CpscNotificationEventHandler(eventParam);
 836:Generated_Source\PSoC4/BLE_eventHandler.c ****     }
 837:Generated_Source\PSoC4/BLE_eventHandler.c **** #endif /* CYBLE_CPS_CLIENT */
 838:Generated_Source\PSoC4/BLE_eventHandler.c **** #ifdef CYBLE_CSCS_CLIENT
 839:Generated_Source\PSoC4/BLE_eventHandler.c ****     if((cyBle_eventHandlerFlag & CYBLE_CALLBACK) != 0u)
 840:Generated_Source\PSoC4/BLE_eventHandler.c ****     {
 841:Generated_Source\PSoC4/BLE_eventHandler.c ****         CyBle_CscscNotificationEventHandler(eventParam);
 842:Generated_Source\PSoC4/BLE_eventHandler.c ****     }
 843:Generated_Source\PSoC4/BLE_eventHandler.c **** #endif /* CYBLE_CSCS_CLIENT */
 844:Generated_Source\PSoC4/BLE_eventHandler.c **** #ifdef CYBLE_CTS_CLIENT
 845:Generated_Source\PSoC4/BLE_eventHandler.c ****     if((cyBle_eventHandlerFlag & CYBLE_CALLBACK) != 0u)
 846:Generated_Source\PSoC4/BLE_eventHandler.c ****     {
 847:Generated_Source\PSoC4/BLE_eventHandler.c ****         CyBle_CtscNotificationEventHandler(eventParam);
 848:Generated_Source\PSoC4/BLE_eventHandler.c ****     }
 849:Generated_Source\PSoC4/BLE_eventHandler.c **** #endif /* CYBLE_CTS_CLIENT */
 850:Generated_Source\PSoC4/BLE_eventHandler.c **** #ifdef CYBLE_ESS_CLIENT
 851:Generated_Source\PSoC4/BLE_eventHandler.c ****     if((cyBle_eventHandlerFlag & CYBLE_CALLBACK) != 0u)
 852:Generated_Source\PSoC4/BLE_eventHandler.c ****     {
ARM GAS  C:\Users\TTSS\AppData\Local\Temp\ccySleeg.s 			page 19


 853:Generated_Source\PSoC4/BLE_eventHandler.c ****         CyBle_EsscNotificationEventHandler(eventParam);
 854:Generated_Source\PSoC4/BLE_eventHandler.c ****     }
 855:Generated_Source\PSoC4/BLE_eventHandler.c **** #endif /* CYBLE_ESS_CLIENT */
 856:Generated_Source\PSoC4/BLE_eventHandler.c **** #ifdef CYBLE_GLS_CLIENT
 857:Generated_Source\PSoC4/BLE_eventHandler.c ****     if((cyBle_eventHandlerFlag & CYBLE_CALLBACK) != 0u)
 858:Generated_Source\PSoC4/BLE_eventHandler.c ****     {
 859:Generated_Source\PSoC4/BLE_eventHandler.c ****         CyBle_GlscNotificationEventHandler(eventParam);
 860:Generated_Source\PSoC4/BLE_eventHandler.c ****     }
 861:Generated_Source\PSoC4/BLE_eventHandler.c **** #endif /* CYBLE_GLS_CLIENT */
 862:Generated_Source\PSoC4/BLE_eventHandler.c **** #ifdef CYBLE_HIDS_CLIENT
 863:Generated_Source\PSoC4/BLE_eventHandler.c ****     if((cyBle_eventHandlerFlag & CYBLE_CALLBACK) != 0u)
 864:Generated_Source\PSoC4/BLE_eventHandler.c ****     {
 865:Generated_Source\PSoC4/BLE_eventHandler.c ****         CyBle_HidscNotificationEventHandler(eventParam);
 866:Generated_Source\PSoC4/BLE_eventHandler.c ****     }
 867:Generated_Source\PSoC4/BLE_eventHandler.c **** #endif /* CYBLE_HIDS_CLIENT */
 868:Generated_Source\PSoC4/BLE_eventHandler.c **** #ifdef CYBLE_HPS_CLIENT
 869:Generated_Source\PSoC4/BLE_eventHandler.c ****     if((cyBle_eventHandlerFlag & CYBLE_CALLBACK) != 0u)
 870:Generated_Source\PSoC4/BLE_eventHandler.c ****     {
 871:Generated_Source\PSoC4/BLE_eventHandler.c ****         CyBle_HpscNotificationEventHandler(eventParam);
 872:Generated_Source\PSoC4/BLE_eventHandler.c ****     }
 873:Generated_Source\PSoC4/BLE_eventHandler.c **** #endif /* CYBLE_HPS_CLIENT */
 874:Generated_Source\PSoC4/BLE_eventHandler.c **** #ifdef CYBLE_HRS_CLIENT
 875:Generated_Source\PSoC4/BLE_eventHandler.c ****     if((cyBle_eventHandlerFlag & CYBLE_CALLBACK) != 0u)
 876:Generated_Source\PSoC4/BLE_eventHandler.c ****     {
 877:Generated_Source\PSoC4/BLE_eventHandler.c ****         CyBle_HrscNotificationEventHandler(eventParam);
 878:Generated_Source\PSoC4/BLE_eventHandler.c ****     }
 879:Generated_Source\PSoC4/BLE_eventHandler.c **** #endif /* CYBLE_HRS_CLIENT */
 880:Generated_Source\PSoC4/BLE_eventHandler.c **** #ifdef CYBLE_HTS_CLIENT
 881:Generated_Source\PSoC4/BLE_eventHandler.c ****     if((cyBle_eventHandlerFlag & CYBLE_CALLBACK) != 0u)
 882:Generated_Source\PSoC4/BLE_eventHandler.c ****     {
 883:Generated_Source\PSoC4/BLE_eventHandler.c ****         CyBle_HtscNotificationEventHandler(eventParam);
 884:Generated_Source\PSoC4/BLE_eventHandler.c ****     }
 885:Generated_Source\PSoC4/BLE_eventHandler.c **** #endif /* CYBLE_HTS_CLIENT */
 886:Generated_Source\PSoC4/BLE_eventHandler.c **** #ifdef CYBLE_LNS_CLIENT
 887:Generated_Source\PSoC4/BLE_eventHandler.c ****     if((cyBle_eventHandlerFlag & CYBLE_CALLBACK) != 0u)
 888:Generated_Source\PSoC4/BLE_eventHandler.c ****     {
 889:Generated_Source\PSoC4/BLE_eventHandler.c ****         CyBle_LnscNotificationEventHandler(eventParam);
 890:Generated_Source\PSoC4/BLE_eventHandler.c ****     }
 891:Generated_Source\PSoC4/BLE_eventHandler.c **** #endif /* CYBLE_LNS_CLIENT */
 892:Generated_Source\PSoC4/BLE_eventHandler.c **** #ifdef CYBLE_PASS_CLIENT
 893:Generated_Source\PSoC4/BLE_eventHandler.c ****     if((cyBle_eventHandlerFlag & CYBLE_CALLBACK) != 0u)
 894:Generated_Source\PSoC4/BLE_eventHandler.c ****     {
 895:Generated_Source\PSoC4/BLE_eventHandler.c ****         CyBle_PasscNotificationEventHandler(eventParam);
 896:Generated_Source\PSoC4/BLE_eventHandler.c ****     }
 897:Generated_Source\PSoC4/BLE_eventHandler.c **** #endif /* CYBLE_PASS_CLIENT */
 898:Generated_Source\PSoC4/BLE_eventHandler.c **** #ifdef CYBLE_PLXS_CLIENT
 899:Generated_Source\PSoC4/BLE_eventHandler.c ****     if((cyBle_eventHandlerFlag & CYBLE_CALLBACK) != 0u)
 900:Generated_Source\PSoC4/BLE_eventHandler.c ****     {
 901:Generated_Source\PSoC4/BLE_eventHandler.c ****         CyBle_PlxscNotificationEventHandler(eventParam);
 902:Generated_Source\PSoC4/BLE_eventHandler.c ****     }
 903:Generated_Source\PSoC4/BLE_eventHandler.c **** #endif /* CYBLE_PLXS_CLIENT */
 904:Generated_Source\PSoC4/BLE_eventHandler.c **** #ifdef CYBLE_RSCS_CLIENT
 905:Generated_Source\PSoC4/BLE_eventHandler.c ****     if((cyBle_eventHandlerFlag & CYBLE_CALLBACK) != 0u)
 906:Generated_Source\PSoC4/BLE_eventHandler.c ****     {
 907:Generated_Source\PSoC4/BLE_eventHandler.c ****         CyBle_RscscNotificationEventHandler(eventParam);
 908:Generated_Source\PSoC4/BLE_eventHandler.c ****     }
 909:Generated_Source\PSoC4/BLE_eventHandler.c **** #endif /* CYBLE_RSCS_CLIENT */
ARM GAS  C:\Users\TTSS\AppData\Local\Temp\ccySleeg.s 			page 20


 910:Generated_Source\PSoC4/BLE_eventHandler.c **** #ifdef CYBLE_SCPS_CLIENT
 911:Generated_Source\PSoC4/BLE_eventHandler.c ****     if((cyBle_eventHandlerFlag & CYBLE_CALLBACK) != 0u)
 912:Generated_Source\PSoC4/BLE_eventHandler.c ****     {
 913:Generated_Source\PSoC4/BLE_eventHandler.c ****         CyBle_ScpscNotificationEventHandler(eventParam);
 914:Generated_Source\PSoC4/BLE_eventHandler.c ****     }
 915:Generated_Source\PSoC4/BLE_eventHandler.c **** #endif /* CYBLE_SCPS_CLIENT */
 916:Generated_Source\PSoC4/BLE_eventHandler.c **** #ifdef CYBLE_TPS_CLIENT
 917:Generated_Source\PSoC4/BLE_eventHandler.c ****     if((cyBle_eventHandlerFlag & CYBLE_CALLBACK) != 0u)
 918:Generated_Source\PSoC4/BLE_eventHandler.c ****     {
 919:Generated_Source\PSoC4/BLE_eventHandler.c ****         CyBle_TpscNotificationEventHandler(eventParam);
 920:Generated_Source\PSoC4/BLE_eventHandler.c ****     }
 921:Generated_Source\PSoC4/BLE_eventHandler.c **** #endif /* CYBLE_TPS_CLIENT */
 922:Generated_Source\PSoC4/BLE_eventHandler.c **** #ifdef CYBLE_UDS_CLIENT
 923:Generated_Source\PSoC4/BLE_eventHandler.c ****     if((cyBle_eventHandlerFlag & CYBLE_CALLBACK) != 0u)
 924:Generated_Source\PSoC4/BLE_eventHandler.c ****     {
 925:Generated_Source\PSoC4/BLE_eventHandler.c ****         CyBle_UdscNotificationEventHandler(eventParam);
 926:Generated_Source\PSoC4/BLE_eventHandler.c ****     }
 927:Generated_Source\PSoC4/BLE_eventHandler.c **** #endif /* CYBLE_UDS_CLIENT */
 928:Generated_Source\PSoC4/BLE_eventHandler.c **** #ifdef CYBLE_WPTS_CLIENT
 929:Generated_Source\PSoC4/BLE_eventHandler.c ****     if((cyBle_eventHandlerFlag & CYBLE_CALLBACK) != 0u)
 930:Generated_Source\PSoC4/BLE_eventHandler.c ****     {
 931:Generated_Source\PSoC4/BLE_eventHandler.c ****         CyBle_WptscNotificationEventHandler(eventParam);
 932:Generated_Source\PSoC4/BLE_eventHandler.c ****     }
 933:Generated_Source\PSoC4/BLE_eventHandler.c **** #endif /* CYBLE_WPTS_CLIENT */
 934:Generated_Source\PSoC4/BLE_eventHandler.c **** }
 935:Generated_Source\PSoC4/BLE_eventHandler.c **** 
 936:Generated_Source\PSoC4/BLE_eventHandler.c **** 
 937:Generated_Source\PSoC4/BLE_eventHandler.c **** /******************************************************************************    
 938:Generated_Source\PSoC4/BLE_eventHandler.c **** * Function Name: CyBle_IndicationEventHandler
 939:Generated_Source\PSoC4/BLE_eventHandler.c **** ***************************************************************************//**
 940:Generated_Source\PSoC4/BLE_eventHandler.c **** * 
 941:Generated_Source\PSoC4/BLE_eventHandler.c **** *  Handles the Indication event from BLE stack.
 942:Generated_Source\PSoC4/BLE_eventHandler.c **** * 
 943:Generated_Source\PSoC4/BLE_eventHandler.c **** *  \param eventParam: event parameter
 944:Generated_Source\PSoC4/BLE_eventHandler.c **** * 
 945:Generated_Source\PSoC4/BLE_eventHandler.c **** * \return
 946:Generated_Source\PSoC4/BLE_eventHandler.c **** *  None
 947:Generated_Source\PSoC4/BLE_eventHandler.c **** * 
 948:Generated_Source\PSoC4/BLE_eventHandler.c **** ******************************************************************************/
 949:Generated_Source\PSoC4/BLE_eventHandler.c **** static void CyBle_IndicationEventHandler(CYBLE_GATTC_HANDLE_VALUE_IND_PARAM_T *eventParam)
 950:Generated_Source\PSoC4/BLE_eventHandler.c **** {
 951:Generated_Source\PSoC4/BLE_eventHandler.c **** #ifdef CYBLE_AIOS_CLIENT
 952:Generated_Source\PSoC4/BLE_eventHandler.c ****     if((cyBle_eventHandlerFlag & CYBLE_CALLBACK) != 0u)
 953:Generated_Source\PSoC4/BLE_eventHandler.c ****     {
 954:Generated_Source\PSoC4/BLE_eventHandler.c ****         CyBle_AioscIndicationEventHandler(eventParam);
 955:Generated_Source\PSoC4/BLE_eventHandler.c ****     }
 956:Generated_Source\PSoC4/BLE_eventHandler.c **** #endif /* CYBLE_AIOS_CLIENT */
 957:Generated_Source\PSoC4/BLE_eventHandler.c **** #ifdef CYBLE_BCS_CLIENT
 958:Generated_Source\PSoC4/BLE_eventHandler.c ****     if((cyBle_eventHandlerFlag & CYBLE_CALLBACK) != 0u)
 959:Generated_Source\PSoC4/BLE_eventHandler.c ****     {
 960:Generated_Source\PSoC4/BLE_eventHandler.c ****         CyBle_BcscIndicationEventHandler(eventParam);
 961:Generated_Source\PSoC4/BLE_eventHandler.c ****     }
 962:Generated_Source\PSoC4/BLE_eventHandler.c **** #endif /* CYBLE_BCS_CLIENT */
 963:Generated_Source\PSoC4/BLE_eventHandler.c **** #ifdef CYBLE_BLS_CLIENT
 964:Generated_Source\PSoC4/BLE_eventHandler.c ****     if((cyBle_eventHandlerFlag & CYBLE_CALLBACK) != 0u)
 965:Generated_Source\PSoC4/BLE_eventHandler.c ****     {
 966:Generated_Source\PSoC4/BLE_eventHandler.c ****         CyBle_BlscIndicationEventHandler(eventParam);
ARM GAS  C:\Users\TTSS\AppData\Local\Temp\ccySleeg.s 			page 21


 967:Generated_Source\PSoC4/BLE_eventHandler.c ****     }
 968:Generated_Source\PSoC4/BLE_eventHandler.c **** #endif /* CYBLE_BLS_CLIENT */
 969:Generated_Source\PSoC4/BLE_eventHandler.c **** #ifdef CYBLE_CGMS_CLIENT
 970:Generated_Source\PSoC4/BLE_eventHandler.c ****     if((cyBle_eventHandlerFlag & CYBLE_CALLBACK) != 0u)
 971:Generated_Source\PSoC4/BLE_eventHandler.c ****     {
 972:Generated_Source\PSoC4/BLE_eventHandler.c ****         CyBle_CgmscIndicationEventHandler(eventParam);
 973:Generated_Source\PSoC4/BLE_eventHandler.c ****     }
 974:Generated_Source\PSoC4/BLE_eventHandler.c **** #endif /* CYBLE_CGMS_CLIENT */
 975:Generated_Source\PSoC4/BLE_eventHandler.c **** #ifdef CYBLE_CPS_CLIENT
 976:Generated_Source\PSoC4/BLE_eventHandler.c ****     if((cyBle_eventHandlerFlag & CYBLE_CALLBACK) != 0u)
 977:Generated_Source\PSoC4/BLE_eventHandler.c ****     {
 978:Generated_Source\PSoC4/BLE_eventHandler.c ****         CyBle_CpscIndicationEventHandler(eventParam);
 979:Generated_Source\PSoC4/BLE_eventHandler.c ****     }
 980:Generated_Source\PSoC4/BLE_eventHandler.c **** #endif /* CYBLE_CPS_CLIENT */
 981:Generated_Source\PSoC4/BLE_eventHandler.c **** #ifdef CYBLE_CSCS_CLIENT
 982:Generated_Source\PSoC4/BLE_eventHandler.c ****     if((cyBle_eventHandlerFlag & CYBLE_CALLBACK) != 0u)
 983:Generated_Source\PSoC4/BLE_eventHandler.c ****     {
 984:Generated_Source\PSoC4/BLE_eventHandler.c ****         CyBle_CscscIndicationEventHandler(eventParam);
 985:Generated_Source\PSoC4/BLE_eventHandler.c ****     }
 986:Generated_Source\PSoC4/BLE_eventHandler.c **** #endif /* CYBLE_CSCS_CLIENT */
 987:Generated_Source\PSoC4/BLE_eventHandler.c **** #ifdef CYBLE_ESS_CLIENT
 988:Generated_Source\PSoC4/BLE_eventHandler.c ****     if((cyBle_eventHandlerFlag & CYBLE_CALLBACK) != 0u)
 989:Generated_Source\PSoC4/BLE_eventHandler.c ****     {
 990:Generated_Source\PSoC4/BLE_eventHandler.c ****         CyBle_EsscIndicationEventHandler(eventParam);
 991:Generated_Source\PSoC4/BLE_eventHandler.c ****     }
 992:Generated_Source\PSoC4/BLE_eventHandler.c **** #endif /* CYBLE_ESS_CLIENT */
 993:Generated_Source\PSoC4/BLE_eventHandler.c **** #ifdef CYBLE_GLS_CLIENT
 994:Generated_Source\PSoC4/BLE_eventHandler.c ****     if((cyBle_eventHandlerFlag & CYBLE_CALLBACK) != 0u)
 995:Generated_Source\PSoC4/BLE_eventHandler.c ****     {
 996:Generated_Source\PSoC4/BLE_eventHandler.c ****         CyBle_GlscIndicationEventHandler(eventParam);
 997:Generated_Source\PSoC4/BLE_eventHandler.c ****     }
 998:Generated_Source\PSoC4/BLE_eventHandler.c **** #endif /* CYBLE_GLS_CLIENT */
 999:Generated_Source\PSoC4/BLE_eventHandler.c **** #ifdef CYBLE_HTS_CLIENT
1000:Generated_Source\PSoC4/BLE_eventHandler.c ****     if((cyBle_eventHandlerFlag & CYBLE_CALLBACK) != 0u)
1001:Generated_Source\PSoC4/BLE_eventHandler.c ****     {
1002:Generated_Source\PSoC4/BLE_eventHandler.c ****         CyBle_HtscIndicationEventHandler(eventParam);
1003:Generated_Source\PSoC4/BLE_eventHandler.c ****     }
1004:Generated_Source\PSoC4/BLE_eventHandler.c **** #endif /* CYBLE_HTS_CLIENT */
1005:Generated_Source\PSoC4/BLE_eventHandler.c **** #ifdef CYBLE_LNS_CLIENT
1006:Generated_Source\PSoC4/BLE_eventHandler.c ****     if((cyBle_eventHandlerFlag & CYBLE_CALLBACK) != 0u)
1007:Generated_Source\PSoC4/BLE_eventHandler.c ****     {
1008:Generated_Source\PSoC4/BLE_eventHandler.c ****         CyBle_LnscIndicationEventHandler(eventParam);
1009:Generated_Source\PSoC4/BLE_eventHandler.c ****     }
1010:Generated_Source\PSoC4/BLE_eventHandler.c **** #endif /* CYBLE_LNS_CLIENT */
1011:Generated_Source\PSoC4/BLE_eventHandler.c **** #ifdef CYBLE_PLXS_CLIENT
1012:Generated_Source\PSoC4/BLE_eventHandler.c ****     if((cyBle_eventHandlerFlag & CYBLE_CALLBACK) != 0u)
1013:Generated_Source\PSoC4/BLE_eventHandler.c ****     {
1014:Generated_Source\PSoC4/BLE_eventHandler.c ****         CyBle_PlxscIndicationEventHandler(eventParam);
1015:Generated_Source\PSoC4/BLE_eventHandler.c ****     }
1016:Generated_Source\PSoC4/BLE_eventHandler.c **** #endif /* CYBLE_PLXS_CLIENT */
1017:Generated_Source\PSoC4/BLE_eventHandler.c **** #ifdef CYBLE_RSCS_CLIENT
1018:Generated_Source\PSoC4/BLE_eventHandler.c ****     if((cyBle_eventHandlerFlag & CYBLE_CALLBACK) != 0u)
1019:Generated_Source\PSoC4/BLE_eventHandler.c ****     {
1020:Generated_Source\PSoC4/BLE_eventHandler.c ****         CyBle_RscscIndicationEventHandler(eventParam);
1021:Generated_Source\PSoC4/BLE_eventHandler.c ****     }
1022:Generated_Source\PSoC4/BLE_eventHandler.c **** #endif /* CYBLE_RSCS_CLIENT */
1023:Generated_Source\PSoC4/BLE_eventHandler.c **** #ifdef CYBLE_UDS_CLIENT
ARM GAS  C:\Users\TTSS\AppData\Local\Temp\ccySleeg.s 			page 22


1024:Generated_Source\PSoC4/BLE_eventHandler.c ****     if((cyBle_eventHandlerFlag & CYBLE_CALLBACK) != 0u)
1025:Generated_Source\PSoC4/BLE_eventHandler.c ****     {
1026:Generated_Source\PSoC4/BLE_eventHandler.c ****         CyBle_UdscIndicationEventHandler(eventParam);
1027:Generated_Source\PSoC4/BLE_eventHandler.c ****     }
1028:Generated_Source\PSoC4/BLE_eventHandler.c **** #endif /* CYBLE_UDS_CLIENT */
1029:Generated_Source\PSoC4/BLE_eventHandler.c **** #ifdef CYBLE_WPTS_CLIENT
1030:Generated_Source\PSoC4/BLE_eventHandler.c ****     if((cyBle_eventHandlerFlag & CYBLE_CALLBACK) != 0u)
1031:Generated_Source\PSoC4/BLE_eventHandler.c ****     {
1032:Generated_Source\PSoC4/BLE_eventHandler.c ****         CyBle_WptscIndicationEventHandler(eventParam);
1033:Generated_Source\PSoC4/BLE_eventHandler.c ****     }
1034:Generated_Source\PSoC4/BLE_eventHandler.c **** #endif /* CYBLE_WPTS_CLIENT */
1035:Generated_Source\PSoC4/BLE_eventHandler.c **** #ifdef CYBLE_WSS_CLIENT
1036:Generated_Source\PSoC4/BLE_eventHandler.c ****     if((cyBle_eventHandlerFlag & CYBLE_CALLBACK) != 0u)
1037:Generated_Source\PSoC4/BLE_eventHandler.c ****     {
1038:Generated_Source\PSoC4/BLE_eventHandler.c ****         CyBle_WsscIndicationEventHandler(eventParam);
1039:Generated_Source\PSoC4/BLE_eventHandler.c ****     }
1040:Generated_Source\PSoC4/BLE_eventHandler.c **** #endif /* CYBLE_WSS_CLIENT */
1041:Generated_Source\PSoC4/BLE_eventHandler.c **** }
1042:Generated_Source\PSoC4/BLE_eventHandler.c **** 
1043:Generated_Source\PSoC4/BLE_eventHandler.c **** /******************************************************************************    
1044:Generated_Source\PSoC4/BLE_eventHandler.c **** * Function Name: CyBle_ReadResponseEventHandler
1045:Generated_Source\PSoC4/BLE_eventHandler.c **** ***************************************************************************//**
1046:Generated_Source\PSoC4/BLE_eventHandler.c **** * 
1047:Generated_Source\PSoC4/BLE_eventHandler.c **** *  Handles the Read Response event from BLE stack.
1048:Generated_Source\PSoC4/BLE_eventHandler.c **** * 
1049:Generated_Source\PSoC4/BLE_eventHandler.c **** *  \param eventParam: event parameter
1050:Generated_Source\PSoC4/BLE_eventHandler.c **** * 
1051:Generated_Source\PSoC4/BLE_eventHandler.c **** * \return
1052:Generated_Source\PSoC4/BLE_eventHandler.c **** *  None
1053:Generated_Source\PSoC4/BLE_eventHandler.c **** * 
1054:Generated_Source\PSoC4/BLE_eventHandler.c **** ******************************************************************************/
1055:Generated_Source\PSoC4/BLE_eventHandler.c **** static void CyBle_ReadResponseEventHandler(CYBLE_GATTC_READ_RSP_PARAM_T *eventParam)
1056:Generated_Source\PSoC4/BLE_eventHandler.c **** {
1057:Generated_Source\PSoC4/BLE_eventHandler.c **** #ifdef CYBLE_CUSTOM_CLIENT
1058:Generated_Source\PSoC4/BLE_eventHandler.c ****     /* Read response with 128-bit included service uuid */
1059:Generated_Source\PSoC4/BLE_eventHandler.c ****     if((CyBle_GetClientState() == CYBLE_CLIENT_STATE_INCL_DISCOVERING) &&
1060:Generated_Source\PSoC4/BLE_eventHandler.c ****        (cyBle_discInclInfo.inclDefHandle != 0u))
1061:Generated_Source\PSoC4/BLE_eventHandler.c ****     {
1062:Generated_Source\PSoC4/BLE_eventHandler.c ****         CYBLE_DISC_SRVC128_INFO_T discServInfo;
1063:Generated_Source\PSoC4/BLE_eventHandler.c **** 
1064:Generated_Source\PSoC4/BLE_eventHandler.c ****         /* Store service range */
1065:Generated_Source\PSoC4/BLE_eventHandler.c ****         discServInfo.range = cyBle_discInclInfo.inclHandleRange;
1066:Generated_Source\PSoC4/BLE_eventHandler.c ****         (void)memcpy((void *) discServInfo.uuid.uuid128.value, (void *)eventParam->value.val, event
1067:Generated_Source\PSoC4/BLE_eventHandler.c ****         CyBle_CustomcDiscoverServiceEventHandler(&discServInfo);
1068:Generated_Source\PSoC4/BLE_eventHandler.c ****         
1069:Generated_Source\PSoC4/BLE_eventHandler.c ****         /* Re-initiate CyBle_GattcFindIncludedServices function, setting the start
1070:Generated_Source\PSoC4/BLE_eventHandler.c ****            handle to the attribute handle which is placed next to the one used in
1071:Generated_Source\PSoC4/BLE_eventHandler.c ****            the above step.
1072:Generated_Source\PSoC4/BLE_eventHandler.c ****         */
1073:Generated_Source\PSoC4/BLE_eventHandler.c ****         discServInfo.range.startHandle = cyBle_discInclInfo.inclDefHandle + 1u;
1074:Generated_Source\PSoC4/BLE_eventHandler.c ****         discServInfo.range.endHandle = cyBle_serverInfo[cyBle_disCount].range.endHandle;
1075:Generated_Source\PSoC4/BLE_eventHandler.c ****         if(discServInfo.range.startHandle <= discServInfo.range.endHandle)
1076:Generated_Source\PSoC4/BLE_eventHandler.c ****         {
1077:Generated_Source\PSoC4/BLE_eventHandler.c ****             if(CYBLE_ERROR_OK != CyBle_GattcFindIncludedServices(cyBle_connHandle, &discServInfo.ra
1078:Generated_Source\PSoC4/BLE_eventHandler.c ****             {
1079:Generated_Source\PSoC4/BLE_eventHandler.c ****                 CyBle_ApplCallback(CYBLE_EVT_GATTC_INCL_DISCOVERY_FAILED, NULL);
1080:Generated_Source\PSoC4/BLE_eventHandler.c ****                 cyBle_eventHandlerFlag &= (uint8)~CYBLE_AUTO_DISCOVERY;
ARM GAS  C:\Users\TTSS\AppData\Local\Temp\ccySleeg.s 			page 23


1081:Generated_Source\PSoC4/BLE_eventHandler.c ****             }
1082:Generated_Source\PSoC4/BLE_eventHandler.c ****         }
1083:Generated_Source\PSoC4/BLE_eventHandler.c ****         else /* Continue discovery of the following service */
1084:Generated_Source\PSoC4/BLE_eventHandler.c ****         {
1085:Generated_Source\PSoC4/BLE_eventHandler.c ****             CyBle_NextInclDiscovery(CYBLE_DISCOVERY_CONTINUE);
1086:Generated_Source\PSoC4/BLE_eventHandler.c ****         }
1087:Generated_Source\PSoC4/BLE_eventHandler.c ****         
1088:Generated_Source\PSoC4/BLE_eventHandler.c ****         cyBle_eventHandlerFlag &= (uint8)~CYBLE_CALLBACK;
1089:Generated_Source\PSoC4/BLE_eventHandler.c ****     #ifdef CYBLE_CUSTOM_CLIENT
1090:Generated_Source\PSoC4/BLE_eventHandler.c ****         cyBle_discInclInfo.inclDefHandle = 0u;
1091:Generated_Source\PSoC4/BLE_eventHandler.c ****     #endif /* CYBLE_CUSTOM_CLIENT */
1092:Generated_Source\PSoC4/BLE_eventHandler.c ****     }
1093:Generated_Source\PSoC4/BLE_eventHandler.c **** #endif /* CYBLE_CUSTOM_CLIENT */
1094:Generated_Source\PSoC4/BLE_eventHandler.c **** #ifdef CYBLE_AIOS_CLIENT
1095:Generated_Source\PSoC4/BLE_eventHandler.c ****     if((cyBle_eventHandlerFlag & CYBLE_CALLBACK) != 0u)
1096:Generated_Source\PSoC4/BLE_eventHandler.c ****     {
1097:Generated_Source\PSoC4/BLE_eventHandler.c ****         CyBle_AioscReadResponseEventHandler(eventParam);
1098:Generated_Source\PSoC4/BLE_eventHandler.c ****     }
1099:Generated_Source\PSoC4/BLE_eventHandler.c **** #endif /* CYBLE_AIOS_CLIENT */
1100:Generated_Source\PSoC4/BLE_eventHandler.c **** #ifdef CYBLE_ANCS_CLIENT
1101:Generated_Source\PSoC4/BLE_eventHandler.c ****     if((cyBle_eventHandlerFlag & CYBLE_CALLBACK) != 0u)
1102:Generated_Source\PSoC4/BLE_eventHandler.c ****     {
1103:Generated_Source\PSoC4/BLE_eventHandler.c ****         CyBle_AncscReadResponseEventHandler(eventParam);
1104:Generated_Source\PSoC4/BLE_eventHandler.c ****     }
1105:Generated_Source\PSoC4/BLE_eventHandler.c **** #endif /* CYBLE_ANCS_CLIENT */
1106:Generated_Source\PSoC4/BLE_eventHandler.c **** #ifdef CYBLE_ANS_CLIENT
1107:Generated_Source\PSoC4/BLE_eventHandler.c ****     if((cyBle_eventHandlerFlag & CYBLE_CALLBACK) != 0u)
1108:Generated_Source\PSoC4/BLE_eventHandler.c ****     {
1109:Generated_Source\PSoC4/BLE_eventHandler.c ****         CyBle_AnscReadResponseEventHandler(eventParam);
1110:Generated_Source\PSoC4/BLE_eventHandler.c ****     }
1111:Generated_Source\PSoC4/BLE_eventHandler.c **** #endif /* CYBLE_ANS_CLIENT */
1112:Generated_Source\PSoC4/BLE_eventHandler.c **** #ifdef CYBLE_BAS_CLIENT
1113:Generated_Source\PSoC4/BLE_eventHandler.c ****     if((cyBle_eventHandlerFlag & CYBLE_CALLBACK) != 0u)
1114:Generated_Source\PSoC4/BLE_eventHandler.c ****     {
1115:Generated_Source\PSoC4/BLE_eventHandler.c ****         CyBle_BascReadResponseEventHandler(eventParam);
1116:Generated_Source\PSoC4/BLE_eventHandler.c ****     }
1117:Generated_Source\PSoC4/BLE_eventHandler.c **** #endif /* CYBLE_BAS_CLIENT */
1118:Generated_Source\PSoC4/BLE_eventHandler.c **** #ifdef CYBLE_BLS_CLIENT
1119:Generated_Source\PSoC4/BLE_eventHandler.c ****     if((cyBle_eventHandlerFlag & CYBLE_CALLBACK) != 0u)
1120:Generated_Source\PSoC4/BLE_eventHandler.c ****     {
1121:Generated_Source\PSoC4/BLE_eventHandler.c ****         CyBle_BlscReadResponseEventHandler(eventParam);
1122:Generated_Source\PSoC4/BLE_eventHandler.c ****     }
1123:Generated_Source\PSoC4/BLE_eventHandler.c **** #endif /* CYBLE_BLS_CLIENT */
1124:Generated_Source\PSoC4/BLE_eventHandler.c **** #ifdef CYBLE_BCS_CLIENT
1125:Generated_Source\PSoC4/BLE_eventHandler.c ****     if((cyBle_eventHandlerFlag & CYBLE_CALLBACK) != 0u)
1126:Generated_Source\PSoC4/BLE_eventHandler.c ****     {
1127:Generated_Source\PSoC4/BLE_eventHandler.c ****         CyBle_BcscReadResponseEventHandler(eventParam);
1128:Generated_Source\PSoC4/BLE_eventHandler.c ****     }
1129:Generated_Source\PSoC4/BLE_eventHandler.c **** #endif /* CYBLE_BCS_CLIENT */
1130:Generated_Source\PSoC4/BLE_eventHandler.c **** #ifdef CYBLE_BMS_CLIENT
1131:Generated_Source\PSoC4/BLE_eventHandler.c ****     if((cyBle_eventHandlerFlag & CYBLE_CALLBACK) != 0u)
1132:Generated_Source\PSoC4/BLE_eventHandler.c ****     {
1133:Generated_Source\PSoC4/BLE_eventHandler.c ****         CyBle_BmscReadResponseEventHandler(eventParam);
1134:Generated_Source\PSoC4/BLE_eventHandler.c ****     }
1135:Generated_Source\PSoC4/BLE_eventHandler.c **** #endif /* CYBLE_BMS_CLIENT */
1136:Generated_Source\PSoC4/BLE_eventHandler.c **** #ifdef CYBLE_CGMS_CLIENT
1137:Generated_Source\PSoC4/BLE_eventHandler.c ****     if((cyBle_eventHandlerFlag & CYBLE_CALLBACK) != 0u)
ARM GAS  C:\Users\TTSS\AppData\Local\Temp\ccySleeg.s 			page 24


1138:Generated_Source\PSoC4/BLE_eventHandler.c ****     {
1139:Generated_Source\PSoC4/BLE_eventHandler.c ****         CyBle_CgmscReadResponseEventHandler(eventParam);
1140:Generated_Source\PSoC4/BLE_eventHandler.c ****     }
1141:Generated_Source\PSoC4/BLE_eventHandler.c **** #endif /* CYBLE_CGMS_CLIENT */
1142:Generated_Source\PSoC4/BLE_eventHandler.c **** #ifdef CYBLE_CPS_CLIENT
1143:Generated_Source\PSoC4/BLE_eventHandler.c ****     if((cyBle_eventHandlerFlag & CYBLE_CALLBACK) != 0u)
1144:Generated_Source\PSoC4/BLE_eventHandler.c ****     {
1145:Generated_Source\PSoC4/BLE_eventHandler.c ****         CyBle_CpscReadResponseEventHandler(eventParam);
1146:Generated_Source\PSoC4/BLE_eventHandler.c ****     }
1147:Generated_Source\PSoC4/BLE_eventHandler.c **** #endif /* CYBLE_CPS_CLIENT */
1148:Generated_Source\PSoC4/BLE_eventHandler.c **** #ifdef CYBLE_CSCS_CLIENT
1149:Generated_Source\PSoC4/BLE_eventHandler.c ****     if((cyBle_eventHandlerFlag & CYBLE_CALLBACK) != 0u)
1150:Generated_Source\PSoC4/BLE_eventHandler.c ****     {
1151:Generated_Source\PSoC4/BLE_eventHandler.c ****         CyBle_CscscReadResponseEventHandler(eventParam);
1152:Generated_Source\PSoC4/BLE_eventHandler.c ****     }
1153:Generated_Source\PSoC4/BLE_eventHandler.c **** #endif /* CYBLE_CSCS_CLIENT */
1154:Generated_Source\PSoC4/BLE_eventHandler.c **** #ifdef CYBLE_CTS_CLIENT
1155:Generated_Source\PSoC4/BLE_eventHandler.c ****     if((cyBle_eventHandlerFlag & CYBLE_CALLBACK) != 0u)
1156:Generated_Source\PSoC4/BLE_eventHandler.c ****     {
1157:Generated_Source\PSoC4/BLE_eventHandler.c ****         CyBle_CtscReadResponseEventHandler(eventParam);
1158:Generated_Source\PSoC4/BLE_eventHandler.c ****     }
1159:Generated_Source\PSoC4/BLE_eventHandler.c **** #endif /* CYBLE_BAS_CLIENT */
1160:Generated_Source\PSoC4/BLE_eventHandler.c **** #ifdef CYBLE_DIS_CLIENT
1161:Generated_Source\PSoC4/BLE_eventHandler.c ****     if((cyBle_eventHandlerFlag & CYBLE_CALLBACK) != 0u)
1162:Generated_Source\PSoC4/BLE_eventHandler.c ****     {
1163:Generated_Source\PSoC4/BLE_eventHandler.c ****         CyBle_DiscReadResponseEventHandler(eventParam);
1164:Generated_Source\PSoC4/BLE_eventHandler.c ****     }
1165:Generated_Source\PSoC4/BLE_eventHandler.c **** #endif /* CYBLE_DIS_CLIENT */
1166:Generated_Source\PSoC4/BLE_eventHandler.c **** #ifdef CYBLE_ESS_CLIENT
1167:Generated_Source\PSoC4/BLE_eventHandler.c ****     if((cyBle_eventHandlerFlag & CYBLE_CALLBACK) != 0u)
1168:Generated_Source\PSoC4/BLE_eventHandler.c ****     {
1169:Generated_Source\PSoC4/BLE_eventHandler.c ****         CyBle_EsscReadResponseEventHandler(eventParam);
1170:Generated_Source\PSoC4/BLE_eventHandler.c ****     }
1171:Generated_Source\PSoC4/BLE_eventHandler.c **** #endif /* CYBLE_ESS_CLIENT */
1172:Generated_Source\PSoC4/BLE_eventHandler.c **** #ifdef CYBLE_GLS_CLIENT
1173:Generated_Source\PSoC4/BLE_eventHandler.c ****     if((cyBle_eventHandlerFlag & CYBLE_CALLBACK) != 0u)
1174:Generated_Source\PSoC4/BLE_eventHandler.c ****     {
1175:Generated_Source\PSoC4/BLE_eventHandler.c ****         CyBle_GlscReadResponseEventHandler(eventParam);
1176:Generated_Source\PSoC4/BLE_eventHandler.c ****     }
1177:Generated_Source\PSoC4/BLE_eventHandler.c **** #endif /* CYBLE_GLS_CLIENT */
1178:Generated_Source\PSoC4/BLE_eventHandler.c **** #ifdef CYBLE_HIDS_CLIENT
1179:Generated_Source\PSoC4/BLE_eventHandler.c ****     if((cyBle_eventHandlerFlag & CYBLE_CALLBACK) != 0u)
1180:Generated_Source\PSoC4/BLE_eventHandler.c ****     {
1181:Generated_Source\PSoC4/BLE_eventHandler.c ****         CyBle_HidscReadResponseEventHandler(eventParam);
1182:Generated_Source\PSoC4/BLE_eventHandler.c ****     }
1183:Generated_Source\PSoC4/BLE_eventHandler.c **** #endif /* CYBLE_HIDS_CLIENT */
1184:Generated_Source\PSoC4/BLE_eventHandler.c **** #ifdef CYBLE_HPS_CLIENT
1185:Generated_Source\PSoC4/BLE_eventHandler.c ****     if((cyBle_eventHandlerFlag & CYBLE_CALLBACK) != 0u)
1186:Generated_Source\PSoC4/BLE_eventHandler.c ****     {
1187:Generated_Source\PSoC4/BLE_eventHandler.c ****         CyBle_HpscReadResponseEventHandler(eventParam);
1188:Generated_Source\PSoC4/BLE_eventHandler.c ****     }
1189:Generated_Source\PSoC4/BLE_eventHandler.c **** #endif /* CYBLE_HPS_CLIENT */
1190:Generated_Source\PSoC4/BLE_eventHandler.c **** #ifdef CYBLE_HRS_CLIENT
1191:Generated_Source\PSoC4/BLE_eventHandler.c ****     if((cyBle_eventHandlerFlag & CYBLE_CALLBACK) != 0u)
1192:Generated_Source\PSoC4/BLE_eventHandler.c ****     {
1193:Generated_Source\PSoC4/BLE_eventHandler.c ****         CyBle_HrscReadResponseEventHandler(eventParam);
1194:Generated_Source\PSoC4/BLE_eventHandler.c ****     }
ARM GAS  C:\Users\TTSS\AppData\Local\Temp\ccySleeg.s 			page 25


1195:Generated_Source\PSoC4/BLE_eventHandler.c **** #endif /* CYBLE_HRS_CLIENT */
1196:Generated_Source\PSoC4/BLE_eventHandler.c **** #ifdef CYBLE_HTS_CLIENT
1197:Generated_Source\PSoC4/BLE_eventHandler.c ****     if((cyBle_eventHandlerFlag & CYBLE_CALLBACK) != 0u)
1198:Generated_Source\PSoC4/BLE_eventHandler.c ****     {
1199:Generated_Source\PSoC4/BLE_eventHandler.c ****         CyBle_HtscReadResponseEventHandler(eventParam);
1200:Generated_Source\PSoC4/BLE_eventHandler.c ****     }
1201:Generated_Source\PSoC4/BLE_eventHandler.c **** #endif /* CYBLE_HTS_CLIENT */
1202:Generated_Source\PSoC4/BLE_eventHandler.c **** #ifdef CYBLE_IPS_CLIENT
1203:Generated_Source\PSoC4/BLE_eventHandler.c ****     if((cyBle_eventHandlerFlag & CYBLE_CALLBACK) != 0u)
1204:Generated_Source\PSoC4/BLE_eventHandler.c ****     {
1205:Generated_Source\PSoC4/BLE_eventHandler.c ****         CyBle_IpscReadResponseEventHandler(eventParam);
1206:Generated_Source\PSoC4/BLE_eventHandler.c ****     }
1207:Generated_Source\PSoC4/BLE_eventHandler.c **** #endif /* CYBLE_IPS_CLIENT */
1208:Generated_Source\PSoC4/BLE_eventHandler.c **** #ifdef CYBLE_LLS_CLIENT
1209:Generated_Source\PSoC4/BLE_eventHandler.c ****     if((cyBle_eventHandlerFlag & CYBLE_CALLBACK) != 0u)
1210:Generated_Source\PSoC4/BLE_eventHandler.c ****     {
1211:Generated_Source\PSoC4/BLE_eventHandler.c ****         CyBle_LlscReadResponseEventHandler(eventParam);
1212:Generated_Source\PSoC4/BLE_eventHandler.c ****     }
1213:Generated_Source\PSoC4/BLE_eventHandler.c **** #endif /* CYBLE_LLS_CLIENT */
1214:Generated_Source\PSoC4/BLE_eventHandler.c **** #ifdef CYBLE_LNS_CLIENT
1215:Generated_Source\PSoC4/BLE_eventHandler.c ****     if((cyBle_eventHandlerFlag & CYBLE_CALLBACK) != 0u)
1216:Generated_Source\PSoC4/BLE_eventHandler.c ****     {
1217:Generated_Source\PSoC4/BLE_eventHandler.c ****         CyBle_LnscReadResponseEventHandler(eventParam);
1218:Generated_Source\PSoC4/BLE_eventHandler.c ****     }
1219:Generated_Source\PSoC4/BLE_eventHandler.c **** #endif /* CYBLE_LNS_CLIENT */
1220:Generated_Source\PSoC4/BLE_eventHandler.c **** #ifdef CYBLE_NDCS_CLIENT
1221:Generated_Source\PSoC4/BLE_eventHandler.c ****     if((cyBle_eventHandlerFlag & CYBLE_CALLBACK) != 0u)
1222:Generated_Source\PSoC4/BLE_eventHandler.c ****     {
1223:Generated_Source\PSoC4/BLE_eventHandler.c ****         CyBle_NdcscReadResponseEventHandler(eventParam);
1224:Generated_Source\PSoC4/BLE_eventHandler.c ****     }
1225:Generated_Source\PSoC4/BLE_eventHandler.c **** #endif /* CYBLE_NDCS_CLIENT */
1226:Generated_Source\PSoC4/BLE_eventHandler.c **** #ifdef CYBLE_PASS_CLIENT
1227:Generated_Source\PSoC4/BLE_eventHandler.c ****     if((cyBle_eventHandlerFlag & CYBLE_CALLBACK) != 0u)
1228:Generated_Source\PSoC4/BLE_eventHandler.c ****     {
1229:Generated_Source\PSoC4/BLE_eventHandler.c ****         CyBle_PasscReadResponseEventHandler(eventParam);
1230:Generated_Source\PSoC4/BLE_eventHandler.c ****     }
1231:Generated_Source\PSoC4/BLE_eventHandler.c **** #endif /* CYBLE_PASS_CLIENT */
1232:Generated_Source\PSoC4/BLE_eventHandler.c **** #ifdef CYBLE_PLXS_CLIENT
1233:Generated_Source\PSoC4/BLE_eventHandler.c ****     if((cyBle_eventHandlerFlag & CYBLE_CALLBACK) != 0u)
1234:Generated_Source\PSoC4/BLE_eventHandler.c ****     {
1235:Generated_Source\PSoC4/BLE_eventHandler.c ****         CyBle_PlxscReadResponseEventHandler(eventParam);
1236:Generated_Source\PSoC4/BLE_eventHandler.c ****     }
1237:Generated_Source\PSoC4/BLE_eventHandler.c **** #endif /* CYBLE_PLXS_CLIENT */
1238:Generated_Source\PSoC4/BLE_eventHandler.c **** #ifdef CYBLE_RSCS_CLIENT
1239:Generated_Source\PSoC4/BLE_eventHandler.c ****     if((cyBle_eventHandlerFlag & CYBLE_CALLBACK) != 0u)
1240:Generated_Source\PSoC4/BLE_eventHandler.c ****     {
1241:Generated_Source\PSoC4/BLE_eventHandler.c ****         CyBle_RscscReadResponseEventHandler(eventParam);
1242:Generated_Source\PSoC4/BLE_eventHandler.c ****     }
1243:Generated_Source\PSoC4/BLE_eventHandler.c **** #endif /* CYBLE_RSCS_CLIENT */
1244:Generated_Source\PSoC4/BLE_eventHandler.c **** #ifdef CYBLE_RTUS_CLIENT
1245:Generated_Source\PSoC4/BLE_eventHandler.c ****     if((cyBle_eventHandlerFlag & CYBLE_CALLBACK) != 0u)
1246:Generated_Source\PSoC4/BLE_eventHandler.c ****     {
1247:Generated_Source\PSoC4/BLE_eventHandler.c ****         CyBle_RtuscReadResponseEventHandler(eventParam);
1248:Generated_Source\PSoC4/BLE_eventHandler.c ****     }
1249:Generated_Source\PSoC4/BLE_eventHandler.c **** #endif /* CYBLE_RTUS_CLIENT */
1250:Generated_Source\PSoC4/BLE_eventHandler.c **** #ifdef CYBLE_SCPS_CLIENT
1251:Generated_Source\PSoC4/BLE_eventHandler.c ****     if((cyBle_eventHandlerFlag & CYBLE_CALLBACK) != 0u)
ARM GAS  C:\Users\TTSS\AppData\Local\Temp\ccySleeg.s 			page 26


1252:Generated_Source\PSoC4/BLE_eventHandler.c ****     {
1253:Generated_Source\PSoC4/BLE_eventHandler.c ****         CyBle_ScpscReadResponseEventHandler(eventParam);
1254:Generated_Source\PSoC4/BLE_eventHandler.c ****     }
1255:Generated_Source\PSoC4/BLE_eventHandler.c **** #endif /* CYBLE_SCPS_CLIENT */
1256:Generated_Source\PSoC4/BLE_eventHandler.c **** #ifdef CYBLE_TPS_CLIENT
1257:Generated_Source\PSoC4/BLE_eventHandler.c ****     if((cyBle_eventHandlerFlag & CYBLE_CALLBACK) != 0u)
1258:Generated_Source\PSoC4/BLE_eventHandler.c ****     {
1259:Generated_Source\PSoC4/BLE_eventHandler.c ****         CyBle_TpscReadResponseEventHandler(eventParam);
1260:Generated_Source\PSoC4/BLE_eventHandler.c ****     }
1261:Generated_Source\PSoC4/BLE_eventHandler.c **** #endif /* CYBLE_TPS_CLIENT */
1262:Generated_Source\PSoC4/BLE_eventHandler.c **** #ifdef CYBLE_UDS_CLIENT
1263:Generated_Source\PSoC4/BLE_eventHandler.c ****     if((cyBle_eventHandlerFlag & CYBLE_CALLBACK) != 0u)
1264:Generated_Source\PSoC4/BLE_eventHandler.c ****     {
1265:Generated_Source\PSoC4/BLE_eventHandler.c ****         CyBle_UdscReadResponseEventHandler(eventParam);
1266:Generated_Source\PSoC4/BLE_eventHandler.c ****     }
1267:Generated_Source\PSoC4/BLE_eventHandler.c **** #endif /* CYBLE_UDS_CLIENT */
1268:Generated_Source\PSoC4/BLE_eventHandler.c **** #ifdef CYBLE_WPTS_CLIENT
1269:Generated_Source\PSoC4/BLE_eventHandler.c ****     if((cyBle_eventHandlerFlag & CYBLE_CALLBACK) != 0u)
1270:Generated_Source\PSoC4/BLE_eventHandler.c ****     {
1271:Generated_Source\PSoC4/BLE_eventHandler.c ****         CyBle_WptscReadResponseEventHandler(eventParam);
1272:Generated_Source\PSoC4/BLE_eventHandler.c ****     }
1273:Generated_Source\PSoC4/BLE_eventHandler.c **** #endif /* CYBLE_WPTS_CLIENT */
1274:Generated_Source\PSoC4/BLE_eventHandler.c **** #ifdef CYBLE_WSS_CLIENT
1275:Generated_Source\PSoC4/BLE_eventHandler.c ****     if((cyBle_eventHandlerFlag & CYBLE_CALLBACK) != 0u)
1276:Generated_Source\PSoC4/BLE_eventHandler.c ****     {
1277:Generated_Source\PSoC4/BLE_eventHandler.c ****         CyBle_WsscReadResponseEventHandler(eventParam);
1278:Generated_Source\PSoC4/BLE_eventHandler.c ****     }
1279:Generated_Source\PSoC4/BLE_eventHandler.c **** #endif /* CYBLE_WSS_CLIENT */
1280:Generated_Source\PSoC4/BLE_eventHandler.c **** }
1281:Generated_Source\PSoC4/BLE_eventHandler.c **** 
1282:Generated_Source\PSoC4/BLE_eventHandler.c **** /******************************************************************************    
1283:Generated_Source\PSoC4/BLE_eventHandler.c **** * Function Name: CyBle_ReadMultipleResponseEventHandler
1284:Generated_Source\PSoC4/BLE_eventHandler.c **** ***************************************************************************//**
1285:Generated_Source\PSoC4/BLE_eventHandler.c **** * 
1286:Generated_Source\PSoC4/BLE_eventHandler.c **** *  Handles the Read Multiple Response event from BLE stack.
1287:Generated_Source\PSoC4/BLE_eventHandler.c **** * 
1288:Generated_Source\PSoC4/BLE_eventHandler.c **** *  \param eventParam: event parameter
1289:Generated_Source\PSoC4/BLE_eventHandler.c **** * 
1290:Generated_Source\PSoC4/BLE_eventHandler.c **** * \return
1291:Generated_Source\PSoC4/BLE_eventHandler.c **** *  None
1292:Generated_Source\PSoC4/BLE_eventHandler.c **** * 
1293:Generated_Source\PSoC4/BLE_eventHandler.c **** ******************************************************************************/
1294:Generated_Source\PSoC4/BLE_eventHandler.c **** static void CyBle_ReadMultipleResponseEventHandler(CYBLE_GATTC_READ_RSP_PARAM_T *eventParam)
1295:Generated_Source\PSoC4/BLE_eventHandler.c **** {
1296:Generated_Source\PSoC4/BLE_eventHandler.c **** #ifdef CYBLE_CUSTOM_CLIENT
1297:Generated_Source\PSoC4/BLE_eventHandler.c ****     /* Read response with 128-bit included service uuid */
1298:Generated_Source\PSoC4/BLE_eventHandler.c ****     if((CYBLE_CLIENT_STATE_INCL_DISCOVERING == CyBle_GetClientState()) &&
1299:Generated_Source\PSoC4/BLE_eventHandler.c ****        (cyBle_discInclInfo.inclDefHandle != 0u))
1300:Generated_Source\PSoC4/BLE_eventHandler.c ****     {
1301:Generated_Source\PSoC4/BLE_eventHandler.c ****         CYBLE_DISC_SRVC128_INFO_T discServInfo;
1302:Generated_Source\PSoC4/BLE_eventHandler.c **** 
1303:Generated_Source\PSoC4/BLE_eventHandler.c ****         /* Store service range */
1304:Generated_Source\PSoC4/BLE_eventHandler.c ****         discServInfo.range = cyBle_discInclInfo.inclHandleRange;
1305:Generated_Source\PSoC4/BLE_eventHandler.c ****         (void)memcpy((void *) discServInfo.uuid.uuid128.value, (void *)eventParam->value.val, event
1306:Generated_Source\PSoC4/BLE_eventHandler.c ****         CyBle_CustomcDiscoverServiceEventHandler(&discServInfo);
1307:Generated_Source\PSoC4/BLE_eventHandler.c ****         
1308:Generated_Source\PSoC4/BLE_eventHandler.c ****         /* Re-initiate CyBle_GattcFindIncludedServices function, setting the start
ARM GAS  C:\Users\TTSS\AppData\Local\Temp\ccySleeg.s 			page 27


1309:Generated_Source\PSoC4/BLE_eventHandler.c ****            handle to the attribute handle which is placed next to the one used in
1310:Generated_Source\PSoC4/BLE_eventHandler.c ****            the above step.
1311:Generated_Source\PSoC4/BLE_eventHandler.c ****         */
1312:Generated_Source\PSoC4/BLE_eventHandler.c ****         discServInfo.range.startHandle = cyBle_discInclInfo.inclDefHandle + 1;
1313:Generated_Source\PSoC4/BLE_eventHandler.c ****         discServInfo.range.endHandle = cyBle_serverInfo[cyBle_disCount].range.endHandle;
1314:Generated_Source\PSoC4/BLE_eventHandler.c ****         if(discServInfo.range.startHandle <= discServInfo.range.endHandle)
1315:Generated_Source\PSoC4/BLE_eventHandler.c ****         {
1316:Generated_Source\PSoC4/BLE_eventHandler.c ****             if(CYBLE_ERROR_OK != CyBle_GattcFindIncludedServices(cyBle_connHandle, &discServInfo.ra
1317:Generated_Source\PSoC4/BLE_eventHandler.c ****             {
1318:Generated_Source\PSoC4/BLE_eventHandler.c ****                 CyBle_ApplCallback(CYBLE_EVT_GATTC_INCL_DISCOVERY_FAILED, NULL);
1319:Generated_Source\PSoC4/BLE_eventHandler.c ****                 cyBle_eventHandlerFlag &= (uint8)~CYBLE_AUTO_DISCOVERY;
1320:Generated_Source\PSoC4/BLE_eventHandler.c ****             }
1321:Generated_Source\PSoC4/BLE_eventHandler.c ****         }
1322:Generated_Source\PSoC4/BLE_eventHandler.c ****         else /* Continue discovery of the following service */
1323:Generated_Source\PSoC4/BLE_eventHandler.c ****         {
1324:Generated_Source\PSoC4/BLE_eventHandler.c ****             CyBle_NextInclDiscovery(CYBLE_DISCOVERY_CONTINUE);
1325:Generated_Source\PSoC4/BLE_eventHandler.c ****         }
1326:Generated_Source\PSoC4/BLE_eventHandler.c ****         
1327:Generated_Source\PSoC4/BLE_eventHandler.c ****         cyBle_eventHandlerFlag &= (uint8)~CYBLE_CALLBACK;
1328:Generated_Source\PSoC4/BLE_eventHandler.c ****     #ifdef CYBLE_CUSTOM_CLIENT
1329:Generated_Source\PSoC4/BLE_eventHandler.c ****         cyBle_discInclInfo.inclDefHandle = 0u;
1330:Generated_Source\PSoC4/BLE_eventHandler.c ****     #endif /* CYBLE_CUSTOM_CLIENT */
1331:Generated_Source\PSoC4/BLE_eventHandler.c ****     }
1332:Generated_Source\PSoC4/BLE_eventHandler.c **** #endif /* CYBLE_CUSTOM_CLIENT */
1333:Generated_Source\PSoC4/BLE_eventHandler.c **** #ifdef CYBLE_IPS_CLIENT
1334:Generated_Source\PSoC4/BLE_eventHandler.c ****     if((cyBle_eventHandlerFlag & CYBLE_CALLBACK) != 0u)
1335:Generated_Source\PSoC4/BLE_eventHandler.c ****     {
1336:Generated_Source\PSoC4/BLE_eventHandler.c ****         CyBle_IpscReadMultipleResponseEventHandler(eventParam);
1337:Generated_Source\PSoC4/BLE_eventHandler.c ****     }
1338:Generated_Source\PSoC4/BLE_eventHandler.c **** #endif /* CYBLE_IPS_CLIENT */
1339:Generated_Source\PSoC4/BLE_eventHandler.c ****     /* MISRA 16.7 violation workaround */
1340:Generated_Source\PSoC4/BLE_eventHandler.c ****     eventParam = eventParam;
1341:Generated_Source\PSoC4/BLE_eventHandler.c **** }
1342:Generated_Source\PSoC4/BLE_eventHandler.c **** #endif /* CYBLE_GATT_ROLE_CLIENT */
1343:Generated_Source\PSoC4/BLE_eventHandler.c **** 
1344:Generated_Source\PSoC4/BLE_eventHandler.c **** 
1345:Generated_Source\PSoC4/BLE_eventHandler.c **** /****************************************************************************** 
1346:Generated_Source\PSoC4/BLE_eventHandler.c **** * Function Name: CyBle_DisconnectEventHandler
1347:Generated_Source\PSoC4/BLE_eventHandler.c **** ***************************************************************************//**
1348:Generated_Source\PSoC4/BLE_eventHandler.c **** * 
1349:Generated_Source\PSoC4/BLE_eventHandler.c **** *  Handles the GATT Disconnection event from the BLE stack.
1350:Generated_Source\PSoC4/BLE_eventHandler.c **** * 
1351:Generated_Source\PSoC4/BLE_eventHandler.c **** * \return
1352:Generated_Source\PSoC4/BLE_eventHandler.c **** *  None
1353:Generated_Source\PSoC4/BLE_eventHandler.c **** * 
1354:Generated_Source\PSoC4/BLE_eventHandler.c **** ******************************************************************************/
1355:Generated_Source\PSoC4/BLE_eventHandler.c **** static void CyBle_GattDisconnectEventHandler(void)
1356:Generated_Source\PSoC4/BLE_eventHandler.c **** {
 174              		.loc 1 1356 0
 175              		.cfi_startproc
 176              		@ args = 0, pretend = 0, frame = 0
 177              		@ frame_needed = 1, uses_anonymous_args = 0
 178 0000 80B5     		push	{r7, lr}
 179              		.cfi_def_cfa_offset 8
 180              		.cfi_offset 7, -8
 181              		.cfi_offset 14, -4
 182 0002 00AF     		add	r7, sp, #0
ARM GAS  C:\Users\TTSS\AppData\Local\Temp\ccySleeg.s 			page 28


 183              		.cfi_def_cfa_register 7
1357:Generated_Source\PSoC4/BLE_eventHandler.c ****     cyBle_connHandle.attId = 0u;
 184              		.loc 1 1357 0
 185 0004 044B     		ldr	r3, .L9
 186 0006 0022     		movs	r2, #0
 187 0008 5A70     		strb	r2, [r3, #1]
1358:Generated_Source\PSoC4/BLE_eventHandler.c ****     cyBle_connHandle.bdHandle = 0u;
 188              		.loc 1 1358 0
 189 000a 034B     		ldr	r3, .L9
 190 000c 0022     		movs	r2, #0
 191 000e 1A70     		strb	r2, [r3]
1359:Generated_Source\PSoC4/BLE_eventHandler.c ****     
1360:Generated_Source\PSoC4/BLE_eventHandler.c ****     #if (CYBLE_GATT_ROLE_CLIENT)
1361:Generated_Source\PSoC4/BLE_eventHandler.c ****         if(CyBle_GetClientState() == CYBLE_CLIENT_STATE_DISCOVERED)
1362:Generated_Source\PSoC4/BLE_eventHandler.c ****         {
1363:Generated_Source\PSoC4/BLE_eventHandler.c ****             CyBle_SetClientState(CYBLE_CLIENT_STATE_DISCONNECTED_DISCOVERED);
1364:Generated_Source\PSoC4/BLE_eventHandler.c ****         }
1365:Generated_Source\PSoC4/BLE_eventHandler.c ****         else
1366:Generated_Source\PSoC4/BLE_eventHandler.c ****         {
1367:Generated_Source\PSoC4/BLE_eventHandler.c ****             CyBle_SetClientState(CYBLE_CLIENT_STATE_DISCONNECTED);
1368:Generated_Source\PSoC4/BLE_eventHandler.c ****         }
1369:Generated_Source\PSoC4/BLE_eventHandler.c ****     #endif /* CYBLE_GATT_ROLE_CLIENT */
1370:Generated_Source\PSoC4/BLE_eventHandler.c ****         
1371:Generated_Source\PSoC4/BLE_eventHandler.c ****     #ifdef CYBLE_CPS_SERVER
1372:Generated_Source\PSoC4/BLE_eventHandler.c ****         #if CYBLE_GAP_ROLE_BROADCASTER
1373:Generated_Source\PSoC4/BLE_eventHandler.c ****             CyBle_CpssDisconnectEventHandler();
1374:Generated_Source\PSoC4/BLE_eventHandler.c ****         #endif /* CYBLE_GAP_ROLE_BROADCASTER */
1375:Generated_Source\PSoC4/BLE_eventHandler.c ****     #endif /* CYBLE_CPS_SERVER */
1376:Generated_Source\PSoC4/BLE_eventHandler.c **** 
1377:Generated_Source\PSoC4/BLE_eventHandler.c ****     #ifdef CYBLE_CPS_CLIENT
1378:Generated_Source\PSoC4/BLE_eventHandler.c ****         CyBle_CpscDisconnectEventHandler();
1379:Generated_Source\PSoC4/BLE_eventHandler.c ****     #endif /* CYBLE_CPS_CLIENT */
1380:Generated_Source\PSoC4/BLE_eventHandler.c **** 
1381:Generated_Source\PSoC4/BLE_eventHandler.c ****     #ifdef CYBLE_IAS_SERVER
1382:Generated_Source\PSoC4/BLE_eventHandler.c ****         CyBle_IassDisconnectEventHandler();
1383:Generated_Source\PSoC4/BLE_eventHandler.c ****     #endif /* CYBLE_IAS_SERVER */
1384:Generated_Source\PSoC4/BLE_eventHandler.c ****     
1385:Generated_Source\PSoC4/BLE_eventHandler.c ****     #ifdef CYBLE_GLS_SERVER
1386:Generated_Source\PSoC4/BLE_eventHandler.c ****         CyBle_GlsInit();
1387:Generated_Source\PSoC4/BLE_eventHandler.c ****     #endif /* CYBLE_GLS_SERVER */
1388:Generated_Source\PSoC4/BLE_eventHandler.c ****     
1389:Generated_Source\PSoC4/BLE_eventHandler.c ****     #ifdef CYBLE_LNS_SERVER
1390:Generated_Source\PSoC4/BLE_eventHandler.c ****         CyBle_LnsInit();
1391:Generated_Source\PSoC4/BLE_eventHandler.c ****     #endif /* CYBLE_LNS_SERVER */
1392:Generated_Source\PSoC4/BLE_eventHandler.c ****     
1393:Generated_Source\PSoC4/BLE_eventHandler.c ****     #ifdef CYBLE_UDS_SERVER
1394:Generated_Source\PSoC4/BLE_eventHandler.c ****         CyBle_UdsInit();
1395:Generated_Source\PSoC4/BLE_eventHandler.c ****     #endif /* CYBLE_UDS_SERVER */
1396:Generated_Source\PSoC4/BLE_eventHandler.c **** }
 192              		.loc 1 1396 0
 193 0010 C046     		nop
 194 0012 BD46     		mov	sp, r7
 195              		@ sp needed
 196 0014 80BD     		pop	{r7, pc}
 197              	.L10:
 198 0016 C046     		.align	2
 199              	.L9:
ARM GAS  C:\Users\TTSS\AppData\Local\Temp\ccySleeg.s 			page 29


 200 0018 00000000 		.word	cyBle_connHandle
 201              		.cfi_endproc
 202              	.LFE4:
 203              		.size	CyBle_GattDisconnectEventHandler, .-CyBle_GattDisconnectEventHandler
 204              		.section	.text.CyBle_TimeOutEventHandler,"ax",%progbits
 205              		.align	2
 206              		.code	16
 207              		.thumb_func
 208              		.type	CyBle_TimeOutEventHandler, %function
 209              	CyBle_TimeOutEventHandler:
 210              	.LFB5:
1397:Generated_Source\PSoC4/BLE_eventHandler.c **** 
1398:Generated_Source\PSoC4/BLE_eventHandler.c **** 
1399:Generated_Source\PSoC4/BLE_eventHandler.c **** /****************************************************************************** 
1400:Generated_Source\PSoC4/BLE_eventHandler.c **** * Function Name: CyBle_TimeOutEventHandler
1401:Generated_Source\PSoC4/BLE_eventHandler.c **** ***************************************************************************//**
1402:Generated_Source\PSoC4/BLE_eventHandler.c **** * 
1403:Generated_Source\PSoC4/BLE_eventHandler.c **** *  Handles the CYBLE_EVT_TIMEOUT event from the BLE stack.
1404:Generated_Source\PSoC4/BLE_eventHandler.c **** * 
1405:Generated_Source\PSoC4/BLE_eventHandler.c **** *  \param eventParam: The pointer to a structure of type CYBLE_TO_REASON_CODE_T.
1406:Generated_Source\PSoC4/BLE_eventHandler.c **** * 
1407:Generated_Source\PSoC4/BLE_eventHandler.c **** * \return
1408:Generated_Source\PSoC4/BLE_eventHandler.c **** *  None
1409:Generated_Source\PSoC4/BLE_eventHandler.c **** * 
1410:Generated_Source\PSoC4/BLE_eventHandler.c **** ******************************************************************************/
1411:Generated_Source\PSoC4/BLE_eventHandler.c **** static void CyBle_TimeOutEventHandler(const CYBLE_TO_REASON_CODE_T *eventParam)
1412:Generated_Source\PSoC4/BLE_eventHandler.c **** {
 211              		.loc 1 1412 0
 212              		.cfi_startproc
 213              		@ args = 0, pretend = 0, frame = 8
 214              		@ frame_needed = 1, uses_anonymous_args = 0
 215 0000 80B5     		push	{r7, lr}
 216              		.cfi_def_cfa_offset 8
 217              		.cfi_offset 7, -8
 218              		.cfi_offset 14, -4
 219 0002 82B0     		sub	sp, sp, #8
 220              		.cfi_def_cfa_offset 16
 221 0004 00AF     		add	r7, sp, #0
 222              		.cfi_def_cfa_register 7
 223 0006 7860     		str	r0, [r7, #4]
1413:Generated_Source\PSoC4/BLE_eventHandler.c ****     if(*eventParam == CYBLE_GATT_RSP_TO)
1414:Generated_Source\PSoC4/BLE_eventHandler.c ****     {
1415:Generated_Source\PSoC4/BLE_eventHandler.c ****     #if (CYBLE_GATT_ROLE_CLIENT)
1416:Generated_Source\PSoC4/BLE_eventHandler.c ****         if((cyBle_eventHandlerFlag & CYBLE_AUTO_DISCOVERY) != 0u)
1417:Generated_Source\PSoC4/BLE_eventHandler.c ****         {
1418:Generated_Source\PSoC4/BLE_eventHandler.c ****             switch(CyBle_GetClientState())
1419:Generated_Source\PSoC4/BLE_eventHandler.c ****             {
1420:Generated_Source\PSoC4/BLE_eventHandler.c ****                 case CYBLE_CLIENT_STATE_SRVC_DISCOVERING:
1421:Generated_Source\PSoC4/BLE_eventHandler.c ****                     CyBle_ApplCallback(CYBLE_EVT_GATTC_SRVC_DISCOVERY_FAILED, NULL);
1422:Generated_Source\PSoC4/BLE_eventHandler.c ****                     break;
1423:Generated_Source\PSoC4/BLE_eventHandler.c ****                 case CYBLE_CLIENT_STATE_INCL_DISCOVERING:
1424:Generated_Source\PSoC4/BLE_eventHandler.c ****                     CyBle_ApplCallback(CYBLE_EVT_GATTC_INCL_DISCOVERY_FAILED, NULL);
1425:Generated_Source\PSoC4/BLE_eventHandler.c ****                     break;
1426:Generated_Source\PSoC4/BLE_eventHandler.c ****                 case CYBLE_CLIENT_STATE_CHAR_DISCOVERING:
1427:Generated_Source\PSoC4/BLE_eventHandler.c ****                     CyBle_ApplCallback(CYBLE_EVT_GATTC_CHAR_DISCOVERY_FAILED, NULL);
1428:Generated_Source\PSoC4/BLE_eventHandler.c ****                     break;
1429:Generated_Source\PSoC4/BLE_eventHandler.c ****                 case CYBLE_CLIENT_STATE_DESCR_DISCOVERING:
ARM GAS  C:\Users\TTSS\AppData\Local\Temp\ccySleeg.s 			page 30


1430:Generated_Source\PSoC4/BLE_eventHandler.c ****                     CyBle_ApplCallback(CYBLE_EVT_GATTC_DESCR_DISCOVERY_FAILED, NULL);
1431:Generated_Source\PSoC4/BLE_eventHandler.c ****                     break;
1432:Generated_Source\PSoC4/BLE_eventHandler.c ****                 default:        /* Other states should not be set in Auto discovery mode */
1433:Generated_Source\PSoC4/BLE_eventHandler.c ****                     break;
1434:Generated_Source\PSoC4/BLE_eventHandler.c ****             }
1435:Generated_Source\PSoC4/BLE_eventHandler.c ****             cyBle_eventHandlerFlag &= (uint8)~CYBLE_AUTO_DISCOVERY;
1436:Generated_Source\PSoC4/BLE_eventHandler.c ****             CyBle_SetClientState(CYBLE_CLIENT_STATE_CONNECTED);
1437:Generated_Source\PSoC4/BLE_eventHandler.c ****         }
1438:Generated_Source\PSoC4/BLE_eventHandler.c ****     #endif /* CYBLE_GATT_ROLE_CLIENT */
1439:Generated_Source\PSoC4/BLE_eventHandler.c ****     #ifdef CYBLE_CPS_SERVER
1440:Generated_Source\PSoC4/BLE_eventHandler.c ****         CyBle_CpssTimeOutEventHandler();
1441:Generated_Source\PSoC4/BLE_eventHandler.c ****     #endif /* CYBLE_CPS_SERVER */
1442:Generated_Source\PSoC4/BLE_eventHandler.c ****     }
1443:Generated_Source\PSoC4/BLE_eventHandler.c ****     
1444:Generated_Source\PSoC4/BLE_eventHandler.c ****     /* Connection procedure timeout */
1445:Generated_Source\PSoC4/BLE_eventHandler.c ****     if(*eventParam == CYBLE_GENERIC_TO)
1446:Generated_Source\PSoC4/BLE_eventHandler.c ****     {
1447:Generated_Source\PSoC4/BLE_eventHandler.c ****     #if(CYBLE_GAP_ROLE_CENTRAL)
1448:Generated_Source\PSoC4/BLE_eventHandler.c ****         if(CyBle_GetState() == CYBLE_STATE_CONNECTING)
1449:Generated_Source\PSoC4/BLE_eventHandler.c ****         {
1450:Generated_Source\PSoC4/BLE_eventHandler.c ****             (void)CyBle_GapcCancelDeviceConnection();
1451:Generated_Source\PSoC4/BLE_eventHandler.c ****         }
1452:Generated_Source\PSoC4/BLE_eventHandler.c ****     #endif /* CYBLE_GAP_ROLE_CENTRAL */
1453:Generated_Source\PSoC4/BLE_eventHandler.c ****     }
1454:Generated_Source\PSoC4/BLE_eventHandler.c **** }
 224              		.loc 1 1454 0
 225 0008 C046     		nop
 226 000a BD46     		mov	sp, r7
 227 000c 02B0     		add	sp, sp, #8
 228              		@ sp needed
 229 000e 80BD     		pop	{r7, pc}
 230              		.cfi_endproc
 231              	.LFE5:
 232              		.size	CyBle_TimeOutEventHandler, .-CyBle_TimeOutEventHandler
 233              		.section	.text.CyBle_GattConnectReqHandler,"ax",%progbits
 234              		.align	2
 235              		.code	16
 236              		.thumb_func
 237              		.type	CyBle_GattConnectReqHandler, %function
 238              	CyBle_GattConnectReqHandler:
 239              	.LFB6:
1455:Generated_Source\PSoC4/BLE_eventHandler.c **** 
1456:Generated_Source\PSoC4/BLE_eventHandler.c **** 
1457:Generated_Source\PSoC4/BLE_eventHandler.c **** /****************************************************************************** 
1458:Generated_Source\PSoC4/BLE_eventHandler.c **** * Function Name: CyBle_GattConnectReqHandler
1459:Generated_Source\PSoC4/BLE_eventHandler.c **** ***************************************************************************//**
1460:Generated_Source\PSoC4/BLE_eventHandler.c **** * 
1461:Generated_Source\PSoC4/BLE_eventHandler.c **** *  Handles the GATT connect event from the BLE stack.
1462:Generated_Source\PSoC4/BLE_eventHandler.c **** * 
1463:Generated_Source\PSoC4/BLE_eventHandler.c **** * \return
1464:Generated_Source\PSoC4/BLE_eventHandler.c **** *  None
1465:Generated_Source\PSoC4/BLE_eventHandler.c **** * 
1466:Generated_Source\PSoC4/BLE_eventHandler.c **** ******************************************************************************/
1467:Generated_Source\PSoC4/BLE_eventHandler.c **** static void CyBle_GattConnectReqHandler(void)
1468:Generated_Source\PSoC4/BLE_eventHandler.c **** {
 240              		.loc 1 1468 0
 241              		.cfi_startproc
ARM GAS  C:\Users\TTSS\AppData\Local\Temp\ccySleeg.s 			page 31


 242              		@ args = 0, pretend = 0, frame = 0
 243              		@ frame_needed = 1, uses_anonymous_args = 0
 244 0000 80B5     		push	{r7, lr}
 245              		.cfi_def_cfa_offset 8
 246              		.cfi_offset 7, -8
 247              		.cfi_offset 14, -4
 248 0002 00AF     		add	r7, sp, #0
 249              		.cfi_def_cfa_register 7
1469:Generated_Source\PSoC4/BLE_eventHandler.c ****     #ifdef CYBLE_CGMS_SERVER
1470:Generated_Source\PSoC4/BLE_eventHandler.c ****         CyBle_CgmsInit();
1471:Generated_Source\PSoC4/BLE_eventHandler.c ****     #endif /* CYBLE_CGMS_SERVER */
1472:Generated_Source\PSoC4/BLE_eventHandler.c ****     
1473:Generated_Source\PSoC4/BLE_eventHandler.c ****     #ifdef CYBLE_CPS_SERVER
1474:Generated_Source\PSoC4/BLE_eventHandler.c ****         CyBle_CpssConnectEventHandler();
1475:Generated_Source\PSoC4/BLE_eventHandler.c ****     #endif /* CYBLE_CPS_SERVER */
1476:Generated_Source\PSoC4/BLE_eventHandler.c ****     
1477:Generated_Source\PSoC4/BLE_eventHandler.c ****     #ifdef CYBLE_CSCS_SERVER
1478:Generated_Source\PSoC4/BLE_eventHandler.c ****             CyBle_CscsInit();
1479:Generated_Source\PSoC4/BLE_eventHandler.c ****     #endif /* CYBLE_CSCS_SERVER */
1480:Generated_Source\PSoC4/BLE_eventHandler.c ****     
1481:Generated_Source\PSoC4/BLE_eventHandler.c ****     #ifdef CYBLE_LLS_SERVER
1482:Generated_Source\PSoC4/BLE_eventHandler.c ****         CyBle_LlssConnectEventHandler();
1483:Generated_Source\PSoC4/BLE_eventHandler.c ****     #endif /* CYBLE_LLS_SERVER */
1484:Generated_Source\PSoC4/BLE_eventHandler.c ****     
1485:Generated_Source\PSoC4/BLE_eventHandler.c ****     #ifdef CYBLE_HIDS_SERVER
1486:Generated_Source\PSoC4/BLE_eventHandler.c ****         CyBle_HidssOnDeviceConnected();
1487:Generated_Source\PSoC4/BLE_eventHandler.c ****     #endif /* CYBLE_HIDS_SERVER */
1488:Generated_Source\PSoC4/BLE_eventHandler.c **** 
1489:Generated_Source\PSoC4/BLE_eventHandler.c ****     #ifdef CYBLE_RSCS_SERVER
1490:Generated_Source\PSoC4/BLE_eventHandler.c ****         CyBle_RscsInit();
1491:Generated_Source\PSoC4/BLE_eventHandler.c ****     #endif /* CYBLE_RSCS_SERVER */
1492:Generated_Source\PSoC4/BLE_eventHandler.c **** }
 250              		.loc 1 1492 0
 251 0004 C046     		nop
 252 0006 BD46     		mov	sp, r7
 253              		@ sp needed
 254 0008 80BD     		pop	{r7, pc}
 255              		.cfi_endproc
 256              	.LFE6:
 257              		.size	CyBle_GattConnectReqHandler, .-CyBle_GattConnectReqHandler
 258 000a C046     		.section	.text.CyBle_IsDeviceAddressValid,"ax",%progbits
 259              		.align	2
 260              		.global	CyBle_IsDeviceAddressValid
 261              		.code	16
 262              		.thumb_func
 263              		.type	CyBle_IsDeviceAddressValid, %function
 264              	CyBle_IsDeviceAddressValid:
 265              	.LFB7:
1493:Generated_Source\PSoC4/BLE_eventHandler.c **** 
1494:Generated_Source\PSoC4/BLE_eventHandler.c **** 
1495:Generated_Source\PSoC4/BLE_eventHandler.c **** #if (CYBLE_GATT_ROLE_SERVER || CYBLE_GATT_ROLE_CLIENT)
1496:Generated_Source\PSoC4/BLE_eventHandler.c **** 
1497:Generated_Source\PSoC4/BLE_eventHandler.c **** /****************************************************************************** 
1498:Generated_Source\PSoC4/BLE_eventHandler.c **** * Function Name: CyBle_IsDeviceAddressValid
1499:Generated_Source\PSoC4/BLE_eventHandler.c **** ***************************************************************************//**
1500:Generated_Source\PSoC4/BLE_eventHandler.c **** * 
1501:Generated_Source\PSoC4/BLE_eventHandler.c **** *  This function verifies that BLE public address has been programmed to SFLASH 
ARM GAS  C:\Users\TTSS\AppData\Local\Temp\ccySleeg.s 			page 32


1502:Generated_Source\PSoC4/BLE_eventHandler.c **** *  during manufacture. It could be used to verify if public device address is 
1503:Generated_Source\PSoC4/BLE_eventHandler.c **** *  programmed to flash memory.
1504:Generated_Source\PSoC4/BLE_eventHandler.c **** * 
1505:Generated_Source\PSoC4/BLE_eventHandler.c **** *  \param deviceAddress: the pointer to the BD address of type CYBLE_GAP_BD_ADDR_T. 
1506:Generated_Source\PSoC4/BLE_eventHandler.c **** * 
1507:Generated_Source\PSoC4/BLE_eventHandler.c **** * \return
1508:Generated_Source\PSoC4/BLE_eventHandler.c **** *  Non zero value when a device address differs from the default SFLASH content.
1509:Generated_Source\PSoC4/BLE_eventHandler.c **** * 
1510:Generated_Source\PSoC4/BLE_eventHandler.c **** ******************************************************************************/
1511:Generated_Source\PSoC4/BLE_eventHandler.c **** uint8 CyBle_IsDeviceAddressValid(const CYBLE_GAP_BD_ADDR_T *deviceAddress)
1512:Generated_Source\PSoC4/BLE_eventHandler.c **** {
 266              		.loc 1 1512 0
 267              		.cfi_startproc
 268              		@ args = 0, pretend = 0, frame = 16
 269              		@ frame_needed = 1, uses_anonymous_args = 0
 270 0000 80B5     		push	{r7, lr}
 271              		.cfi_def_cfa_offset 8
 272              		.cfi_offset 7, -8
 273              		.cfi_offset 14, -4
 274 0002 84B0     		sub	sp, sp, #16
 275              		.cfi_def_cfa_offset 24
 276 0004 00AF     		add	r7, sp, #0
 277              		.cfi_def_cfa_register 7
 278 0006 7860     		str	r0, [r7, #4]
1513:Generated_Source\PSoC4/BLE_eventHandler.c ****     uint8 i;
1514:Generated_Source\PSoC4/BLE_eventHandler.c ****     uint8 addressValid = 0u;
 279              		.loc 1 1514 0
 280 0008 0E23     		movs	r3, #14
 281 000a FB18     		adds	r3, r7, r3
 282 000c 0022     		movs	r2, #0
 283 000e 1A70     		strb	r2, [r3]
1515:Generated_Source\PSoC4/BLE_eventHandler.c ****     
1516:Generated_Source\PSoC4/BLE_eventHandler.c ****     if(deviceAddress -> type == CYBLE_GAP_ADDR_TYPE_PUBLIC)  
 284              		.loc 1 1516 0
 285 0010 7B68     		ldr	r3, [r7, #4]
 286 0012 9B79     		ldrb	r3, [r3, #6]
 287 0014 002B     		cmp	r3, #0
 288 0016 1CD1     		bne	.L14
1517:Generated_Source\PSoC4/BLE_eventHandler.c ****     {
1518:Generated_Source\PSoC4/BLE_eventHandler.c ****         for(i = 0u; i < CYBLE_GAP_BD_ADDR_SIZE; i++)
 289              		.loc 1 1518 0
 290 0018 0F23     		movs	r3, #15
 291 001a FB18     		adds	r3, r7, r3
 292 001c 0022     		movs	r2, #0
 293 001e 1A70     		strb	r2, [r3]
 294 0020 12E0     		b	.L15
 295              	.L17:
1519:Generated_Source\PSoC4/BLE_eventHandler.c ****         {
1520:Generated_Source\PSoC4/BLE_eventHandler.c ****             if(deviceAddress->bdAddr[i] != 0u)
 296              		.loc 1 1520 0
 297 0022 0F23     		movs	r3, #15
 298 0024 FB18     		adds	r3, r7, r3
 299 0026 1B78     		ldrb	r3, [r3]
 300 0028 7A68     		ldr	r2, [r7, #4]
 301 002a D35C     		ldrb	r3, [r2, r3]
 302 002c 002B     		cmp	r3, #0
 303 002e 04D0     		beq	.L16
ARM GAS  C:\Users\TTSS\AppData\Local\Temp\ccySleeg.s 			page 33


1521:Generated_Source\PSoC4/BLE_eventHandler.c ****             {
1522:Generated_Source\PSoC4/BLE_eventHandler.c ****                 addressValid = 1u;
 304              		.loc 1 1522 0
 305 0030 0E23     		movs	r3, #14
 306 0032 FB18     		adds	r3, r7, r3
 307 0034 0122     		movs	r2, #1
 308 0036 1A70     		strb	r2, [r3]
1523:Generated_Source\PSoC4/BLE_eventHandler.c ****                 break;
 309              		.loc 1 1523 0
 310 0038 0BE0     		b	.L14
 311              	.L16:
1518:Generated_Source\PSoC4/BLE_eventHandler.c ****         {
 312              		.loc 1 1518 0 discriminator 2
 313 003a 0F23     		movs	r3, #15
 314 003c FB18     		adds	r3, r7, r3
 315 003e 1A78     		ldrb	r2, [r3]
 316 0040 0F23     		movs	r3, #15
 317 0042 FB18     		adds	r3, r7, r3
 318 0044 0132     		adds	r2, r2, #1
 319 0046 1A70     		strb	r2, [r3]
 320              	.L15:
1518:Generated_Source\PSoC4/BLE_eventHandler.c ****         {
 321              		.loc 1 1518 0 is_stmt 0 discriminator 1
 322 0048 0F23     		movs	r3, #15
 323 004a FB18     		adds	r3, r7, r3
 324 004c 1B78     		ldrb	r3, [r3]
 325 004e 052B     		cmp	r3, #5
 326 0050 E7D9     		bls	.L17
 327              	.L14:
1524:Generated_Source\PSoC4/BLE_eventHandler.c ****             }
1525:Generated_Source\PSoC4/BLE_eventHandler.c ****         }
1526:Generated_Source\PSoC4/BLE_eventHandler.c ****     }
1527:Generated_Source\PSoC4/BLE_eventHandler.c ****     return (addressValid);
 328              		.loc 1 1527 0 is_stmt 1
 329 0052 0E23     		movs	r3, #14
 330 0054 FB18     		adds	r3, r7, r3
 331 0056 1B78     		ldrb	r3, [r3]
1528:Generated_Source\PSoC4/BLE_eventHandler.c **** }
 332              		.loc 1 1528 0
 333 0058 1800     		movs	r0, r3
 334 005a BD46     		mov	sp, r7
 335 005c 04B0     		add	sp, sp, #16
 336              		@ sp needed
 337 005e 80BD     		pop	{r7, pc}
 338              		.cfi_endproc
 339              	.LFE7:
 340              		.size	CyBle_IsDeviceAddressValid, .-CyBle_IsDeviceAddressValid
 341              		.section	.text.CyBle_L2Cap_ConnParamUpdateRspEventHandler,"ax",%progbits
 342              		.align	2
 343              		.code	16
 344              		.thumb_func
 345              		.type	CyBle_L2Cap_ConnParamUpdateRspEventHandler, %function
 346              	CyBle_L2Cap_ConnParamUpdateRspEventHandler:
 347              	.LFB8:
1529:Generated_Source\PSoC4/BLE_eventHandler.c **** #endif /* CYBLE_GATT_ROLE_SERVER || CYBLE_GATT_ROLE_CLIENT */
1530:Generated_Source\PSoC4/BLE_eventHandler.c **** 
1531:Generated_Source\PSoC4/BLE_eventHandler.c **** 
ARM GAS  C:\Users\TTSS\AppData\Local\Temp\ccySleeg.s 			page 34


1532:Generated_Source\PSoC4/BLE_eventHandler.c **** /****************************************************************************** 
1533:Generated_Source\PSoC4/BLE_eventHandler.c **** * Function Name: CyBle_L2Cap_ConnParamUpdateRspHandler
1534:Generated_Source\PSoC4/BLE_eventHandler.c **** ***************************************************************************//**
1535:Generated_Source\PSoC4/BLE_eventHandler.c **** * 
1536:Generated_Source\PSoC4/BLE_eventHandler.c **** *  Handles the L2CAP connection parameter response event from
1537:Generated_Source\PSoC4/BLE_eventHandler.c **** *  the BLE stack.
1538:Generated_Source\PSoC4/BLE_eventHandler.c **** * 
1539:Generated_Source\PSoC4/BLE_eventHandler.c **** *  \param response:
1540:Generated_Source\PSoC4/BLE_eventHandler.c **** *      * Accepted = 0x0000
1541:Generated_Source\PSoC4/BLE_eventHandler.c **** *      * Rejected = 0x0001
1542:Generated_Source\PSoC4/BLE_eventHandler.c **** * 
1543:Generated_Source\PSoC4/BLE_eventHandler.c **** * \return
1544:Generated_Source\PSoC4/BLE_eventHandler.c **** *  None
1545:Generated_Source\PSoC4/BLE_eventHandler.c **** * 
1546:Generated_Source\PSoC4/BLE_eventHandler.c **** ******************************************************************************/
1547:Generated_Source\PSoC4/BLE_eventHandler.c **** static void CyBle_L2Cap_ConnParamUpdateRspEventHandler(uint16 response)
1548:Generated_Source\PSoC4/BLE_eventHandler.c **** {
 348              		.loc 1 1548 0
 349              		.cfi_startproc
 350              		@ args = 0, pretend = 0, frame = 8
 351              		@ frame_needed = 1, uses_anonymous_args = 0
 352 0000 80B5     		push	{r7, lr}
 353              		.cfi_def_cfa_offset 8
 354              		.cfi_offset 7, -8
 355              		.cfi_offset 14, -4
 356 0002 82B0     		sub	sp, sp, #8
 357              		.cfi_def_cfa_offset 16
 358 0004 00AF     		add	r7, sp, #0
 359              		.cfi_def_cfa_register 7
 360 0006 0200     		movs	r2, r0
 361 0008 BB1D     		adds	r3, r7, #6
 362 000a 1A80     		strh	r2, [r3]
1549:Generated_Source\PSoC4/BLE_eventHandler.c ****     #ifdef CYBLE_CPS_SERVER
1550:Generated_Source\PSoC4/BLE_eventHandler.c ****         CyBle_CpssConnParamUpdateRspEventHandler(response);
1551:Generated_Source\PSoC4/BLE_eventHandler.c ****     #endif /* CYBLE_CPS_SERVER */
1552:Generated_Source\PSoC4/BLE_eventHandler.c ****     
1553:Generated_Source\PSoC4/BLE_eventHandler.c ****     /* Unreferenced variable warning workaround */
1554:Generated_Source\PSoC4/BLE_eventHandler.c ****     if(response != 0u)
1555:Generated_Source\PSoC4/BLE_eventHandler.c ****     {
1556:Generated_Source\PSoC4/BLE_eventHandler.c ****     }
1557:Generated_Source\PSoC4/BLE_eventHandler.c **** }
 363              		.loc 1 1557 0
 364 000c C046     		nop
 365 000e BD46     		mov	sp, r7
 366 0010 02B0     		add	sp, sp, #8
 367              		@ sp needed
 368 0012 80BD     		pop	{r7, pc}
 369              		.cfi_endproc
 370              	.LFE8:
 371              		.size	CyBle_L2Cap_ConnParamUpdateRspEventHandler, .-CyBle_L2Cap_ConnParamUpdateRspEventHandler
 372              		.section	.text.CyBle_GapConnUpdateCompleteEventHandler,"ax",%progbits
 373              		.align	2
 374              		.code	16
 375              		.thumb_func
 376              		.type	CyBle_GapConnUpdateCompleteEventHandler, %function
 377              	CyBle_GapConnUpdateCompleteEventHandler:
 378              	.LFB9:
ARM GAS  C:\Users\TTSS\AppData\Local\Temp\ccySleeg.s 			page 35


1558:Generated_Source\PSoC4/BLE_eventHandler.c **** 
1559:Generated_Source\PSoC4/BLE_eventHandler.c **** 
1560:Generated_Source\PSoC4/BLE_eventHandler.c **** /****************************************************************************** 
1561:Generated_Source\PSoC4/BLE_eventHandler.c **** * Function Name: CyBle_GapConnUpdateCompleteEventHandler
1562:Generated_Source\PSoC4/BLE_eventHandler.c **** ***************************************************************************//**
1563:Generated_Source\PSoC4/BLE_eventHandler.c **** * 
1564:Generated_Source\PSoC4/BLE_eventHandler.c **** *  Handles the CYBLE_EVT_GAP_CONNECTION_UPDATE_COMPLETE event from
1565:Generated_Source\PSoC4/BLE_eventHandler.c **** *  the BLE stack.
1566:Generated_Source\PSoC4/BLE_eventHandler.c **** * 
1567:Generated_Source\PSoC4/BLE_eventHandler.c **** *  \param eventParam: The pointer to the data structure specified by the event.
1568:Generated_Source\PSoC4/BLE_eventHandler.c **** * 
1569:Generated_Source\PSoC4/BLE_eventHandler.c **** * \return
1570:Generated_Source\PSoC4/BLE_eventHandler.c **** *  None
1571:Generated_Source\PSoC4/BLE_eventHandler.c **** * 
1572:Generated_Source\PSoC4/BLE_eventHandler.c **** ******************************************************************************/
1573:Generated_Source\PSoC4/BLE_eventHandler.c **** static void CyBle_GapConnUpdateCompleteEventHandler(const CYBLE_GAP_CONN_PARAM_UPDATED_IN_CONTROLLE
1574:Generated_Source\PSoC4/BLE_eventHandler.c **** {
 379              		.loc 1 1574 0
 380              		.cfi_startproc
 381              		@ args = 0, pretend = 0, frame = 8
 382              		@ frame_needed = 1, uses_anonymous_args = 0
 383 0000 80B5     		push	{r7, lr}
 384              		.cfi_def_cfa_offset 8
 385              		.cfi_offset 7, -8
 386              		.cfi_offset 14, -4
 387 0002 82B0     		sub	sp, sp, #8
 388              		.cfi_def_cfa_offset 16
 389 0004 00AF     		add	r7, sp, #0
 390              		.cfi_def_cfa_register 7
 391 0006 7860     		str	r0, [r7, #4]
1575:Generated_Source\PSoC4/BLE_eventHandler.c ****     #ifdef CYBLE_CPS_SERVER
1576:Generated_Source\PSoC4/BLE_eventHandler.c ****         CyBle_CpssConnUpdateCompleteEventHandler(eventParam);
1577:Generated_Source\PSoC4/BLE_eventHandler.c ****     #endif /* CYBLE_CPS_SERVER */
1578:Generated_Source\PSoC4/BLE_eventHandler.c ****     
1579:Generated_Source\PSoC4/BLE_eventHandler.c ****     /* Unreferenced variable warning workaround */
1580:Generated_Source\PSoC4/BLE_eventHandler.c ****     if(eventParam != 0u)
1581:Generated_Source\PSoC4/BLE_eventHandler.c ****     {
1582:Generated_Source\PSoC4/BLE_eventHandler.c ****     }
1583:Generated_Source\PSoC4/BLE_eventHandler.c **** }
 392              		.loc 1 1583 0
 393 0008 C046     		nop
 394 000a BD46     		mov	sp, r7
 395 000c 02B0     		add	sp, sp, #8
 396              		@ sp needed
 397 000e 80BD     		pop	{r7, pc}
 398              		.cfi_endproc
 399              	.LFE9:
 400              		.size	CyBle_GapConnUpdateCompleteEventHandler, .-CyBle_GapConnUpdateCompleteEventHandler
 401              		.section	.text.CyBle_EventHandler,"ax",%progbits
 402              		.align	2
 403              		.global	CyBle_EventHandler
 404              		.code	16
 405              		.thumb_func
 406              		.type	CyBle_EventHandler, %function
 407              	CyBle_EventHandler:
 408              	.LFB10:
1584:Generated_Source\PSoC4/BLE_eventHandler.c **** 
ARM GAS  C:\Users\TTSS\AppData\Local\Temp\ccySleeg.s 			page 36


1585:Generated_Source\PSoC4/BLE_eventHandler.c **** 
1586:Generated_Source\PSoC4/BLE_eventHandler.c **** /****************************************************************************** 
1587:Generated_Source\PSoC4/BLE_eventHandler.c **** * Function Name: CyBle_EventHandler
1588:Generated_Source\PSoC4/BLE_eventHandler.c **** ***************************************************************************//**
1589:Generated_Source\PSoC4/BLE_eventHandler.c **** * 
1590:Generated_Source\PSoC4/BLE_eventHandler.c **** *  Handles the events from the BLE stack
1591:Generated_Source\PSoC4/BLE_eventHandler.c **** * 
1592:Generated_Source\PSoC4/BLE_eventHandler.c **** *  \param eventCode:    the event code
1593:Generated_Source\PSoC4/BLE_eventHandler.c **** *  \param eventParam:  the event parameters
1594:Generated_Source\PSoC4/BLE_eventHandler.c **** * 
1595:Generated_Source\PSoC4/BLE_eventHandler.c **** * \return
1596:Generated_Source\PSoC4/BLE_eventHandler.c **** *  None.
1597:Generated_Source\PSoC4/BLE_eventHandler.c **** * 
1598:Generated_Source\PSoC4/BLE_eventHandler.c **** ******************************************************************************/
1599:Generated_Source\PSoC4/BLE_eventHandler.c **** void CyBle_EventHandler(uint8 eventCode, void *eventParam)
1600:Generated_Source\PSoC4/BLE_eventHandler.c **** {
 409              		.loc 1 1600 0
 410              		.cfi_startproc
 411              		@ args = 0, pretend = 0, frame = 32
 412              		@ frame_needed = 1, uses_anonymous_args = 0
 413 0000 80B5     		push	{r7, lr}
 414              		.cfi_def_cfa_offset 8
 415              		.cfi_offset 7, -8
 416              		.cfi_offset 14, -4
 417 0002 88B0     		sub	sp, sp, #32
 418              		.cfi_def_cfa_offset 40
 419 0004 00AF     		add	r7, sp, #0
 420              		.cfi_def_cfa_register 7
 421 0006 0200     		movs	r2, r0
 422 0008 3960     		str	r1, [r7]
 423 000a FB1D     		adds	r3, r7, #7
 424 000c 1A70     		strb	r2, [r3]
1601:Generated_Source\PSoC4/BLE_eventHandler.c ****     cyBle_eventHandlerFlag |= CYBLE_CALLBACK;
 425              		.loc 1 1601 0
 426 000e C54B     		ldr	r3, .L62
 427 0010 1B78     		ldrb	r3, [r3]
 428 0012 DBB2     		uxtb	r3, r3
 429 0014 0122     		movs	r2, #1
 430 0016 1343     		orrs	r3, r2
 431 0018 DAB2     		uxtb	r2, r3
 432 001a C24B     		ldr	r3, .L62
 433 001c 1A70     		strb	r2, [r3]
1602:Generated_Source\PSoC4/BLE_eventHandler.c **** 
1603:Generated_Source\PSoC4/BLE_eventHandler.c ****     /* Common Profile event handling */
1604:Generated_Source\PSoC4/BLE_eventHandler.c ****     switch(eventCode)
 434              		.loc 1 1604 0
 435 001e FB1D     		adds	r3, r7, #7
 436 0020 1B78     		ldrb	r3, [r3]
 437 0022 712B     		cmp	r3, #113
 438 0024 00D9     		bls	.LCB332
 439 0026 5BE1     		b	.L57	@long jump
 440              	.LCB332:
 441 0028 9A00     		lsls	r2, r3, #2
 442 002a BF4B     		ldr	r3, .L62+4
 443 002c D318     		adds	r3, r2, r3
 444 002e 1B68     		ldr	r3, [r3]
 445 0030 9F46     		mov	pc, r3
ARM GAS  C:\Users\TTSS\AppData\Local\Temp\ccySleeg.s 			page 37


 446              		.section	.rodata
 447              		.align	2
 448              	.L24:
 449 000c E0020000 		.word	.L57
 450 0010 32000000 		.word	.L23
 451 0014 38010000 		.word	.L25
 452 0018 E0020000 		.word	.L57
 453 001c E0020000 		.word	.L57
 454 0020 42010000 		.word	.L26
 455 0024 4C010000 		.word	.L27
 456 0028 E0020000 		.word	.L57
 457 002c E0020000 		.word	.L57
 458 0030 E0020000 		.word	.L57
 459 0034 E0020000 		.word	.L57
 460 0038 E0020000 		.word	.L57
 461 003c E0020000 		.word	.L57
 462 0040 E0020000 		.word	.L57
 463 0044 E0020000 		.word	.L57
 464 0048 E0020000 		.word	.L57
 465 004c E0020000 		.word	.L57
 466 0050 E0020000 		.word	.L57
 467 0054 E0020000 		.word	.L57
 468 0058 E0020000 		.word	.L57
 469 005c E0020000 		.word	.L57
 470 0060 E0020000 		.word	.L57
 471 0064 E0020000 		.word	.L57
 472 0068 E0020000 		.word	.L57
 473 006c E0020000 		.word	.L57
 474 0070 E0020000 		.word	.L57
 475 0074 E0020000 		.word	.L57
 476 0078 E0020000 		.word	.L57
 477 007c E0020000 		.word	.L57
 478 0080 E0020000 		.word	.L57
 479 0084 E0020000 		.word	.L57
 480 0088 E0020000 		.word	.L57
 481 008c E0020000 		.word	.L57
 482 0090 8C010000 		.word	.L28
 483 0094 E0020000 		.word	.L57
 484 0098 E0020000 		.word	.L57
 485 009c E0020000 		.word	.L57
 486 00a0 E0020000 		.word	.L57
 487 00a4 D0010000 		.word	.L30
 488 00a8 B8010000 		.word	.L31
 489 00ac C8010000 		.word	.L32
 490 00b0 E0020000 		.word	.L57
 491 00b4 AE010000 		.word	.L33
 492 00b8 E0020000 		.word	.L57
 493 00bc E0020000 		.word	.L57
 494 00c0 E0020000 		.word	.L57
 495 00c4 E0020000 		.word	.L57
 496 00c8 E0020000 		.word	.L57
 497 00cc E0020000 		.word	.L57
 498 00d0 E0020000 		.word	.L57
 499 00d4 E0020000 		.word	.L57
 500 00d8 E0020000 		.word	.L57
 501 00dc E0020000 		.word	.L57
 502 00e0 E0020000 		.word	.L57
ARM GAS  C:\Users\TTSS\AppData\Local\Temp\ccySleeg.s 			page 38


 503 00e4 E0020000 		.word	.L57
 504 00e8 E0020000 		.word	.L57
 505 00ec E0020000 		.word	.L57
 506 00f0 E0020000 		.word	.L57
 507 00f4 E0020000 		.word	.L57
 508 00f8 E0020000 		.word	.L57
 509 00fc E0020000 		.word	.L57
 510 0100 E0020000 		.word	.L57
 511 0104 E0020000 		.word	.L57
 512 0108 E0020000 		.word	.L57
 513 010c E0020000 		.word	.L57
 514 0110 52020000 		.word	.L34
 515 0114 8C020000 		.word	.L35
 516 0118 92020000 		.word	.L36
 517 011c E0020000 		.word	.L57
 518 0120 E0020000 		.word	.L57
 519 0124 E0020000 		.word	.L57
 520 0128 E0020000 		.word	.L57
 521 012c E0020000 		.word	.L57
 522 0130 E0020000 		.word	.L57
 523 0134 E0020000 		.word	.L57
 524 0138 E0020000 		.word	.L57
 525 013c CC020000 		.word	.L37
 526 0140 E0020000 		.word	.L57
 527 0144 E0020000 		.word	.L57
 528 0148 E0020000 		.word	.L57
 529 014c E0020000 		.word	.L57
 530 0150 E0020000 		.word	.L57
 531 0154 E0020000 		.word	.L57
 532 0158 E0020000 		.word	.L57
 533 015c D6020000 		.word	.L41
 534 0160 E0020000 		.word	.L57
 535 0164 E0020000 		.word	.L57
 536 0168 E0020000 		.word	.L57
 537 016c E0020000 		.word	.L57
 538 0170 E0020000 		.word	.L57
 539 0174 E0020000 		.word	.L57
 540 0178 E0020000 		.word	.L57
 541 017c E0020000 		.word	.L57
 542 0180 E0020000 		.word	.L57
 543 0184 E0020000 		.word	.L57
 544 0188 E0020000 		.word	.L57
 545 018c E0020000 		.word	.L57
 546 0190 E0020000 		.word	.L57
 547 0194 E0020000 		.word	.L57
 548 0198 E0020000 		.word	.L57
 549 019c E0020000 		.word	.L57
 550 01a0 E0020000 		.word	.L57
 551 01a4 E0020000 		.word	.L57
 552 01a8 E0020000 		.word	.L57
 553 01ac E0020000 		.word	.L57
 554 01b0 E0020000 		.word	.L57
 555 01b4 E0020000 		.word	.L57
 556 01b8 E0020000 		.word	.L57
 557 01bc E0020000 		.word	.L57
 558 01c0 E0020000 		.word	.L57
 559 01c4 E0020000 		.word	.L57
ARM GAS  C:\Users\TTSS\AppData\Local\Temp\ccySleeg.s 			page 39


 560 01c8 E0020000 		.word	.L57
 561 01cc E0020000 		.word	.L57
 562 01d0 46020000 		.word	.L43
 563              		.section	.text.CyBle_EventHandler
 564              	.L23:
 565              	.LBB3:
1605:Generated_Source\PSoC4/BLE_eventHandler.c ****     {
1606:Generated_Source\PSoC4/BLE_eventHandler.c ****         /**********************************************************
1607:Generated_Source\PSoC4/BLE_eventHandler.c ****         * General events
1608:Generated_Source\PSoC4/BLE_eventHandler.c ****         ************************************************************/
1609:Generated_Source\PSoC4/BLE_eventHandler.c ****         case CYBLE_EVT_STACK_ON:
1610:Generated_Source\PSoC4/BLE_eventHandler.c ****         #if(CYBLE_MODE_PROFILE)
1611:Generated_Source\PSoC4/BLE_eventHandler.c ****         {
1612:Generated_Source\PSoC4/BLE_eventHandler.c ****             CYBLE_BLESS_PWR_IN_DB_T bleSsPowerLevel;
1613:Generated_Source\PSoC4/BLE_eventHandler.c ****             
1614:Generated_Source\PSoC4/BLE_eventHandler.c ****             /* Set Tx Power Level for advertising and connection channels */
1615:Generated_Source\PSoC4/BLE_eventHandler.c ****             bleSsPowerLevel.blePwrLevelInDbm = CYBLE_TX_POWER_LEVEL_ADV;
 566              		.loc 1 1615 0
 567 0032 1023     		movs	r3, #16
 568 0034 FB18     		adds	r3, r7, r3
 569 0036 0722     		movs	r2, #7
 570 0038 1A70     		strb	r2, [r3]
1616:Generated_Source\PSoC4/BLE_eventHandler.c ****             bleSsPowerLevel.bleSsChId = CYBLE_LL_ADV_CH_TYPE;
 571              		.loc 1 1616 0
 572 003a 1023     		movs	r3, #16
 573 003c FB18     		adds	r3, r7, r3
 574 003e 0022     		movs	r2, #0
 575 0040 5A70     		strb	r2, [r3, #1]
1617:Generated_Source\PSoC4/BLE_eventHandler.c ****             (void) CyBle_SetTxPowerLevel (&bleSsPowerLevel);
 576              		.loc 1 1617 0
 577 0042 1023     		movs	r3, #16
 578 0044 FB18     		adds	r3, r7, r3
 579 0046 1800     		movs	r0, r3
 580 0048 FFF7FEFF 		bl	CyBle_SetTxPowerLevel
1618:Generated_Source\PSoC4/BLE_eventHandler.c ****             bleSsPowerLevel.blePwrLevelInDbm = CYBLE_TX_POWER_LEVEL_CONN;
 581              		.loc 1 1618 0
 582 004c 1023     		movs	r3, #16
 583 004e FB18     		adds	r3, r7, r3
 584 0050 0722     		movs	r2, #7
 585 0052 1A70     		strb	r2, [r3]
1619:Generated_Source\PSoC4/BLE_eventHandler.c ****             bleSsPowerLevel.bleSsChId = CYBLE_LL_CONN_CH_TYPE;
 586              		.loc 1 1619 0
 587 0054 1023     		movs	r3, #16
 588 0056 FB18     		adds	r3, r7, r3
 589 0058 0122     		movs	r2, #1
 590 005a 5A70     		strb	r2, [r3, #1]
1620:Generated_Source\PSoC4/BLE_eventHandler.c ****             (void) CyBle_SetTxPowerLevel (&bleSsPowerLevel);
 591              		.loc 1 1620 0
 592 005c 1023     		movs	r3, #16
 593 005e FB18     		adds	r3, r7, r3
 594 0060 1800     		movs	r0, r3
 595 0062 FFF7FEFF 		bl	CyBle_SetTxPowerLevel
1621:Generated_Source\PSoC4/BLE_eventHandler.c ****             
1622:Generated_Source\PSoC4/BLE_eventHandler.c ****             #if (CYBLE_GATT_ROLE_SERVER)
1623:Generated_Source\PSoC4/BLE_eventHandler.c ****                 /* As per Privacy Errata a call to CyBle_EnableDefaultDevicePrivacy() is
1624:Generated_Source\PSoC4/BLE_eventHandler.c ****                   required to set a device to use device privacy instead of network privacy
1625:Generated_Source\PSoC4/BLE_eventHandler.c ****                   that is enabled by default starting from BLE Stack 3.3.
ARM GAS  C:\Users\TTSS\AppData\Local\Temp\ccySleeg.s 			page 40


1626:Generated_Source\PSoC4/BLE_eventHandler.c ****                 */
1627:Generated_Source\PSoC4/BLE_eventHandler.c ****                 if(cyBle_gaps.rpaOnlyCharHandle != CYBLE_GATT_INVALID_ATTR_HANDLE_VALUE)
 596              		.loc 1 1627 0
 597 0066 0023     		movs	r3, #0
 598 0068 002B     		cmp	r3, #0
 599 006a 01D0     		beq	.L44
1628:Generated_Source\PSoC4/BLE_eventHandler.c ****                 {
1629:Generated_Source\PSoC4/BLE_eventHandler.c ****                     CyBle_EnableDefaultDevicePrivacy();
 600              		.loc 1 1629 0
 601 006c FFF7FEFF 		bl	CyBle_EnableDefaultDevicePrivacy
 602              	.L44:
 603              	.LBE3:
1630:Generated_Source\PSoC4/BLE_eventHandler.c ****                 }
1631:Generated_Source\PSoC4/BLE_eventHandler.c ****             #endif /* (CYBLE_GATT_ROLE_SERVER) */
1632:Generated_Source\PSoC4/BLE_eventHandler.c ****             
1633:Generated_Source\PSoC4/BLE_eventHandler.c ****             #if (CYBLE_STRICT_PAIRING_ENABLED)
1634:Generated_Source\PSoC4/BLE_eventHandler.c ****                 (void) CyBle_GapSetSecurityRequirements(CYBLE_STRICT_PAIRING_REQ_VALUE, CYBLE_SECUR
1635:Generated_Source\PSoC4/BLE_eventHandler.c ****             #endif /* (CYBLE_STRICT_PAIRING_ENABLED) */
1636:Generated_Source\PSoC4/BLE_eventHandler.c ****             
1637:Generated_Source\PSoC4/BLE_eventHandler.c ****         }
1638:Generated_Source\PSoC4/BLE_eventHandler.c ****         #endif /* CYBLE_MODE_PROFILE */
1639:Generated_Source\PSoC4/BLE_eventHandler.c ****         #if (CYBLE_GATT_ROLE_SERVER || CYBLE_GATT_ROLE_CLIENT)
1640:Generated_Source\PSoC4/BLE_eventHandler.c ****             /* Set device Address  */
1641:Generated_Source\PSoC4/BLE_eventHandler.c ****             if(CyBle_IsDeviceAddressValid(cyBle_sflashDeviceAddress) != 0u)
 604              		.loc 1 1641 0
 605 0070 AE4B     		ldr	r3, .L62+8
 606 0072 1B68     		ldr	r3, [r3]
 607 0074 1800     		movs	r0, r3
 608 0076 FFF7FEFF 		bl	CyBle_IsDeviceAddressValid
 609 007a 031E     		subs	r3, r0, #0
 610 007c 11D0     		beq	.L45
1642:Generated_Source\PSoC4/BLE_eventHandler.c ****             {
1643:Generated_Source\PSoC4/BLE_eventHandler.c ****                 (void) CyBle_SetDeviceAddress(cyBle_sflashDeviceAddress);
 611              		.loc 1 1643 0
 612 007e AB4B     		ldr	r3, .L62+8
 613 0080 1B68     		ldr	r3, [r3]
 614 0082 1800     		movs	r0, r3
 615 0084 FFF7FEFF 		bl	CyBle_SetDeviceAddress
1644:Generated_Source\PSoC4/BLE_eventHandler.c ****                 #if(CYBLE_GAP_ROLE_PERIPHERAL || CYBLE_GAP_ROLE_BROADCASTER)
1645:Generated_Source\PSoC4/BLE_eventHandler.c ****                     CyBle_ChangeAdDeviceAddress(cyBle_sflashDeviceAddress, 0u);
 616              		.loc 1 1645 0
 617 0088 A84B     		ldr	r3, .L62+8
 618 008a 1B68     		ldr	r3, [r3]
 619 008c 0021     		movs	r1, #0
 620 008e 1800     		movs	r0, r3
 621 0090 FFF7FEFF 		bl	CyBle_ChangeAdDeviceAddress
1646:Generated_Source\PSoC4/BLE_eventHandler.c ****                     CyBle_ChangeAdDeviceAddress(cyBle_sflashDeviceAddress, 1u);
 622              		.loc 1 1646 0
 623 0094 A54B     		ldr	r3, .L62+8
 624 0096 1B68     		ldr	r3, [r3]
 625 0098 0121     		movs	r1, #1
 626 009a 1800     		movs	r0, r3
 627 009c FFF7FEFF 		bl	CyBle_ChangeAdDeviceAddress
 628 00a0 36E0     		b	.L46
 629              	.L45:
 630              	.LBB4:
1647:Generated_Source\PSoC4/BLE_eventHandler.c ****                 #endif /* CYBLE_GAP_ROLE_PERIPHERAL || CYBLE_GAP_ROLE_BROADCASTER */    
ARM GAS  C:\Users\TTSS\AppData\Local\Temp\ccySleeg.s 			page 41


1648:Generated_Source\PSoC4/BLE_eventHandler.c ****             }
1649:Generated_Source\PSoC4/BLE_eventHandler.c ****             else
1650:Generated_Source\PSoC4/BLE_eventHandler.c ****             {
1651:Generated_Source\PSoC4/BLE_eventHandler.c ****             #if (SILICON_GENERATED_DEVICE_ADDRESS != 0u)
1652:Generated_Source\PSoC4/BLE_eventHandler.c ****             {
1653:Generated_Source\PSoC4/BLE_eventHandler.c ****                 uint32 bdAddrLoc;
1654:Generated_Source\PSoC4/BLE_eventHandler.c ****                 bdAddrLoc = (CYBLE_SFLASH_DIE_X_REG & CYBLE_SFLASH_DIE_X_MASK) |
 631              		.loc 1 1654 0
 632 00a2 A34B     		ldr	r3, .L62+12
 633 00a4 1B78     		ldrb	r3, [r3]
 634 00a6 1A00     		movs	r2, r3
 635 00a8 3F23     		movs	r3, #63
 636 00aa 1A40     		ands	r2, r3
1655:Generated_Source\PSoC4/BLE_eventHandler.c ****                     ((uint32)(((uint32)CYBLE_SFLASH_DIE_Y_REG) & ((uint32)CYBLE_SFLASH_DIE_Y_MASK))
 637              		.loc 1 1655 0
 638 00ac A14B     		ldr	r3, .L62+16
 639 00ae 1B78     		ldrb	r3, [r3]
 640 00b0 9901     		lsls	r1, r3, #6
 641 00b2 FC23     		movs	r3, #252
 642 00b4 1B01     		lsls	r3, r3, #4
 643 00b6 0B40     		ands	r3, r1
1654:Generated_Source\PSoC4/BLE_eventHandler.c ****                     ((uint32)(((uint32)CYBLE_SFLASH_DIE_Y_REG) & ((uint32)CYBLE_SFLASH_DIE_Y_MASK))
 644              		.loc 1 1654 0
 645 00b8 1A43     		orrs	r2, r3
1656:Generated_Source\PSoC4/BLE_eventHandler.c ****                         CYBLE_SFLASH_DIE_X_BITS) |
1657:Generated_Source\PSoC4/BLE_eventHandler.c ****                     ((uint32)(((uint32)CYBLE_SFLASH_DIE_WAFER_REG) & ((uint32)CYBLE_SFLASH_DIE_WAFE
 646              		.loc 1 1657 0
 647 00ba 9F4B     		ldr	r3, .L62+20
 648 00bc 1B78     		ldrb	r3, [r3]
 649 00be 1903     		lsls	r1, r3, #12
 650 00c0 F823     		movs	r3, #248
 651 00c2 5B02     		lsls	r3, r3, #9
 652 00c4 0B40     		ands	r3, r1
1656:Generated_Source\PSoC4/BLE_eventHandler.c ****                         CYBLE_SFLASH_DIE_X_BITS) |
 653              		.loc 1 1656 0
 654 00c6 1A43     		orrs	r2, r3
1658:Generated_Source\PSoC4/BLE_eventHandler.c ****                         CYBLE_SFLASH_DIE_XY_BITS) |
1659:Generated_Source\PSoC4/BLE_eventHandler.c ****                     ((uint32)(((uint32)CYBLE_SFLASH_DIE_LOT_REG) & ((uint32)CYBLE_SFLASH_DIE_LOT_MA
 655              		.loc 1 1659 0
 656 00c8 9C4B     		ldr	r3, .L62+24
 657 00ca 1B78     		ldrb	r3, [r3]
 658 00cc 5904     		lsls	r1, r3, #17
 659 00ce FE23     		movs	r3, #254
 660 00d0 1B04     		lsls	r3, r3, #16
 661 00d2 0B40     		ands	r3, r1
1654:Generated_Source\PSoC4/BLE_eventHandler.c ****                     ((uint32)(((uint32)CYBLE_SFLASH_DIE_Y_REG) & ((uint32)CYBLE_SFLASH_DIE_Y_MASK))
 662              		.loc 1 1654 0
 663 00d4 1343     		orrs	r3, r2
 664 00d6 BB61     		str	r3, [r7, #24]
1660:Generated_Source\PSoC4/BLE_eventHandler.c ****                         CYBLE_SFLASH_DIE_XYWAFER_BITS);
1661:Generated_Source\PSoC4/BLE_eventHandler.c ****                             
1662:Generated_Source\PSoC4/BLE_eventHandler.c ****                 cyBle_deviceAddress.bdAddr[0] = (uint8)bdAddrLoc;
 665              		.loc 1 1662 0
 666 00d8 BB69     		ldr	r3, [r7, #24]
 667 00da DAB2     		uxtb	r2, r3
 668 00dc 984B     		ldr	r3, .L62+28
 669 00de 1A70     		strb	r2, [r3]
ARM GAS  C:\Users\TTSS\AppData\Local\Temp\ccySleeg.s 			page 42


1663:Generated_Source\PSoC4/BLE_eventHandler.c ****                 cyBle_deviceAddress.bdAddr[1] = (uint8)(bdAddrLoc >> 8u);
 670              		.loc 1 1663 0
 671 00e0 BB69     		ldr	r3, [r7, #24]
 672 00e2 1B0A     		lsrs	r3, r3, #8
 673 00e4 DAB2     		uxtb	r2, r3
 674 00e6 964B     		ldr	r3, .L62+28
 675 00e8 5A70     		strb	r2, [r3, #1]
1664:Generated_Source\PSoC4/BLE_eventHandler.c ****                 cyBle_deviceAddress.bdAddr[2] = (uint8)(bdAddrLoc >> 16u);
 676              		.loc 1 1664 0
 677 00ea BB69     		ldr	r3, [r7, #24]
 678 00ec 1B0C     		lsrs	r3, r3, #16
 679 00ee DAB2     		uxtb	r2, r3
 680 00f0 934B     		ldr	r3, .L62+28
 681 00f2 9A70     		strb	r2, [r3, #2]
 682              	.LBE4:
1665:Generated_Source\PSoC4/BLE_eventHandler.c ****             }
1666:Generated_Source\PSoC4/BLE_eventHandler.c ****             #endif /* SILICON_GENERATED_DEVICE_ADDRESS != 0u */
1667:Generated_Source\PSoC4/BLE_eventHandler.c ****                 (void) CyBle_SetDeviceAddress(&cyBle_deviceAddress);
 683              		.loc 1 1667 0
 684 00f4 924B     		ldr	r3, .L62+28
 685 00f6 1800     		movs	r0, r3
 686 00f8 FFF7FEFF 		bl	CyBle_SetDeviceAddress
1668:Generated_Source\PSoC4/BLE_eventHandler.c ****                 #if(CYBLE_GAP_ROLE_PERIPHERAL || CYBLE_GAP_ROLE_BROADCASTER)
1669:Generated_Source\PSoC4/BLE_eventHandler.c ****                     CyBle_ChangeAdDeviceAddress(&cyBle_deviceAddress, 0u);
 687              		.loc 1 1669 0
 688 00fc 904B     		ldr	r3, .L62+28
 689 00fe 0021     		movs	r1, #0
 690 0100 1800     		movs	r0, r3
 691 0102 FFF7FEFF 		bl	CyBle_ChangeAdDeviceAddress
1670:Generated_Source\PSoC4/BLE_eventHandler.c ****                     CyBle_ChangeAdDeviceAddress(&cyBle_deviceAddress, 1u);
 692              		.loc 1 1670 0
 693 0106 8E4B     		ldr	r3, .L62+28
 694 0108 0121     		movs	r1, #1
 695 010a 1800     		movs	r0, r3
 696 010c FFF7FEFF 		bl	CyBle_ChangeAdDeviceAddress
 697              	.L46:
1671:Generated_Source\PSoC4/BLE_eventHandler.c ****                 #endif /* CYBLE_GAP_ROLE_PERIPHERAL || CYBLE_GAP_ROLE_BROADCASTER */    
1672:Generated_Source\PSoC4/BLE_eventHandler.c ****             }
1673:Generated_Source\PSoC4/BLE_eventHandler.c ****             /* Set device IO Capability  */
1674:Generated_Source\PSoC4/BLE_eventHandler.c ****             (void) CyBle_GapSetIoCap(CYBLE_IO_CAPABILITY);    
 698              		.loc 1 1674 0
 699 0110 0020     		movs	r0, #0
 700 0112 FFF7FEFF 		bl	CyBle_GapSetIoCap
 701              	.LBB5:
1675:Generated_Source\PSoC4/BLE_eventHandler.c ****             {
1676:Generated_Source\PSoC4/BLE_eventHandler.c ****                 /* Enable all 4.1 events and configured 4.2 events */
1677:Generated_Source\PSoC4/BLE_eventHandler.c ****                 uint8 leMask[CYBLE_LE_MASK_LENGTH] = {LO8(CYBLE_LE_MASK), HI8(CYBLE_LE_MASK)};
 702              		.loc 1 1677 0
 703 0116 0C23     		movs	r3, #12
 704 0118 FB18     		adds	r3, r7, r3
 705 011a 3F22     		movs	r2, #63
 706 011c 1A70     		strb	r2, [r3]
 707 011e 0C23     		movs	r3, #12
 708 0120 FB18     		adds	r3, r7, r3
 709 0122 0022     		movs	r2, #0
 710 0124 5A70     		strb	r2, [r3, #1]
1678:Generated_Source\PSoC4/BLE_eventHandler.c ****                 (void) CyBle_GapSetLeEventMask(leMask);
ARM GAS  C:\Users\TTSS\AppData\Local\Temp\ccySleeg.s 			page 43


 711              		.loc 1 1678 0
 712 0126 0C23     		movs	r3, #12
 713 0128 FB18     		adds	r3, r7, r3
 714 012a 1800     		movs	r0, r3
 715 012c FFF7FEFF 		bl	CyBle_GapSetLeEventMask
 716              	.LBE5:
1679:Generated_Source\PSoC4/BLE_eventHandler.c ****             }
1680:Generated_Source\PSoC4/BLE_eventHandler.c ****         #if(CYBLE_DLE_FEATURE_ENABLED)
1681:Generated_Source\PSoC4/BLE_eventHandler.c ****         {
1682:Generated_Source\PSoC4/BLE_eventHandler.c ****             /* Set maximum suggested TX payload size */
1683:Generated_Source\PSoC4/BLE_eventHandler.c ****             uint16 payloadTime = CYBLE_LL_MAX_TX_TIME;
1684:Generated_Source\PSoC4/BLE_eventHandler.c ****             (void) CyBle_GapConvertOctetToTime(CYBLE_GAP_PHY_1MBPS, CYBLE_LL_MAX_TX_PAYLOAD_SIZE, &
1685:Generated_Source\PSoC4/BLE_eventHandler.c ****             (void) CyBle_GapSetSuggestedDataLength(CYBLE_LL_MAX_TX_PAYLOAD_SIZE, payloadTime); 
1686:Generated_Source\PSoC4/BLE_eventHandler.c ****         }
1687:Generated_Source\PSoC4/BLE_eventHandler.c ****         #endif /* CYBLE_DLE_FEATURE != 0u */
1688:Generated_Source\PSoC4/BLE_eventHandler.c ****         
1689:Generated_Source\PSoC4/BLE_eventHandler.c ****         #endif /* CYBLE_GATT_ROLE_SERVER || CYBLE_GATT_ROLE_CLIENT */
1690:Generated_Source\PSoC4/BLE_eventHandler.c ****             CyBle_SetState(CYBLE_STATE_DISCONNECTED);
 717              		.loc 1 1690 0
 718 0130 844B     		ldr	r3, .L62+32
 719 0132 0422     		movs	r2, #4
 720 0134 1A70     		strb	r2, [r3]
1691:Generated_Source\PSoC4/BLE_eventHandler.c ****             break;
 721              		.loc 1 1691 0
 722 0136 DAE0     		b	.L47
 723              	.L25:
1692:Generated_Source\PSoC4/BLE_eventHandler.c ****         case CYBLE_EVT_TIMEOUT:
1693:Generated_Source\PSoC4/BLE_eventHandler.c ****             CyBle_TimeOutEventHandler((CYBLE_TO_REASON_CODE_T *)eventParam);
 724              		.loc 1 1693 0
 725 0138 3B68     		ldr	r3, [r7]
 726 013a 1800     		movs	r0, r3
 727 013c FFF7FEFF 		bl	CyBle_TimeOutEventHandler
1694:Generated_Source\PSoC4/BLE_eventHandler.c ****             break;
 728              		.loc 1 1694 0
 729 0140 D5E0     		b	.L47
 730              	.L26:
1695:Generated_Source\PSoC4/BLE_eventHandler.c ****     	case CYBLE_EVT_STACK_BUSY_STATUS:
1696:Generated_Source\PSoC4/BLE_eventHandler.c ****             cyBle_busyStatus = *(uint8 *)eventParam;
 731              		.loc 1 1696 0
 732 0142 3B68     		ldr	r3, [r7]
 733 0144 1A78     		ldrb	r2, [r3]
 734 0146 804B     		ldr	r3, .L62+36
 735 0148 1A70     		strb	r2, [r3]
1697:Generated_Source\PSoC4/BLE_eventHandler.c ****             break;
 736              		.loc 1 1697 0
 737 014a D0E0     		b	.L47
 738              	.L27:
 739              	.LBB6:
1698:Generated_Source\PSoC4/BLE_eventHandler.c ****     	case CYBLE_EVT_MEMORY_REQUEST:
1699:Generated_Source\PSoC4/BLE_eventHandler.c ****         #if(CYBLE_MODE_PROFILE)
1700:Generated_Source\PSoC4/BLE_eventHandler.c ****         {
1701:Generated_Source\PSoC4/BLE_eventHandler.c ****             CYBLE_MEMORY_REQUEST_T *memReq = (CYBLE_MEMORY_REQUEST_T *)eventParam;
 740              		.loc 1 1701 0
 741 014c 3B68     		ldr	r3, [r7]
 742 014e 7B61     		str	r3, [r7, #20]
1702:Generated_Source\PSoC4/BLE_eventHandler.c ****             if(memReq->request == CYBLE_PREPARED_WRITE_REQUEST)
 743              		.loc 1 1702 0
ARM GAS  C:\Users\TTSS\AppData\Local\Temp\ccySleeg.s 			page 44


 744 0150 7B69     		ldr	r3, [r7, #20]
 745 0152 1B78     		ldrb	r3, [r3]
 746 0154 002B     		cmp	r3, #0
 747 0156 00D0     		beq	.LCB501
 748 0158 C4E0     		b	.L58	@long jump
 749              	.LCB501:
1703:Generated_Source\PSoC4/BLE_eventHandler.c ****             {  
1704:Generated_Source\PSoC4/BLE_eventHandler.c ****             #if(CYBLE_GATT_ENABLE_EXTERNAL_PREP_WRITE_BUFF == 0u)
1705:Generated_Source\PSoC4/BLE_eventHandler.c ****                 /* Stack requests to provide memory to process remote request */
1706:Generated_Source\PSoC4/BLE_eventHandler.c ****                 if(memReq->allocFree == CYBLE_ALLOC_MEMORY)
 750              		.loc 1 1706 0
 751 015a 7B69     		ldr	r3, [r7, #20]
 752 015c 5B78     		ldrb	r3, [r3, #1]
 753 015e 002B     		cmp	r3, #0
 754 0160 0BD1     		bne	.L49
 755              	.LBB7:
1707:Generated_Source\PSoC4/BLE_eventHandler.c ****                 {
1708:Generated_Source\PSoC4/BLE_eventHandler.c ****                     static CYBLE_PREPARE_WRITE_REQUEST_MEMORY_T gPrepWriteReqMem;
1709:Generated_Source\PSoC4/BLE_eventHandler.c ****                     
1710:Generated_Source\PSoC4/BLE_eventHandler.c ****                     /* Configure and return statically allocated buffer at the end of cyBle_stackMe
1711:Generated_Source\PSoC4/BLE_eventHandler.c ****                     gPrepWriteReqMem.prepareWriteQueueSize = CYBLE_GATT_MAX_PREPARE_BUFF_COUNT;
 756              		.loc 1 1711 0
 757 0162 7A4B     		ldr	r3, .L62+40
 758 0164 0022     		movs	r2, #0
 759 0166 DA80     		strh	r2, [r3, #6]
1712:Generated_Source\PSoC4/BLE_eventHandler.c ****                     gPrepWriteReqMem.totalAttrValueLength = CYBLE_GATT_PREPARE_LENGTH_ALIGN;
 760              		.loc 1 1712 0
 761 0168 784B     		ldr	r3, .L62+40
 762 016a 0022     		movs	r2, #0
 763 016c 9A80     		strh	r2, [r3, #4]
1713:Generated_Source\PSoC4/BLE_eventHandler.c ****                     gPrepWriteReqMem.queueBuffer = &cyBle_stackMemoryRam[CYBLE_STACK_RAM_SIZE - 
 764              		.loc 1 1713 0
 765 016e 774B     		ldr	r3, .L62+40
 766 0170 774A     		ldr	r2, .L62+44
 767 0172 1A60     		str	r2, [r3]
1714:Generated_Source\PSoC4/BLE_eventHandler.c ****                                                                          CYBLE_GATT_PREPARE_WRITE_B
1715:Generated_Source\PSoC4/BLE_eventHandler.c ****                     memReq->configMemory = &gPrepWriteReqMem;  
 768              		.loc 1 1715 0
 769 0174 7B69     		ldr	r3, [r7, #20]
 770 0176 754A     		ldr	r2, .L62+40
 771 0178 5A60     		str	r2, [r3, #4]
 772              	.L49:
 773              	.LBE7:
1716:Generated_Source\PSoC4/BLE_eventHandler.c ****                 }                
1717:Generated_Source\PSoC4/BLE_eventHandler.c ****                 /* Clear CYBLE_CALLBACK flag not to provide handled event to application */
1718:Generated_Source\PSoC4/BLE_eventHandler.c ****                 cyBle_eventHandlerFlag &= (uint8)~CYBLE_CALLBACK;
 774              		.loc 1 1718 0
 775 017a 6A4B     		ldr	r3, .L62
 776 017c 1B78     		ldrb	r3, [r3]
 777 017e DBB2     		uxtb	r3, r3
 778 0180 0122     		movs	r2, #1
 779 0182 9343     		bics	r3, r2
 780 0184 DAB2     		uxtb	r2, r3
 781 0186 674B     		ldr	r3, .L62
 782 0188 1A70     		strb	r2, [r3]
 783              	.LBE6:
1719:Generated_Source\PSoC4/BLE_eventHandler.c ****             #endif  /* CYBLE_GATT_ENABLE_EXTERNAL_PREP_WRITE_BUFF == 0u */
ARM GAS  C:\Users\TTSS\AppData\Local\Temp\ccySleeg.s 			page 45


1720:Generated_Source\PSoC4/BLE_eventHandler.c ****             }
1721:Generated_Source\PSoC4/BLE_eventHandler.c ****         }
1722:Generated_Source\PSoC4/BLE_eventHandler.c ****         #endif /* CYBLE_MODE_PROFILE */
1723:Generated_Source\PSoC4/BLE_eventHandler.c ****             break;
 784              		.loc 1 1723 0
 785 018a ABE0     		b	.L58
 786              	.L28:
1724:Generated_Source\PSoC4/BLE_eventHandler.c ****         /**********************************************************
1725:Generated_Source\PSoC4/BLE_eventHandler.c ****         * GAP events
1726:Generated_Source\PSoC4/BLE_eventHandler.c ****         ************************************************************/
1727:Generated_Source\PSoC4/BLE_eventHandler.c ****         case CYBLE_EVT_GAP_AUTH_REQ:
1728:Generated_Source\PSoC4/BLE_eventHandler.c ****         #if(CYBLE_MODE_PROFILE)
1729:Generated_Source\PSoC4/BLE_eventHandler.c ****             if((cyBle_eventHandlerFlag & CYBLE_DISABLE_AUTOMATIC_AUTH) == 0u)
 787              		.loc 1 1729 0
 788 018c 654B     		ldr	r3, .L62
 789 018e 1B78     		ldrb	r3, [r3]
 790 0190 DBB2     		uxtb	r3, r3
 791 0192 1A00     		movs	r2, r3
 792 0194 2023     		movs	r3, #32
 793 0196 1340     		ands	r3, r2
 794 0198 00D0     		beq	.LCB542
 795 019a A5E0     		b	.L59	@long jump
 796              	.LCB542:
1730:Generated_Source\PSoC4/BLE_eventHandler.c ****             {
1731:Generated_Source\PSoC4/BLE_eventHandler.c ****                 /* If the responding device does not support pairing then the responding 
1732:Generated_Source\PSoC4/BLE_eventHandler.c ****                    device shall respond using the Pairing Failed message with the error 
1733:Generated_Source\PSoC4/BLE_eventHandler.c ****                    code "Pairing Not Supported" otherwise it responds with a Pairing 
1734:Generated_Source\PSoC4/BLE_eventHandler.c ****                    Response message.
1735:Generated_Source\PSoC4/BLE_eventHandler.c ****                 */
1736:Generated_Source\PSoC4/BLE_eventHandler.c ****                 if(cyBle_authInfo.security == (CYBLE_GAP_SEC_MODE_1 | CYBLE_GAP_SEC_LEVEL_1))
 797              		.loc 1 1736 0
 798 019c 6D4B     		ldr	r3, .L62+48
 799 019e 1B78     		ldrb	r3, [r3]
 800 01a0 102B     		cmp	r3, #16
 801 01a2 00D0     		beq	.LCB546
 802 01a4 A0E0     		b	.L59	@long jump
 803              	.LCB546:
1737:Generated_Source\PSoC4/BLE_eventHandler.c ****                 {
1738:Generated_Source\PSoC4/BLE_eventHandler.c ****                     cyBle_authInfo.authErr = CYBLE_GAP_AUTH_ERROR_PAIRING_NOT_SUPPORTED;
 804              		.loc 1 1738 0
 805 01a6 6B4B     		ldr	r3, .L62+48
 806 01a8 0522     		movs	r2, #5
 807 01aa DA70     		strb	r2, [r3, #3]
1739:Generated_Source\PSoC4/BLE_eventHandler.c ****                 }    
1740:Generated_Source\PSoC4/BLE_eventHandler.c ****             #if(CYBLE_GAP_ROLE_PERIPHERAL)
1741:Generated_Source\PSoC4/BLE_eventHandler.c ****                 {
1742:Generated_Source\PSoC4/BLE_eventHandler.c ****                     CYBLE_API_RESULT_T apiResult;
1743:Generated_Source\PSoC4/BLE_eventHandler.c ****                     
1744:Generated_Source\PSoC4/BLE_eventHandler.c ****                     apiResult = CyBle_GappAuthReqReply(cyBle_connHandle.bdHandle, &cyBle_authInfo);
1745:Generated_Source\PSoC4/BLE_eventHandler.c ****                     /* Setting callback flag again as CyBle_GappAuthReqReply() will generate
1746:Generated_Source\PSoC4/BLE_eventHandler.c ****                     * CYBLE_EVT_GAP_SMP_NEGOTIATED_AUTH_INFO event which will clear the callback
1747:Generated_Source\PSoC4/BLE_eventHandler.c ****                     * flag.
1748:Generated_Source\PSoC4/BLE_eventHandler.c ****                     */
1749:Generated_Source\PSoC4/BLE_eventHandler.c ****                     if (apiResult != CYBLE_ERROR_OK)
1750:Generated_Source\PSoC4/BLE_eventHandler.c ****                     {   
1751:Generated_Source\PSoC4/BLE_eventHandler.c ****                         CyBle_ApplCallback(CYBLE_EVT_GAP_AUTH_REQ_REPLY_ERR , &apiResult);
1752:Generated_Source\PSoC4/BLE_eventHandler.c ****                     }
ARM GAS  C:\Users\TTSS\AppData\Local\Temp\ccySleeg.s 			page 46


1753:Generated_Source\PSoC4/BLE_eventHandler.c ****                     cyBle_eventHandlerFlag |= CYBLE_CALLBACK;
1754:Generated_Source\PSoC4/BLE_eventHandler.c ****                 }
1755:Generated_Source\PSoC4/BLE_eventHandler.c ****             #endif /* CYBLE_GAP_ROLE_PERIPHERAL */
1756:Generated_Source\PSoC4/BLE_eventHandler.c ****             #if (CYBLE_GAP_ROLE_CENTRAL)
1757:Generated_Source\PSoC4/BLE_eventHandler.c ****                 (void)CyBle_GapAuthReq(cyBle_connHandle.bdHandle, &cyBle_authInfo);
1758:Generated_Source\PSoC4/BLE_eventHandler.c ****             #endif /* CYBLE_GAP_ROLE_CENTRAL */
1759:Generated_Source\PSoC4/BLE_eventHandler.c ****             }
1760:Generated_Source\PSoC4/BLE_eventHandler.c ****         #endif /* CYBLE_MODE_PROFILE */
1761:Generated_Source\PSoC4/BLE_eventHandler.c ****             break;
 808              		.loc 1 1761 0
 809 01ac 9CE0     		b	.L59
 810              	.L33:
1762:Generated_Source\PSoC4/BLE_eventHandler.c ****         
1763:Generated_Source\PSoC4/BLE_eventHandler.c ****         case CYBLE_EVT_GAP_AUTH_COMPLETE:
1764:Generated_Source\PSoC4/BLE_eventHandler.c ****         #if((CYBLE_GAP_ROLE_PERIPHERAL || CYBLE_GAP_ROLE_CENTRAL) && (CYBLE_BONDING_REQUIREMENT == 
1765:Generated_Source\PSoC4/BLE_eventHandler.c ****             cyBle_peerBonding = ((CYBLE_GAP_AUTH_INFO_T *)eventParam)->bonding;
1766:Generated_Source\PSoC4/BLE_eventHandler.c ****         #endif  /* CYBLE_BONDING_REQUIREMENT == CYBLE_BONDING_YES */
1767:Generated_Source\PSoC4/BLE_eventHandler.c ****             break;
1768:Generated_Source\PSoC4/BLE_eventHandler.c ****         
1769:Generated_Source\PSoC4/BLE_eventHandler.c ****         case CYBLE_EVT_GAP_CONNECTION_UPDATE_COMPLETE:
1770:Generated_Source\PSoC4/BLE_eventHandler.c ****             CyBle_GapConnUpdateCompleteEventHandler((const CYBLE_GAP_CONN_PARAM_UPDATED_IN_CONTROLL
 811              		.loc 1 1770 0
 812 01ae 3B68     		ldr	r3, [r7]
 813 01b0 1800     		movs	r0, r3
 814 01b2 FFF7FEFF 		bl	CyBle_GapConnUpdateCompleteEventHandler
1771:Generated_Source\PSoC4/BLE_eventHandler.c ****             break;
 815              		.loc 1 1771 0
 816 01b6 9AE0     		b	.L47
 817              	.L31:
1772:Generated_Source\PSoC4/BLE_eventHandler.c ****             
1773:Generated_Source\PSoC4/BLE_eventHandler.c ****     #if(CYBLE_LL_PRIVACY_FEATURE != 0u)        
1774:Generated_Source\PSoC4/BLE_eventHandler.c ****         case CYBLE_EVT_GAP_ENHANCE_CONN_COMPLETE:
1775:Generated_Source\PSoC4/BLE_eventHandler.c ****         {
1776:Generated_Source\PSoC4/BLE_eventHandler.c ****             CYBLE_GAP_CONN_PARAM_UPDATED_IN_CONTROLLER_T  connCParam;
1777:Generated_Source\PSoC4/BLE_eventHandler.c ****             CYBLE_GAP_ENHANCE_CONN_COMPLETE_T *connEnhanceParam;
1778:Generated_Source\PSoC4/BLE_eventHandler.c ****             
1779:Generated_Source\PSoC4/BLE_eventHandler.c ****             connEnhanceParam = (CYBLE_GAP_ENHANCE_CONN_COMPLETE_T *)eventParam;
1780:Generated_Source\PSoC4/BLE_eventHandler.c ****             connCParam.status = connEnhanceParam->status;
1781:Generated_Source\PSoC4/BLE_eventHandler.c ****             connCParam.connIntv = connEnhanceParam->connIntv;
1782:Generated_Source\PSoC4/BLE_eventHandler.c ****             connCParam.connLatency = connEnhanceParam->connLatency;
1783:Generated_Source\PSoC4/BLE_eventHandler.c ****             connCParam.supervisionTO = connEnhanceParam->supervisionTo;
1784:Generated_Source\PSoC4/BLE_eventHandler.c ****             CyBle_GapConnUpdateCompleteEventHandler((const CYBLE_GAP_CONN_PARAM_UPDATED_IN_CONTROLL
1785:Generated_Source\PSoC4/BLE_eventHandler.c ****             
1786:Generated_Source\PSoC4/BLE_eventHandler.c ****             #if(CYBLE_GAP_ROLE_CENTRAL)
1787:Generated_Source\PSoC4/BLE_eventHandler.c ****                 if(cyBle_connectingTimeout != 0u)
1788:Generated_Source\PSoC4/BLE_eventHandler.c ****                 {
1789:Generated_Source\PSoC4/BLE_eventHandler.c ****                    (void)CyBle_StopTimer();
1790:Generated_Source\PSoC4/BLE_eventHandler.c ****                 }
1791:Generated_Source\PSoC4/BLE_eventHandler.c ****             #endif /* CYBLE_GAP_ROLE_CENTRAL */
1792:Generated_Source\PSoC4/BLE_eventHandler.c ****             CyBle_SetState(CYBLE_STATE_CONNECTED);
1793:Generated_Source\PSoC4/BLE_eventHandler.c ****         }
1794:Generated_Source\PSoC4/BLE_eventHandler.c ****             break;
1795:Generated_Source\PSoC4/BLE_eventHandler.c ****     #endif /* CYBLE_LL_PRIVACY_FEATURE != 0u */      
1796:Generated_Source\PSoC4/BLE_eventHandler.c ****             
1797:Generated_Source\PSoC4/BLE_eventHandler.c ****         case CYBLE_EVT_GAP_DEVICE_CONNECTED:
1798:Generated_Source\PSoC4/BLE_eventHandler.c ****             CyBle_GapConnUpdateCompleteEventHandler((const CYBLE_GAP_CONN_PARAM_UPDATED_IN_CONTROLL
 818              		.loc 1 1798 0
ARM GAS  C:\Users\TTSS\AppData\Local\Temp\ccySleeg.s 			page 47


 819 01b8 3B68     		ldr	r3, [r7]
 820 01ba 1800     		movs	r0, r3
 821 01bc FFF7FEFF 		bl	CyBle_GapConnUpdateCompleteEventHandler
1799:Generated_Source\PSoC4/BLE_eventHandler.c ****             #if(CYBLE_GAP_ROLE_CENTRAL)
1800:Generated_Source\PSoC4/BLE_eventHandler.c ****                 if(cyBle_connectingTimeout != 0u)
1801:Generated_Source\PSoC4/BLE_eventHandler.c ****                 {
1802:Generated_Source\PSoC4/BLE_eventHandler.c ****                    (void)CyBle_StopTimer();
1803:Generated_Source\PSoC4/BLE_eventHandler.c ****                 }
1804:Generated_Source\PSoC4/BLE_eventHandler.c ****             #endif /* CYBLE_GAP_ROLE_CENTRAL */
1805:Generated_Source\PSoC4/BLE_eventHandler.c ****             CyBle_SetState(CYBLE_STATE_CONNECTED);
 822              		.loc 1 1805 0
 823 01c0 604B     		ldr	r3, .L62+32
 824 01c2 0222     		movs	r2, #2
 825 01c4 1A70     		strb	r2, [r3]
1806:Generated_Source\PSoC4/BLE_eventHandler.c ****             break;
 826              		.loc 1 1806 0
 827 01c6 92E0     		b	.L47
 828              	.L32:
1807:Generated_Source\PSoC4/BLE_eventHandler.c **** 
1808:Generated_Source\PSoC4/BLE_eventHandler.c ****         case CYBLE_EVT_GAP_DEVICE_DISCONNECTED:
1809:Generated_Source\PSoC4/BLE_eventHandler.c ****             CyBle_SetState(CYBLE_STATE_DISCONNECTED);
 829              		.loc 1 1809 0
 830 01c8 5E4B     		ldr	r3, .L62+32
 831 01ca 0422     		movs	r2, #4
 832 01cc 1A70     		strb	r2, [r3]
1810:Generated_Source\PSoC4/BLE_eventHandler.c ****             break;
 833              		.loc 1 1810 0
 834 01ce 8EE0     		b	.L47
 835              	.L30:
1811:Generated_Source\PSoC4/BLE_eventHandler.c ****         #if(CYBLE_GAP_ROLE_PERIPHERAL || CYBLE_GAP_ROLE_BROADCASTER)
1812:Generated_Source\PSoC4/BLE_eventHandler.c ****             
1813:Generated_Source\PSoC4/BLE_eventHandler.c ****         case CYBLE_EVT_GAPP_ADVERTISEMENT_START_STOP:
1814:Generated_Source\PSoC4/BLE_eventHandler.c ****             #ifdef CYBLE_CPS_SERVER
1815:Generated_Source\PSoC4/BLE_eventHandler.c ****                 #if(CYBLE_GAP_ROLE_BROADCASTER)
1816:Generated_Source\PSoC4/BLE_eventHandler.c ****                     CyBle_CpssAdvertisementStartStopEventHandler();
1817:Generated_Source\PSoC4/BLE_eventHandler.c ****                 #endif /* CYBLE_GAP_ROLE_BROADCASTER */
1818:Generated_Source\PSoC4/BLE_eventHandler.c ****             #endif /* CYBLE_CPS_SERVER */
1819:Generated_Source\PSoC4/BLE_eventHandler.c ****             
1820:Generated_Source\PSoC4/BLE_eventHandler.c ****             if((CYBLE_STATE_CONNECTED != CyBle_GetState()) && ((cyBle_eventHandlerFlag & CYBLE_CALL
 836              		.loc 1 1820 0
 837 01d0 5C4B     		ldr	r3, .L62+32
 838 01d2 1B78     		ldrb	r3, [r3]
 839 01d4 022B     		cmp	r3, #2
 840 01d6 00D1     		bne	.LCB581
 841 01d8 88E0     		b	.L60	@long jump
 842              	.LCB581:
 843              		.loc 1 1820 0 is_stmt 0 discriminator 1
 844 01da 524B     		ldr	r3, .L62
 845 01dc 1B78     		ldrb	r3, [r3]
 846 01de DBB2     		uxtb	r3, r3
 847 01e0 1A00     		movs	r2, r3
 848 01e2 0123     		movs	r3, #1
 849 01e4 1340     		ands	r3, r2
 850 01e6 00D1     		bne	.LCB589
 851 01e8 80E0     		b	.L60	@long jump
 852              	.LCB589:
1821:Generated_Source\PSoC4/BLE_eventHandler.c ****             {
ARM GAS  C:\Users\TTSS\AppData\Local\Temp\ccySleeg.s 			page 48


1822:Generated_Source\PSoC4/BLE_eventHandler.c ****                 /* After CyBle_GappStartAdvertisement first event indicates that advertising has be
1823:Generated_Source\PSoC4/BLE_eventHandler.c ****                 if(0u != (cyBle_eventHandlerFlag & CYBLE_START_FLAG))
 853              		.loc 1 1823 0 is_stmt 1
 854 01ea 4E4B     		ldr	r3, .L62
 855 01ec 1B78     		ldrb	r3, [r3]
 856 01ee DBB2     		uxtb	r3, r3
 857 01f0 1A00     		movs	r2, r3
 858 01f2 0423     		movs	r3, #4
 859 01f4 1340     		ands	r3, r2
 860 01f6 0BD0     		beq	.L52
1824:Generated_Source\PSoC4/BLE_eventHandler.c ****                 {
1825:Generated_Source\PSoC4/BLE_eventHandler.c ****                     CyBle_SetState(CYBLE_STATE_ADVERTISING);
 861              		.loc 1 1825 0
 862 01f8 524B     		ldr	r3, .L62+32
 863 01fa 0322     		movs	r2, #3
 864 01fc 1A70     		strb	r2, [r3]
1826:Generated_Source\PSoC4/BLE_eventHandler.c ****                     cyBle_eventHandlerFlag &= (uint8)~CYBLE_START_FLAG;
 865              		.loc 1 1826 0
 866 01fe 494B     		ldr	r3, .L62
 867 0200 1B78     		ldrb	r3, [r3]
 868 0202 DBB2     		uxtb	r3, r3
 869 0204 0422     		movs	r2, #4
 870 0206 9343     		bics	r3, r2
 871 0208 DAB2     		uxtb	r2, r3
 872 020a 464B     		ldr	r3, .L62
 873 020c 1A70     		strb	r2, [r3]
1827:Generated_Source\PSoC4/BLE_eventHandler.c ****                 }
1828:Generated_Source\PSoC4/BLE_eventHandler.c ****                 /* When application initiated stop advertisement */
1829:Generated_Source\PSoC4/BLE_eventHandler.c ****                 else if(0u != (cyBle_eventHandlerFlag & CYBLE_STOP_FLAG))
1830:Generated_Source\PSoC4/BLE_eventHandler.c ****                 {
1831:Generated_Source\PSoC4/BLE_eventHandler.c ****                     CyBle_SetState(CYBLE_STATE_DISCONNECTED);  
1832:Generated_Source\PSoC4/BLE_eventHandler.c ****                     cyBle_eventHandlerFlag &= (uint8)~CYBLE_STOP_FLAG;
1833:Generated_Source\PSoC4/BLE_eventHandler.c ****                 }
1834:Generated_Source\PSoC4/BLE_eventHandler.c ****                 else /* Following event indicates that advertising has been stopped */
1835:Generated_Source\PSoC4/BLE_eventHandler.c ****                 {
1836:Generated_Source\PSoC4/BLE_eventHandler.c ****                     if(CyBle_GetState() == CYBLE_STATE_ADVERTISING)
1837:Generated_Source\PSoC4/BLE_eventHandler.c ****                     {
1838:Generated_Source\PSoC4/BLE_eventHandler.c ****                         CyBle_SetState(CYBLE_STATE_DISCONNECTED);
1839:Generated_Source\PSoC4/BLE_eventHandler.c ****                     #if ((CYBLE_SLOW_ADV_ENABLED != 0u) && (CYBLE_FAST_ADV_TIMEOUT != 0u))
1840:Generated_Source\PSoC4/BLE_eventHandler.c ****                         if(cyBle_advertisingIntervalType == CYBLE_ADVERTISING_FAST)
1841:Generated_Source\PSoC4/BLE_eventHandler.c ****                         {
1842:Generated_Source\PSoC4/BLE_eventHandler.c ****                             /* When fast advertising time out occur: Start slow advertising */
1843:Generated_Source\PSoC4/BLE_eventHandler.c ****                             if(CyBle_GappStartAdvertisement(CYBLE_ADVERTISING_SLOW) == CYBLE_ERROR_
1844:Generated_Source\PSoC4/BLE_eventHandler.c ****                             {
1845:Generated_Source\PSoC4/BLE_eventHandler.c ****                                 CyBle_SetState(CYBLE_STATE_ADVERTISING);
1846:Generated_Source\PSoC4/BLE_eventHandler.c ****                             }
1847:Generated_Source\PSoC4/BLE_eventHandler.c ****                         }
1848:Generated_Source\PSoC4/BLE_eventHandler.c ****                     #endif /* CYBLE_SLOW_ADV_ENABLED */
1849:Generated_Source\PSoC4/BLE_eventHandler.c ****                     }
1850:Generated_Source\PSoC4/BLE_eventHandler.c ****                 }
1851:Generated_Source\PSoC4/BLE_eventHandler.c ****             }
1852:Generated_Source\PSoC4/BLE_eventHandler.c ****             break;
 874              		.loc 1 1852 0
 875 020e 6DE0     		b	.L60
 876              	.L52:
1829:Generated_Source\PSoC4/BLE_eventHandler.c ****                 {
 877              		.loc 1 1829 0
ARM GAS  C:\Users\TTSS\AppData\Local\Temp\ccySleeg.s 			page 49


 878 0210 444B     		ldr	r3, .L62
 879 0212 1B78     		ldrb	r3, [r3]
 880 0214 DBB2     		uxtb	r3, r3
 881 0216 1A00     		movs	r2, r3
 882 0218 0823     		movs	r3, #8
 883 021a 1340     		ands	r3, r2
 884 021c 0BD0     		beq	.L53
1831:Generated_Source\PSoC4/BLE_eventHandler.c ****                     cyBle_eventHandlerFlag &= (uint8)~CYBLE_STOP_FLAG;
 885              		.loc 1 1831 0
 886 021e 494B     		ldr	r3, .L62+32
 887 0220 0422     		movs	r2, #4
 888 0222 1A70     		strb	r2, [r3]
1832:Generated_Source\PSoC4/BLE_eventHandler.c ****                 }
 889              		.loc 1 1832 0
 890 0224 3F4B     		ldr	r3, .L62
 891 0226 1B78     		ldrb	r3, [r3]
 892 0228 DBB2     		uxtb	r3, r3
 893 022a 0822     		movs	r2, #8
 894 022c 9343     		bics	r3, r2
 895 022e DAB2     		uxtb	r2, r3
 896 0230 3C4B     		ldr	r3, .L62
 897 0232 1A70     		strb	r2, [r3]
 898              		.loc 1 1852 0
 899 0234 5AE0     		b	.L60
 900              	.L53:
1836:Generated_Source\PSoC4/BLE_eventHandler.c ****                     {
 901              		.loc 1 1836 0
 902 0236 434B     		ldr	r3, .L62+32
 903 0238 1B78     		ldrb	r3, [r3]
 904 023a 032B     		cmp	r3, #3
 905 023c 56D1     		bne	.L60
1838:Generated_Source\PSoC4/BLE_eventHandler.c ****                     #if ((CYBLE_SLOW_ADV_ENABLED != 0u) && (CYBLE_FAST_ADV_TIMEOUT != 0u))
 906              		.loc 1 1838 0
 907 023e 414B     		ldr	r3, .L62+32
 908 0240 0422     		movs	r2, #4
 909 0242 1A70     		strb	r2, [r3]
 910              		.loc 1 1852 0
 911 0244 52E0     		b	.L60
 912              	.L43:
1853:Generated_Source\PSoC4/BLE_eventHandler.c ****         #endif /* CYBLE_GAP_ROLE_PERIPHERAL || CYBLE_GAP_ROLE_BROADCASTER */
1854:Generated_Source\PSoC4/BLE_eventHandler.c ****         
1855:Generated_Source\PSoC4/BLE_eventHandler.c ****         #if(CYBLE_GAP_ROLE_CENTRAL || CYBLE_GAP_ROLE_OBSERVER)    
1856:Generated_Source\PSoC4/BLE_eventHandler.c ****         case CYBLE_EVT_GAPC_SCAN_START_STOP:
1857:Generated_Source\PSoC4/BLE_eventHandler.c ****             #ifdef CYBLE_CPS_CLIENT
1858:Generated_Source\PSoC4/BLE_eventHandler.c ****                 CyBle_CpscScanStartStopEventHandler();
1859:Generated_Source\PSoC4/BLE_eventHandler.c ****             #endif /* CYBLE_CPS_CLIENT */
1860:Generated_Source\PSoC4/BLE_eventHandler.c ****             
1861:Generated_Source\PSoC4/BLE_eventHandler.c ****             if((CYBLE_STATE_CONNECTED != CyBle_GetState()) && ((cyBle_eventHandlerFlag & CYBLE_CALL
1862:Generated_Source\PSoC4/BLE_eventHandler.c ****             {
1863:Generated_Source\PSoC4/BLE_eventHandler.c ****                 /* After CyBle_GapcStartScan first event indicates that scanning has been started *
1864:Generated_Source\PSoC4/BLE_eventHandler.c ****                 if(0u != (cyBle_eventHandlerFlag & CYBLE_START_FLAG))
1865:Generated_Source\PSoC4/BLE_eventHandler.c ****                 {
1866:Generated_Source\PSoC4/BLE_eventHandler.c ****                     CyBle_SetState(CYBLE_STATE_SCANNING);
1867:Generated_Source\PSoC4/BLE_eventHandler.c ****                     cyBle_eventHandlerFlag &= (uint8)~CYBLE_START_FLAG;
1868:Generated_Source\PSoC4/BLE_eventHandler.c ****                 }
1869:Generated_Source\PSoC4/BLE_eventHandler.c ****                 /* When application initiated stop scanning */
1870:Generated_Source\PSoC4/BLE_eventHandler.c ****                 else if(0u != (cyBle_eventHandlerFlag & CYBLE_STOP_FLAG))
ARM GAS  C:\Users\TTSS\AppData\Local\Temp\ccySleeg.s 			page 50


1871:Generated_Source\PSoC4/BLE_eventHandler.c ****                 {
1872:Generated_Source\PSoC4/BLE_eventHandler.c ****                     CyBle_SetState(CYBLE_STATE_DISCONNECTED);  
1873:Generated_Source\PSoC4/BLE_eventHandler.c ****                     cyBle_eventHandlerFlag &= (uint8)~CYBLE_STOP_FLAG;
1874:Generated_Source\PSoC4/BLE_eventHandler.c ****                 }
1875:Generated_Source\PSoC4/BLE_eventHandler.c ****                 else /* Following event indicates that scanning has been stopped by stack */
1876:Generated_Source\PSoC4/BLE_eventHandler.c ****                 {
1877:Generated_Source\PSoC4/BLE_eventHandler.c ****                     if(CyBle_GetState() == CYBLE_STATE_SCANNING)
1878:Generated_Source\PSoC4/BLE_eventHandler.c ****                     {
1879:Generated_Source\PSoC4/BLE_eventHandler.c ****                         CyBle_SetState(CYBLE_STATE_DISCONNECTED);  
1880:Generated_Source\PSoC4/BLE_eventHandler.c ****                     #if ((CYBLE_SLOW_SCAN_ENABLED != 0u) && (CYBLE_FAST_SCAN_TIMEOUT != 0u))
1881:Generated_Source\PSoC4/BLE_eventHandler.c ****                         if(cyBle_scanningIntervalType == CYBLE_SCANNING_FAST)
1882:Generated_Source\PSoC4/BLE_eventHandler.c ****                         {
1883:Generated_Source\PSoC4/BLE_eventHandler.c ****                             /* When fast scanning time out occur: Start slow scanning */
1884:Generated_Source\PSoC4/BLE_eventHandler.c ****                             if(CyBle_GapcStartScan(CYBLE_SCANNING_SLOW) == CYBLE_ERROR_OK)
1885:Generated_Source\PSoC4/BLE_eventHandler.c ****                             {
1886:Generated_Source\PSoC4/BLE_eventHandler.c ****                                 CyBle_SetState(CYBLE_STATE_SCANNING);
1887:Generated_Source\PSoC4/BLE_eventHandler.c ****                             }
1888:Generated_Source\PSoC4/BLE_eventHandler.c ****                         }
1889:Generated_Source\PSoC4/BLE_eventHandler.c ****                     #endif /* CYBLE_SLOW_SCAN_ENABLED */
1890:Generated_Source\PSoC4/BLE_eventHandler.c ****                     }
1891:Generated_Source\PSoC4/BLE_eventHandler.c ****                 }
1892:Generated_Source\PSoC4/BLE_eventHandler.c ****             }
1893:Generated_Source\PSoC4/BLE_eventHandler.c ****             break;
1894:Generated_Source\PSoC4/BLE_eventHandler.c ****         #endif /* CYBLE_GAP_ROLE_CENTRAL || CYBLE_GAP_ROLE_OBSERVER */
1895:Generated_Source\PSoC4/BLE_eventHandler.c **** 
1896:Generated_Source\PSoC4/BLE_eventHandler.c ****         /**********************************************************
1897:Generated_Source\PSoC4/BLE_eventHandler.c ****         * L2AP events 
1898:Generated_Source\PSoC4/BLE_eventHandler.c ****         ************************************************************/
1899:Generated_Source\PSoC4/BLE_eventHandler.c ****         case CYBLE_EVT_L2CAP_CONN_PARAM_UPDATE_RSP:
1900:Generated_Source\PSoC4/BLE_eventHandler.c ****             CyBle_L2Cap_ConnParamUpdateRspEventHandler(*(uint16 *)eventParam);
 913              		.loc 1 1900 0
 914 0246 3B68     		ldr	r3, [r7]
 915 0248 1B88     		ldrh	r3, [r3]
 916 024a 1800     		movs	r0, r3
 917 024c FFF7FEFF 		bl	CyBle_L2Cap_ConnParamUpdateRspEventHandler
1901:Generated_Source\PSoC4/BLE_eventHandler.c ****             break;
 918              		.loc 1 1901 0
 919 0250 4DE0     		b	.L47
 920              	.L34:
1902:Generated_Source\PSoC4/BLE_eventHandler.c ****         
1903:Generated_Source\PSoC4/BLE_eventHandler.c ****         /**********************************************************
1904:Generated_Source\PSoC4/BLE_eventHandler.c ****         * GATT events
1905:Generated_Source\PSoC4/BLE_eventHandler.c ****         ************************************************************/        
1906:Generated_Source\PSoC4/BLE_eventHandler.c ****         case CYBLE_EVT_GATT_CONNECT_IND:
1907:Generated_Source\PSoC4/BLE_eventHandler.c ****             cyBle_connHandle = *(CYBLE_CONN_HANDLE_T *)eventParam;
 921              		.loc 1 1907 0
 922 0252 414A     		ldr	r2, .L62+52
 923 0254 3B68     		ldr	r3, [r7]
 924 0256 1000     		movs	r0, r2
 925 0258 1900     		movs	r1, r3
 926 025a 0223     		movs	r3, #2
 927 025c 1A00     		movs	r2, r3
 928 025e FFF7FEFF 		bl	memcpy
1908:Generated_Source\PSoC4/BLE_eventHandler.c ****             cyBle_busyStatus = CYBLE_STACK_STATE_FREE;
 929              		.loc 1 1908 0
 930 0262 394B     		ldr	r3, .L62+36
 931 0264 0022     		movs	r2, #0
ARM GAS  C:\Users\TTSS\AppData\Local\Temp\ccySleeg.s 			page 51


 932 0266 1A70     		strb	r2, [r3]
1909:Generated_Source\PSoC4/BLE_eventHandler.c ****             
1910:Generated_Source\PSoC4/BLE_eventHandler.c ****         #if((CYBLE_GATT_ROLE_SERVER) && (CYBLE_GATT_DB_CCCD_COUNT != 0u) && \
1911:Generated_Source\PSoC4/BLE_eventHandler.c ****             (CYBLE_BONDING_REQUIREMENT == CYBLE_BONDING_YES))
1912:Generated_Source\PSoC4/BLE_eventHandler.c ****             /* Init CCCD values in RAM when bonding is enabled */
1913:Generated_Source\PSoC4/BLE_eventHandler.c ****         	(void) memcpy (cyBle_attValuesCCCD, cyBle_flashStorage.attValuesCCCDFlashMemory[cyBle_conn
 933              		.loc 1 1913 0
 934 0268 3B4B     		ldr	r3, .L62+52
 935 026a 1B78     		ldrb	r3, [r3]
 936 026c 3D33     		adds	r3, r3, #61
 937 026e FF33     		adds	r3, r3, #255
 938 0270 5A00     		lsls	r2, r3, #1
 939 0272 3A4B     		ldr	r3, .L62+56
 940 0274 D318     		adds	r3, r2, r3
 941 0276 0133     		adds	r3, r3, #1
 942 0278 394A     		ldr	r2, .L62+60
 943 027a 1000     		movs	r0, r2
 944 027c 1900     		movs	r1, r3
 945 027e 0223     		movs	r3, #2
 946 0280 1A00     		movs	r2, r3
 947 0282 FFF7FEFF 		bl	memcpy
1914:Generated_Source\PSoC4/BLE_eventHandler.c ****                             CYBLE_GATT_DB_CCCD_COUNT);
1915:Generated_Source\PSoC4/BLE_eventHandler.c ****         #endif /* CYBLE_GATT_ROLE_SERVER && (CYBLE_BONDING_REQUIREMENT == CYBLE_BONDING_YES) */
1916:Generated_Source\PSoC4/BLE_eventHandler.c ****         
1917:Generated_Source\PSoC4/BLE_eventHandler.c ****         #if (CYBLE_GATT_ROLE_CLIENT)
1918:Generated_Source\PSoC4/BLE_eventHandler.c ****             CyBle_SetClientState(CYBLE_CLIENT_STATE_CONNECTED);
1919:Generated_Source\PSoC4/BLE_eventHandler.c ****         #endif /* CYBLE_GATT_ROLE_CLIENT */
1920:Generated_Source\PSoC4/BLE_eventHandler.c ****         
1921:Generated_Source\PSoC4/BLE_eventHandler.c ****             CyBle_GattConnectReqHandler();
 948              		.loc 1 1921 0
 949 0286 FFF7FEFF 		bl	CyBle_GattConnectReqHandler
1922:Generated_Source\PSoC4/BLE_eventHandler.c ****             break;
 950              		.loc 1 1922 0
 951 028a 30E0     		b	.L47
 952              	.L35:
1923:Generated_Source\PSoC4/BLE_eventHandler.c **** 
1924:Generated_Source\PSoC4/BLE_eventHandler.c ****         case CYBLE_EVT_GATT_DISCONNECT_IND:
1925:Generated_Source\PSoC4/BLE_eventHandler.c ****             CyBle_GattDisconnectEventHandler();
 953              		.loc 1 1925 0
 954 028c FFF7FEFF 		bl	CyBle_GattDisconnectEventHandler
1926:Generated_Source\PSoC4/BLE_eventHandler.c ****             break;
 955              		.loc 1 1926 0
 956 0290 2DE0     		b	.L47
 957              	.L36:
 958              	.LBB8:
1927:Generated_Source\PSoC4/BLE_eventHandler.c **** 
1928:Generated_Source\PSoC4/BLE_eventHandler.c ****     #if((CYBLE_GATT_ROLE_SERVER) || (CYBLE_GATT_ROLE_CLIENT))
1929:Generated_Source\PSoC4/BLE_eventHandler.c ****         case CYBLE_EVT_GATTS_XCNHG_MTU_REQ:
1930:Generated_Source\PSoC4/BLE_eventHandler.c ****             {
1931:Generated_Source\PSoC4/BLE_eventHandler.c ****                 uint16 cyBle_mtuSize;
1932:Generated_Source\PSoC4/BLE_eventHandler.c ****                 if(CYBLE_GATT_MTU > ((CYBLE_GATT_XCHG_MTU_PARAM_T *)eventParam)->mtu)
 959              		.loc 1 1932 0
 960 0292 3B68     		ldr	r3, [r7]
 961 0294 5B88     		ldrh	r3, [r3, #2]
 962 0296 162B     		cmp	r3, #22
 963 0298 05D8     		bhi	.L54
1933:Generated_Source\PSoC4/BLE_eventHandler.c ****                 {
ARM GAS  C:\Users\TTSS\AppData\Local\Temp\ccySleeg.s 			page 52


1934:Generated_Source\PSoC4/BLE_eventHandler.c ****                     cyBle_mtuSize = ((CYBLE_GATT_XCHG_MTU_PARAM_T *)eventParam)->mtu;
 964              		.loc 1 1934 0
 965 029a 1E23     		movs	r3, #30
 966 029c FB18     		adds	r3, r7, r3
 967 029e 3A68     		ldr	r2, [r7]
 968 02a0 5288     		ldrh	r2, [r2, #2]
 969 02a2 1A80     		strh	r2, [r3]
 970 02a4 03E0     		b	.L55
 971              	.L54:
1935:Generated_Source\PSoC4/BLE_eventHandler.c ****                 }
1936:Generated_Source\PSoC4/BLE_eventHandler.c ****                 else
1937:Generated_Source\PSoC4/BLE_eventHandler.c ****                 {
1938:Generated_Source\PSoC4/BLE_eventHandler.c ****                     cyBle_mtuSize = CYBLE_GATT_MTU;
 972              		.loc 1 1938 0
 973 02a6 1E23     		movs	r3, #30
 974 02a8 FB18     		adds	r3, r7, r3
 975 02aa 1722     		movs	r2, #23
 976 02ac 1A80     		strh	r2, [r3]
 977              	.L55:
1939:Generated_Source\PSoC4/BLE_eventHandler.c ****                 }
1940:Generated_Source\PSoC4/BLE_eventHandler.c ****                 (void)CyBle_GattsExchangeMtuRsp(((CYBLE_GATT_XCHG_MTU_PARAM_T *)eventParam)->connHa
 978              		.loc 1 1940 0
 979 02ae 1E23     		movs	r3, #30
 980 02b0 FB18     		adds	r3, r7, r3
 981 02b2 1988     		ldrh	r1, [r3]
 982 02b4 3B68     		ldr	r3, [r7]
 983 02b6 1A88     		ldrh	r2, [r3]
 984 02b8 0023     		movs	r3, #0
 985 02ba 1204     		lsls	r2, r2, #16
 986 02bc 120C     		lsrs	r2, r2, #16
 987 02be 1B0C     		lsrs	r3, r3, #16
 988 02c0 1B04     		lsls	r3, r3, #16
 989 02c2 1343     		orrs	r3, r2
 990 02c4 1800     		movs	r0, r3
 991 02c6 FFF7FEFF 		bl	CyBle_GattsExchangeMtuRsp
 992              	.LBE8:
1941:Generated_Source\PSoC4/BLE_eventHandler.c ****             }
1942:Generated_Source\PSoC4/BLE_eventHandler.c ****             break;
 993              		.loc 1 1942 0
 994 02ca 10E0     		b	.L47
 995              	.L37:
1943:Generated_Source\PSoC4/BLE_eventHandler.c ****     #endif /* CYBLE_GATT_ROLE_SERVER || CYBLE_GATT_ROLE_CLIENT */
1944:Generated_Source\PSoC4/BLE_eventHandler.c ****     
1945:Generated_Source\PSoC4/BLE_eventHandler.c ****     #if (CYBLE_GATT_ROLE_CLIENT)
1946:Generated_Source\PSoC4/BLE_eventHandler.c ****         case CYBLE_EVT_GAPC_SCAN_PROGRESS_RESULT:
1947:Generated_Source\PSoC4/BLE_eventHandler.c ****         #ifdef CYBLE_CPS_CLIENT
1948:Generated_Source\PSoC4/BLE_eventHandler.c ****             CyBle_CpscScanProcessEventHandler((CYBLE_GAPC_ADV_REPORT_T *)eventParam);
1949:Generated_Source\PSoC4/BLE_eventHandler.c ****         #endif /* CYBLE_CPS_CLIENT */
1950:Generated_Source\PSoC4/BLE_eventHandler.c ****             break;
1951:Generated_Source\PSoC4/BLE_eventHandler.c ****     #endif /* CYBLE_GATT_ROLE_CLIENT */
1952:Generated_Source\PSoC4/BLE_eventHandler.c **** 
1953:Generated_Source\PSoC4/BLE_eventHandler.c ****     #if(CYBLE_GATT_ROLE_SERVER)
1954:Generated_Source\PSoC4/BLE_eventHandler.c ****         case CYBLE_EVT_GATTS_WRITE_REQ:
1955:Generated_Source\PSoC4/BLE_eventHandler.c ****             CyBle_WriteReqHandler((CYBLE_GATTS_WRITE_REQ_PARAM_T *)eventParam);
 996              		.loc 1 1955 0
 997 02cc 3B68     		ldr	r3, [r7]
 998 02ce 1800     		movs	r0, r3
ARM GAS  C:\Users\TTSS\AppData\Local\Temp\ccySleeg.s 			page 53


 999 02d0 FFF7FEFF 		bl	CyBle_WriteReqHandler
1956:Generated_Source\PSoC4/BLE_eventHandler.c ****             break;
 1000              		.loc 1 1956 0
 1001 02d4 0BE0     		b	.L47
 1002              	.L41:
1957:Generated_Source\PSoC4/BLE_eventHandler.c **** 
1958:Generated_Source\PSoC4/BLE_eventHandler.c ****         case CYBLE_EVT_GATTS_WRITE_CMD_REQ:
1959:Generated_Source\PSoC4/BLE_eventHandler.c ****         #ifdef CYBLE_AIOS_SERVER
1960:Generated_Source\PSoC4/BLE_eventHandler.c ****             if((cyBle_eventHandlerFlag & CYBLE_CALLBACK) != 0u)
1961:Generated_Source\PSoC4/BLE_eventHandler.c ****             {
1962:Generated_Source\PSoC4/BLE_eventHandler.c ****                 (void)CyBle_AiossWriteEventHandler((CYBLE_GATTS_WRITE_REQ_PARAM_T *)eventParam);
1963:Generated_Source\PSoC4/BLE_eventHandler.c ****             }
1964:Generated_Source\PSoC4/BLE_eventHandler.c ****         #endif /* CYBLE_AIOS_SERVER */
1965:Generated_Source\PSoC4/BLE_eventHandler.c ****         #ifdef CYBLE_IAS_SERVER
1966:Generated_Source\PSoC4/BLE_eventHandler.c ****             if((cyBle_eventHandlerFlag & CYBLE_CALLBACK) != 0u)
1967:Generated_Source\PSoC4/BLE_eventHandler.c ****             {
1968:Generated_Source\PSoC4/BLE_eventHandler.c ****                 (void)CyBle_IassWriteCmdEventHandler((CYBLE_GATTS_WRITE_REQ_PARAM_T *)eventParam);
1969:Generated_Source\PSoC4/BLE_eventHandler.c ****             }
1970:Generated_Source\PSoC4/BLE_eventHandler.c ****         #endif /* CYBLE_IAS_SERVER */
1971:Generated_Source\PSoC4/BLE_eventHandler.c ****         #ifdef CYBLE_IPS_SERVER
1972:Generated_Source\PSoC4/BLE_eventHandler.c ****             if((cyBle_eventHandlerFlag & CYBLE_CALLBACK) != 0u)
1973:Generated_Source\PSoC4/BLE_eventHandler.c ****             {
1974:Generated_Source\PSoC4/BLE_eventHandler.c ****                 (void)CyBle_IpssWriteCmdEventHandler((CYBLE_GATTS_WRITE_REQ_PARAM_T *)eventParam);
1975:Generated_Source\PSoC4/BLE_eventHandler.c ****             }
1976:Generated_Source\PSoC4/BLE_eventHandler.c ****         #endif /* CYBLE_IPS_SERVER */
1977:Generated_Source\PSoC4/BLE_eventHandler.c ****         #ifdef CYBLE_HIDS_SERVER
1978:Generated_Source\PSoC4/BLE_eventHandler.c ****             if((cyBle_eventHandlerFlag & CYBLE_CALLBACK) != 0u)
1979:Generated_Source\PSoC4/BLE_eventHandler.c ****             {
1980:Generated_Source\PSoC4/BLE_eventHandler.c ****                 (void)CyBle_HidssWriteEventHandler((CYBLE_GATTS_WRITE_REQ_PARAM_T *)eventParam);
1981:Generated_Source\PSoC4/BLE_eventHandler.c ****             }
1982:Generated_Source\PSoC4/BLE_eventHandler.c ****         #endif /* CYBLE_HIDS_SERVER */
1983:Generated_Source\PSoC4/BLE_eventHandler.c ****         #ifdef CYBLE_PASS_SERVER
1984:Generated_Source\PSoC4/BLE_eventHandler.c ****             if((cyBle_eventHandlerFlag & CYBLE_CALLBACK) != 0u)
1985:Generated_Source\PSoC4/BLE_eventHandler.c ****             {
1986:Generated_Source\PSoC4/BLE_eventHandler.c ****                 (void)CyBle_PasssWriteCmdEventHandler((CYBLE_GATTS_WRITE_REQ_PARAM_T *)eventParam);
1987:Generated_Source\PSoC4/BLE_eventHandler.c ****             }
1988:Generated_Source\PSoC4/BLE_eventHandler.c ****         #endif /* CYBLE_PASS_SERVER */
1989:Generated_Source\PSoC4/BLE_eventHandler.c ****         #ifdef CYBLE_RTUS_SERVER
1990:Generated_Source\PSoC4/BLE_eventHandler.c ****             if((cyBle_eventHandlerFlag & CYBLE_CALLBACK) != 0u)
1991:Generated_Source\PSoC4/BLE_eventHandler.c ****             {
1992:Generated_Source\PSoC4/BLE_eventHandler.c ****                 (void)CyBle_RtussWriteCmdEventHandler((CYBLE_GATTS_WRITE_REQ_PARAM_T *)eventParam);
1993:Generated_Source\PSoC4/BLE_eventHandler.c ****             }
1994:Generated_Source\PSoC4/BLE_eventHandler.c ****         #endif /* CYBLE_RTUS_SERVER */
1995:Generated_Source\PSoC4/BLE_eventHandler.c ****         #ifdef CYBLE_SCPS_SERVER
1996:Generated_Source\PSoC4/BLE_eventHandler.c ****             if((cyBle_eventHandlerFlag & CYBLE_CALLBACK) != 0u)
1997:Generated_Source\PSoC4/BLE_eventHandler.c ****             {
1998:Generated_Source\PSoC4/BLE_eventHandler.c ****                 (void)CyBle_ScpssWriteEventHandler((CYBLE_GATTS_WRITE_REQ_PARAM_T *)eventParam);
1999:Generated_Source\PSoC4/BLE_eventHandler.c ****             }
2000:Generated_Source\PSoC4/BLE_eventHandler.c ****         #endif /* CYBLE_SCPS_SERVER */
2001:Generated_Source\PSoC4/BLE_eventHandler.c ****             break;
2002:Generated_Source\PSoC4/BLE_eventHandler.c ****         
2003:Generated_Source\PSoC4/BLE_eventHandler.c ****         case CYBLE_EVT_GATTS_PREP_WRITE_REQ:
2004:Generated_Source\PSoC4/BLE_eventHandler.c ****         #ifdef CYBLE_BMS_SERVER
2005:Generated_Source\PSoC4/BLE_eventHandler.c ****             CyBle_BmssPrepareWriteRequestEventHandler((CYBLE_GATTS_PREP_WRITE_REQ_PARAM_T *)eventPa
2006:Generated_Source\PSoC4/BLE_eventHandler.c ****         #endif /* CYBLE_BMS_SERVER */
2007:Generated_Source\PSoC4/BLE_eventHandler.c ****         #ifdef CYBLE_BTS_SERVER
2008:Generated_Source\PSoC4/BLE_eventHandler.c ****             if((cyBle_eventHandlerFlag & CYBLE_CALLBACK) != 0u)
ARM GAS  C:\Users\TTSS\AppData\Local\Temp\ccySleeg.s 			page 54


2009:Generated_Source\PSoC4/BLE_eventHandler.c ****             {
2010:Generated_Source\PSoC4/BLE_eventHandler.c ****                 CyBle_BtssPrepareWriteRequestEventHandler((CYBLE_GATTS_PREP_WRITE_REQ_PARAM_T *)eve
2011:Generated_Source\PSoC4/BLE_eventHandler.c ****             }
2012:Generated_Source\PSoC4/BLE_eventHandler.c ****         #endif /* CYBLE_BTS_SERVER */
2013:Generated_Source\PSoC4/BLE_eventHandler.c ****         #ifdef CYBLE_ESS_SERVER
2014:Generated_Source\PSoC4/BLE_eventHandler.c ****             if((cyBle_eventHandlerFlag & CYBLE_CALLBACK) != 0u)
2015:Generated_Source\PSoC4/BLE_eventHandler.c ****             {
2016:Generated_Source\PSoC4/BLE_eventHandler.c ****                 CyBle_EsssPrepareWriteRequestEventHandler((CYBLE_GATTS_PREP_WRITE_REQ_PARAM_T *)eve
2017:Generated_Source\PSoC4/BLE_eventHandler.c ****             }
2018:Generated_Source\PSoC4/BLE_eventHandler.c ****         #endif /* CYBLE_ESS_SERVER */
2019:Generated_Source\PSoC4/BLE_eventHandler.c ****         #ifdef CYBLE_HPS_SERVER
2020:Generated_Source\PSoC4/BLE_eventHandler.c ****             if((cyBle_eventHandlerFlag & CYBLE_CALLBACK) != 0u)
2021:Generated_Source\PSoC4/BLE_eventHandler.c ****             {
2022:Generated_Source\PSoC4/BLE_eventHandler.c ****                 CyBle_HpssPrepareWriteRequestEventHandler((CYBLE_GATTS_PREP_WRITE_REQ_PARAM_T *)eve
2023:Generated_Source\PSoC4/BLE_eventHandler.c ****             }
2024:Generated_Source\PSoC4/BLE_eventHandler.c ****         #endif /* CYBLE_HPS_SERVER */
2025:Generated_Source\PSoC4/BLE_eventHandler.c ****         #ifdef CYBLE_IPS_SERVER
2026:Generated_Source\PSoC4/BLE_eventHandler.c ****             if((cyBle_eventHandlerFlag & CYBLE_CALLBACK) != 0u)
2027:Generated_Source\PSoC4/BLE_eventHandler.c ****             {
2028:Generated_Source\PSoC4/BLE_eventHandler.c ****                 CyBle_IpssPrepareWriteRequestEventHandler((CYBLE_GATTS_PREP_WRITE_REQ_PARAM_T *)eve
2029:Generated_Source\PSoC4/BLE_eventHandler.c ****             }
2030:Generated_Source\PSoC4/BLE_eventHandler.c ****         #endif /* CYBLE_IPS_SERVER */
2031:Generated_Source\PSoC4/BLE_eventHandler.c ****         #ifdef CYBLE_UDS_SERVER
2032:Generated_Source\PSoC4/BLE_eventHandler.c ****             if((cyBle_eventHandlerFlag & CYBLE_CALLBACK) != 0u)
2033:Generated_Source\PSoC4/BLE_eventHandler.c ****             {
2034:Generated_Source\PSoC4/BLE_eventHandler.c ****                 CyBle_UdssPrepareWriteRequestEventHandler((CYBLE_GATTS_PREP_WRITE_REQ_PARAM_T *)eve
2035:Generated_Source\PSoC4/BLE_eventHandler.c ****             }
2036:Generated_Source\PSoC4/BLE_eventHandler.c ****         #endif /* CYBLE_UDS_SERVER */
2037:Generated_Source\PSoC4/BLE_eventHandler.c ****             break;
2038:Generated_Source\PSoC4/BLE_eventHandler.c **** 
2039:Generated_Source\PSoC4/BLE_eventHandler.c ****         case CYBLE_EVT_GATTS_EXEC_WRITE_REQ:
2040:Generated_Source\PSoC4/BLE_eventHandler.c ****         #ifdef CYBLE_BMS_SERVER
2041:Generated_Source\PSoC4/BLE_eventHandler.c ****             CyBle_BmssExecuteWriteRequestEventHandler((CYBLE_GATTS_EXEC_WRITE_REQ_T *)eventParam);
2042:Generated_Source\PSoC4/BLE_eventHandler.c ****         #endif /* CYBLE_BMS_SERVER */
2043:Generated_Source\PSoC4/BLE_eventHandler.c ****         #ifdef CYBLE_BTS_SERVER
2044:Generated_Source\PSoC4/BLE_eventHandler.c ****             CyBle_BtssExecuteWriteRequestEventHandler((CYBLE_GATTS_EXEC_WRITE_REQ_T *)eventParam);
2045:Generated_Source\PSoC4/BLE_eventHandler.c ****         #endif /* CYBLE_BTS_SERVER */
2046:Generated_Source\PSoC4/BLE_eventHandler.c ****         #ifdef CYBLE_ESS_SERVER
2047:Generated_Source\PSoC4/BLE_eventHandler.c ****             CyBle_EsssExecuteWriteRequestEventHandler((CYBLE_GATTS_EXEC_WRITE_REQ_T *)eventParam);
2048:Generated_Source\PSoC4/BLE_eventHandler.c ****         #endif /* CYBLE_ESS_SERVER */
2049:Generated_Source\PSoC4/BLE_eventHandler.c ****         #ifdef CYBLE_HPS_SERVER
2050:Generated_Source\PSoC4/BLE_eventHandler.c ****             CyBle_HpssExecuteWriteRequestEventHandler((CYBLE_GATTS_EXEC_WRITE_REQ_T *)eventParam);
2051:Generated_Source\PSoC4/BLE_eventHandler.c ****         #endif /* CYBLE_HPS_SERVER */
2052:Generated_Source\PSoC4/BLE_eventHandler.c ****         #ifdef CYBLE_IPS_SERVER
2053:Generated_Source\PSoC4/BLE_eventHandler.c ****             CyBle_IpssExecuteWriteRequestEventHandler((CYBLE_GATTS_EXEC_WRITE_REQ_T *)eventParam);
2054:Generated_Source\PSoC4/BLE_eventHandler.c ****         #endif /* CYBLE_IPS_SERVER */
2055:Generated_Source\PSoC4/BLE_eventHandler.c **** 		#ifdef CYBLE_UDS_SERVER
2056:Generated_Source\PSoC4/BLE_eventHandler.c ****             CyBle_UdssExecuteWriteRequestEventHandler((CYBLE_GATTS_EXEC_WRITE_REQ_T *)eventParam);
2057:Generated_Source\PSoC4/BLE_eventHandler.c ****         #endif /* CYBLE_UDS_SERVER */
2058:Generated_Source\PSoC4/BLE_eventHandler.c ****             break;
2059:Generated_Source\PSoC4/BLE_eventHandler.c ****         
2060:Generated_Source\PSoC4/BLE_eventHandler.c ****         case CYBLE_EVT_GATTS_HANDLE_VALUE_CNF:
2061:Generated_Source\PSoC4/BLE_eventHandler.c ****             CyBle_ValueConfirmation((CYBLE_CONN_HANDLE_T *)eventParam);
 1003              		.loc 1 2061 0
 1004 02d6 3B68     		ldr	r3, [r7]
 1005 02d8 1800     		movs	r0, r3
 1006 02da FFF7FEFF 		bl	CyBle_ValueConfirmation
ARM GAS  C:\Users\TTSS\AppData\Local\Temp\ccySleeg.s 			page 55


2062:Generated_Source\PSoC4/BLE_eventHandler.c ****             break;
 1007              		.loc 1 2062 0
 1008 02de 06E0     		b	.L47
 1009              	.L57:
2063:Generated_Source\PSoC4/BLE_eventHandler.c ****             
2064:Generated_Source\PSoC4/BLE_eventHandler.c ****         case CYBLE_EVT_GATTS_READ_CHAR_VAL_ACCESS_REQ:
2065:Generated_Source\PSoC4/BLE_eventHandler.c ****         #ifdef CYBLE_UDS_SERVER
2066:Generated_Source\PSoC4/BLE_eventHandler.c ****             CyBle_UdssReadRequestEventHandler((CYBLE_GATTS_CHAR_VAL_READ_REQ_T *)eventParam);
2067:Generated_Source\PSoC4/BLE_eventHandler.c ****         #endif /* CYBLE_UDS_SERVER */
2068:Generated_Source\PSoC4/BLE_eventHandler.c ****             break;
2069:Generated_Source\PSoC4/BLE_eventHandler.c ****             
2070:Generated_Source\PSoC4/BLE_eventHandler.c ****     #endif /* CYBLE_GATT_ROLE_SERVER */
2071:Generated_Source\PSoC4/BLE_eventHandler.c **** 
2072:Generated_Source\PSoC4/BLE_eventHandler.c ****     #if (CYBLE_GATT_ROLE_CLIENT)
2073:Generated_Source\PSoC4/BLE_eventHandler.c ****         
2074:Generated_Source\PSoC4/BLE_eventHandler.c ****         case CYBLE_EVT_GATTC_READ_BY_GROUP_TYPE_RSP:
2075:Generated_Source\PSoC4/BLE_eventHandler.c ****             CyBle_ReadByGroupEventHandler((CYBLE_GATTC_READ_BY_GRP_RSP_PARAM_T *)eventParam);
2076:Generated_Source\PSoC4/BLE_eventHandler.c ****             break;
2077:Generated_Source\PSoC4/BLE_eventHandler.c **** 
2078:Generated_Source\PSoC4/BLE_eventHandler.c ****         case CYBLE_EVT_GATTC_READ_BY_TYPE_RSP:
2079:Generated_Source\PSoC4/BLE_eventHandler.c ****             CyBle_ReadByTypeEventHandler((CYBLE_GATTC_READ_BY_TYPE_RSP_PARAM_T *)eventParam);
2080:Generated_Source\PSoC4/BLE_eventHandler.c ****             break;
2081:Generated_Source\PSoC4/BLE_eventHandler.c **** 
2082:Generated_Source\PSoC4/BLE_eventHandler.c ****         case CYBLE_EVT_GATTC_READ_BLOB_RSP:
2083:Generated_Source\PSoC4/BLE_eventHandler.c ****         #ifdef CYBLE_ESS_CLIENT
2084:Generated_Source\PSoC4/BLE_eventHandler.c ****             CyBle_EsscReadLongRespEventHandler((CYBLE_GATTC_READ_RSP_PARAM_T *)eventParam);
2085:Generated_Source\PSoC4/BLE_eventHandler.c ****         #endif /* CYBLE_ESS_CLIENT */
2086:Generated_Source\PSoC4/BLE_eventHandler.c ****         #ifdef CYBLE_HPS_CLIENT
2087:Generated_Source\PSoC4/BLE_eventHandler.c ****             CyBle_HpscReadLongRespEventHandler((CYBLE_GATTC_READ_RSP_PARAM_T *)eventParam);
2088:Generated_Source\PSoC4/BLE_eventHandler.c ****         #endif /* CYBLE_HPS_CLIENT */
2089:Generated_Source\PSoC4/BLE_eventHandler.c **** 		#ifdef CYBLE_IPS_CLIENT
2090:Generated_Source\PSoC4/BLE_eventHandler.c ****             CyBle_IpscReadLongRespEventHandler((CYBLE_GATTC_READ_RSP_PARAM_T *)eventParam);
2091:Generated_Source\PSoC4/BLE_eventHandler.c ****         #endif /* CYBLE_IPS_CLIENT */
2092:Generated_Source\PSoC4/BLE_eventHandler.c ****         #ifdef CYBLE_UDS_CLIENT
2093:Generated_Source\PSoC4/BLE_eventHandler.c ****             if((cyBle_eventHandlerFlag & CYBLE_CALLBACK) != 0u)
2094:Generated_Source\PSoC4/BLE_eventHandler.c ****             {
2095:Generated_Source\PSoC4/BLE_eventHandler.c ****                 CyBle_UdscReadLongRespEventHandler((CYBLE_GATTC_READ_RSP_PARAM_T *)eventParam);
2096:Generated_Source\PSoC4/BLE_eventHandler.c ****             }
2097:Generated_Source\PSoC4/BLE_eventHandler.c ****         #endif /* CYBLE_UDS_CLIENT */
2098:Generated_Source\PSoC4/BLE_eventHandler.c ****             break;
2099:Generated_Source\PSoC4/BLE_eventHandler.c ****         
2100:Generated_Source\PSoC4/BLE_eventHandler.c ****         case CYBLE_EVT_GATTC_LONG_PROCEDURE_END:
2101:Generated_Source\PSoC4/BLE_eventHandler.c ****             CyBle_LongProcedureEndEventHandler();
2102:Generated_Source\PSoC4/BLE_eventHandler.c ****             break;
2103:Generated_Source\PSoC4/BLE_eventHandler.c ****         
2104:Generated_Source\PSoC4/BLE_eventHandler.c ****         case CYBLE_EVT_GATTC_FIND_INFO_RSP:
2105:Generated_Source\PSoC4/BLE_eventHandler.c ****             CyBle_FindInfoEventHandler((CYBLE_GATTC_FIND_INFO_RSP_PARAM_T *)eventParam);
2106:Generated_Source\PSoC4/BLE_eventHandler.c ****             break;
2107:Generated_Source\PSoC4/BLE_eventHandler.c **** 
2108:Generated_Source\PSoC4/BLE_eventHandler.c ****         case CYBLE_EVT_GATTC_ERROR_RSP:
2109:Generated_Source\PSoC4/BLE_eventHandler.c ****             CyBle_ErrorResponseEventHandler((CYBLE_GATTC_ERR_RSP_PARAM_T *)eventParam);
2110:Generated_Source\PSoC4/BLE_eventHandler.c ****             break;
2111:Generated_Source\PSoC4/BLE_eventHandler.c **** 
2112:Generated_Source\PSoC4/BLE_eventHandler.c ****         case CYBLE_EVT_GATTC_HANDLE_VALUE_NTF:
2113:Generated_Source\PSoC4/BLE_eventHandler.c ****             CyBle_NotificationEventHandler((CYBLE_GATTC_HANDLE_VALUE_NTF_PARAM_T *)eventParam);
2114:Generated_Source\PSoC4/BLE_eventHandler.c ****             break;
2115:Generated_Source\PSoC4/BLE_eventHandler.c **** 
ARM GAS  C:\Users\TTSS\AppData\Local\Temp\ccySleeg.s 			page 56


2116:Generated_Source\PSoC4/BLE_eventHandler.c ****         case CYBLE_EVT_GATTC_HANDLE_VALUE_IND:
2117:Generated_Source\PSoC4/BLE_eventHandler.c ****             CyBle_GattcIndicationEventHandler((CYBLE_GATTC_HANDLE_VALUE_IND_PARAM_T *)eventParam);
2118:Generated_Source\PSoC4/BLE_eventHandler.c ****             CyBle_IndicationEventHandler((CYBLE_GATTC_HANDLE_VALUE_IND_PARAM_T *)eventParam);
2119:Generated_Source\PSoC4/BLE_eventHandler.c ****         
2120:Generated_Source\PSoC4/BLE_eventHandler.c ****             /* Respond with a Handle Value Confirmation when request handled */
2121:Generated_Source\PSoC4/BLE_eventHandler.c ****             if((cyBle_eventHandlerFlag & CYBLE_CALLBACK) == 0u)
2122:Generated_Source\PSoC4/BLE_eventHandler.c ****             {
2123:Generated_Source\PSoC4/BLE_eventHandler.c ****                 (void)CyBle_GattcConfirmation(((CYBLE_GATTC_HANDLE_VALUE_IND_PARAM_T *)eventParam)-
2124:Generated_Source\PSoC4/BLE_eventHandler.c ****             }
2125:Generated_Source\PSoC4/BLE_eventHandler.c ****             break;
2126:Generated_Source\PSoC4/BLE_eventHandler.c ****         
2127:Generated_Source\PSoC4/BLE_eventHandler.c ****         case CYBLE_EVT_GATTC_READ_RSP:
2128:Generated_Source\PSoC4/BLE_eventHandler.c ****             CyBle_ReadResponseEventHandler((CYBLE_GATTC_READ_RSP_PARAM_T *)eventParam);
2129:Generated_Source\PSoC4/BLE_eventHandler.c ****             break;
2130:Generated_Source\PSoC4/BLE_eventHandler.c ****         
2131:Generated_Source\PSoC4/BLE_eventHandler.c ****         case CYBLE_EVT_GATTC_READ_MULTI_RSP:
2132:Generated_Source\PSoC4/BLE_eventHandler.c ****             CyBle_ReadMultipleResponseEventHandler((CYBLE_GATTC_READ_RSP_PARAM_T *)eventParam);
2133:Generated_Source\PSoC4/BLE_eventHandler.c ****             break;
2134:Generated_Source\PSoC4/BLE_eventHandler.c ****             
2135:Generated_Source\PSoC4/BLE_eventHandler.c ****         case CYBLE_EVT_GATTC_WRITE_RSP:
2136:Generated_Source\PSoC4/BLE_eventHandler.c ****             CyBle_GattcWriteResponseEventHandler((CYBLE_CONN_HANDLE_T *)eventParam);
2137:Generated_Source\PSoC4/BLE_eventHandler.c ****             break;
2138:Generated_Source\PSoC4/BLE_eventHandler.c ****             
2139:Generated_Source\PSoC4/BLE_eventHandler.c ****         case CYBLE_EVT_GATTC_EXEC_WRITE_RSP:
2140:Generated_Source\PSoC4/BLE_eventHandler.c ****         #ifdef CYBLE_BMS_CLIENT
2141:Generated_Source\PSoC4/BLE_eventHandler.c ****             CyBle_BmscExecuteWriteResponseEventHandler((CYBLE_GATTC_EXEC_WRITE_RSP_T *)eventParam);
2142:Generated_Source\PSoC4/BLE_eventHandler.c ****         #endif /* CYBLE_BMS_CLIENT */
2143:Generated_Source\PSoC4/BLE_eventHandler.c ****         #ifdef CYBLE_ESS_CLIENT
2144:Generated_Source\PSoC4/BLE_eventHandler.c ****             if((cyBle_eventHandlerFlag & CYBLE_CALLBACK) != 0u)
2145:Generated_Source\PSoC4/BLE_eventHandler.c ****             {
2146:Generated_Source\PSoC4/BLE_eventHandler.c ****                 CyBle_EsscExecuteWriteResponseEventHandler((CYBLE_GATTC_EXEC_WRITE_RSP_T *)eventPar
2147:Generated_Source\PSoC4/BLE_eventHandler.c ****             }
2148:Generated_Source\PSoC4/BLE_eventHandler.c ****         #endif /* CYBLE_ESS_CLIENT */
2149:Generated_Source\PSoC4/BLE_eventHandler.c ****         #ifdef CYBLE_HPS_CLIENT
2150:Generated_Source\PSoC4/BLE_eventHandler.c ****             if((cyBle_eventHandlerFlag & CYBLE_CALLBACK) != 0u)
2151:Generated_Source\PSoC4/BLE_eventHandler.c ****             {
2152:Generated_Source\PSoC4/BLE_eventHandler.c ****                 CyBle_HpscExecuteWriteResponseEventHandler((CYBLE_GATTC_EXEC_WRITE_RSP_T *)eventPar
2153:Generated_Source\PSoC4/BLE_eventHandler.c ****             }
2154:Generated_Source\PSoC4/BLE_eventHandler.c ****         #endif /* CYBLE_HPS_CLIENT */
2155:Generated_Source\PSoC4/BLE_eventHandler.c ****         #ifdef CYBLE_IPS_CLIENT
2156:Generated_Source\PSoC4/BLE_eventHandler.c ****             if((cyBle_eventHandlerFlag & CYBLE_CALLBACK) != 0u)
2157:Generated_Source\PSoC4/BLE_eventHandler.c ****             {
2158:Generated_Source\PSoC4/BLE_eventHandler.c ****                 CyBle_IpscExecuteWriteResponseEventHandler((CYBLE_GATTC_EXEC_WRITE_RSP_T *)eventPar
2159:Generated_Source\PSoC4/BLE_eventHandler.c ****             }
2160:Generated_Source\PSoC4/BLE_eventHandler.c ****         #endif /* CYBLE_IPS_CLIENT */
2161:Generated_Source\PSoC4/BLE_eventHandler.c ****         #ifdef CYBLE_UDS_CLIENT
2162:Generated_Source\PSoC4/BLE_eventHandler.c ****             if((cyBle_eventHandlerFlag & CYBLE_CALLBACK) != 0u)
2163:Generated_Source\PSoC4/BLE_eventHandler.c ****             {
2164:Generated_Source\PSoC4/BLE_eventHandler.c ****                 CyBle_UdscExecuteWriteResponseEventHandler((CYBLE_GATTC_EXEC_WRITE_RSP_T *)eventPar
2165:Generated_Source\PSoC4/BLE_eventHandler.c ****             }
2166:Generated_Source\PSoC4/BLE_eventHandler.c ****         #endif /* CYBLE_UDS_CLIENT */
2167:Generated_Source\PSoC4/BLE_eventHandler.c ****             break;
2168:Generated_Source\PSoC4/BLE_eventHandler.c ****             
2169:Generated_Source\PSoC4/BLE_eventHandler.c ****     #endif /* CYBLE_GATT_ROLE_CLIENT */
2170:Generated_Source\PSoC4/BLE_eventHandler.c **** 
2171:Generated_Source\PSoC4/BLE_eventHandler.c ****     #if((CYBLE_GAP_ROLE_PERIPHERAL || CYBLE_GAP_ROLE_CENTRAL) && (CYBLE_BONDING_REQUIREMENT == CYBL
2172:Generated_Source\PSoC4/BLE_eventHandler.c **** 
ARM GAS  C:\Users\TTSS\AppData\Local\Temp\ccySleeg.s 			page 57


2173:Generated_Source\PSoC4/BLE_eventHandler.c ****         case CYBLE_EVT_PENDING_FLASH_WRITE:
2174:Generated_Source\PSoC4/BLE_eventHandler.c ****             cyBle_pendingFlashWrite |= CYBLE_PENDING_STACK_FLASH_WRITE_BIT;
2175:Generated_Source\PSoC4/BLE_eventHandler.c ****             break;
2176:Generated_Source\PSoC4/BLE_eventHandler.c ****         
2177:Generated_Source\PSoC4/BLE_eventHandler.c ****     #endif  /* (CYBLE_BONDING_REQUIREMENT == CYBLE_BONDING_YES) */
2178:Generated_Source\PSoC4/BLE_eventHandler.c ****     
2179:Generated_Source\PSoC4/BLE_eventHandler.c ****         default:
2180:Generated_Source\PSoC4/BLE_eventHandler.c ****             break;
 1010              		.loc 1 2180 0
 1011 02e0 C046     		nop
 1012 02e2 04E0     		b	.L47
 1013              	.L58:
1723:Generated_Source\PSoC4/BLE_eventHandler.c ****         /**********************************************************
 1014              		.loc 1 1723 0
 1015 02e4 C046     		nop
 1016 02e6 02E0     		b	.L47
 1017              	.L59:
1761:Generated_Source\PSoC4/BLE_eventHandler.c ****         
 1018              		.loc 1 1761 0
 1019 02e8 C046     		nop
 1020 02ea 00E0     		b	.L47
 1021              	.L60:
1852:Generated_Source\PSoC4/BLE_eventHandler.c ****         #endif /* CYBLE_GAP_ROLE_PERIPHERAL || CYBLE_GAP_ROLE_BROADCASTER */
 1022              		.loc 1 1852 0
 1023 02ec C046     		nop
 1024              	.L47:
2181:Generated_Source\PSoC4/BLE_eventHandler.c ****     }
2182:Generated_Source\PSoC4/BLE_eventHandler.c **** 
2183:Generated_Source\PSoC4/BLE_eventHandler.c ****     if(0u != (cyBle_eventHandlerFlag & (CYBLE_CALLBACK | CYBLE_ENABLE_ALL_EVENTS))) 
 1025              		.loc 1 2183 0
 1026 02ee 0D4B     		ldr	r3, .L62
 1027 02f0 1B78     		ldrb	r3, [r3]
 1028 02f2 DBB2     		uxtb	r3, r3
 1029 02f4 1A00     		movs	r2, r3
 1030 02f6 1123     		movs	r3, #17
 1031 02f8 1340     		ands	r3, r2
 1032 02fa 0ED0     		beq	.L61
2184:Generated_Source\PSoC4/BLE_eventHandler.c ****     {
2185:Generated_Source\PSoC4/BLE_eventHandler.c ****         cyBle_eventHandlerFlag &= (uint8)~CYBLE_CALLBACK;
 1033              		.loc 1 2185 0
 1034 02fc 094B     		ldr	r3, .L62
 1035 02fe 1B78     		ldrb	r3, [r3]
 1036 0300 DBB2     		uxtb	r3, r3
 1037 0302 0122     		movs	r2, #1
 1038 0304 9343     		bics	r3, r2
 1039 0306 DAB2     		uxtb	r2, r3
 1040 0308 064B     		ldr	r3, .L62
 1041 030a 1A70     		strb	r2, [r3]
2186:Generated_Source\PSoC4/BLE_eventHandler.c ****         CyBle_ApplCallback((uint32)eventCode, eventParam);
 1042              		.loc 1 2186 0
 1043 030c 154B     		ldr	r3, .L62+64
 1044 030e 1B68     		ldr	r3, [r3]
 1045 0310 FA1D     		adds	r2, r7, #7
 1046 0312 1278     		ldrb	r2, [r2]
 1047 0314 3968     		ldr	r1, [r7]
 1048 0316 1000     		movs	r0, r2
 1049 0318 9847     		blx	r3
ARM GAS  C:\Users\TTSS\AppData\Local\Temp\ccySleeg.s 			page 58


 1050              	.L61:
2187:Generated_Source\PSoC4/BLE_eventHandler.c ****     }
2188:Generated_Source\PSoC4/BLE_eventHandler.c **** }
 1051              		.loc 1 2188 0
 1052 031a C046     		nop
 1053 031c BD46     		mov	sp, r7
 1054 031e 08B0     		add	sp, sp, #32
 1055              		@ sp needed
 1056 0320 80BD     		pop	{r7, pc}
 1057              	.L63:
 1058 0322 C046     		.align	2
 1059              	.L62:
 1060 0324 00000000 		.word	cyBle_eventHandlerFlag
 1061 0328 0C000000 		.word	.L24
 1062 032c 00000000 		.word	cyBle_sflashDeviceAddress
 1063 0330 7CF2FF0F 		.word	268431996
 1064 0334 7DF2FF0F 		.word	268431997
 1065 0338 7BF2FF0F 		.word	268431995
 1066 033c 78F2FF0F 		.word	268431992
 1067 0340 00000000 		.word	cyBle_deviceAddress
 1068 0344 00000000 		.word	cyBle_state
 1069 0348 00000000 		.word	cyBle_busyStatus
 1070 034c 00000000 		.word	gPrepWriteReqMem.6651
 1071 0350 E00A0000 		.word	cyBle_stackMemoryRam+2784
 1072 0354 00000000 		.word	cyBle_authInfo
 1073 0358 00000000 		.word	cyBle_connHandle
 1074 035c 00000000 		.word	cyBle_flashStorage
 1075 0360 00000000 		.word	cyBle_attValuesCCCD
 1076 0364 00000000 		.word	CyBle_ApplCallback
 1077              		.cfi_endproc
 1078              	.LFE10:
 1079              		.size	CyBle_EventHandler, .-CyBle_EventHandler
 1080              		.bss
 1081              		.align	2
 1082              	gPrepWriteReqMem.6651:
 1083 0000 00000000 		.space	8
 1083      00000000 
 1084              		.text
 1085              	.Letext0:
 1086              		.file 2 "Generated_Source\\PSoC4\\cytypes.h"
 1087              		.file 3 "Generated_Source\\PSoC4\\BLE_Stack.h"
 1088              		.file 4 "Generated_Source\\PSoC4\\BLE_StackHostMain.h"
 1089              		.file 5 "Generated_Source\\PSoC4\\BLE_StackGap.h"
 1090              		.file 6 "Generated_Source\\PSoC4\\BLE_StackGatt.h"
 1091              		.file 7 "Generated_Source\\PSoC4\\BLE_StackGattServer.h"
 1092              		.file 8 "Generated_Source\\PSoC4\\BLE.h"
 1093              		.file 9 "Generated_Source\\PSoC4\\BLE_gatt.h"
 1094              		.file 10 "Generated_Source\\PSoC4\\BLE_eventHandler.h"
 1095              		.section	.debug_info,"",%progbits
 1096              	.Ldebug_info0:
 1097 0000 290D0000 		.4byte	0xd29
 1098 0004 0400     		.2byte	0x4
 1099 0006 00000000 		.4byte	.Ldebug_abbrev0
 1100 000a 04       		.byte	0x4
 1101 000b 01       		.uleb128 0x1
 1102 000c 080D0000 		.4byte	.LASF302
 1103 0010 0C       		.byte	0xc
ARM GAS  C:\Users\TTSS\AppData\Local\Temp\ccySleeg.s 			page 59


 1104 0011 391F0000 		.4byte	.LASF303
 1105 0015 28140000 		.4byte	.LASF304
 1106 0019 00000000 		.4byte	.Ldebug_ranges0+0
 1107 001d 00000000 		.4byte	0
 1108 0021 00000000 		.4byte	.Ldebug_line0
 1109 0025 02       		.uleb128 0x2
 1110 0026 01       		.byte	0x1
 1111 0027 06       		.byte	0x6
 1112 0028 BA060000 		.4byte	.LASF0
 1113 002c 02       		.uleb128 0x2
 1114 002d 01       		.byte	0x1
 1115 002e 08       		.byte	0x8
 1116 002f FD070000 		.4byte	.LASF1
 1117 0033 02       		.uleb128 0x2
 1118 0034 02       		.byte	0x2
 1119 0035 05       		.byte	0x5
 1120 0036 DA1A0000 		.4byte	.LASF2
 1121 003a 02       		.uleb128 0x2
 1122 003b 02       		.byte	0x2
 1123 003c 07       		.byte	0x7
 1124 003d E91E0000 		.4byte	.LASF3
 1125 0041 02       		.uleb128 0x2
 1126 0042 04       		.byte	0x4
 1127 0043 05       		.byte	0x5
 1128 0044 55050000 		.4byte	.LASF4
 1129 0048 02       		.uleb128 0x2
 1130 0049 04       		.byte	0x4
 1131 004a 07       		.byte	0x7
 1132 004b 850E0000 		.4byte	.LASF5
 1133 004f 02       		.uleb128 0x2
 1134 0050 08       		.byte	0x8
 1135 0051 05       		.byte	0x5
 1136 0052 13110000 		.4byte	.LASF6
 1137 0056 02       		.uleb128 0x2
 1138 0057 08       		.byte	0x8
 1139 0058 07       		.byte	0x7
 1140 0059 83170000 		.4byte	.LASF7
 1141 005d 03       		.uleb128 0x3
 1142 005e 04       		.byte	0x4
 1143 005f 05       		.byte	0x5
 1144 0060 696E7400 		.ascii	"int\000"
 1145 0064 02       		.uleb128 0x2
 1146 0065 04       		.byte	0x4
 1147 0066 07       		.byte	0x7
 1148 0067 E9120000 		.4byte	.LASF8
 1149 006b 04       		.uleb128 0x4
 1150 006c 611A0000 		.4byte	.LASF9
 1151 0070 02       		.byte	0x2
 1152 0071 D201     		.2byte	0x1d2
 1153 0073 2C000000 		.4byte	0x2c
 1154 0077 04       		.uleb128 0x4
 1155 0078 6D200000 		.4byte	.LASF10
 1156 007c 02       		.byte	0x2
 1157 007d D301     		.2byte	0x1d3
 1158 007f 3A000000 		.4byte	0x3a
 1159 0083 04       		.uleb128 0x4
 1160 0084 34010000 		.4byte	.LASF11
ARM GAS  C:\Users\TTSS\AppData\Local\Temp\ccySleeg.s 			page 60


 1161 0088 02       		.byte	0x2
 1162 0089 D401     		.2byte	0x1d4
 1163 008b 48000000 		.4byte	0x48
 1164 008f 02       		.uleb128 0x2
 1165 0090 04       		.byte	0x4
 1166 0091 04       		.byte	0x4
 1167 0092 58120000 		.4byte	.LASF12
 1168 0096 02       		.uleb128 0x2
 1169 0097 08       		.byte	0x8
 1170 0098 04       		.byte	0x4
 1171 0099 62110000 		.4byte	.LASF13
 1172 009d 02       		.uleb128 0x2
 1173 009e 01       		.byte	0x1
 1174 009f 08       		.byte	0x8
 1175 00a0 2C090000 		.4byte	.LASF14
 1176 00a4 05       		.uleb128 0x5
 1177 00a5 6B000000 		.4byte	0x6b
 1178 00a9 02       		.uleb128 0x2
 1179 00aa 08       		.byte	0x8
 1180 00ab 04       		.byte	0x4
 1181 00ac E7150000 		.4byte	.LASF15
 1182 00b0 02       		.uleb128 0x2
 1183 00b1 04       		.byte	0x4
 1184 00b2 07       		.byte	0x7
 1185 00b3 1B000000 		.4byte	.LASF16
 1186 00b7 06       		.uleb128 0x6
 1187 00b8 04       		.byte	0x4
 1188 00b9 07       		.uleb128 0x7
 1189 00ba 04       		.byte	0x4
 1190 00bb BF000000 		.4byte	0xbf
 1191 00bf 08       		.uleb128 0x8
 1192 00c0 CF000000 		.4byte	0xcf
 1193 00c4 09       		.uleb128 0x9
 1194 00c5 83000000 		.4byte	0x83
 1195 00c9 09       		.uleb128 0x9
 1196 00ca B7000000 		.4byte	0xb7
 1197 00ce 00       		.byte	0
 1198 00cf 0A       		.uleb128 0xa
 1199 00d0 01       		.byte	0x1
 1200 00d1 2C000000 		.4byte	0x2c
 1201 00d5 03       		.byte	0x3
 1202 00d6 3501     		.2byte	0x135
 1203 00d8 8D020000 		.4byte	0x28d
 1204 00dc 0B       		.uleb128 0xb
 1205 00dd B4090000 		.4byte	.LASF17
 1206 00e1 00       		.byte	0
 1207 00e2 0B       		.uleb128 0xb
 1208 00e3 B6050000 		.4byte	.LASF18
 1209 00e7 01       		.byte	0x1
 1210 00e8 0B       		.uleb128 0xb
 1211 00e9 B8170000 		.4byte	.LASF19
 1212 00ed 02       		.byte	0x2
 1213 00ee 0B       		.uleb128 0xb
 1214 00ef FB060000 		.4byte	.LASF20
 1215 00f3 03       		.byte	0x3
 1216 00f4 0B       		.uleb128 0xb
 1217 00f5 901F0000 		.4byte	.LASF21
ARM GAS  C:\Users\TTSS\AppData\Local\Temp\ccySleeg.s 			page 61


 1218 00f9 04       		.byte	0x4
 1219 00fa 0B       		.uleb128 0xb
 1220 00fb 971D0000 		.4byte	.LASF22
 1221 00ff 05       		.byte	0x5
 1222 0100 0B       		.uleb128 0xb
 1223 0101 30160000 		.4byte	.LASF23
 1224 0105 06       		.byte	0x6
 1225 0106 0B       		.uleb128 0xb
 1226 0107 CE1B0000 		.4byte	.LASF24
 1227 010b 20       		.byte	0x20
 1228 010c 0B       		.uleb128 0xb
 1229 010d 6E030000 		.4byte	.LASF25
 1230 0111 21       		.byte	0x21
 1231 0112 0B       		.uleb128 0xb
 1232 0113 4C100000 		.4byte	.LASF26
 1233 0117 22       		.byte	0x22
 1234 0118 0B       		.uleb128 0xb
 1235 0119 FF140000 		.4byte	.LASF27
 1236 011d 23       		.byte	0x23
 1237 011e 0B       		.uleb128 0xb
 1238 011f C40D0000 		.4byte	.LASF28
 1239 0123 24       		.byte	0x24
 1240 0124 0B       		.uleb128 0xb
 1241 0125 E00D0000 		.4byte	.LASF29
 1242 0129 25       		.byte	0x25
 1243 012a 0B       		.uleb128 0xb
 1244 012b 391A0000 		.4byte	.LASF30
 1245 012f 26       		.byte	0x26
 1246 0130 0B       		.uleb128 0xb
 1247 0131 C4000000 		.4byte	.LASF31
 1248 0135 27       		.byte	0x27
 1249 0136 0B       		.uleb128 0xb
 1250 0137 2A200000 		.4byte	.LASF32
 1251 013b 28       		.byte	0x28
 1252 013c 0B       		.uleb128 0xb
 1253 013d 78160000 		.4byte	.LASF33
 1254 0141 29       		.byte	0x29
 1255 0142 0B       		.uleb128 0xb
 1256 0143 A30F0000 		.4byte	.LASF34
 1257 0147 2A       		.byte	0x2a
 1258 0148 0B       		.uleb128 0xb
 1259 0149 09140000 		.4byte	.LASF35
 1260 014d 2B       		.byte	0x2b
 1261 014e 0B       		.uleb128 0xb
 1262 014f 0C1E0000 		.4byte	.LASF36
 1263 0153 2C       		.byte	0x2c
 1264 0154 0B       		.uleb128 0xb
 1265 0155 49000000 		.4byte	.LASF37
 1266 0159 2D       		.byte	0x2d
 1267 015a 0B       		.uleb128 0xb
 1268 015b 761A0000 		.4byte	.LASF38
 1269 015f 2E       		.byte	0x2e
 1270 0160 0B       		.uleb128 0xb
 1271 0161 39040000 		.4byte	.LASF39
 1272 0165 2F       		.byte	0x2f
 1273 0166 0B       		.uleb128 0xb
 1274 0167 0B090000 		.4byte	.LASF40
ARM GAS  C:\Users\TTSS\AppData\Local\Temp\ccySleeg.s 			page 62


 1275 016b 30       		.byte	0x30
 1276 016c 0B       		.uleb128 0xb
 1277 016d 07120000 		.4byte	.LASF41
 1278 0171 31       		.byte	0x31
 1279 0172 0B       		.uleb128 0xb
 1280 0173 040A0000 		.4byte	.LASF42
 1281 0177 32       		.byte	0x32
 1282 0178 0B       		.uleb128 0xb
 1283 0179 45080000 		.4byte	.LASF43
 1284 017d 33       		.byte	0x33
 1285 017e 0B       		.uleb128 0xb
 1286 017f 6C080000 		.4byte	.LASF44
 1287 0183 34       		.byte	0x34
 1288 0184 0B       		.uleb128 0xb
 1289 0185 791C0000 		.4byte	.LASF45
 1290 0189 35       		.byte	0x35
 1291 018a 0B       		.uleb128 0xb
 1292 018b D8030000 		.4byte	.LASF46
 1293 018f 36       		.byte	0x36
 1294 0190 0B       		.uleb128 0xb
 1295 0191 04170000 		.4byte	.LASF47
 1296 0195 37       		.byte	0x37
 1297 0196 0B       		.uleb128 0xb
 1298 0197 481B0000 		.4byte	.LASF48
 1299 019b 40       		.byte	0x40
 1300 019c 0B       		.uleb128 0xb
 1301 019d 04010000 		.4byte	.LASF49
 1302 01a1 41       		.byte	0x41
 1303 01a2 0B       		.uleb128 0xb
 1304 01a3 A51F0000 		.4byte	.LASF50
 1305 01a7 42       		.byte	0x42
 1306 01a8 0B       		.uleb128 0xb
 1307 01a9 A1160000 		.4byte	.LASF51
 1308 01ad 43       		.byte	0x43
 1309 01ae 0B       		.uleb128 0xb
 1310 01af 0B080000 		.4byte	.LASF52
 1311 01b3 44       		.byte	0x44
 1312 01b4 0B       		.uleb128 0xb
 1313 01b5 6D070000 		.4byte	.LASF53
 1314 01b9 45       		.byte	0x45
 1315 01ba 0B       		.uleb128 0xb
 1316 01bb 9F190000 		.4byte	.LASF54
 1317 01bf 46       		.byte	0x46
 1318 01c0 0B       		.uleb128 0xb
 1319 01c1 81190000 		.4byte	.LASF55
 1320 01c5 47       		.byte	0x47
 1321 01c6 0B       		.uleb128 0xb
 1322 01c7 E4080000 		.4byte	.LASF56
 1323 01cb 48       		.byte	0x48
 1324 01cc 0B       		.uleb128 0xb
 1325 01cd 42150000 		.4byte	.LASF57
 1326 01d1 49       		.byte	0x49
 1327 01d2 0B       		.uleb128 0xb
 1328 01d3 3E0A0000 		.4byte	.LASF58
 1329 01d7 4A       		.byte	0x4a
 1330 01d8 0B       		.uleb128 0xb
 1331 01d9 61090000 		.4byte	.LASF59
ARM GAS  C:\Users\TTSS\AppData\Local\Temp\ccySleeg.s 			page 63


 1332 01dd 4B       		.byte	0x4b
 1333 01de 0B       		.uleb128 0xb
 1334 01df CD140000 		.4byte	.LASF60
 1335 01e3 4C       		.byte	0x4c
 1336 01e4 0B       		.uleb128 0xb
 1337 01e5 FF190000 		.4byte	.LASF61
 1338 01e9 4D       		.byte	0x4d
 1339 01ea 0B       		.uleb128 0xb
 1340 01eb 14050000 		.4byte	.LASF62
 1341 01ef 4E       		.byte	0x4e
 1342 01f0 0B       		.uleb128 0xb
 1343 01f1 F6120000 		.4byte	.LASF63
 1344 01f5 4F       		.byte	0x4f
 1345 01f6 0B       		.uleb128 0xb
 1346 01f7 AF1B0000 		.4byte	.LASF64
 1347 01fb 50       		.byte	0x50
 1348 01fc 0B       		.uleb128 0xb
 1349 01fd 810A0000 		.4byte	.LASF65
 1350 0201 51       		.byte	0x51
 1351 0202 0B       		.uleb128 0xb
 1352 0203 4D030000 		.4byte	.LASF66
 1353 0207 52       		.byte	0x52
 1354 0208 0B       		.uleb128 0xb
 1355 0209 6C1D0000 		.4byte	.LASF67
 1356 020d 53       		.byte	0x53
 1357 020e 0B       		.uleb128 0xb
 1358 020f 4C200000 		.4byte	.LASF68
 1359 0213 54       		.byte	0x54
 1360 0214 0B       		.uleb128 0xb
 1361 0215 FE010000 		.4byte	.LASF69
 1362 0219 55       		.byte	0x55
 1363 021a 0B       		.uleb128 0xb
 1364 021b 110B0000 		.4byte	.LASF70
 1365 021f 56       		.byte	0x56
 1366 0220 0B       		.uleb128 0xb
 1367 0221 5E120000 		.4byte	.LASF71
 1368 0225 57       		.byte	0x57
 1369 0226 0B       		.uleb128 0xb
 1370 0227 07200000 		.4byte	.LASF72
 1371 022b 58       		.byte	0x58
 1372 022c 0B       		.uleb128 0xb
 1373 022d 7A1E0000 		.4byte	.LASF73
 1374 0231 70       		.byte	0x70
 1375 0232 0B       		.uleb128 0xb
 1376 0233 9B0C0000 		.4byte	.LASF74
 1377 0237 71       		.byte	0x71
 1378 0238 0B       		.uleb128 0xb
 1379 0239 4E060000 		.4byte	.LASF75
 1380 023d 72       		.byte	0x72
 1381 023e 0B       		.uleb128 0xb
 1382 023f 911B0000 		.4byte	.LASF76
 1383 0243 73       		.byte	0x73
 1384 0244 0B       		.uleb128 0xb
 1385 0245 95150000 		.4byte	.LASF77
 1386 0249 74       		.byte	0x74
 1387 024a 0B       		.uleb128 0xb
 1388 024b 2B100000 		.4byte	.LASF78
ARM GAS  C:\Users\TTSS\AppData\Local\Temp\ccySleeg.s 			page 64


 1389 024f 75       		.byte	0x75
 1390 0250 0B       		.uleb128 0xb
 1391 0251 C3080000 		.4byte	.LASF79
 1392 0255 76       		.byte	0x76
 1393 0256 0B       		.uleb128 0xb
 1394 0257 11180000 		.4byte	.LASF80
 1395 025b 77       		.byte	0x77
 1396 025c 0B       		.uleb128 0xb
 1397 025d 22020000 		.4byte	.LASF81
 1398 0261 78       		.byte	0x78
 1399 0262 0B       		.uleb128 0xb
 1400 0263 32050000 		.4byte	.LASF82
 1401 0267 79       		.byte	0x79
 1402 0268 0B       		.uleb128 0xb
 1403 0269 E31F0000 		.4byte	.LASF83
 1404 026d 7A       		.byte	0x7a
 1405 026e 0B       		.uleb128 0xb
 1406 026f 69110000 		.4byte	.LASF84
 1407 0273 FA       		.byte	0xfa
 1408 0274 0B       		.uleb128 0xb
 1409 0275 391D0000 		.4byte	.LASF85
 1410 0279 FB       		.byte	0xfb
 1411 027a 0B       		.uleb128 0xb
 1412 027b E80C0000 		.4byte	.LASF86
 1413 027f FC       		.byte	0xfc
 1414 0280 0B       		.uleb128 0xb
 1415 0281 CF150000 		.4byte	.LASF87
 1416 0285 FD       		.byte	0xfd
 1417 0286 0B       		.uleb128 0xb
 1418 0287 FB130000 		.4byte	.LASF88
 1419 028b FF       		.byte	0xff
 1420 028c 00       		.byte	0
 1421 028d 0A       		.uleb128 0xa
 1422 028e 01       		.byte	0x1
 1423 028f 2C000000 		.4byte	0x2c
 1424 0293 03       		.byte	0x3
 1425 0294 9504     		.2byte	0x495
 1426 0296 D1020000 		.4byte	0x2d1
 1427 029a 0B       		.uleb128 0xb
 1428 029b C6060000 		.4byte	.LASF89
 1429 029f 01       		.byte	0x1
 1430 02a0 0B       		.uleb128 0xb
 1431 02a1 DF040000 		.4byte	.LASF90
 1432 02a5 02       		.byte	0x2
 1433 02a6 0B       		.uleb128 0xb
 1434 02a7 15160000 		.4byte	.LASF91
 1435 02ab 03       		.byte	0x3
 1436 02ac 0B       		.uleb128 0xb
 1437 02ad F9030000 		.4byte	.LASF92
 1438 02b1 04       		.byte	0x4
 1439 02b2 0B       		.uleb128 0xb
 1440 02b3 31090000 		.4byte	.LASF93
 1441 02b7 05       		.byte	0x5
 1442 02b8 0B       		.uleb128 0xb
 1443 02b9 B20E0000 		.4byte	.LASF94
 1444 02bd 06       		.byte	0x6
 1445 02be 0B       		.uleb128 0xb
ARM GAS  C:\Users\TTSS\AppData\Local\Temp\ccySleeg.s 			page 65


 1446 02bf 0D1D0000 		.4byte	.LASF95
 1447 02c3 07       		.byte	0x7
 1448 02c4 0B       		.uleb128 0xb
 1449 02c5 6E0E0000 		.4byte	.LASF96
 1450 02c9 08       		.byte	0x8
 1451 02ca 0B       		.uleb128 0xb
 1452 02cb B0110000 		.4byte	.LASF97
 1453 02cf 09       		.byte	0x9
 1454 02d0 00       		.byte	0
 1455 02d1 04       		.uleb128 0x4
 1456 02d2 98100000 		.4byte	.LASF98
 1457 02d6 03       		.byte	0x3
 1458 02d7 AC04     		.2byte	0x4ac
 1459 02d9 8D020000 		.4byte	0x28d
 1460 02dd 0A       		.uleb128 0xa
 1461 02de 01       		.byte	0x1
 1462 02df 2C000000 		.4byte	0x2c
 1463 02e3 03       		.byte	0x3
 1464 02e4 B004     		.2byte	0x4b0
 1465 02e6 FD020000 		.4byte	0x2fd
 1466 02ea 0B       		.uleb128 0xb
 1467 02eb 241D0000 		.4byte	.LASF99
 1468 02ef 00       		.byte	0
 1469 02f0 0B       		.uleb128 0xb
 1470 02f1 5C130000 		.4byte	.LASF100
 1471 02f5 01       		.byte	0x1
 1472 02f6 0B       		.uleb128 0xb
 1473 02f7 651E0000 		.4byte	.LASF101
 1474 02fb 02       		.byte	0x2
 1475 02fc 00       		.byte	0
 1476 02fd 04       		.uleb128 0x4
 1477 02fe 27070000 		.4byte	.LASF102
 1478 0302 03       		.byte	0x3
 1479 0303 B704     		.2byte	0x4b7
 1480 0305 DD020000 		.4byte	0x2dd
 1481 0309 0C       		.uleb128 0xc
 1482 030a 02       		.byte	0x2
 1483 030b 03       		.byte	0x3
 1484 030c BA04     		.2byte	0x4ba
 1485 030e 2D030000 		.4byte	0x32d
 1486 0312 0D       		.uleb128 0xd
 1487 0313 50010000 		.4byte	.LASF103
 1488 0317 03       		.byte	0x3
 1489 0318 BD04     		.2byte	0x4bd
 1490 031a D1020000 		.4byte	0x2d1
 1491 031e 00       		.byte	0
 1492 031f 0D       		.uleb128 0xd
 1493 0320 44060000 		.4byte	.LASF104
 1494 0324 03       		.byte	0x3
 1495 0325 BF04     		.2byte	0x4bf
 1496 0327 FD020000 		.4byte	0x2fd
 1497 032b 01       		.byte	0x1
 1498 032c 00       		.byte	0
 1499 032d 04       		.uleb128 0x4
 1500 032e 4D1E0000 		.4byte	.LASF105
 1501 0332 03       		.byte	0x3
 1502 0333 C004     		.2byte	0x4c0
ARM GAS  C:\Users\TTSS\AppData\Local\Temp\ccySleeg.s 			page 66


 1503 0335 09030000 		.4byte	0x309
 1504 0339 0A       		.uleb128 0xa
 1505 033a 01       		.byte	0x1
 1506 033b 2C000000 		.4byte	0x2c
 1507 033f 03       		.byte	0x3
 1508 0340 EA04     		.2byte	0x4ea
 1509 0342 53030000 		.4byte	0x353
 1510 0346 0B       		.uleb128 0xb
 1511 0347 39170000 		.4byte	.LASF106
 1512 034b 00       		.byte	0
 1513 034c 0B       		.uleb128 0xb
 1514 034d CD0E0000 		.4byte	.LASF107
 1515 0351 01       		.byte	0x1
 1516 0352 00       		.byte	0
 1517 0353 04       		.uleb128 0x4
 1518 0354 A01E0000 		.4byte	.LASF108
 1519 0358 03       		.byte	0x3
 1520 0359 F104     		.2byte	0x4f1
 1521 035b 39030000 		.4byte	0x339
 1522 035f 0C       		.uleb128 0xc
 1523 0360 08       		.byte	0x8
 1524 0361 03       		.byte	0x3
 1525 0362 F404     		.2byte	0x4f4
 1526 0364 90030000 		.4byte	0x390
 1527 0368 0D       		.uleb128 0xd
 1528 0369 88000000 		.4byte	.LASF109
 1529 036d 03       		.byte	0x3
 1530 036e F704     		.2byte	0x4f7
 1531 0370 53030000 		.4byte	0x353
 1532 0374 00       		.byte	0
 1533 0375 0D       		.uleb128 0xd
 1534 0376 FA0D0000 		.4byte	.LASF110
 1535 037a 03       		.byte	0x3
 1536 037b FC04     		.2byte	0x4fc
 1537 037d 6B000000 		.4byte	0x6b
 1538 0381 01       		.byte	0x1
 1539 0382 0D       		.uleb128 0xd
 1540 0383 B6080000 		.4byte	.LASF111
 1541 0387 03       		.byte	0x3
 1542 0388 0405     		.2byte	0x504
 1543 038a B7000000 		.4byte	0xb7
 1544 038e 04       		.byte	0x4
 1545 038f 00       		.byte	0
 1546 0390 04       		.uleb128 0x4
 1547 0391 42110000 		.4byte	.LASF112
 1548 0395 03       		.byte	0x3
 1549 0396 0605     		.2byte	0x506
 1550 0398 5F030000 		.4byte	0x35f
 1551 039c 0C       		.uleb128 0xc
 1552 039d 07       		.byte	0x7
 1553 039e 03       		.byte	0x3
 1554 039f 2A05     		.2byte	0x52a
 1555 03a1 C0030000 		.4byte	0x3c0
 1556 03a5 0D       		.uleb128 0xd
 1557 03a6 B61C0000 		.4byte	.LASF113
 1558 03aa 03       		.byte	0x3
 1559 03ab 2D05     		.2byte	0x52d
ARM GAS  C:\Users\TTSS\AppData\Local\Temp\ccySleeg.s 			page 67


 1560 03ad C0030000 		.4byte	0x3c0
 1561 03b1 00       		.byte	0
 1562 03b2 0D       		.uleb128 0xd
 1563 03b3 7C020000 		.4byte	.LASF114
 1564 03b7 03       		.byte	0x3
 1565 03b8 2F05     		.2byte	0x52f
 1566 03ba 6B000000 		.4byte	0x6b
 1567 03be 06       		.byte	0x6
 1568 03bf 00       		.byte	0
 1569 03c0 0E       		.uleb128 0xe
 1570 03c1 6B000000 		.4byte	0x6b
 1571 03c5 D0030000 		.4byte	0x3d0
 1572 03c9 0F       		.uleb128 0xf
 1573 03ca B0000000 		.4byte	0xb0
 1574 03ce 05       		.byte	0x5
 1575 03cf 00       		.byte	0
 1576 03d0 04       		.uleb128 0x4
 1577 03d1 B4180000 		.4byte	.LASF115
 1578 03d5 03       		.byte	0x3
 1579 03d6 3005     		.2byte	0x530
 1580 03d8 9C030000 		.4byte	0x39c
 1581 03dc 07       		.uleb128 0x7
 1582 03dd 04       		.byte	0x4
 1583 03de 6B000000 		.4byte	0x6b
 1584 03e2 10       		.uleb128 0x10
 1585 03e3 01       		.byte	0x1
 1586 03e4 2C000000 		.4byte	0x2c
 1587 03e8 04       		.byte	0x4
 1588 03e9 2F       		.byte	0x2f
 1589 03ea 07040000 		.4byte	0x407
 1590 03ee 0B       		.uleb128 0xb
 1591 03ef E1180000 		.4byte	.LASF116
 1592 03f3 01       		.byte	0x1
 1593 03f4 0B       		.uleb128 0xb
 1594 03f5 75180000 		.4byte	.LASF117
 1595 03f9 02       		.byte	0x2
 1596 03fa 0B       		.uleb128 0xb
 1597 03fb D11F0000 		.4byte	.LASF118
 1598 03ff 03       		.byte	0x3
 1599 0400 0B       		.uleb128 0xb
 1600 0401 70190000 		.4byte	.LASF119
 1601 0405 04       		.byte	0x4
 1602 0406 00       		.byte	0
 1603 0407 11       		.uleb128 0x11
 1604 0408 81020000 		.4byte	.LASF120
 1605 040c 04       		.byte	0x4
 1606 040d 3C       		.byte	0x3c
 1607 040e E2030000 		.4byte	0x3e2
 1608 0412 0A       		.uleb128 0xa
 1609 0413 01       		.byte	0x1
 1610 0414 2C000000 		.4byte	0x2c
 1611 0418 05       		.byte	0x5
 1612 0419 0801     		.2byte	0x108
 1613 041b 3E040000 		.4byte	0x43e
 1614 041f 0B       		.uleb128 0xb
 1615 0420 5E050000 		.4byte	.LASF121
 1616 0424 00       		.byte	0
ARM GAS  C:\Users\TTSS\AppData\Local\Temp\ccySleeg.s 			page 68


 1617 0425 0B       		.uleb128 0xb
 1618 0426 74050000 		.4byte	.LASF122
 1619 042a 01       		.byte	0x1
 1620 042b 0B       		.uleb128 0xb
 1621 042c 8A050000 		.4byte	.LASF123
 1622 0430 02       		.byte	0x2
 1623 0431 0B       		.uleb128 0xb
 1624 0432 A0050000 		.4byte	.LASF124
 1625 0436 03       		.byte	0x3
 1626 0437 0B       		.uleb128 0xb
 1627 0438 F80A0000 		.4byte	.LASF125
 1628 043c 0F       		.byte	0xf
 1629 043d 00       		.byte	0
 1630 043e 0A       		.uleb128 0xa
 1631 043f 01       		.byte	0x1
 1632 0440 2C000000 		.4byte	0x2c
 1633 0444 05       		.byte	0x5
 1634 0445 2701     		.2byte	0x127
 1635 0447 6A040000 		.4byte	0x46a
 1636 044b 0B       		.uleb128 0xb
 1637 044c BB030000 		.4byte	.LASF126
 1638 0450 00       		.byte	0
 1639 0451 0B       		.uleb128 0xb
 1640 0452 EE1D0000 		.4byte	.LASF127
 1641 0456 01       		.byte	0x1
 1642 0457 0B       		.uleb128 0xb
 1643 0458 96090000 		.4byte	.LASF128
 1644 045c 02       		.byte	0x2
 1645 045d 0B       		.uleb128 0xb
 1646 045e E3000000 		.4byte	.LASF129
 1647 0462 03       		.byte	0x3
 1648 0463 0B       		.uleb128 0xb
 1649 0464 621B0000 		.4byte	.LASF130
 1650 0468 04       		.byte	0x4
 1651 0469 00       		.byte	0
 1652 046a 0A       		.uleb128 0xa
 1653 046b 01       		.byte	0x1
 1654 046c 2C000000 		.4byte	0x2c
 1655 0470 05       		.byte	0x5
 1656 0471 3D01     		.2byte	0x13d
 1657 0473 E4040000 		.4byte	0x4e4
 1658 0477 0B       		.uleb128 0xb
 1659 0478 5E160000 		.4byte	.LASF131
 1660 047c 00       		.byte	0
 1661 047d 0B       		.uleb128 0xb
 1662 047e 91040000 		.4byte	.LASF132
 1663 0482 01       		.byte	0x1
 1664 0483 0B       		.uleb128 0xb
 1665 0484 D8160000 		.4byte	.LASF133
 1666 0488 02       		.byte	0x2
 1667 0489 0B       		.uleb128 0xb
 1668 048a 0E0F0000 		.4byte	.LASF134
 1669 048e 03       		.byte	0x3
 1670 048f 0B       		.uleb128 0xb
 1671 0490 F8050000 		.4byte	.LASF135
 1672 0494 04       		.byte	0x4
 1673 0495 0B       		.uleb128 0xb
ARM GAS  C:\Users\TTSS\AppData\Local\Temp\ccySleeg.s 			page 69


 1674 0496 45190000 		.4byte	.LASF136
 1675 049a 05       		.byte	0x5
 1676 049b 0B       		.uleb128 0xb
 1677 049c DD100000 		.4byte	.LASF137
 1678 04a0 06       		.byte	0x6
 1679 04a1 0B       		.uleb128 0xb
 1680 04a2 E30E0000 		.4byte	.LASF138
 1681 04a6 07       		.byte	0x7
 1682 04a7 0B       		.uleb128 0xb
 1683 04a8 F8020000 		.4byte	.LASF139
 1684 04ac 08       		.byte	0x8
 1685 04ad 0B       		.uleb128 0xb
 1686 04ae 04100000 		.4byte	.LASF140
 1687 04b2 09       		.byte	0x9
 1688 04b3 0B       		.uleb128 0xb
 1689 04b4 8E080000 		.4byte	.LASF141
 1690 04b8 0A       		.byte	0xa
 1691 04b9 0B       		.uleb128 0xb
 1692 04ba 70100000 		.4byte	.LASF142
 1693 04be 0B       		.byte	0xb
 1694 04bf 0B       		.uleb128 0xb
 1695 04c0 BF1D0000 		.4byte	.LASF143
 1696 04c4 0C       		.byte	0xc
 1697 04c5 0B       		.uleb128 0xb
 1698 04c6 BE0B0000 		.4byte	.LASF144
 1699 04ca 0D       		.byte	0xd
 1700 04cb 0B       		.uleb128 0xb
 1701 04cc 94070000 		.4byte	.LASF145
 1702 04d0 0E       		.byte	0xe
 1703 04d1 0B       		.uleb128 0xb
 1704 04d2 90000000 		.4byte	.LASF146
 1705 04d6 0F       		.byte	0xf
 1706 04d7 0B       		.uleb128 0xb
 1707 04d8 CC020000 		.4byte	.LASF147
 1708 04dc 15       		.byte	0x15
 1709 04dd 0B       		.uleb128 0xb
 1710 04de C10C0000 		.4byte	.LASF148
 1711 04e2 18       		.byte	0x18
 1712 04e3 00       		.byte	0
 1713 04e4 04       		.uleb128 0x4
 1714 04e5 AE140000 		.4byte	.LASF149
 1715 04e9 05       		.byte	0x5
 1716 04ea 7D01     		.2byte	0x17d
 1717 04ec 6A040000 		.4byte	0x46a
 1718 04f0 0C       		.uleb128 0xc
 1719 04f1 05       		.byte	0x5
 1720 04f2 05       		.byte	0x5
 1721 04f3 C601     		.2byte	0x1c6
 1722 04f5 3B050000 		.4byte	0x53b
 1723 04f9 0D       		.uleb128 0xd
 1724 04fa 59110000 		.4byte	.LASF150
 1725 04fe 05       		.byte	0x5
 1726 04ff D001     		.2byte	0x1d0
 1727 0501 6B000000 		.4byte	0x6b
 1728 0505 00       		.byte	0
 1729 0506 0D       		.uleb128 0xd
 1730 0507 C3120000 		.4byte	.LASF151
ARM GAS  C:\Users\TTSS\AppData\Local\Temp\ccySleeg.s 			page 70


 1731 050b 05       		.byte	0x5
 1732 050c D601     		.2byte	0x1d6
 1733 050e 6B000000 		.4byte	0x6b
 1734 0512 01       		.byte	0x1
 1735 0513 0D       		.uleb128 0xd
 1736 0514 24000000 		.4byte	.LASF152
 1737 0518 05       		.byte	0x5
 1738 0519 DD01     		.2byte	0x1dd
 1739 051b 6B000000 		.4byte	0x6b
 1740 051f 02       		.byte	0x2
 1741 0520 0D       		.uleb128 0xd
 1742 0521 E41A0000 		.4byte	.LASF153
 1743 0525 05       		.byte	0x5
 1744 0526 E101     		.2byte	0x1e1
 1745 0528 E4040000 		.4byte	0x4e4
 1746 052c 03       		.byte	0x3
 1747 052d 0D       		.uleb128 0xd
 1748 052e ED190000 		.4byte	.LASF154
 1749 0532 05       		.byte	0x5
 1750 0533 EB01     		.2byte	0x1eb
 1751 0535 6B000000 		.4byte	0x6b
 1752 0539 04       		.byte	0x4
 1753 053a 00       		.byte	0
 1754 053b 04       		.uleb128 0x4
 1755 053c 80090000 		.4byte	.LASF155
 1756 0540 05       		.byte	0x5
 1757 0541 ED01     		.2byte	0x1ed
 1758 0543 F0040000 		.4byte	0x4f0
 1759 0547 0C       		.uleb128 0xc
 1760 0548 08       		.byte	0x8
 1761 0549 05       		.byte	0x5
 1762 054a 7203     		.2byte	0x372
 1763 054c 85050000 		.4byte	0x585
 1764 0550 0D       		.uleb128 0xd
 1765 0551 AB0E0000 		.4byte	.LASF156
 1766 0555 05       		.byte	0x5
 1767 0556 7803     		.2byte	0x378
 1768 0558 6B000000 		.4byte	0x6b
 1769 055c 00       		.byte	0
 1770 055d 0D       		.uleb128 0xd
 1771 055e E01E0000 		.4byte	.LASF157
 1772 0562 05       		.byte	0x5
 1773 0563 7E03     		.2byte	0x37e
 1774 0565 77000000 		.4byte	0x77
 1775 0569 02       		.byte	0x2
 1776 056a 0D       		.uleb128 0xd
 1777 056b B31D0000 		.4byte	.LASF158
 1778 056f 05       		.byte	0x5
 1779 0570 8303     		.2byte	0x383
 1780 0572 77000000 		.4byte	0x77
 1781 0576 04       		.byte	0x4
 1782 0577 0D       		.uleb128 0xd
 1783 0578 C31F0000 		.4byte	.LASF159
 1784 057c 05       		.byte	0x5
 1785 057d 8903     		.2byte	0x389
 1786 057f 77000000 		.4byte	0x77
 1787 0583 06       		.byte	0x6
ARM GAS  C:\Users\TTSS\AppData\Local\Temp\ccySleeg.s 			page 71


 1788 0584 00       		.byte	0
 1789 0585 04       		.uleb128 0x4
 1790 0586 56170000 		.4byte	.LASF160
 1791 058a 05       		.byte	0x5
 1792 058b 8B03     		.2byte	0x38b
 1793 058d 47050000 		.4byte	0x547
 1794 0591 10       		.uleb128 0x10
 1795 0592 01       		.byte	0x1
 1796 0593 2C000000 		.4byte	0x2c
 1797 0597 06       		.byte	0x6
 1798 0598 49       		.byte	0x49
 1799 0599 4C060000 		.4byte	0x64c
 1800 059d 0B       		.uleb128 0xb
 1801 059e 710B0000 		.4byte	.LASF161
 1802 05a2 01       		.byte	0x1
 1803 05a3 0B       		.uleb128 0xb
 1804 05a4 250A0000 		.4byte	.LASF162
 1805 05a8 02       		.byte	0x2
 1806 05a9 0B       		.uleb128 0xb
 1807 05aa FB040000 		.4byte	.LASF163
 1808 05ae 03       		.byte	0x3
 1809 05af 0B       		.uleb128 0xb
 1810 05b0 E2060000 		.4byte	.LASF164
 1811 05b4 04       		.byte	0x4
 1812 05b5 0B       		.uleb128 0xb
 1813 05b6 BF160000 		.4byte	.LASF165
 1814 05ba 05       		.byte	0x5
 1815 05bb 0B       		.uleb128 0xb
 1816 05bc F3150000 		.4byte	.LASF166
 1817 05c0 06       		.byte	0x6
 1818 05c1 0B       		.uleb128 0xb
 1819 05c2 99030000 		.4byte	.LASF167
 1820 05c6 07       		.byte	0x7
 1821 05c7 0B       		.uleb128 0xb
 1822 05c8 79150000 		.4byte	.LASF168
 1823 05cc 08       		.byte	0x8
 1824 05cd 0B       		.uleb128 0xb
 1825 05ce 20030000 		.4byte	.LASF169
 1826 05d2 09       		.byte	0x9
 1827 05d3 0B       		.uleb128 0xb
 1828 05d4 970E0000 		.4byte	.LASF170
 1829 05d8 0A       		.byte	0xa
 1830 05d9 0B       		.uleb128 0xb
 1831 05da EF1C0000 		.4byte	.LASF171
 1832 05de 0B       		.byte	0xb
 1833 05df 0B       		.uleb128 0xb
 1834 05e0 C8180000 		.4byte	.LASF172
 1835 05e4 0C       		.byte	0xc
 1836 05e5 0B       		.uleb128 0xb
 1837 05e6 7C060000 		.4byte	.LASF173
 1838 05ea 0D       		.byte	0xd
 1839 05eb 0B       		.uleb128 0xb
 1840 05ec 25150000 		.4byte	.LASF174
 1841 05f0 0E       		.byte	0xe
 1842 05f1 0B       		.uleb128 0xb
 1843 05f2 5F020000 		.4byte	.LASF175
 1844 05f6 0F       		.byte	0xf
ARM GAS  C:\Users\TTSS\AppData\Local\Temp\ccySleeg.s 			page 72


 1845 05f7 0B       		.uleb128 0xb
 1846 05f8 6D1F0000 		.4byte	.LASF176
 1847 05fc 10       		.byte	0x10
 1848 05fd 0B       		.uleb128 0xb
 1849 05fe 040E0000 		.4byte	.LASF177
 1850 0602 11       		.byte	0x11
 1851 0603 0B       		.uleb128 0xb
 1852 0604 C51A0000 		.4byte	.LASF178
 1853 0608 12       		.byte	0x12
 1854 0609 0B       		.uleb128 0xb
 1855 060a 4C090000 		.4byte	.LASF179
 1856 060e 13       		.byte	0x13
 1857 060f 0B       		.uleb128 0xb
 1858 0610 1F010000 		.4byte	.LASF180
 1859 0614 52       		.byte	0x52
 1860 0615 0B       		.uleb128 0xb
 1861 0616 A8010000 		.4byte	.LASF181
 1862 061a 16       		.byte	0x16
 1863 061b 0B       		.uleb128 0xb
 1864 061c AA130000 		.4byte	.LASF182
 1865 0620 17       		.byte	0x17
 1866 0621 0B       		.uleb128 0xb
 1867 0622 301E0000 		.4byte	.LASF183
 1868 0626 18       		.byte	0x18
 1869 0627 0B       		.uleb128 0xb
 1870 0628 7E0C0000 		.4byte	.LASF184
 1871 062c 19       		.byte	0x19
 1872 062d 0B       		.uleb128 0xb
 1873 062e 3E0F0000 		.4byte	.LASF185
 1874 0632 1B       		.byte	0x1b
 1875 0633 0B       		.uleb128 0xb
 1876 0634 29080000 		.4byte	.LASF186
 1877 0638 1D       		.byte	0x1d
 1878 0639 0B       		.uleb128 0xb
 1879 063a 2D000000 		.4byte	.LASF187
 1880 063e 1E       		.byte	0x1e
 1881 063f 0B       		.uleb128 0xb
 1882 0640 370C0000 		.4byte	.LASF188
 1883 0644 D2       		.byte	0xd2
 1884 0645 0B       		.uleb128 0xb
 1885 0646 CA170000 		.4byte	.LASF189
 1886 064a FF       		.byte	0xff
 1887 064b 00       		.byte	0
 1888 064c 10       		.uleb128 0x10
 1889 064d 01       		.byte	0x1
 1890 064e 2C000000 		.4byte	0x2c
 1891 0652 06       		.byte	0x6
 1892 0653 A5       		.byte	0xa5
 1893 0654 43070000 		.4byte	0x743
 1894 0658 0B       		.uleb128 0xb
 1895 0659 30180000 		.4byte	.LASF190
 1896 065d 00       		.byte	0
 1897 065e 0B       		.uleb128 0xb
 1898 065f 9A170000 		.4byte	.LASF191
 1899 0663 01       		.byte	0x1
 1900 0664 0B       		.uleb128 0xb
 1901 0665 61010000 		.4byte	.LASF192
ARM GAS  C:\Users\TTSS\AppData\Local\Temp\ccySleeg.s 			page 73


 1902 0669 02       		.byte	0x2
 1903 066a 0B       		.uleb128 0xb
 1904 066b BD1E0000 		.4byte	.LASF193
 1905 066f 03       		.byte	0x3
 1906 0670 0B       		.uleb128 0xb
 1907 0671 DD050000 		.4byte	.LASF194
 1908 0675 04       		.byte	0x4
 1909 0676 0B       		.uleb128 0xb
 1910 0677 15130000 		.4byte	.LASF195
 1911 067b 05       		.byte	0x5
 1912 067c 0B       		.uleb128 0xb
 1913 067d 231B0000 		.4byte	.LASF196
 1914 0681 06       		.byte	0x6
 1915 0682 0B       		.uleb128 0xb
 1916 0683 5B150000 		.4byte	.LASF197
 1917 0687 07       		.byte	0x7
 1918 0688 0B       		.uleb128 0xb
 1919 0689 8E120000 		.4byte	.LASF198
 1920 068d 08       		.byte	0x8
 1921 068e 0B       		.uleb128 0xb
 1922 068f 210E0000 		.4byte	.LASF199
 1923 0693 09       		.byte	0x9
 1924 0694 0B       		.uleb128 0xb
 1925 0695 D8130000 		.4byte	.LASF200
 1926 0699 0A       		.byte	0xa
 1927 069a 0B       		.uleb128 0xb
 1928 069b D60A0000 		.4byte	.LASF201
 1929 069f 0B       		.byte	0xb
 1930 06a0 0B       		.uleb128 0xb
 1931 06a1 87110000 		.4byte	.LASF202
 1932 06a5 0C       		.byte	0xc
 1933 06a6 0B       		.uleb128 0xb
 1934 06a7 95060000 		.4byte	.LASF203
 1935 06ab 0D       		.byte	0xd
 1936 06ac 0B       		.uleb128 0xb
 1937 06ad E6090000 		.4byte	.LASF204
 1938 06b1 0E       		.byte	0xe
 1939 06b2 0B       		.uleb128 0xb
 1940 06b3 FC1E0000 		.4byte	.LASF205
 1941 06b7 0F       		.byte	0xf
 1942 06b8 0B       		.uleb128 0xb
 1943 06b9 C5010000 		.4byte	.LASF206
 1944 06bd 10       		.byte	0x10
 1945 06be 0B       		.uleb128 0xb
 1946 06bf 83010000 		.4byte	.LASF207
 1947 06c3 11       		.byte	0x11
 1948 06c4 0B       		.uleb128 0xb
 1949 06c5 98020000 		.4byte	.LASF208
 1950 06c9 80       		.byte	0x80
 1951 06ca 0B       		.uleb128 0xb
 1952 06cb A00A0000 		.4byte	.LASF209
 1953 06cf 80       		.byte	0x80
 1954 06d0 0B       		.uleb128 0xb
 1955 06d1 960D0000 		.4byte	.LASF210
 1956 06d5 80       		.byte	0x80
 1957 06d6 0B       		.uleb128 0xb
 1958 06d7 EC1A0000 		.4byte	.LASF211
ARM GAS  C:\Users\TTSS\AppData\Local\Temp\ccySleeg.s 			page 74


 1959 06db 80       		.byte	0x80
 1960 06dc 0B       		.uleb128 0xb
 1961 06dd 87180000 		.4byte	.LASF212
 1962 06e1 80       		.byte	0x80
 1963 06e2 0B       		.uleb128 0xb
 1964 06e3 72130000 		.4byte	.LASF213
 1965 06e7 80       		.byte	0x80
 1966 06e8 0B       		.uleb128 0xb
 1967 06e9 490E0000 		.4byte	.LASF214
 1968 06ed 80       		.byte	0x80
 1969 06ee 0B       		.uleb128 0xb
 1970 06ef CB090000 		.4byte	.LASF215
 1971 06f3 80       		.byte	0x80
 1972 06f4 0B       		.uleb128 0xb
 1973 06f5 530C0000 		.4byte	.LASF216
 1974 06f9 81       		.byte	0x81
 1975 06fa 0B       		.uleb128 0xb
 1976 06fb C0190000 		.4byte	.LASF217
 1977 06ff 81       		.byte	0x81
 1978 0700 0B       		.uleb128 0xb
 1979 0701 00000000 		.4byte	.LASF218
 1980 0705 81       		.byte	0x81
 1981 0706 0B       		.uleb128 0xb
 1982 0707 221C0000 		.4byte	.LASF219
 1983 070b 81       		.byte	0x81
 1984 070c 0B       		.uleb128 0xb
 1985 070d 6B040000 		.4byte	.LASF220
 1986 0711 82       		.byte	0x82
 1987 0712 0B       		.uleb128 0xb
 1988 0713 BD1C0000 		.4byte	.LASF221
 1989 0717 A0       		.byte	0xa0
 1990 0718 0B       		.uleb128 0xb
 1991 0719 5A0F0000 		.4byte	.LASF222
 1992 071d A0       		.byte	0xa0
 1993 071e 0B       		.uleb128 0xb
 1994 071f BB040000 		.4byte	.LASF223
 1995 0723 A1       		.byte	0xa1
 1996 0724 0B       		.uleb128 0xb
 1997 0725 FC1B0000 		.4byte	.LASF224
 1998 0729 A2       		.byte	0xa2
 1999 072a 0B       		.uleb128 0xb
 2000 072b 330B0000 		.4byte	.LASF225
 2001 072f A3       		.byte	0xa3
 2002 0730 0B       		.uleb128 0xb
 2003 0731 43070000 		.4byte	.LASF226
 2004 0735 FD       		.byte	0xfd
 2005 0736 0B       		.uleb128 0xb
 2006 0737 DA110000 		.4byte	.LASF227
 2007 073b FE       		.byte	0xfe
 2008 073c 0B       		.uleb128 0xb
 2009 073d B3150000 		.4byte	.LASF228
 2010 0741 FF       		.byte	0xff
 2011 0742 00       		.byte	0
 2012 0743 04       		.uleb128 0x4
 2013 0744 5F180000 		.4byte	.LASF229
 2014 0748 06       		.byte	0x6
 2015 0749 5F01     		.2byte	0x15f
ARM GAS  C:\Users\TTSS\AppData\Local\Temp\ccySleeg.s 			page 75


 2016 074b 4C060000 		.4byte	0x64c
 2017 074f 04       		.uleb128 0x4
 2018 0750 E5170000 		.4byte	.LASF230
 2019 0754 06       		.byte	0x6
 2020 0755 8901     		.2byte	0x189
 2021 0757 77000000 		.4byte	0x77
 2022 075b 0C       		.uleb128 0xc
 2023 075c 02       		.byte	0x2
 2024 075d 06       		.byte	0x6
 2025 075e 9301     		.2byte	0x193
 2026 0760 7F070000 		.4byte	0x77f
 2027 0764 0D       		.uleb128 0xd
 2028 0765 62040000 		.4byte	.LASF231
 2029 0769 06       		.byte	0x6
 2030 076a 9A01     		.2byte	0x19a
 2031 076c 6B000000 		.4byte	0x6b
 2032 0770 00       		.byte	0
 2033 0771 0D       		.uleb128 0xd
 2034 0772 8A1F0000 		.4byte	.LASF232
 2035 0776 06       		.byte	0x6
 2036 0777 A001     		.2byte	0x1a0
 2037 0779 6B000000 		.4byte	0x6b
 2038 077d 01       		.byte	0x1
 2039 077e 00       		.byte	0
 2040 077f 04       		.uleb128 0x4
 2041 0780 85030000 		.4byte	.LASF233
 2042 0784 06       		.byte	0x6
 2043 0785 A201     		.2byte	0x1a2
 2044 0787 5B070000 		.4byte	0x75b
 2045 078b 0C       		.uleb128 0xc
 2046 078c 08       		.byte	0x8
 2047 078d 06       		.byte	0x6
 2048 078e BE01     		.2byte	0x1be
 2049 0790 BC070000 		.4byte	0x7bc
 2050 0794 12       		.uleb128 0x12
 2051 0795 76616C00 		.ascii	"val\000"
 2052 0799 06       		.byte	0x6
 2053 079a C101     		.2byte	0x1c1
 2054 079c DC030000 		.4byte	0x3dc
 2055 07a0 00       		.byte	0
 2056 07a1 12       		.uleb128 0x12
 2057 07a2 6C656E00 		.ascii	"len\000"
 2058 07a6 06       		.byte	0x6
 2059 07a7 C401     		.2byte	0x1c4
 2060 07a9 77000000 		.4byte	0x77
 2061 07ad 04       		.byte	0x4
 2062 07ae 0D       		.uleb128 0xd
 2063 07af 631F0000 		.4byte	.LASF234
 2064 07b3 06       		.byte	0x6
 2065 07b4 CB01     		.2byte	0x1cb
 2066 07b6 77000000 		.4byte	0x77
 2067 07ba 06       		.byte	0x6
 2068 07bb 00       		.byte	0
 2069 07bc 04       		.uleb128 0x4
 2070 07bd 45020000 		.4byte	.LASF235
 2071 07c1 06       		.byte	0x6
 2072 07c2 CD01     		.2byte	0x1cd
ARM GAS  C:\Users\TTSS\AppData\Local\Temp\ccySleeg.s 			page 76


 2073 07c4 8B070000 		.4byte	0x78b
 2074 07c8 0C       		.uleb128 0xc
 2075 07c9 0C       		.byte	0xc
 2076 07ca 06       		.byte	0x6
 2077 07cb D001     		.2byte	0x1d0
 2078 07cd EC070000 		.4byte	0x7ec
 2079 07d1 0D       		.uleb128 0xd
 2080 07d2 44180000 		.4byte	.LASF236
 2081 07d6 06       		.byte	0x6
 2082 07d7 D301     		.2byte	0x1d3
 2083 07d9 BC070000 		.4byte	0x7bc
 2084 07dd 00       		.byte	0
 2085 07de 0D       		.uleb128 0xd
 2086 07df B8120000 		.4byte	.LASF237
 2087 07e3 06       		.byte	0x6
 2088 07e4 D601     		.2byte	0x1d6
 2089 07e6 4F070000 		.4byte	0x74f
 2090 07ea 08       		.byte	0x8
 2091 07eb 00       		.byte	0
 2092 07ec 04       		.uleb128 0x4
 2093 07ed 25060000 		.4byte	.LASF238
 2094 07f1 06       		.byte	0x6
 2095 07f2 D801     		.2byte	0x1d8
 2096 07f4 C8070000 		.4byte	0x7c8
 2097 07f8 0C       		.uleb128 0xc
 2098 07f9 04       		.byte	0x4
 2099 07fa 06       		.byte	0x6
 2100 07fb E601     		.2byte	0x1e6
 2101 07fd 1C080000 		.4byte	0x81c
 2102 0801 0D       		.uleb128 0xd
 2103 0802 05190000 		.4byte	.LASF239
 2104 0806 06       		.byte	0x6
 2105 0807 E901     		.2byte	0x1e9
 2106 0809 7F070000 		.4byte	0x77f
 2107 080d 00       		.byte	0
 2108 080e 12       		.uleb128 0x12
 2109 080f 6D747500 		.ascii	"mtu\000"
 2110 0813 06       		.byte	0x6
 2111 0814 EC01     		.2byte	0x1ec
 2112 0816 77000000 		.4byte	0x77
 2113 081a 02       		.byte	0x2
 2114 081b 00       		.byte	0
 2115 081c 04       		.uleb128 0x4
 2116 081d 40130000 		.4byte	.LASF240
 2117 0821 06       		.byte	0x6
 2118 0822 EE01     		.2byte	0x1ee
 2119 0824 F8070000 		.4byte	0x7f8
 2120 0828 0C       		.uleb128 0xc
 2121 0829 08       		.byte	0x8
 2122 082a 06       		.byte	0x6
 2123 082b FC01     		.2byte	0x1fc
 2124 082d 59080000 		.4byte	0x859
 2125 0831 0D       		.uleb128 0xd
 2126 0832 95160000 		.4byte	.LASF241
 2127 0836 06       		.byte	0x6
 2128 0837 0102     		.2byte	0x201
 2129 0839 DC030000 		.4byte	0x3dc
ARM GAS  C:\Users\TTSS\AppData\Local\Temp\ccySleeg.s 			page 77


 2130 083d 00       		.byte	0
 2131 083e 0D       		.uleb128 0xd
 2132 083f 4A180000 		.4byte	.LASF242
 2133 0843 06       		.byte	0x6
 2134 0844 0602     		.2byte	0x206
 2135 0846 77000000 		.4byte	0x77
 2136 084a 04       		.byte	0x4
 2137 084b 0D       		.uleb128 0xd
 2138 084c EE0B0000 		.4byte	.LASF243
 2139 0850 06       		.byte	0x6
 2140 0851 0D02     		.2byte	0x20d
 2141 0853 77000000 		.4byte	0x77
 2142 0857 06       		.byte	0x6
 2143 0858 00       		.byte	0
 2144 0859 04       		.uleb128 0x4
 2145 085a 7E0F0000 		.4byte	.LASF244
 2146 085e 06       		.byte	0x6
 2147 085f 0F02     		.2byte	0x20f
 2148 0861 28080000 		.4byte	0x828
 2149 0865 13       		.uleb128 0x13
 2150 0866 04       		.byte	0x4
 2151 0867 07       		.byte	0x7
 2152 0868 3A       		.byte	0x3a
 2153 0869 92080000 		.4byte	0x892
 2154 086d 14       		.uleb128 0x14
 2155 086e B8120000 		.4byte	.LASF237
 2156 0872 07       		.byte	0x7
 2157 0873 3D       		.byte	0x3d
 2158 0874 4F070000 		.4byte	0x74f
 2159 0878 00       		.byte	0
 2160 0879 14       		.uleb128 0x14
 2161 087a 87120000 		.4byte	.LASF245
 2162 087e 07       		.byte	0x7
 2163 087f 43       		.byte	0x43
 2164 0880 6B000000 		.4byte	0x6b
 2165 0884 02       		.byte	0x2
 2166 0885 14       		.uleb128 0x14
 2167 0886 84080000 		.4byte	.LASF246
 2168 088a 07       		.byte	0x7
 2169 088b 46       		.byte	0x46
 2170 088c 43070000 		.4byte	0x743
 2171 0890 03       		.byte	0x3
 2172 0891 00       		.byte	0
 2173 0892 11       		.uleb128 0x11
 2174 0893 E5070000 		.4byte	.LASF247
 2175 0897 07       		.byte	0x7
 2176 0898 48       		.byte	0x48
 2177 0899 65080000 		.4byte	0x865
 2178 089d 13       		.uleb128 0x13
 2179 089e 10       		.byte	0x10
 2180 089f 07       		.byte	0x7
 2181 08a0 8A       		.byte	0x8a
 2182 08a1 BE080000 		.4byte	0x8be
 2183 08a5 14       		.uleb128 0x14
 2184 08a6 05190000 		.4byte	.LASF239
 2185 08aa 07       		.byte	0x7
 2186 08ab 8D       		.byte	0x8d
ARM GAS  C:\Users\TTSS\AppData\Local\Temp\ccySleeg.s 			page 78


 2187 08ac 7F070000 		.4byte	0x77f
 2188 08b0 00       		.byte	0
 2189 08b1 14       		.uleb128 0x14
 2190 08b2 F7180000 		.4byte	.LASF248
 2191 08b6 07       		.byte	0x7
 2192 08b7 90       		.byte	0x90
 2193 08b8 EC070000 		.4byte	0x7ec
 2194 08bc 04       		.byte	0x4
 2195 08bd 00       		.byte	0
 2196 08be 11       		.uleb128 0x11
 2197 08bf CB120000 		.4byte	.LASF249
 2198 08c3 07       		.byte	0x7
 2199 08c4 92       		.byte	0x92
 2200 08c5 9D080000 		.4byte	0x89d
 2201 08c9 04       		.uleb128 0x4
 2202 08ca 3C030000 		.4byte	.LASF250
 2203 08ce 08       		.byte	0x8
 2204 08cf 0302     		.2byte	0x203
 2205 08d1 B9000000 		.4byte	0xb9
 2206 08d5 15       		.uleb128 0x15
 2207 08d6 8502     		.2byte	0x285
 2208 08d8 09       		.byte	0x9
 2209 08d9 9C       		.byte	0x9c
 2210 08da 12090000 		.4byte	0x912
 2211 08de 14       		.uleb128 0x14
 2212 08df FA0C0000 		.4byte	.LASF251
 2213 08e3 09       		.byte	0x9
 2214 08e4 9F       		.byte	0x9f
 2215 08e5 12090000 		.4byte	0x912
 2216 08e9 00       		.byte	0
 2217 08ea 16       		.uleb128 0x16
 2218 08eb 1E0C0000 		.4byte	.LASF252
 2219 08ef 09       		.byte	0x9
 2220 08f0 A2       		.byte	0xa2
 2221 08f1 23090000 		.4byte	0x923
 2222 08f5 7902     		.2byte	0x279
 2223 08f7 16       		.uleb128 0x16
 2224 08f8 F21B0000 		.4byte	.LASF253
 2225 08fc 09       		.byte	0x9
 2226 08fd A5       		.byte	0xa5
 2227 08fe 6B000000 		.4byte	0x6b
 2228 0902 8302     		.2byte	0x283
 2229 0904 16       		.uleb128 0x16
 2230 0905 860B0000 		.4byte	.LASF254
 2231 0909 09       		.byte	0x9
 2232 090a A8       		.byte	0xa8
 2233 090b 6B000000 		.4byte	0x6b
 2234 090f 8402     		.2byte	0x284
 2235 0911 00       		.byte	0
 2236 0912 0E       		.uleb128 0xe
 2237 0913 6B000000 		.4byte	0x6b
 2238 0917 23090000 		.4byte	0x923
 2239 091b 17       		.uleb128 0x17
 2240 091c B0000000 		.4byte	0xb0
 2241 0920 7802     		.2byte	0x278
 2242 0922 00       		.byte	0
 2243 0923 0E       		.uleb128 0xe
ARM GAS  C:\Users\TTSS\AppData\Local\Temp\ccySleeg.s 			page 79


 2244 0924 6B000000 		.4byte	0x6b
 2245 0928 39090000 		.4byte	0x939
 2246 092c 0F       		.uleb128 0xf
 2247 092d B0000000 		.4byte	0xb0
 2248 0931 04       		.byte	0x4
 2249 0932 0F       		.uleb128 0xf
 2250 0933 B0000000 		.4byte	0xb0
 2251 0937 01       		.byte	0x1
 2252 0938 00       		.byte	0
 2253 0939 11       		.uleb128 0x11
 2254 093a 2B120000 		.4byte	.LASF255
 2255 093e 09       		.byte	0x9
 2256 093f A9       		.byte	0xa9
 2257 0940 D5080000 		.4byte	0x8d5
 2258 0944 0A       		.uleb128 0xa
 2259 0945 01       		.byte	0x1
 2260 0946 2C000000 		.4byte	0x2c
 2261 094a 0A       		.byte	0xa
 2262 094b 5A08     		.2byte	0x85a
 2263 094d 70090000 		.4byte	0x970
 2264 0951 0B       		.uleb128 0xb
 2265 0952 D1070000 		.4byte	.LASF256
 2266 0956 00       		.byte	0
 2267 0957 0B       		.uleb128 0xb
 2268 0958 DD0F0000 		.4byte	.LASF257
 2269 095c 01       		.byte	0x1
 2270 095d 0B       		.uleb128 0xb
 2271 095e 231F0000 		.4byte	.LASF258
 2272 0962 02       		.byte	0x2
 2273 0963 0B       		.uleb128 0xb
 2274 0964 21040000 		.4byte	.LASF259
 2275 0968 03       		.byte	0x3
 2276 0969 0B       		.uleb128 0xb
 2277 096a 191A0000 		.4byte	.LASF260
 2278 096e 04       		.byte	0x4
 2279 096f 00       		.byte	0
 2280 0970 04       		.uleb128 0x4
 2281 0971 831B0000 		.4byte	.LASF261
 2282 0975 0A       		.byte	0xa
 2283 0976 6808     		.2byte	0x868
 2284 0978 44090000 		.4byte	0x944
 2285 097c 0C       		.uleb128 0xc
 2286 097d 0C       		.byte	0xc
 2287 097e 0A       		.byte	0xa
 2288 097f A309     		.2byte	0x9a3
 2289 0981 D4090000 		.4byte	0x9d4
 2290 0985 0D       		.uleb128 0xd
 2291 0986 3B010000 		.4byte	.LASF262
 2292 098a 0A       		.byte	0xa
 2293 098b A609     		.2byte	0x9a6
 2294 098d 4F070000 		.4byte	0x74f
 2295 0991 00       		.byte	0
 2296 0992 0D       		.uleb128 0xd
 2297 0993 C5110000 		.4byte	.LASF263
 2298 0997 0A       		.byte	0xa
 2299 0998 A809     		.2byte	0x9a8
 2300 099a 4F070000 		.4byte	0x74f
ARM GAS  C:\Users\TTSS\AppData\Local\Temp\ccySleeg.s 			page 80


 2301 099e 02       		.byte	0x2
 2302 099f 0D       		.uleb128 0xd
 2303 09a0 49160000 		.4byte	.LASF264
 2304 09a4 0A       		.byte	0xa
 2305 09a5 AA09     		.2byte	0x9aa
 2306 09a7 4F070000 		.4byte	0x74f
 2307 09ab 04       		.byte	0x4
 2308 09ac 0D       		.uleb128 0xd
 2309 09ad E7140000 		.4byte	.LASF265
 2310 09b1 0A       		.byte	0xa
 2311 09b2 AD09     		.2byte	0x9ad
 2312 09b4 4F070000 		.4byte	0x74f
 2313 09b8 06       		.byte	0x6
 2314 09b9 0D       		.uleb128 0xd
 2315 09ba 961C0000 		.4byte	.LASF266
 2316 09be 0A       		.byte	0xa
 2317 09bf AF09     		.2byte	0x9af
 2318 09c1 4F070000 		.4byte	0x74f
 2319 09c5 08       		.byte	0x8
 2320 09c6 0D       		.uleb128 0xd
 2321 09c7 6A060000 		.4byte	.LASF267
 2322 09cb 0A       		.byte	0xa
 2323 09cc B109     		.2byte	0x9b1
 2324 09ce 4F070000 		.4byte	0x74f
 2325 09d2 0A       		.byte	0xa
 2326 09d3 00       		.byte	0
 2327 09d4 04       		.uleb128 0x4
 2328 09d5 A7180000 		.4byte	.LASF268
 2329 09d9 0A       		.byte	0xa
 2330 09da B209     		.2byte	0x9b2
 2331 09dc 7C090000 		.4byte	0x97c
 2332 09e0 18       		.uleb128 0x18
 2333 09e1 72000000 		.4byte	.LASF271
 2334 09e5 01       		.byte	0x1
 2335 09e6 F9       		.byte	0xf9
 2336 09e7 00000000 		.4byte	.LFB2
 2337 09eb 74000000 		.4byte	.LFE2-.LFB2
 2338 09ef 01       		.uleb128 0x1
 2339 09f0 9C       		.byte	0x9c
 2340 09f1 2B0A0000 		.4byte	0xa2b
 2341 09f5 19       		.uleb128 0x19
 2342 09f6 B9000000 		.4byte	.LASF273
 2343 09fa 01       		.byte	0x1
 2344 09fb F9       		.byte	0xf9
 2345 09fc 2B0A0000 		.4byte	0xa2b
 2346 0a00 02       		.uleb128 0x2
 2347 0a01 91       		.byte	0x91
 2348 0a02 64       		.sleb128 -28
 2349 0a03 1A       		.uleb128 0x1a
 2350 0a04 B51E0000 		.4byte	.LASF269
 2351 0a08 01       		.byte	0x1
 2352 0a09 FB       		.byte	0xfb
 2353 0a0a 43070000 		.4byte	0x743
 2354 0a0e 02       		.uleb128 0x2
 2355 0a0f 91       		.byte	0x91
 2356 0a10 6F       		.sleb128 -17
 2357 0a11 1B       		.uleb128 0x1b
ARM GAS  C:\Users\TTSS\AppData\Local\Temp\ccySleeg.s 			page 81


 2358 0a12 30000000 		.4byte	.LBB2
 2359 0a16 2C000000 		.4byte	.LBE2-.LBB2
 2360 0a1a 1C       		.uleb128 0x1c
 2361 0a1b A0130000 		.4byte	.LASF270
 2362 0a1f 01       		.byte	0x1
 2363 0a20 B501     		.2byte	0x1b5
 2364 0a22 92080000 		.4byte	0x892
 2365 0a26 02       		.uleb128 0x2
 2366 0a27 91       		.byte	0x91
 2367 0a28 68       		.sleb128 -24
 2368 0a29 00       		.byte	0
 2369 0a2a 00       		.byte	0
 2370 0a2b 07       		.uleb128 0x7
 2371 0a2c 04       		.byte	0x4
 2372 0a2d BE080000 		.4byte	0x8be
 2373 0a31 1D       		.uleb128 0x1d
 2374 0a32 40120000 		.4byte	.LASF272
 2375 0a36 01       		.byte	0x1
 2376 0a37 D201     		.2byte	0x1d2
 2377 0a39 00000000 		.4byte	.LFB3
 2378 0a3d 10000000 		.4byte	.LFE3-.LFB3
 2379 0a41 01       		.uleb128 0x1
 2380 0a42 9C       		.byte	0x9c
 2381 0a43 570A0000 		.4byte	0xa57
 2382 0a47 1E       		.uleb128 0x1e
 2383 0a48 B9000000 		.4byte	.LASF273
 2384 0a4c 01       		.byte	0x1
 2385 0a4d D201     		.2byte	0x1d2
 2386 0a4f 570A0000 		.4byte	0xa57
 2387 0a53 02       		.uleb128 0x2
 2388 0a54 91       		.byte	0x91
 2389 0a55 74       		.sleb128 -12
 2390 0a56 00       		.byte	0
 2391 0a57 07       		.uleb128 0x7
 2392 0a58 04       		.byte	0x4
 2393 0a59 5D0A0000 		.4byte	0xa5d
 2394 0a5d 1F       		.uleb128 0x1f
 2395 0a5e 7F070000 		.4byte	0x77f
 2396 0a62 20       		.uleb128 0x20
 2397 0a63 21110000 		.4byte	.LASF275
 2398 0a67 01       		.byte	0x1
 2399 0a68 4B05     		.2byte	0x54b
 2400 0a6a 00000000 		.4byte	.LFB4
 2401 0a6e 1C000000 		.4byte	.LFE4-.LFB4
 2402 0a72 01       		.uleb128 0x1
 2403 0a73 9C       		.byte	0x9c
 2404 0a74 1D       		.uleb128 0x1d
 2405 0a75 10190000 		.4byte	.LASF274
 2406 0a79 01       		.byte	0x1
 2407 0a7a 8305     		.2byte	0x583
 2408 0a7c 00000000 		.4byte	.LFB5
 2409 0a80 10000000 		.4byte	.LFE5-.LFB5
 2410 0a84 01       		.uleb128 0x1
 2411 0a85 9C       		.byte	0x9c
 2412 0a86 9A0A0000 		.4byte	0xa9a
 2413 0a8a 1E       		.uleb128 0x1e
 2414 0a8b B9000000 		.4byte	.LASF273
ARM GAS  C:\Users\TTSS\AppData\Local\Temp\ccySleeg.s 			page 82


 2415 0a8f 01       		.byte	0x1
 2416 0a90 8305     		.2byte	0x583
 2417 0a92 9A0A0000 		.4byte	0xa9a
 2418 0a96 02       		.uleb128 0x2
 2419 0a97 91       		.byte	0x91
 2420 0a98 74       		.sleb128 -12
 2421 0a99 00       		.byte	0
 2422 0a9a 07       		.uleb128 0x7
 2423 0a9b 04       		.byte	0x4
 2424 0a9c A00A0000 		.4byte	0xaa0
 2425 0aa0 1F       		.uleb128 0x1f
 2426 0aa1 07040000 		.4byte	0x407
 2427 0aa5 20       		.uleb128 0x20
 2428 0aa6 AE100000 		.4byte	.LASF276
 2429 0aaa 01       		.byte	0x1
 2430 0aab BB05     		.2byte	0x5bb
 2431 0aad 00000000 		.4byte	.LFB6
 2432 0ab1 0A000000 		.4byte	.LFE6-.LFB6
 2433 0ab5 01       		.uleb128 0x1
 2434 0ab6 9C       		.byte	0x9c
 2435 0ab7 21       		.uleb128 0x21
 2436 0ab8 2A190000 		.4byte	.LASF305
 2437 0abc 01       		.byte	0x1
 2438 0abd E705     		.2byte	0x5e7
 2439 0abf 6B000000 		.4byte	0x6b
 2440 0ac3 00000000 		.4byte	.LFB7
 2441 0ac7 60000000 		.4byte	.LFE7-.LFB7
 2442 0acb 01       		.uleb128 0x1
 2443 0acc 9C       		.byte	0x9c
 2444 0acd FD0A0000 		.4byte	0xafd
 2445 0ad1 1E       		.uleb128 0x1e
 2446 0ad2 5C0A0000 		.4byte	.LASF277
 2447 0ad6 01       		.byte	0x1
 2448 0ad7 E705     		.2byte	0x5e7
 2449 0ad9 FD0A0000 		.4byte	0xafd
 2450 0add 02       		.uleb128 0x2
 2451 0ade 91       		.byte	0x91
 2452 0adf 6C       		.sleb128 -20
 2453 0ae0 22       		.uleb128 0x22
 2454 0ae1 6900     		.ascii	"i\000"
 2455 0ae3 01       		.byte	0x1
 2456 0ae4 E905     		.2byte	0x5e9
 2457 0ae6 6B000000 		.4byte	0x6b
 2458 0aea 02       		.uleb128 0x2
 2459 0aeb 91       		.byte	0x91
 2460 0aec 77       		.sleb128 -9
 2461 0aed 1C       		.uleb128 0x1c
 2462 0aee 14040000 		.4byte	.LASF278
 2463 0af2 01       		.byte	0x1
 2464 0af3 EA05     		.2byte	0x5ea
 2465 0af5 6B000000 		.4byte	0x6b
 2466 0af9 02       		.uleb128 0x2
 2467 0afa 91       		.byte	0x91
 2468 0afb 76       		.sleb128 -10
 2469 0afc 00       		.byte	0
 2470 0afd 07       		.uleb128 0x7
 2471 0afe 04       		.byte	0x4
ARM GAS  C:\Users\TTSS\AppData\Local\Temp\ccySleeg.s 			page 83


 2472 0aff 030B0000 		.4byte	0xb03
 2473 0b03 1F       		.uleb128 0x1f
 2474 0b04 D0030000 		.4byte	0x3d0
 2475 0b08 1D       		.uleb128 0x1d
 2476 0b09 9A1A0000 		.4byte	.LASF279
 2477 0b0d 01       		.byte	0x1
 2478 0b0e 0B06     		.2byte	0x60b
 2479 0b10 00000000 		.4byte	.LFB8
 2480 0b14 14000000 		.4byte	.LFE8-.LFB8
 2481 0b18 01       		.uleb128 0x1
 2482 0b19 9C       		.byte	0x9c
 2483 0b1a 2E0B0000 		.4byte	0xb2e
 2484 0b1e 1E       		.uleb128 0x1e
 2485 0b1f E61C0000 		.4byte	.LASF280
 2486 0b23 01       		.byte	0x1
 2487 0b24 0B06     		.2byte	0x60b
 2488 0b26 77000000 		.4byte	0x77
 2489 0b2a 02       		.uleb128 0x2
 2490 0b2b 91       		.byte	0x91
 2491 0b2c 76       		.sleb128 -10
 2492 0b2d 00       		.byte	0
 2493 0b2e 1D       		.uleb128 0x1d
 2494 0b2f 960B0000 		.4byte	.LASF281
 2495 0b33 01       		.byte	0x1
 2496 0b34 2506     		.2byte	0x625
 2497 0b36 00000000 		.4byte	.LFB9
 2498 0b3a 10000000 		.4byte	.LFE9-.LFB9
 2499 0b3e 01       		.uleb128 0x1
 2500 0b3f 9C       		.byte	0x9c
 2501 0b40 540B0000 		.4byte	0xb54
 2502 0b44 1E       		.uleb128 0x1e
 2503 0b45 B9000000 		.4byte	.LASF273
 2504 0b49 01       		.byte	0x1
 2505 0b4a 2506     		.2byte	0x625
 2506 0b4c 540B0000 		.4byte	0xb54
 2507 0b50 02       		.uleb128 0x2
 2508 0b51 91       		.byte	0x91
 2509 0b52 74       		.sleb128 -12
 2510 0b53 00       		.byte	0
 2511 0b54 07       		.uleb128 0x7
 2512 0b55 04       		.byte	0x4
 2513 0b56 5A0B0000 		.4byte	0xb5a
 2514 0b5a 1F       		.uleb128 0x1f
 2515 0b5b 85050000 		.4byte	0x585
 2516 0b5f 23       		.uleb128 0x23
 2517 0b60 14070000 		.4byte	.LASF306
 2518 0b64 01       		.byte	0x1
 2519 0b65 3F06     		.2byte	0x63f
 2520 0b67 00000000 		.4byte	.LFB10
 2521 0b6b 68030000 		.4byte	.LFE10-.LFB10
 2522 0b6f 01       		.uleb128 0x1
 2523 0b70 9C       		.byte	0x9c
 2524 0b71 3D0C0000 		.4byte	0xc3d
 2525 0b75 1E       		.uleb128 0x1e
 2526 0b76 8D1D0000 		.4byte	.LASF282
 2527 0b7a 01       		.byte	0x1
 2528 0b7b 3F06     		.2byte	0x63f
ARM GAS  C:\Users\TTSS\AppData\Local\Temp\ccySleeg.s 			page 84


 2529 0b7d 6B000000 		.4byte	0x6b
 2530 0b81 02       		.uleb128 0x2
 2531 0b82 91       		.byte	0x91
 2532 0b83 5F       		.sleb128 -33
 2533 0b84 1E       		.uleb128 0x1e
 2534 0b85 B9000000 		.4byte	.LASF273
 2535 0b89 01       		.byte	0x1
 2536 0b8a 3F06     		.2byte	0x63f
 2537 0b8c B7000000 		.4byte	0xb7
 2538 0b90 02       		.uleb128 0x2
 2539 0b91 91       		.byte	0x91
 2540 0b92 58       		.sleb128 -40
 2541 0b93 24       		.uleb128 0x24
 2542 0b94 32000000 		.4byte	.LBB3
 2543 0b98 3E000000 		.4byte	.LBE3-.LBB3
 2544 0b9c B00B0000 		.4byte	0xbb0
 2545 0ba0 1C       		.uleb128 0x1c
 2546 0ba1 01180000 		.4byte	.LASF283
 2547 0ba5 01       		.byte	0x1
 2548 0ba6 4C06     		.2byte	0x64c
 2549 0ba8 2D030000 		.4byte	0x32d
 2550 0bac 02       		.uleb128 0x2
 2551 0bad 91       		.byte	0x91
 2552 0bae 68       		.sleb128 -24
 2553 0baf 00       		.byte	0
 2554 0bb0 24       		.uleb128 0x24
 2555 0bb1 A2000000 		.4byte	.LBB4
 2556 0bb5 52000000 		.4byte	.LBE4-.LBB4
 2557 0bb9 CD0B0000 		.4byte	0xbcd
 2558 0bbd 1C       		.uleb128 0x1c
 2559 0bbe 031D0000 		.4byte	.LASF284
 2560 0bc2 01       		.byte	0x1
 2561 0bc3 7506     		.2byte	0x675
 2562 0bc5 83000000 		.4byte	0x83
 2563 0bc9 02       		.uleb128 0x2
 2564 0bca 91       		.byte	0x91
 2565 0bcb 70       		.sleb128 -16
 2566 0bcc 00       		.byte	0
 2567 0bcd 24       		.uleb128 0x24
 2568 0bce 16010000 		.4byte	.LBB5
 2569 0bd2 1A000000 		.4byte	.LBE5-.LBB5
 2570 0bd6 EA0B0000 		.4byte	0xbea
 2571 0bda 1C       		.uleb128 0x1c
 2572 0bdb 321A0000 		.4byte	.LASF285
 2573 0bdf 01       		.byte	0x1
 2574 0be0 8D06     		.2byte	0x68d
 2575 0be2 3D0C0000 		.4byte	0xc3d
 2576 0be6 02       		.uleb128 0x2
 2577 0be7 91       		.byte	0x91
 2578 0be8 64       		.sleb128 -28
 2579 0be9 00       		.byte	0
 2580 0bea 24       		.uleb128 0x24
 2581 0beb 4C010000 		.4byte	.LBB6
 2582 0bef 3E000000 		.4byte	.LBE6-.LBB6
 2583 0bf3 230C0000 		.4byte	0xc23
 2584 0bf7 1C       		.uleb128 0x1c
 2585 0bf8 58020000 		.4byte	.LASF286
ARM GAS  C:\Users\TTSS\AppData\Local\Temp\ccySleeg.s 			page 85


 2586 0bfc 01       		.byte	0x1
 2587 0bfd A506     		.2byte	0x6a5
 2588 0bff 4D0C0000 		.4byte	0xc4d
 2589 0c03 02       		.uleb128 0x2
 2590 0c04 91       		.byte	0x91
 2591 0c05 6C       		.sleb128 -20
 2592 0c06 1B       		.uleb128 0x1b
 2593 0c07 62010000 		.4byte	.LBB7
 2594 0c0b 18000000 		.4byte	.LBE7-.LBB7
 2595 0c0f 1C       		.uleb128 0x1c
 2596 0c10 C7130000 		.4byte	.LASF287
 2597 0c14 01       		.byte	0x1
 2598 0c15 AC06     		.2byte	0x6ac
 2599 0c17 59080000 		.4byte	0x859
 2600 0c1b 05       		.uleb128 0x5
 2601 0c1c 03       		.byte	0x3
 2602 0c1d 00000000 		.4byte	gPrepWriteReqMem.6651
 2603 0c21 00       		.byte	0
 2604 0c22 00       		.byte	0
 2605 0c23 1B       		.uleb128 0x1b
 2606 0c24 92020000 		.4byte	.LBB8
 2607 0c28 38000000 		.4byte	.LBE8-.LBB8
 2608 0c2c 1C       		.uleb128 0x1c
 2609 0c2d F60F0000 		.4byte	.LASF288
 2610 0c31 01       		.byte	0x1
 2611 0c32 8B07     		.2byte	0x78b
 2612 0c34 77000000 		.4byte	0x77
 2613 0c38 02       		.uleb128 0x2
 2614 0c39 91       		.byte	0x91
 2615 0c3a 76       		.sleb128 -10
 2616 0c3b 00       		.byte	0
 2617 0c3c 00       		.byte	0
 2618 0c3d 0E       		.uleb128 0xe
 2619 0c3e 6B000000 		.4byte	0x6b
 2620 0c42 4D0C0000 		.4byte	0xc4d
 2621 0c46 0F       		.uleb128 0xf
 2622 0c47 B0000000 		.4byte	0xb0
 2623 0c4b 01       		.byte	0x1
 2624 0c4c 00       		.byte	0
 2625 0c4d 07       		.uleb128 0x7
 2626 0c4e 04       		.byte	0x4
 2627 0c4f 90030000 		.4byte	0x390
 2628 0c53 25       		.uleb128 0x25
 2629 0c54 EB010000 		.4byte	.LASF289
 2630 0c58 08       		.byte	0x8
 2631 0c59 9C02     		.2byte	0x29c
 2632 0c5b C9080000 		.4byte	0x8c9
 2633 0c5f 0E       		.uleb128 0xe
 2634 0c60 6B000000 		.4byte	0x6b
 2635 0c64 700C0000 		.4byte	0xc70
 2636 0c68 17       		.uleb128 0x17
 2637 0c69 B0000000 		.4byte	0xb0
 2638 0c6d DF0A     		.2byte	0xadf
 2639 0c6f 00       		.byte	0
 2640 0c70 25       		.uleb128 0x25
 2641 0c71 461C0000 		.4byte	.LASF290
 2642 0c75 08       		.byte	0x8
ARM GAS  C:\Users\TTSS\AppData\Local\Temp\ccySleeg.s 			page 86


 2643 0c76 A102     		.2byte	0x2a1
 2644 0c78 5F0C0000 		.4byte	0xc5f
 2645 0c7c 26       		.uleb128 0x26
 2646 0c7d 6A0A0000 		.4byte	.LASF291
 2647 0c81 01       		.byte	0x1
 2648 0c82 3D       		.byte	0x3d
 2649 0c83 A4000000 		.4byte	0xa4
 2650 0c87 05       		.uleb128 0x5
 2651 0c88 03       		.byte	0x3
 2652 0c89 00000000 		.4byte	cyBle_eventHandlerFlag
 2653 0c8d 25       		.uleb128 0x25
 2654 0c8e C9050000 		.4byte	.LASF292
 2655 0c92 08       		.byte	0x8
 2656 0c93 A402     		.2byte	0x2a4
 2657 0c95 D0030000 		.4byte	0x3d0
 2658 0c99 25       		.uleb128 0x25
 2659 0c9a 040C0000 		.4byte	.LASF293
 2660 0c9e 08       		.byte	0x8
 2661 0c9f A502     		.2byte	0x2a5
 2662 0ca1 A50C0000 		.4byte	0xca5
 2663 0ca5 07       		.uleb128 0x7
 2664 0ca6 04       		.byte	0x4
 2665 0ca7 D0030000 		.4byte	0x3d0
 2666 0cab 26       		.uleb128 0x26
 2667 0cac 671A0000 		.4byte	.LASF294
 2668 0cb0 01       		.byte	0x1
 2669 0cb1 E1       		.byte	0xe1
 2670 0cb2 3B050000 		.4byte	0x53b
 2671 0cb6 05       		.uleb128 0x5
 2672 0cb7 03       		.byte	0x3
 2673 0cb8 00000000 		.4byte	cyBle_authInfo
 2674 0cbc 27       		.uleb128 0x27
 2675 0cbd 581D0000 		.4byte	.LASF295
 2676 0cc1 09       		.byte	0x9
 2677 0cc2 EC       		.byte	0xec
 2678 0cc3 3D0C0000 		.4byte	0xc3d
 2679 0cc7 27       		.uleb128 0x27
 2680 0cc8 CA100000 		.4byte	.LASF296
 2681 0ccc 09       		.byte	0x9
 2682 0ccd F4       		.byte	0xf4
 2683 0cce D20C0000 		.4byte	0xcd2
 2684 0cd2 1F       		.uleb128 0x1f
 2685 0cd3 39090000 		.4byte	0x939
 2686 0cd7 25       		.uleb128 0x25
 2687 0cd8 E1190000 		.4byte	.LASF297
 2688 0cdc 0A       		.byte	0xa
 2689 0cdd B30A     		.2byte	0xab3
 2690 0cdf 70090000 		.4byte	0x970
 2691 0ce3 26       		.uleb128 0x26
 2692 0ce4 600B0000 		.4byte	.LASF298
 2693 0ce8 01       		.byte	0x1
 2694 0ce9 3B       		.byte	0x3b
 2695 0cea 7F070000 		.4byte	0x77f
 2696 0cee 05       		.uleb128 0x5
 2697 0cef 03       		.byte	0x3
 2698 0cf0 00000000 		.4byte	cyBle_connHandle
 2699 0cf4 26       		.uleb128 0x26
ARM GAS  C:\Users\TTSS\AppData\Local\Temp\ccySleeg.s 			page 87


 2700 0cf5 CC0F0000 		.4byte	.LASF299
 2701 0cf9 01       		.byte	0x1
 2702 0cfa 3E       		.byte	0x3e
 2703 0cfb A4000000 		.4byte	0xa4
 2704 0cff 05       		.uleb128 0x5
 2705 0d00 03       		.byte	0x3
 2706 0d01 00000000 		.4byte	cyBle_busyStatus
 2707 0d05 26       		.uleb128 0x26
 2708 0d06 550B0000 		.4byte	.LASF300
 2709 0d0a 01       		.byte	0x1
 2710 0d0b 40       		.byte	0x40
 2711 0d0c 160D0000 		.4byte	0xd16
 2712 0d10 05       		.uleb128 0x5
 2713 0d11 03       		.byte	0x3
 2714 0d12 00000000 		.4byte	cyBle_gaps
 2715 0d16 1F       		.uleb128 0x1f
 2716 0d17 D4090000 		.4byte	0x9d4
 2717 0d1b 26       		.uleb128 0x26
 2718 0d1c 5B1C0000 		.4byte	.LASF301
 2719 0d20 01       		.byte	0x1
 2720 0d21 4C       		.byte	0x4c
 2721 0d22 6B000000 		.4byte	0x6b
 2722 0d26 05       		.uleb128 0x5
 2723 0d27 03       		.byte	0x3
 2724 0d28 00000000 		.4byte	cyBle_advertisingIntervalType
 2725 0d2c 00       		.byte	0
 2726              		.section	.debug_abbrev,"",%progbits
 2727              	.Ldebug_abbrev0:
 2728 0000 01       		.uleb128 0x1
 2729 0001 11       		.uleb128 0x11
 2730 0002 01       		.byte	0x1
 2731 0003 25       		.uleb128 0x25
 2732 0004 0E       		.uleb128 0xe
 2733 0005 13       		.uleb128 0x13
 2734 0006 0B       		.uleb128 0xb
 2735 0007 03       		.uleb128 0x3
 2736 0008 0E       		.uleb128 0xe
 2737 0009 1B       		.uleb128 0x1b
 2738 000a 0E       		.uleb128 0xe
 2739 000b 55       		.uleb128 0x55
 2740 000c 17       		.uleb128 0x17
 2741 000d 11       		.uleb128 0x11
 2742 000e 01       		.uleb128 0x1
 2743 000f 10       		.uleb128 0x10
 2744 0010 17       		.uleb128 0x17
 2745 0011 00       		.byte	0
 2746 0012 00       		.byte	0
 2747 0013 02       		.uleb128 0x2
 2748 0014 24       		.uleb128 0x24
 2749 0015 00       		.byte	0
 2750 0016 0B       		.uleb128 0xb
 2751 0017 0B       		.uleb128 0xb
 2752 0018 3E       		.uleb128 0x3e
 2753 0019 0B       		.uleb128 0xb
 2754 001a 03       		.uleb128 0x3
 2755 001b 0E       		.uleb128 0xe
 2756 001c 00       		.byte	0
ARM GAS  C:\Users\TTSS\AppData\Local\Temp\ccySleeg.s 			page 88


 2757 001d 00       		.byte	0
 2758 001e 03       		.uleb128 0x3
 2759 001f 24       		.uleb128 0x24
 2760 0020 00       		.byte	0
 2761 0021 0B       		.uleb128 0xb
 2762 0022 0B       		.uleb128 0xb
 2763 0023 3E       		.uleb128 0x3e
 2764 0024 0B       		.uleb128 0xb
 2765 0025 03       		.uleb128 0x3
 2766 0026 08       		.uleb128 0x8
 2767 0027 00       		.byte	0
 2768 0028 00       		.byte	0
 2769 0029 04       		.uleb128 0x4
 2770 002a 16       		.uleb128 0x16
 2771 002b 00       		.byte	0
 2772 002c 03       		.uleb128 0x3
 2773 002d 0E       		.uleb128 0xe
 2774 002e 3A       		.uleb128 0x3a
 2775 002f 0B       		.uleb128 0xb
 2776 0030 3B       		.uleb128 0x3b
 2777 0031 05       		.uleb128 0x5
 2778 0032 49       		.uleb128 0x49
 2779 0033 13       		.uleb128 0x13
 2780 0034 00       		.byte	0
 2781 0035 00       		.byte	0
 2782 0036 05       		.uleb128 0x5
 2783 0037 35       		.uleb128 0x35
 2784 0038 00       		.byte	0
 2785 0039 49       		.uleb128 0x49
 2786 003a 13       		.uleb128 0x13
 2787 003b 00       		.byte	0
 2788 003c 00       		.byte	0
 2789 003d 06       		.uleb128 0x6
 2790 003e 0F       		.uleb128 0xf
 2791 003f 00       		.byte	0
 2792 0040 0B       		.uleb128 0xb
 2793 0041 0B       		.uleb128 0xb
 2794 0042 00       		.byte	0
 2795 0043 00       		.byte	0
 2796 0044 07       		.uleb128 0x7
 2797 0045 0F       		.uleb128 0xf
 2798 0046 00       		.byte	0
 2799 0047 0B       		.uleb128 0xb
 2800 0048 0B       		.uleb128 0xb
 2801 0049 49       		.uleb128 0x49
 2802 004a 13       		.uleb128 0x13
 2803 004b 00       		.byte	0
 2804 004c 00       		.byte	0
 2805 004d 08       		.uleb128 0x8
 2806 004e 15       		.uleb128 0x15
 2807 004f 01       		.byte	0x1
 2808 0050 27       		.uleb128 0x27
 2809 0051 19       		.uleb128 0x19
 2810 0052 01       		.uleb128 0x1
 2811 0053 13       		.uleb128 0x13
 2812 0054 00       		.byte	0
 2813 0055 00       		.byte	0
ARM GAS  C:\Users\TTSS\AppData\Local\Temp\ccySleeg.s 			page 89


 2814 0056 09       		.uleb128 0x9
 2815 0057 05       		.uleb128 0x5
 2816 0058 00       		.byte	0
 2817 0059 49       		.uleb128 0x49
 2818 005a 13       		.uleb128 0x13
 2819 005b 00       		.byte	0
 2820 005c 00       		.byte	0
 2821 005d 0A       		.uleb128 0xa
 2822 005e 04       		.uleb128 0x4
 2823 005f 01       		.byte	0x1
 2824 0060 0B       		.uleb128 0xb
 2825 0061 0B       		.uleb128 0xb
 2826 0062 49       		.uleb128 0x49
 2827 0063 13       		.uleb128 0x13
 2828 0064 3A       		.uleb128 0x3a
 2829 0065 0B       		.uleb128 0xb
 2830 0066 3B       		.uleb128 0x3b
 2831 0067 05       		.uleb128 0x5
 2832 0068 01       		.uleb128 0x1
 2833 0069 13       		.uleb128 0x13
 2834 006a 00       		.byte	0
 2835 006b 00       		.byte	0
 2836 006c 0B       		.uleb128 0xb
 2837 006d 28       		.uleb128 0x28
 2838 006e 00       		.byte	0
 2839 006f 03       		.uleb128 0x3
 2840 0070 0E       		.uleb128 0xe
 2841 0071 1C       		.uleb128 0x1c
 2842 0072 0B       		.uleb128 0xb
 2843 0073 00       		.byte	0
 2844 0074 00       		.byte	0
 2845 0075 0C       		.uleb128 0xc
 2846 0076 13       		.uleb128 0x13
 2847 0077 01       		.byte	0x1
 2848 0078 0B       		.uleb128 0xb
 2849 0079 0B       		.uleb128 0xb
 2850 007a 3A       		.uleb128 0x3a
 2851 007b 0B       		.uleb128 0xb
 2852 007c 3B       		.uleb128 0x3b
 2853 007d 05       		.uleb128 0x5
 2854 007e 01       		.uleb128 0x1
 2855 007f 13       		.uleb128 0x13
 2856 0080 00       		.byte	0
 2857 0081 00       		.byte	0
 2858 0082 0D       		.uleb128 0xd
 2859 0083 0D       		.uleb128 0xd
 2860 0084 00       		.byte	0
 2861 0085 03       		.uleb128 0x3
 2862 0086 0E       		.uleb128 0xe
 2863 0087 3A       		.uleb128 0x3a
 2864 0088 0B       		.uleb128 0xb
 2865 0089 3B       		.uleb128 0x3b
 2866 008a 05       		.uleb128 0x5
 2867 008b 49       		.uleb128 0x49
 2868 008c 13       		.uleb128 0x13
 2869 008d 38       		.uleb128 0x38
 2870 008e 0B       		.uleb128 0xb
ARM GAS  C:\Users\TTSS\AppData\Local\Temp\ccySleeg.s 			page 90


 2871 008f 00       		.byte	0
 2872 0090 00       		.byte	0
 2873 0091 0E       		.uleb128 0xe
 2874 0092 01       		.uleb128 0x1
 2875 0093 01       		.byte	0x1
 2876 0094 49       		.uleb128 0x49
 2877 0095 13       		.uleb128 0x13
 2878 0096 01       		.uleb128 0x1
 2879 0097 13       		.uleb128 0x13
 2880 0098 00       		.byte	0
 2881 0099 00       		.byte	0
 2882 009a 0F       		.uleb128 0xf
 2883 009b 21       		.uleb128 0x21
 2884 009c 00       		.byte	0
 2885 009d 49       		.uleb128 0x49
 2886 009e 13       		.uleb128 0x13
 2887 009f 2F       		.uleb128 0x2f
 2888 00a0 0B       		.uleb128 0xb
 2889 00a1 00       		.byte	0
 2890 00a2 00       		.byte	0
 2891 00a3 10       		.uleb128 0x10
 2892 00a4 04       		.uleb128 0x4
 2893 00a5 01       		.byte	0x1
 2894 00a6 0B       		.uleb128 0xb
 2895 00a7 0B       		.uleb128 0xb
 2896 00a8 49       		.uleb128 0x49
 2897 00a9 13       		.uleb128 0x13
 2898 00aa 3A       		.uleb128 0x3a
 2899 00ab 0B       		.uleb128 0xb
 2900 00ac 3B       		.uleb128 0x3b
 2901 00ad 0B       		.uleb128 0xb
 2902 00ae 01       		.uleb128 0x1
 2903 00af 13       		.uleb128 0x13
 2904 00b0 00       		.byte	0
 2905 00b1 00       		.byte	0
 2906 00b2 11       		.uleb128 0x11
 2907 00b3 16       		.uleb128 0x16
 2908 00b4 00       		.byte	0
 2909 00b5 03       		.uleb128 0x3
 2910 00b6 0E       		.uleb128 0xe
 2911 00b7 3A       		.uleb128 0x3a
 2912 00b8 0B       		.uleb128 0xb
 2913 00b9 3B       		.uleb128 0x3b
 2914 00ba 0B       		.uleb128 0xb
 2915 00bb 49       		.uleb128 0x49
 2916 00bc 13       		.uleb128 0x13
 2917 00bd 00       		.byte	0
 2918 00be 00       		.byte	0
 2919 00bf 12       		.uleb128 0x12
 2920 00c0 0D       		.uleb128 0xd
 2921 00c1 00       		.byte	0
 2922 00c2 03       		.uleb128 0x3
 2923 00c3 08       		.uleb128 0x8
 2924 00c4 3A       		.uleb128 0x3a
 2925 00c5 0B       		.uleb128 0xb
 2926 00c6 3B       		.uleb128 0x3b
 2927 00c7 05       		.uleb128 0x5
ARM GAS  C:\Users\TTSS\AppData\Local\Temp\ccySleeg.s 			page 91


 2928 00c8 49       		.uleb128 0x49
 2929 00c9 13       		.uleb128 0x13
 2930 00ca 38       		.uleb128 0x38
 2931 00cb 0B       		.uleb128 0xb
 2932 00cc 00       		.byte	0
 2933 00cd 00       		.byte	0
 2934 00ce 13       		.uleb128 0x13
 2935 00cf 13       		.uleb128 0x13
 2936 00d0 01       		.byte	0x1
 2937 00d1 0B       		.uleb128 0xb
 2938 00d2 0B       		.uleb128 0xb
 2939 00d3 3A       		.uleb128 0x3a
 2940 00d4 0B       		.uleb128 0xb
 2941 00d5 3B       		.uleb128 0x3b
 2942 00d6 0B       		.uleb128 0xb
 2943 00d7 01       		.uleb128 0x1
 2944 00d8 13       		.uleb128 0x13
 2945 00d9 00       		.byte	0
 2946 00da 00       		.byte	0
 2947 00db 14       		.uleb128 0x14
 2948 00dc 0D       		.uleb128 0xd
 2949 00dd 00       		.byte	0
 2950 00de 03       		.uleb128 0x3
 2951 00df 0E       		.uleb128 0xe
 2952 00e0 3A       		.uleb128 0x3a
 2953 00e1 0B       		.uleb128 0xb
 2954 00e2 3B       		.uleb128 0x3b
 2955 00e3 0B       		.uleb128 0xb
 2956 00e4 49       		.uleb128 0x49
 2957 00e5 13       		.uleb128 0x13
 2958 00e6 38       		.uleb128 0x38
 2959 00e7 0B       		.uleb128 0xb
 2960 00e8 00       		.byte	0
 2961 00e9 00       		.byte	0
 2962 00ea 15       		.uleb128 0x15
 2963 00eb 13       		.uleb128 0x13
 2964 00ec 01       		.byte	0x1
 2965 00ed 0B       		.uleb128 0xb
 2966 00ee 05       		.uleb128 0x5
 2967 00ef 3A       		.uleb128 0x3a
 2968 00f0 0B       		.uleb128 0xb
 2969 00f1 3B       		.uleb128 0x3b
 2970 00f2 0B       		.uleb128 0xb
 2971 00f3 01       		.uleb128 0x1
 2972 00f4 13       		.uleb128 0x13
 2973 00f5 00       		.byte	0
 2974 00f6 00       		.byte	0
 2975 00f7 16       		.uleb128 0x16
 2976 00f8 0D       		.uleb128 0xd
 2977 00f9 00       		.byte	0
 2978 00fa 03       		.uleb128 0x3
 2979 00fb 0E       		.uleb128 0xe
 2980 00fc 3A       		.uleb128 0x3a
 2981 00fd 0B       		.uleb128 0xb
 2982 00fe 3B       		.uleb128 0x3b
 2983 00ff 0B       		.uleb128 0xb
 2984 0100 49       		.uleb128 0x49
ARM GAS  C:\Users\TTSS\AppData\Local\Temp\ccySleeg.s 			page 92


 2985 0101 13       		.uleb128 0x13
 2986 0102 38       		.uleb128 0x38
 2987 0103 05       		.uleb128 0x5
 2988 0104 00       		.byte	0
 2989 0105 00       		.byte	0
 2990 0106 17       		.uleb128 0x17
 2991 0107 21       		.uleb128 0x21
 2992 0108 00       		.byte	0
 2993 0109 49       		.uleb128 0x49
 2994 010a 13       		.uleb128 0x13
 2995 010b 2F       		.uleb128 0x2f
 2996 010c 05       		.uleb128 0x5
 2997 010d 00       		.byte	0
 2998 010e 00       		.byte	0
 2999 010f 18       		.uleb128 0x18
 3000 0110 2E       		.uleb128 0x2e
 3001 0111 01       		.byte	0x1
 3002 0112 03       		.uleb128 0x3
 3003 0113 0E       		.uleb128 0xe
 3004 0114 3A       		.uleb128 0x3a
 3005 0115 0B       		.uleb128 0xb
 3006 0116 3B       		.uleb128 0x3b
 3007 0117 0B       		.uleb128 0xb
 3008 0118 27       		.uleb128 0x27
 3009 0119 19       		.uleb128 0x19
 3010 011a 11       		.uleb128 0x11
 3011 011b 01       		.uleb128 0x1
 3012 011c 12       		.uleb128 0x12
 3013 011d 06       		.uleb128 0x6
 3014 011e 40       		.uleb128 0x40
 3015 011f 18       		.uleb128 0x18
 3016 0120 9642     		.uleb128 0x2116
 3017 0122 19       		.uleb128 0x19
 3018 0123 01       		.uleb128 0x1
 3019 0124 13       		.uleb128 0x13
 3020 0125 00       		.byte	0
 3021 0126 00       		.byte	0
 3022 0127 19       		.uleb128 0x19
 3023 0128 05       		.uleb128 0x5
 3024 0129 00       		.byte	0
 3025 012a 03       		.uleb128 0x3
 3026 012b 0E       		.uleb128 0xe
 3027 012c 3A       		.uleb128 0x3a
 3028 012d 0B       		.uleb128 0xb
 3029 012e 3B       		.uleb128 0x3b
 3030 012f 0B       		.uleb128 0xb
 3031 0130 49       		.uleb128 0x49
 3032 0131 13       		.uleb128 0x13
 3033 0132 02       		.uleb128 0x2
 3034 0133 18       		.uleb128 0x18
 3035 0134 00       		.byte	0
 3036 0135 00       		.byte	0
 3037 0136 1A       		.uleb128 0x1a
 3038 0137 34       		.uleb128 0x34
 3039 0138 00       		.byte	0
 3040 0139 03       		.uleb128 0x3
 3041 013a 0E       		.uleb128 0xe
ARM GAS  C:\Users\TTSS\AppData\Local\Temp\ccySleeg.s 			page 93


 3042 013b 3A       		.uleb128 0x3a
 3043 013c 0B       		.uleb128 0xb
 3044 013d 3B       		.uleb128 0x3b
 3045 013e 0B       		.uleb128 0xb
 3046 013f 49       		.uleb128 0x49
 3047 0140 13       		.uleb128 0x13
 3048 0141 02       		.uleb128 0x2
 3049 0142 18       		.uleb128 0x18
 3050 0143 00       		.byte	0
 3051 0144 00       		.byte	0
 3052 0145 1B       		.uleb128 0x1b
 3053 0146 0B       		.uleb128 0xb
 3054 0147 01       		.byte	0x1
 3055 0148 11       		.uleb128 0x11
 3056 0149 01       		.uleb128 0x1
 3057 014a 12       		.uleb128 0x12
 3058 014b 06       		.uleb128 0x6
 3059 014c 00       		.byte	0
 3060 014d 00       		.byte	0
 3061 014e 1C       		.uleb128 0x1c
 3062 014f 34       		.uleb128 0x34
 3063 0150 00       		.byte	0
 3064 0151 03       		.uleb128 0x3
 3065 0152 0E       		.uleb128 0xe
 3066 0153 3A       		.uleb128 0x3a
 3067 0154 0B       		.uleb128 0xb
 3068 0155 3B       		.uleb128 0x3b
 3069 0156 05       		.uleb128 0x5
 3070 0157 49       		.uleb128 0x49
 3071 0158 13       		.uleb128 0x13
 3072 0159 02       		.uleb128 0x2
 3073 015a 18       		.uleb128 0x18
 3074 015b 00       		.byte	0
 3075 015c 00       		.byte	0
 3076 015d 1D       		.uleb128 0x1d
 3077 015e 2E       		.uleb128 0x2e
 3078 015f 01       		.byte	0x1
 3079 0160 03       		.uleb128 0x3
 3080 0161 0E       		.uleb128 0xe
 3081 0162 3A       		.uleb128 0x3a
 3082 0163 0B       		.uleb128 0xb
 3083 0164 3B       		.uleb128 0x3b
 3084 0165 05       		.uleb128 0x5
 3085 0166 27       		.uleb128 0x27
 3086 0167 19       		.uleb128 0x19
 3087 0168 11       		.uleb128 0x11
 3088 0169 01       		.uleb128 0x1
 3089 016a 12       		.uleb128 0x12
 3090 016b 06       		.uleb128 0x6
 3091 016c 40       		.uleb128 0x40
 3092 016d 18       		.uleb128 0x18
 3093 016e 9742     		.uleb128 0x2117
 3094 0170 19       		.uleb128 0x19
 3095 0171 01       		.uleb128 0x1
 3096 0172 13       		.uleb128 0x13
 3097 0173 00       		.byte	0
 3098 0174 00       		.byte	0
ARM GAS  C:\Users\TTSS\AppData\Local\Temp\ccySleeg.s 			page 94


 3099 0175 1E       		.uleb128 0x1e
 3100 0176 05       		.uleb128 0x5
 3101 0177 00       		.byte	0
 3102 0178 03       		.uleb128 0x3
 3103 0179 0E       		.uleb128 0xe
 3104 017a 3A       		.uleb128 0x3a
 3105 017b 0B       		.uleb128 0xb
 3106 017c 3B       		.uleb128 0x3b
 3107 017d 05       		.uleb128 0x5
 3108 017e 49       		.uleb128 0x49
 3109 017f 13       		.uleb128 0x13
 3110 0180 02       		.uleb128 0x2
 3111 0181 18       		.uleb128 0x18
 3112 0182 00       		.byte	0
 3113 0183 00       		.byte	0
 3114 0184 1F       		.uleb128 0x1f
 3115 0185 26       		.uleb128 0x26
 3116 0186 00       		.byte	0
 3117 0187 49       		.uleb128 0x49
 3118 0188 13       		.uleb128 0x13
 3119 0189 00       		.byte	0
 3120 018a 00       		.byte	0
 3121 018b 20       		.uleb128 0x20
 3122 018c 2E       		.uleb128 0x2e
 3123 018d 00       		.byte	0
 3124 018e 03       		.uleb128 0x3
 3125 018f 0E       		.uleb128 0xe
 3126 0190 3A       		.uleb128 0x3a
 3127 0191 0B       		.uleb128 0xb
 3128 0192 3B       		.uleb128 0x3b
 3129 0193 05       		.uleb128 0x5
 3130 0194 27       		.uleb128 0x27
 3131 0195 19       		.uleb128 0x19
 3132 0196 11       		.uleb128 0x11
 3133 0197 01       		.uleb128 0x1
 3134 0198 12       		.uleb128 0x12
 3135 0199 06       		.uleb128 0x6
 3136 019a 40       		.uleb128 0x40
 3137 019b 18       		.uleb128 0x18
 3138 019c 9742     		.uleb128 0x2117
 3139 019e 19       		.uleb128 0x19
 3140 019f 00       		.byte	0
 3141 01a0 00       		.byte	0
 3142 01a1 21       		.uleb128 0x21
 3143 01a2 2E       		.uleb128 0x2e
 3144 01a3 01       		.byte	0x1
 3145 01a4 3F       		.uleb128 0x3f
 3146 01a5 19       		.uleb128 0x19
 3147 01a6 03       		.uleb128 0x3
 3148 01a7 0E       		.uleb128 0xe
 3149 01a8 3A       		.uleb128 0x3a
 3150 01a9 0B       		.uleb128 0xb
 3151 01aa 3B       		.uleb128 0x3b
 3152 01ab 05       		.uleb128 0x5
 3153 01ac 27       		.uleb128 0x27
 3154 01ad 19       		.uleb128 0x19
 3155 01ae 49       		.uleb128 0x49
ARM GAS  C:\Users\TTSS\AppData\Local\Temp\ccySleeg.s 			page 95


 3156 01af 13       		.uleb128 0x13
 3157 01b0 11       		.uleb128 0x11
 3158 01b1 01       		.uleb128 0x1
 3159 01b2 12       		.uleb128 0x12
 3160 01b3 06       		.uleb128 0x6
 3161 01b4 40       		.uleb128 0x40
 3162 01b5 18       		.uleb128 0x18
 3163 01b6 9742     		.uleb128 0x2117
 3164 01b8 19       		.uleb128 0x19
 3165 01b9 01       		.uleb128 0x1
 3166 01ba 13       		.uleb128 0x13
 3167 01bb 00       		.byte	0
 3168 01bc 00       		.byte	0
 3169 01bd 22       		.uleb128 0x22
 3170 01be 34       		.uleb128 0x34
 3171 01bf 00       		.byte	0
 3172 01c0 03       		.uleb128 0x3
 3173 01c1 08       		.uleb128 0x8
 3174 01c2 3A       		.uleb128 0x3a
 3175 01c3 0B       		.uleb128 0xb
 3176 01c4 3B       		.uleb128 0x3b
 3177 01c5 05       		.uleb128 0x5
 3178 01c6 49       		.uleb128 0x49
 3179 01c7 13       		.uleb128 0x13
 3180 01c8 02       		.uleb128 0x2
 3181 01c9 18       		.uleb128 0x18
 3182 01ca 00       		.byte	0
 3183 01cb 00       		.byte	0
 3184 01cc 23       		.uleb128 0x23
 3185 01cd 2E       		.uleb128 0x2e
 3186 01ce 01       		.byte	0x1
 3187 01cf 3F       		.uleb128 0x3f
 3188 01d0 19       		.uleb128 0x19
 3189 01d1 03       		.uleb128 0x3
 3190 01d2 0E       		.uleb128 0xe
 3191 01d3 3A       		.uleb128 0x3a
 3192 01d4 0B       		.uleb128 0xb
 3193 01d5 3B       		.uleb128 0x3b
 3194 01d6 05       		.uleb128 0x5
 3195 01d7 27       		.uleb128 0x27
 3196 01d8 19       		.uleb128 0x19
 3197 01d9 11       		.uleb128 0x11
 3198 01da 01       		.uleb128 0x1
 3199 01db 12       		.uleb128 0x12
 3200 01dc 06       		.uleb128 0x6
 3201 01dd 40       		.uleb128 0x40
 3202 01de 18       		.uleb128 0x18
 3203 01df 9642     		.uleb128 0x2116
 3204 01e1 19       		.uleb128 0x19
 3205 01e2 01       		.uleb128 0x1
 3206 01e3 13       		.uleb128 0x13
 3207 01e4 00       		.byte	0
 3208 01e5 00       		.byte	0
 3209 01e6 24       		.uleb128 0x24
 3210 01e7 0B       		.uleb128 0xb
 3211 01e8 01       		.byte	0x1
 3212 01e9 11       		.uleb128 0x11
ARM GAS  C:\Users\TTSS\AppData\Local\Temp\ccySleeg.s 			page 96


 3213 01ea 01       		.uleb128 0x1
 3214 01eb 12       		.uleb128 0x12
 3215 01ec 06       		.uleb128 0x6
 3216 01ed 01       		.uleb128 0x1
 3217 01ee 13       		.uleb128 0x13
 3218 01ef 00       		.byte	0
 3219 01f0 00       		.byte	0
 3220 01f1 25       		.uleb128 0x25
 3221 01f2 34       		.uleb128 0x34
 3222 01f3 00       		.byte	0
 3223 01f4 03       		.uleb128 0x3
 3224 01f5 0E       		.uleb128 0xe
 3225 01f6 3A       		.uleb128 0x3a
 3226 01f7 0B       		.uleb128 0xb
 3227 01f8 3B       		.uleb128 0x3b
 3228 01f9 05       		.uleb128 0x5
 3229 01fa 49       		.uleb128 0x49
 3230 01fb 13       		.uleb128 0x13
 3231 01fc 3F       		.uleb128 0x3f
 3232 01fd 19       		.uleb128 0x19
 3233 01fe 3C       		.uleb128 0x3c
 3234 01ff 19       		.uleb128 0x19
 3235 0200 00       		.byte	0
 3236 0201 00       		.byte	0
 3237 0202 26       		.uleb128 0x26
 3238 0203 34       		.uleb128 0x34
 3239 0204 00       		.byte	0
 3240 0205 03       		.uleb128 0x3
 3241 0206 0E       		.uleb128 0xe
 3242 0207 3A       		.uleb128 0x3a
 3243 0208 0B       		.uleb128 0xb
 3244 0209 3B       		.uleb128 0x3b
 3245 020a 0B       		.uleb128 0xb
 3246 020b 49       		.uleb128 0x49
 3247 020c 13       		.uleb128 0x13
 3248 020d 3F       		.uleb128 0x3f
 3249 020e 19       		.uleb128 0x19
 3250 020f 02       		.uleb128 0x2
 3251 0210 18       		.uleb128 0x18
 3252 0211 00       		.byte	0
 3253 0212 00       		.byte	0
 3254 0213 27       		.uleb128 0x27
 3255 0214 34       		.uleb128 0x34
 3256 0215 00       		.byte	0
 3257 0216 03       		.uleb128 0x3
 3258 0217 0E       		.uleb128 0xe
 3259 0218 3A       		.uleb128 0x3a
 3260 0219 0B       		.uleb128 0xb
 3261 021a 3B       		.uleb128 0x3b
 3262 021b 0B       		.uleb128 0xb
 3263 021c 49       		.uleb128 0x49
 3264 021d 13       		.uleb128 0x13
 3265 021e 3F       		.uleb128 0x3f
 3266 021f 19       		.uleb128 0x19
 3267 0220 3C       		.uleb128 0x3c
 3268 0221 19       		.uleb128 0x19
 3269 0222 00       		.byte	0
ARM GAS  C:\Users\TTSS\AppData\Local\Temp\ccySleeg.s 			page 97


 3270 0223 00       		.byte	0
 3271 0224 00       		.byte	0
 3272              		.section	.debug_aranges,"",%progbits
 3273 0000 5C000000 		.4byte	0x5c
 3274 0004 0200     		.2byte	0x2
 3275 0006 00000000 		.4byte	.Ldebug_info0
 3276 000a 04       		.byte	0x4
 3277 000b 00       		.byte	0
 3278 000c 0000     		.2byte	0
 3279 000e 0000     		.2byte	0
 3280 0010 00000000 		.4byte	.LFB2
 3281 0014 74000000 		.4byte	.LFE2-.LFB2
 3282 0018 00000000 		.4byte	.LFB3
 3283 001c 10000000 		.4byte	.LFE3-.LFB3
 3284 0020 00000000 		.4byte	.LFB4
 3285 0024 1C000000 		.4byte	.LFE4-.LFB4
 3286 0028 00000000 		.4byte	.LFB5
 3287 002c 10000000 		.4byte	.LFE5-.LFB5
 3288 0030 00000000 		.4byte	.LFB6
 3289 0034 0A000000 		.4byte	.LFE6-.LFB6
 3290 0038 00000000 		.4byte	.LFB7
 3291 003c 60000000 		.4byte	.LFE7-.LFB7
 3292 0040 00000000 		.4byte	.LFB8
 3293 0044 14000000 		.4byte	.LFE8-.LFB8
 3294 0048 00000000 		.4byte	.LFB9
 3295 004c 10000000 		.4byte	.LFE9-.LFB9
 3296 0050 00000000 		.4byte	.LFB10
 3297 0054 68030000 		.4byte	.LFE10-.LFB10
 3298 0058 00000000 		.4byte	0
 3299 005c 00000000 		.4byte	0
 3300              		.section	.debug_ranges,"",%progbits
 3301              	.Ldebug_ranges0:
 3302 0000 00000000 		.4byte	.LFB2
 3303 0004 74000000 		.4byte	.LFE2
 3304 0008 00000000 		.4byte	.LFB3
 3305 000c 10000000 		.4byte	.LFE3
 3306 0010 00000000 		.4byte	.LFB4
 3307 0014 1C000000 		.4byte	.LFE4
 3308 0018 00000000 		.4byte	.LFB5
 3309 001c 10000000 		.4byte	.LFE5
 3310 0020 00000000 		.4byte	.LFB6
 3311 0024 0A000000 		.4byte	.LFE6
 3312 0028 00000000 		.4byte	.LFB7
 3313 002c 60000000 		.4byte	.LFE7
 3314 0030 00000000 		.4byte	.LFB8
 3315 0034 14000000 		.4byte	.LFE8
 3316 0038 00000000 		.4byte	.LFB9
 3317 003c 10000000 		.4byte	.LFE9
 3318 0040 00000000 		.4byte	.LFB10
 3319 0044 68030000 		.4byte	.LFE10
 3320 0048 00000000 		.4byte	0
 3321 004c 00000000 		.4byte	0
 3322              		.section	.debug_line,"",%progbits
 3323              	.Ldebug_line0:
 3324 0000 3E020000 		.section	.debug_str,"MS",%progbits,1
 3324      0200DE00 
 3324      00000201 
ARM GAS  C:\Users\TTSS\AppData\Local\Temp\ccySleeg.s 			page 98


 3324      FB0E0D00 
 3324      01010101 
 3325              	.LASF218:
 3326 0000 4359424C 		.ascii	"CYBLE_GATT_ERR_INVALID_CRC\000"
 3326      455F4741 
 3326      54545F45 
 3326      52525F49 
 3326      4E56414C 
 3327              	.LASF16:
 3328 001b 73697A65 		.ascii	"sizetype\000"
 3328      74797065 
 3328      00
 3329              	.LASF152:
 3330 0024 656B6579 		.ascii	"ekeySize\000"
 3330      53697A65 
 3330      00
 3331              	.LASF187:
 3332 002d 4359424C 		.ascii	"CYBLE_GATT_HANDLE_VALUE_CNF\000"
 3332      455F4741 
 3332      54545F48 
 3332      414E444C 
 3332      455F5641 
 3333              	.LASF37:
 3334 0049 4359424C 		.ascii	"CYBLE_EVT_GAP_NUMERIC_COMPARISON_REQUEST\000"
 3334      455F4556 
 3334      545F4741 
 3334      505F4E55 
 3334      4D455249 
 3335              	.LASF271:
 3336 0072 4379426C 		.ascii	"CyBle_WriteReqHandler\000"
 3336      655F5772 
 3336      69746552 
 3336      65714861 
 3336      6E646C65 
 3337              	.LASF109:
 3338 0088 72657175 		.ascii	"request\000"
 3338      65737400 
 3339              	.LASF146:
 3340 0090 4359424C 		.ascii	"CYBLE_GAP_AUTH_ERROR_CODE_SPEC_MAX_VALUE\000"
 3340      455F4741 
 3340      505F4155 
 3340      54485F45 
 3340      52524F52 
 3341              	.LASF273:
 3342 00b9 6576656E 		.ascii	"eventParam\000"
 3342      74506172 
 3342      616D00
 3343              	.LASF31:
 3344 00c4 4359424C 		.ascii	"CYBLE_EVT_GAP_DEVICE_CONNECTED\000"
 3344      455F4556 
 3344      545F4741 
 3344      505F4445 
 3344      56494345 
 3345              	.LASF129:
 3346 00e3 4359424C 		.ascii	"CYBLE_GAP_IOCAP_NOINPUT_NOOUTPUT\000"
 3346      455F4741 
 3346      505F494F 
ARM GAS  C:\Users\TTSS\AppData\Local\Temp\ccySleeg.s 			page 99


 3346      4341505F 
 3346      4E4F494E 
 3347              	.LASF49:
 3348 0104 4359424C 		.ascii	"CYBLE_EVT_GATT_CONNECT_IND\000"
 3348      455F4556 
 3348      545F4741 
 3348      54545F43 
 3348      4F4E4E45 
 3349              	.LASF180:
 3350 011f 4359424C 		.ascii	"CYBLE_GATT_WRITE_CMD\000"
 3350      455F4741 
 3350      54545F57 
 3350      52495445 
 3350      5F434D44 
 3351              	.LASF11:
 3352 0134 75696E74 		.ascii	"uint32\000"
 3352      333200
 3353              	.LASF262:
 3354 013b 67617053 		.ascii	"gapServiceCharHandle\000"
 3354      65727669 
 3354      63654368 
 3354      61724861 
 3354      6E646C65 
 3355              	.LASF103:
 3356 0150 626C6550 		.ascii	"blePwrLevelInDbm\000"
 3356      77724C65 
 3356      76656C49 
 3356      6E44626D 
 3356      00
 3357              	.LASF192:
 3358 0161 4359424C 		.ascii	"CYBLE_GATT_ERR_READ_NOT_PERMITTED\000"
 3358      455F4741 
 3358      54545F45 
 3358      52525F52 
 3358      4541445F 
 3359              	.LASF207:
 3360 0183 4359424C 		.ascii	"CYBLE_GATT_ERR_INSUFFICIENT_RESOURCE\000"
 3360      455F4741 
 3360      54545F45 
 3360      52525F49 
 3360      4E535546 
 3361              	.LASF181:
 3362 01a8 4359424C 		.ascii	"CYBLE_GATT_PREPARE_WRITE_REQ\000"
 3362      455F4741 
 3362      54545F50 
 3362      52455041 
 3362      52455F57 
 3363              	.LASF206:
 3364 01c5 4359424C 		.ascii	"CYBLE_GATT_ERR_UNSUPPORTED_GROUP_TYPE\000"
 3364      455F4741 
 3364      54545F45 
 3364      52525F55 
 3364      4E535550 
 3365              	.LASF289:
 3366 01eb 4379426C 		.ascii	"CyBle_ApplCallback\000"
 3366      655F4170 
 3366      706C4361 
ARM GAS  C:\Users\TTSS\AppData\Local\Temp\ccySleeg.s 			page 100


 3366      6C6C6261 
 3366      636B00
 3367              	.LASF69:
 3368 01fe 4359424C 		.ascii	"CYBLE_EVT_GATTS_DATA_SIGNED_CMD_REQ\000"
 3368      455F4556 
 3368      545F4741 
 3368      5454535F 
 3368      44415441 
 3369              	.LASF81:
 3370 0222 4359424C 		.ascii	"CYBLE_EVT_L2CAP_CBFC_RX_CREDIT_IND\000"
 3370      455F4556 
 3370      545F4C32 
 3370      4341505F 
 3370      43424643 
 3371              	.LASF235:
 3372 0245 4359424C 		.ascii	"CYBLE_GATT_VALUE_T\000"
 3372      455F4741 
 3372      54545F56 
 3372      414C5545 
 3372      5F5400
 3373              	.LASF286:
 3374 0258 6D656D52 		.ascii	"memReq\000"
 3374      657100
 3375              	.LASF175:
 3376 025f 4359424C 		.ascii	"CYBLE_GATT_READ_MULTIPLE_RSP\000"
 3376      455F4741 
 3376      54545F52 
 3376      4541445F 
 3376      4D554C54 
 3377              	.LASF114:
 3378 027c 74797065 		.ascii	"type\000"
 3378      00
 3379              	.LASF120:
 3380 0281 4359424C 		.ascii	"CYBLE_TO_REASON_CODE_T\000"
 3380      455F544F 
 3380      5F524541 
 3380      534F4E5F 
 3380      434F4445 
 3381              	.LASF208:
 3382 0298 4359424C 		.ascii	"CYBLE_GATT_ERR_TRIGGER_CODITION_VALUE_NOT_SUPPORTED"
 3382      455F4741 
 3382      54545F45 
 3382      52525F54 
 3382      52494747 
 3383 02cb 00       		.ascii	"\000"
 3384              	.LASF147:
 3385 02cc 4359424C 		.ascii	"CYBLE_GAP_AUTH_ERROR_AUTHENTICATION_TIMEOUT\000"
 3385      455F4741 
 3385      505F4155 
 3385      54485F45 
 3385      52524F52 
 3386              	.LASF139:
 3387 02f8 4359424C 		.ascii	"CYBLE_GAP_AUTH_ERROR_UNSPECIFIED_REASON\000"
 3387      455F4741 
 3387      505F4155 
 3387      54485F45 
 3387      52524F52 
ARM GAS  C:\Users\TTSS\AppData\Local\Temp\ccySleeg.s 			page 101


 3388              	.LASF169:
 3389 0320 4359424C 		.ascii	"CYBLE_GATT_READ_BY_TYPE_RSP\000"
 3389      455F4741 
 3389      54545F52 
 3389      4541445F 
 3389      42595F54 
 3390              	.LASF250:
 3391 033c 4359424C 		.ascii	"CYBLE_CALLBACK_T\000"
 3391      455F4341 
 3391      4C4C4241 
 3391      434B5F54 
 3391      00
 3392              	.LASF66:
 3393 034d 4359424C 		.ascii	"CYBLE_EVT_GATTC_HANDLE_VALUE_NTF\000"
 3393      455F4556 
 3393      545F4741 
 3393      5454435F 
 3393      48414E44 
 3394              	.LASF25:
 3395 036e 4359424C 		.ascii	"CYBLE_EVT_GAP_AUTH_REQ\000"
 3395      455F4556 
 3395      545F4741 
 3395      505F4155 
 3395      54485F52 
 3396              	.LASF233:
 3397 0385 4359424C 		.ascii	"CYBLE_CONN_HANDLE_T\000"
 3397      455F434F 
 3397      4E4E5F48 
 3397      414E444C 
 3397      455F5400 
 3398              	.LASF167:
 3399 0399 4359424C 		.ascii	"CYBLE_GATT_FIND_BY_TYPE_VALUE_RSP\000"
 3399      455F4741 
 3399      54545F46 
 3399      494E445F 
 3399      42595F54 
 3400              	.LASF126:
 3401 03bb 4359424C 		.ascii	"CYBLE_GAP_IOCAP_DISPLAY_ONLY\000"
 3401      455F4741 
 3401      505F494F 
 3401      4341505F 
 3401      44495350 
 3402              	.LASF46:
 3403 03d8 4359424C 		.ascii	"CYBLE_EVT_GAP_AUTH_REQ_REPLY_ERR\000"
 3403      455F4556 
 3403      545F4741 
 3403      505F4155 
 3403      54485F52 
 3404              	.LASF92:
 3405 03f9 4359424C 		.ascii	"CYBLE_LL_PWR_LVL_NEG_3_DBM\000"
 3405      455F4C4C 
 3405      5F505752 
 3405      5F4C564C 
 3405      5F4E4547 
 3406              	.LASF278:
 3407 0414 61646472 		.ascii	"addressValid\000"
 3407      65737356 
ARM GAS  C:\Users\TTSS\AppData\Local\Temp\ccySleeg.s 			page 102


 3407      616C6964 
 3407      00
 3408              	.LASF259:
 3409 0421 4359424C 		.ascii	"CYBLE_STATE_ADVERTISING\000"
 3409      455F5354 
 3409      4154455F 
 3409      41445645 
 3409      52544953 
 3410              	.LASF39:
 3411 0439 4359424C 		.ascii	"CYBLE_EVT_GAP_OOB_GENERATED_NOTIFICATION\000"
 3411      455F4556 
 3411      545F4741 
 3411      505F4F4F 
 3411      425F4745 
 3412              	.LASF231:
 3413 0462 62644861 		.ascii	"bdHandle\000"
 3413      6E646C65 
 3413      00
 3414              	.LASF220:
 3415 046b 4359424C 		.ascii	"CYBLE_GATTS_ERR_NETWORK_NOT_AVAILABLE\000"
 3415      455F4741 
 3415      5454535F 
 3415      4552525F 
 3415      4E455457 
 3416              	.LASF132:
 3417 0491 4359424C 		.ascii	"CYBLE_GAP_AUTH_ERROR_PASSKEY_ENTRY_FAILED\000"
 3417      455F4741 
 3417      505F4155 
 3417      54485F45 
 3417      52524F52 
 3418              	.LASF223:
 3419 04bb 4359424C 		.ascii	"CYBLE_GATT_ERR_ANCS_INVALID_COMMAND\000"
 3419      455F4741 
 3419      54545F45 
 3419      52525F41 
 3419      4E43535F 
 3420              	.LASF90:
 3421 04df 4359424C 		.ascii	"CYBLE_LL_PWR_LVL_NEG_12_DBM\000"
 3421      455F4C4C 
 3421      5F505752 
 3421      5F4C564C 
 3421      5F4E4547 
 3422              	.LASF163:
 3423 04fb 4359424C 		.ascii	"CYBLE_GATT_XCHNG_MTU_RSP\000"
 3423      455F4741 
 3423      54545F58 
 3423      43484E47 
 3423      5F4D5455 
 3424              	.LASF62:
 3425 0514 4359424C 		.ascii	"CYBLE_EVT_GATTS_WRITE_CMD_REQ\000"
 3425      455F4556 
 3425      545F4741 
 3425      5454535F 
 3425      57524954 
 3426              	.LASF82:
 3427 0532 4359424C 		.ascii	"CYBLE_EVT_L2CAP_CBFC_TX_CREDIT_IND\000"
 3427      455F4556 
ARM GAS  C:\Users\TTSS\AppData\Local\Temp\ccySleeg.s 			page 103


 3427      545F4C32 
 3427      4341505F 
 3427      43424643 
 3428              	.LASF4:
 3429 0555 6C6F6E67 		.ascii	"long int\000"
 3429      20696E74 
 3429      00
 3430              	.LASF121:
 3431 055e 4359424C 		.ascii	"CYBLE_GAP_SEC_LEVEL_1\000"
 3431      455F4741 
 3431      505F5345 
 3431      435F4C45 
 3431      56454C5F 
 3432              	.LASF122:
 3433 0574 4359424C 		.ascii	"CYBLE_GAP_SEC_LEVEL_2\000"
 3433      455F4741 
 3433      505F5345 
 3433      435F4C45 
 3433      56454C5F 
 3434              	.LASF123:
 3435 058a 4359424C 		.ascii	"CYBLE_GAP_SEC_LEVEL_3\000"
 3435      455F4741 
 3435      505F5345 
 3435      435F4C45 
 3435      56454C5F 
 3436              	.LASF124:
 3437 05a0 4359424C 		.ascii	"CYBLE_GAP_SEC_LEVEL_4\000"
 3437      455F4741 
 3437      505F5345 
 3437      435F4C45 
 3437      56454C5F 
 3438              	.LASF18:
 3439 05b6 4359424C 		.ascii	"CYBLE_EVT_STACK_ON\000"
 3439      455F4556 
 3439      545F5354 
 3439      41434B5F 
 3439      4F4E00
 3440              	.LASF292:
 3441 05c9 6379426C 		.ascii	"cyBle_deviceAddress\000"
 3441      655F6465 
 3441      76696365 
 3441      41646472 
 3441      65737300 
 3442              	.LASF194:
 3443 05dd 4359424C 		.ascii	"CYBLE_GATT_ERR_INVALID_PDU\000"
 3443      455F4741 
 3443      54545F45 
 3443      52525F49 
 3443      4E56414C 
 3444              	.LASF135:
 3445 05f8 4359424C 		.ascii	"CYBLE_GAP_AUTH_ERROR_CONFIRM_VALUE_NOT_MATCH\000"
 3445      455F4741 
 3445      505F4155 
 3445      54485F45 
 3445      52524F52 
 3446              	.LASF238:
 3447 0625 4359424C 		.ascii	"CYBLE_GATT_HANDLE_VALUE_PAIR_T\000"
ARM GAS  C:\Users\TTSS\AppData\Local\Temp\ccySleeg.s 			page 104


 3447      455F4741 
 3447      54545F48 
 3447      414E444C 
 3447      455F5641 
 3448              	.LASF104:
 3449 0644 626C6553 		.ascii	"bleSsChId\000"
 3449      73436849 
 3449      6400
 3450              	.LASF75:
 3451 064e 4359424C 		.ascii	"CYBLE_EVT_L2CAP_COMMAND_REJ\000"
 3451      455F4556 
 3451      545F4C32 
 3451      4341505F 
 3451      434F4D4D 
 3452              	.LASF267:
 3453 066a 7270614F 		.ascii	"rpaOnlyCharHandle\000"
 3453      6E6C7943 
 3453      68617248 
 3453      616E646C 
 3453      6500
 3454              	.LASF173:
 3455 067c 4359424C 		.ascii	"CYBLE_GATT_READ_BLOB_RSP\000"
 3455      455F4741 
 3455      54545F52 
 3455      4541445F 
 3455      424C4F42 
 3456              	.LASF203:
 3457 0695 4359424C 		.ascii	"CYBLE_GATT_ERR_INVALID_ATTRIBUTE_LEN\000"
 3457      455F4741 
 3457      54545F45 
 3457      52525F49 
 3457      4E56414C 
 3458              	.LASF0:
 3459 06ba 7369676E 		.ascii	"signed char\000"
 3459      65642063 
 3459      68617200 
 3460              	.LASF89:
 3461 06c6 4359424C 		.ascii	"CYBLE_LL_PWR_LVL_NEG_18_DBM\000"
 3461      455F4C4C 
 3461      5F505752 
 3461      5F4C564C 
 3461      5F4E4547 
 3462              	.LASF164:
 3463 06e2 4359424C 		.ascii	"CYBLE_GATT_FIND_INFO_REQ\000"
 3463      455F4741 
 3463      54545F46 
 3463      494E445F 
 3463      494E464F 
 3464              	.LASF20:
 3465 06fb 4359424C 		.ascii	"CYBLE_EVT_HARDWARE_ERROR\000"
 3465      455F4556 
 3465      545F4841 
 3465      52445741 
 3465      52455F45 
 3466              	.LASF306:
 3467 0714 4379426C 		.ascii	"CyBle_EventHandler\000"
 3467      655F4576 
ARM GAS  C:\Users\TTSS\AppData\Local\Temp\ccySleeg.s 			page 105


 3467      656E7448 
 3467      616E646C 
 3467      657200
 3468              	.LASF102:
 3469 0727 4359424C 		.ascii	"CYBLE_BLESS_PHY_CH_GRP_ID_T\000"
 3469      455F424C 
 3469      4553535F 
 3469      5048595F 
 3469      43485F47 
 3470              	.LASF226:
 3471 0743 4359424C 		.ascii	"CYBLE_GATT_ERR_CCCD_IMPROPERLY_CONFIGURED\000"
 3471      455F4741 
 3471      54545F45 
 3471      52525F43 
 3471      4343445F 
 3472              	.LASF53:
 3473 076d 4359424C 		.ascii	"CYBLE_EVT_GATTC_READ_BY_GROUP_TYPE_RSP\000"
 3473      455F4556 
 3473      545F4741 
 3473      5454435F 
 3473      52454144 
 3474              	.LASF145:
 3475 0794 4359424C 		.ascii	"CYBLE_GAP_AUTH_ERROR_CROSS_TRANSPORT_KEY_GEN_DER_NO"
 3475      455F4741 
 3475      505F4155 
 3475      54485F45 
 3475      52524F52 
 3476 07c7 545F414C 		.ascii	"T_ALLOWED\000"
 3476      4C4F5745 
 3476      4400
 3477              	.LASF256:
 3478 07d1 4359424C 		.ascii	"CYBLE_STATE_STOPPED\000"
 3478      455F5354 
 3478      4154455F 
 3478      53544F50 
 3478      50454400 
 3479              	.LASF247:
 3480 07e5 4359424C 		.ascii	"CYBLE_GATTS_ERR_PARAM_T\000"
 3480      455F4741 
 3480      5454535F 
 3480      4552525F 
 3480      50415241 
 3481              	.LASF1:
 3482 07fd 756E7369 		.ascii	"unsigned char\000"
 3482      676E6564 
 3482      20636861 
 3482      7200
 3483              	.LASF52:
 3484 080b 4359424C 		.ascii	"CYBLE_EVT_GATTC_XCHNG_MTU_RSP\000"
 3484      455F4556 
 3484      545F4741 
 3484      5454435F 
 3484      5843484E 
 3485              	.LASF186:
 3486 0829 4359424C 		.ascii	"CYBLE_GATT_HANDLE_VALUE_IND\000"
 3486      455F4741 
 3486      54545F48 
ARM GAS  C:\Users\TTSS\AppData\Local\Temp\ccySleeg.s 			page 106


 3486      414E444C 
 3486      455F5641 
 3487              	.LASF43:
 3488 0845 4359424C 		.ascii	"CYBLE_EVT_GAP_SMP_NEGOTIATED_AUTH_INFO\000"
 3488      455F4556 
 3488      545F4741 
 3488      505F534D 
 3488      505F4E45 
 3489              	.LASF44:
 3490 086c 4359424C 		.ascii	"CYBLE_EVT_GAP_CONN_ESTB\000"
 3490      455F4556 
 3490      545F4741 
 3490      505F434F 
 3490      4E4E5F45 
 3491              	.LASF246:
 3492 0884 6572726F 		.ascii	"errorCode\000"
 3492      72436F64 
 3492      6500
 3493              	.LASF141:
 3494 088e 4359424C 		.ascii	"CYBLE_GAP_AUTH_ERROR_INVALID_PARAMETERS\000"
 3494      455F4741 
 3494      505F4155 
 3494      54485F45 
 3494      52524F52 
 3495              	.LASF111:
 3496 08b6 636F6E66 		.ascii	"configMemory\000"
 3496      69674D65 
 3496      6D6F7279 
 3496      00
 3497              	.LASF79:
 3498 08c3 4359424C 		.ascii	"CYBLE_EVT_L2CAP_CBFC_DISCONN_CNF\000"
 3498      455F4556 
 3498      545F4C32 
 3498      4341505F 
 3498      43424643 
 3499              	.LASF56:
 3500 08e4 4359424C 		.ascii	"CYBLE_EVT_GATTC_FIND_BY_TYPE_VALUE_RSP\000"
 3500      455F4556 
 3500      545F4741 
 3500      5454435F 
 3500      46494E44 
 3501              	.LASF40:
 3502 090b 4359424C 		.ascii	"CYBLE_EVT_GAP_DATA_LENGTH_CHANGE\000"
 3502      455F4556 
 3502      545F4741 
 3502      505F4441 
 3502      54415F4C 
 3503              	.LASF14:
 3504 092c 63686172 		.ascii	"char\000"
 3504      00
 3505              	.LASF93:
 3506 0931 4359424C 		.ascii	"CYBLE_LL_PWR_LVL_NEG_2_DBM\000"
 3506      455F4C4C 
 3506      5F505752 
 3506      5F4C564C 
 3506      5F4E4547 
 3507              	.LASF179:
ARM GAS  C:\Users\TTSS\AppData\Local\Temp\ccySleeg.s 			page 107


 3508 094c 4359424C 		.ascii	"CYBLE_GATT_WRITE_RSP\000"
 3508      455F4741 
 3508      54545F57 
 3508      52495445 
 3508      5F525350 
 3509              	.LASF59:
 3510 0961 4359424C 		.ascii	"CYBLE_EVT_GATTC_READ_MULTI_RSP\000"
 3510      455F4556 
 3510      545F4741 
 3510      5454435F 
 3510      52454144 
 3511              	.LASF155:
 3512 0980 4359424C 		.ascii	"CYBLE_GAP_AUTH_INFO_T\000"
 3512      455F4741 
 3512      505F4155 
 3512      54485F49 
 3512      4E464F5F 
 3513              	.LASF128:
 3514 0996 4359424C 		.ascii	"CYBLE_GAP_IOCAP_KEYBOARD_ONLY\000"
 3514      455F4741 
 3514      505F494F 
 3514      4341505F 
 3514      4B455942 
 3515              	.LASF17:
 3516 09b4 4359424C 		.ascii	"CYBLE_EVT_HOST_INVALID\000"
 3516      455F4556 
 3516      545F484F 
 3516      53545F49 
 3516      4E56414C 
 3517              	.LASF215:
 3518 09cb 4359424C 		.ascii	"CYBLE_GATT_ERR_MISSING_CRC\000"
 3518      455F4741 
 3518      54545F45 
 3518      52525F4D 
 3518      49535349 
 3519              	.LASF204:
 3520 09e6 4359424C 		.ascii	"CYBLE_GATT_ERR_UNLIKELY_ERROR\000"
 3520      455F4741 
 3520      54545F45 
 3520      52525F55 
 3520      4E4C494B 
 3521              	.LASF42:
 3522 0a04 4359424C 		.ascii	"CYBLE_EVT_GAPC_DIRECT_ADV_REPORT\000"
 3522      455F4556 
 3522      545F4741 
 3522      50435F44 
 3522      49524543 
 3523              	.LASF162:
 3524 0a25 4359424C 		.ascii	"CYBLE_GATT_XCNHG_MTU_REQ\000"
 3524      455F4741 
 3524      54545F58 
 3524      434E4847 
 3524      5F4D5455 
 3525              	.LASF58:
 3526 0a3e 4359424C 		.ascii	"CYBLE_EVT_GATTC_READ_BLOB_RSP\000"
 3526      455F4556 
 3526      545F4741 
ARM GAS  C:\Users\TTSS\AppData\Local\Temp\ccySleeg.s 			page 108


 3526      5454435F 
 3526      52454144 
 3527              	.LASF277:
 3528 0a5c 64657669 		.ascii	"deviceAddress\000"
 3528      63654164 
 3528      64726573 
 3528      7300
 3529              	.LASF291:
 3530 0a6a 6379426C 		.ascii	"cyBle_eventHandlerFlag\000"
 3530      655F6576 
 3530      656E7448 
 3530      616E646C 
 3530      6572466C 
 3531              	.LASF65:
 3532 0a81 4359424C 		.ascii	"CYBLE_EVT_GATTC_EXEC_WRITE_RSP\000"
 3532      455F4556 
 3532      545F4741 
 3532      5454435F 
 3532      45584543 
 3533              	.LASF209:
 3534 0aa0 4359424C 		.ascii	"CYBLE_GATT_ERR_HEART_RATE_CONTROL_POINT_NOT_SUPPORT"
 3534      455F4741 
 3534      54545F45 
 3534      52525F48 
 3534      45415254 
 3535 0ad3 454400   		.ascii	"ED\000"
 3536              	.LASF201:
 3537 0ad6 4359424C 		.ascii	"CYBLE_GATT_ERR_ATTRIBUTE_NOT_LONG\000"
 3537      455F4741 
 3537      54545F45 
 3537      52525F41 
 3537      54545249 
 3538              	.LASF125:
 3539 0af8 4359424C 		.ascii	"CYBLE_GAP_SEC_LEVEL_MASK\000"
 3539      455F4741 
 3539      505F5345 
 3539      435F4C45 
 3539      56454C5F 
 3540              	.LASF70:
 3541 0b11 4359424C 		.ascii	"CYBLE_EVT_GATTC_STOP_CMD_COMPLETE\000"
 3541      455F4556 
 3541      545F4741 
 3541      5454435F 
 3541      53544F50 
 3542              	.LASF225:
 3543 0b33 4359424C 		.ascii	"CYBLE_GATT_ERR_ANCS_ACTION_FAILED\000"
 3543      455F4741 
 3543      54545F45 
 3543      52525F41 
 3543      4E43535F 
 3544              	.LASF300:
 3545 0b55 6379426C 		.ascii	"cyBle_gaps\000"
 3545      655F6761 
 3545      707300
 3546              	.LASF298:
 3547 0b60 6379426C 		.ascii	"cyBle_connHandle\000"
 3547      655F636F 
ARM GAS  C:\Users\TTSS\AppData\Local\Temp\ccySleeg.s 			page 109


 3547      6E6E4861 
 3547      6E646C65 
 3547      00
 3548              	.LASF161:
 3549 0b71 4359424C 		.ascii	"CYBLE_GATT_ERROR_RSP\000"
 3549      455F4741 
 3549      54545F45 
 3549      52524F52 
 3549      5F525350 
 3550              	.LASF254:
 3551 0b86 626F756E 		.ascii	"boundedDevCount\000"
 3551      64656444 
 3551      6576436F 
 3551      756E7400 
 3552              	.LASF281:
 3553 0b96 4379426C 		.ascii	"CyBle_GapConnUpdateCompleteEventHandler\000"
 3553      655F4761 
 3553      70436F6E 
 3553      6E557064 
 3553      61746543 
 3554              	.LASF144:
 3555 0bbe 4359424C 		.ascii	"CYBLE_GAP_AUTH_ERROR_BR_EDR_PAIRING_IN_PROGRESS\000"
 3555      455F4741 
 3555      505F4155 
 3555      54485F45 
 3555      52524F52 
 3556              	.LASF243:
 3557 0bee 70726570 		.ascii	"prepareWriteQueueSize\000"
 3557      61726557 
 3557      72697465 
 3557      51756575 
 3557      6553697A 
 3558              	.LASF293:
 3559 0c04 6379426C 		.ascii	"cyBle_sflashDeviceAddress\000"
 3559      655F7366 
 3559      6C617368 
 3559      44657669 
 3559      63654164 
 3560              	.LASF252:
 3561 0c1e 61747456 		.ascii	"attValuesCCCDFlashMemory\000"
 3561      616C7565 
 3561      73434343 
 3561      44466C61 
 3561      73684D65 
 3562              	.LASF188:
 3563 0c37 4359424C 		.ascii	"CYBLE_GATT_SIGNED_WRITE_CMD\000"
 3563      455F4741 
 3563      54545F53 
 3563      49474E45 
 3563      445F5752 
 3564              	.LASF216:
 3565 0c53 4359424C 		.ascii	"CYBLE_GATTS_ERR_CCCD_IMPROPERLY_CONFIGURED\000"
 3565      455F4741 
 3565      5454535F 
 3565      4552525F 
 3565      43434344 
 3566              	.LASF184:
ARM GAS  C:\Users\TTSS\AppData\Local\Temp\ccySleeg.s 			page 110


 3567 0c7e 4359424C 		.ascii	"CYBLE_GATT_EXECUTE_WRITE_RSP\000"
 3567      455F4741 
 3567      54545F45 
 3567      58454355 
 3567      54455F57 
 3568              	.LASF74:
 3569 0c9b 4359424C 		.ascii	"CYBLE_EVT_L2CAP_CONN_PARAM_UPDATE_RSP\000"
 3569      455F4556 
 3569      545F4C32 
 3569      4341505F 
 3569      434F4E4E 
 3570              	.LASF148:
 3571 0cc1 4359424C 		.ascii	"CYBLE_GAP_AUTH_ERROR_LINK_DISCONNECTED\000"
 3571      455F4741 
 3571      505F4155 
 3571      54485F45 
 3571      52524F52 
 3572              	.LASF86:
 3573 0ce8 4359424C 		.ascii	"CYBLE_EVT_HCI_PKT\000"
 3573      455F4556 
 3573      545F4843 
 3573      495F504B 
 3573      5400
 3574              	.LASF251:
 3575 0cfa 73746163 		.ascii	"stackFlashptr\000"
 3575      6B466C61 
 3575      73687074 
 3575      7200
 3576              	.LASF302:
 3577 0d08 474E5520 		.ascii	"GNU C11 5.4.1 20160609 (release) [ARM/embedded-5-br"
 3577      43313120 
 3577      352E342E 
 3577      31203230 
 3577      31363036 
 3578 0d3b 616E6368 		.ascii	"anch revision 237715] -mcpu=cortex-m0 -mthumb -g -O"
 3578      20726576 
 3578      6973696F 
 3578      6E203233 
 3578      37373135 
 3579 0d6e 30202D66 		.ascii	"0 -ffunction-sections -ffat-lto-objects\000"
 3579      66756E63 
 3579      74696F6E 
 3579      2D736563 
 3579      74696F6E 
 3580              	.LASF210:
 3581 0d96 4359424C 		.ascii	"CYBLE_GATT_ERR_USER_DATA_ACCESS_NOT_PERMITTED\000"
 3581      455F4741 
 3581      54545F45 
 3581      52525F55 
 3581      5345525F 
 3582              	.LASF28:
 3583 0dc4 4359424C 		.ascii	"CYBLE_EVT_GAP_AUTH_COMPLETE\000"
 3583      455F4556 
 3583      545F4741 
 3583      505F4155 
 3583      54485F43 
 3584              	.LASF29:
ARM GAS  C:\Users\TTSS\AppData\Local\Temp\ccySleeg.s 			page 111


 3585 0de0 4359424C 		.ascii	"CYBLE_EVT_GAP_AUTH_FAILED\000"
 3585      455F4556 
 3585      545F4741 
 3585      505F4155 
 3585      54485F46 
 3586              	.LASF110:
 3587 0dfa 616C6C6F 		.ascii	"allocFree\000"
 3587      63467265 
 3587      6500
 3588              	.LASF177:
 3589 0e04 4359424C 		.ascii	"CYBLE_GATT_READ_BY_GROUP_RSP\000"
 3589      455F4741 
 3589      54545F52 
 3589      4541445F 
 3589      42595F47 
 3590              	.LASF199:
 3591 0e21 4359424C 		.ascii	"CYBLE_GATT_ERR_PREPARE_WRITE_QUEUE_FULL\000"
 3591      455F4741 
 3591      54545F45 
 3591      52525F50 
 3591      52455041 
 3592              	.LASF214:
 3593 0e49 4359424C 		.ascii	"CYBLE_GATT_ERR_OP_CODE_NOT_SUPPORTED\000"
 3593      455F4741 
 3593      54545F45 
 3593      52525F4F 
 3593      505F434F 
 3594              	.LASF96:
 3595 0e6e 4359424C 		.ascii	"CYBLE_LL_PWR_LVL_3_DBM\000"
 3595      455F4C4C 
 3595      5F505752 
 3595      5F4C564C 
 3595      5F335F44 
 3596              	.LASF5:
 3597 0e85 6C6F6E67 		.ascii	"long unsigned int\000"
 3597      20756E73 
 3597      69676E65 
 3597      6420696E 
 3597      7400
 3598              	.LASF170:
 3599 0e97 4359424C 		.ascii	"CYBLE_GATT_READ_REQ\000"
 3599      455F4741 
 3599      54545F52 
 3599      4541445F 
 3599      52455100 
 3600              	.LASF156:
 3601 0eab 73746174 		.ascii	"status\000"
 3601      757300
 3602              	.LASF94:
 3603 0eb2 4359424C 		.ascii	"CYBLE_LL_PWR_LVL_NEG_1_DBM\000"
 3603      455F4C4C 
 3603      5F505752 
 3603      5F4C564C 
 3603      5F4E4547 
 3604              	.LASF107:
 3605 0ecd 4359424C 		.ascii	"CYBLE_INVALID_REQUEST\000"
 3605      455F494E 
ARM GAS  C:\Users\TTSS\AppData\Local\Temp\ccySleeg.s 			page 112


 3605      56414C49 
 3605      445F5245 
 3605      51554553 
 3606              	.LASF138:
 3607 0ee3 4359424C 		.ascii	"CYBLE_GAP_AUTH_ERROR_COMMAND_NOT_SUPPORTED\000"
 3607      455F4741 
 3607      505F4155 
 3607      54485F45 
 3607      52524F52 
 3608              	.LASF134:
 3609 0f0e 4359424C 		.ascii	"CYBLE_GAP_AUTH_ERROR_AUTHENTICATION_REQ_NOT_MET\000"
 3609      455F4741 
 3609      505F4155 
 3609      54485F45 
 3609      52524F52 
 3610              	.LASF185:
 3611 0f3e 4359424C 		.ascii	"CYBLE_GATT_HANDLE_VALUE_NTF\000"
 3611      455F4741 
 3611      54545F48 
 3611      414E444C 
 3611      455F5641 
 3612              	.LASF222:
 3613 0f5a 4359424C 		.ascii	"CYBLE_GATT_ERR_ANCS_UNKNOWN_COMMAND\000"
 3613      455F4741 
 3613      54545F45 
 3613      52525F41 
 3613      4E43535F 
 3614              	.LASF244:
 3615 0f7e 4359424C 		.ascii	"CYBLE_PREPARE_WRITE_REQUEST_MEMORY_T\000"
 3615      455F5052 
 3615      45504152 
 3615      455F5752 
 3615      4954455F 
 3616              	.LASF34:
 3617 0fa3 4359424C 		.ascii	"CYBLE_EVT_GAP_CONNECTION_UPDATE_COMPLETE\000"
 3617      455F4556 
 3617      545F4741 
 3617      505F434F 
 3617      4E4E4543 
 3618              	.LASF299:
 3619 0fcc 6379426C 		.ascii	"cyBle_busyStatus\000"
 3619      655F6275 
 3619      73795374 
 3619      61747573 
 3619      00
 3620              	.LASF257:
 3621 0fdd 4359424C 		.ascii	"CYBLE_STATE_INITIALIZING\000"
 3621      455F5354 
 3621      4154455F 
 3621      494E4954 
 3621      49414C49 
 3622              	.LASF288:
 3623 0ff6 6379426C 		.ascii	"cyBle_mtuSize\000"
 3623      655F6D74 
 3623      7553697A 
 3623      6500
 3624              	.LASF140:
ARM GAS  C:\Users\TTSS\AppData\Local\Temp\ccySleeg.s 			page 113


 3625 1004 4359424C 		.ascii	"CYBLE_GAP_AUTH_ERROR_REPEATED_ATTEMPTS\000"
 3625      455F4741 
 3625      505F4155 
 3625      54485F45 
 3625      52524F52 
 3626              	.LASF78:
 3627 102b 4359424C 		.ascii	"CYBLE_EVT_L2CAP_CBFC_DISCONN_IND\000"
 3627      455F4556 
 3627      545F4C32 
 3627      4341505F 
 3627      43424643 
 3628              	.LASF26:
 3629 104c 4359424C 		.ascii	"CYBLE_EVT_GAP_PASSKEY_ENTRY_REQUEST\000"
 3629      455F4556 
 3629      545F4741 
 3629      505F5041 
 3629      53534B45 
 3630              	.LASF142:
 3631 1070 4359424C 		.ascii	"CYBLE_GAP_AUTH_ERROR_DHKEY_CHECK_FAILED\000"
 3631      455F4741 
 3631      505F4155 
 3631      54485F45 
 3631      52524F52 
 3632              	.LASF98:
 3633 1098 4359424C 		.ascii	"CYBLE_BLESS_PWR_LVL_T\000"
 3633      455F424C 
 3633      4553535F 
 3633      5057525F 
 3633      4C564C5F 
 3634              	.LASF276:
 3635 10ae 4379426C 		.ascii	"CyBle_GattConnectReqHandler\000"
 3635      655F4761 
 3635      7474436F 
 3635      6E6E6563 
 3635      74526571 
 3636              	.LASF296:
 3637 10ca 6379426C 		.ascii	"cyBle_flashStorage\000"
 3637      655F666C 
 3637      61736853 
 3637      746F7261 
 3637      676500
 3638              	.LASF137:
 3639 10dd 4359424C 		.ascii	"CYBLE_GAP_AUTH_ERROR_INSUFFICIENT_ENCRYPTION_KEY_SI"
 3639      455F4741 
 3639      505F4155 
 3639      54485F45 
 3639      52524F52 
 3640 1110 5A4500   		.ascii	"ZE\000"
 3641              	.LASF6:
 3642 1113 6C6F6E67 		.ascii	"long long int\000"
 3642      206C6F6E 
 3642      6720696E 
 3642      7400
 3643              	.LASF275:
 3644 1121 4379426C 		.ascii	"CyBle_GattDisconnectEventHandler\000"
 3644      655F4761 
 3644      74744469 
ARM GAS  C:\Users\TTSS\AppData\Local\Temp\ccySleeg.s 			page 114


 3644      73636F6E 
 3644      6E656374 
 3645              	.LASF112:
 3646 1142 4359424C 		.ascii	"CYBLE_MEMORY_REQUEST_T\000"
 3646      455F4D45 
 3646      4D4F5259 
 3646      5F524551 
 3646      55455354 
 3647              	.LASF150:
 3648 1159 73656375 		.ascii	"security\000"
 3648      72697479 
 3648      00
 3649              	.LASF13:
 3650 1162 646F7562 		.ascii	"double\000"
 3650      6C6500
 3651              	.LASF84:
 3652 1169 4359424C 		.ascii	"CYBLE_EVT_PENDING_FLASH_WRITE\000"
 3652      455F4556 
 3652      545F5045 
 3652      4E44494E 
 3652      475F464C 
 3653              	.LASF202:
 3654 1187 4359424C 		.ascii	"CYBLE_GATT_ERR_INSUFFICIENT_ENC_KEY_SIZE\000"
 3654      455F4741 
 3654      54545F45 
 3654      52525F49 
 3654      4E535546 
 3655              	.LASF97:
 3656 11b0 4359424C 		.ascii	"CYBLE_LL_PWR_LVL_MAX\000"
 3656      455F4C4C 
 3656      5F505752 
 3656      5F4C564C 
 3656      5F4D4158 
 3657              	.LASF263:
 3658 11c5 64657669 		.ascii	"deviceNameCharHandle\000"
 3658      63654E61 
 3658      6D654368 
 3658      61724861 
 3658      6E646C65 
 3659              	.LASF227:
 3660 11da 4359424C 		.ascii	"CYBLE_GATT_ERR_PROCEDURE_ALREADY_IN_PROGRESS\000"
 3660      455F4741 
 3660      54545F45 
 3660      52525F50 
 3660      524F4345 
 3661              	.LASF41:
 3662 1207 4359424C 		.ascii	"CYBLE_EVT_GAP_ENHANCE_CONN_COMPLETE\000"
 3662      455F4556 
 3662      545F4741 
 3662      505F454E 
 3662      48414E43 
 3663              	.LASF255:
 3664 122b 43595F42 		.ascii	"CY_BLE_FLASH_STORAGE\000"
 3664      4C455F46 
 3664      4C415348 
 3664      5F53544F 
 3664      52414745 
ARM GAS  C:\Users\TTSS\AppData\Local\Temp\ccySleeg.s 			page 115


 3665              	.LASF272:
 3666 1240 4379426C 		.ascii	"CyBle_ValueConfirmation\000"
 3666      655F5661 
 3666      6C756543 
 3666      6F6E6669 
 3666      726D6174 
 3667              	.LASF12:
 3668 1258 666C6F61 		.ascii	"float\000"
 3668      7400
 3669              	.LASF71:
 3670 125e 4359424C 		.ascii	"CYBLE_EVT_GATTS_READ_CHAR_VAL_ACCESS_REQ\000"
 3670      455F4556 
 3670      545F4741 
 3670      5454535F 
 3670      52454144 
 3671              	.LASF245:
 3672 1287 6F70636F 		.ascii	"opcode\000"
 3672      646500
 3673              	.LASF198:
 3674 128e 4359424C 		.ascii	"CYBLE_GATT_ERR_INSUFFICIENT_AUTHORIZATION\000"
 3674      455F4741 
 3674      54545F45 
 3674      52525F49 
 3674      4E535546 
 3675              	.LASF237:
 3676 12b8 61747472 		.ascii	"attrHandle\000"
 3676      48616E64 
 3676      6C6500
 3677              	.LASF151:
 3678 12c3 626F6E64 		.ascii	"bonding\000"
 3678      696E6700 
 3679              	.LASF249:
 3680 12cb 4359424C 		.ascii	"CYBLE_GATTS_WRITE_REQ_PARAM_T\000"
 3680      455F4741 
 3680      5454535F 
 3680      57524954 
 3680      455F5245 
 3681              	.LASF8:
 3682 12e9 756E7369 		.ascii	"unsigned int\000"
 3682      676E6564 
 3682      20696E74 
 3682      00
 3683              	.LASF63:
 3684 12f6 4359424C 		.ascii	"CYBLE_EVT_GATTS_PREP_WRITE_REQ\000"
 3684      455F4556 
 3684      545F4741 
 3684      5454535F 
 3684      50524550 
 3685              	.LASF195:
 3686 1315 4359424C 		.ascii	"CYBLE_GATT_ERR_INSUFFICIENT_AUTHENTICATION\000"
 3686      455F4741 
 3686      54545F45 
 3686      52525F49 
 3686      4E535546 
 3687              	.LASF240:
 3688 1340 4359424C 		.ascii	"CYBLE_GATT_XCHG_MTU_PARAM_T\000"
 3688      455F4741 
ARM GAS  C:\Users\TTSS\AppData\Local\Temp\ccySleeg.s 			page 116


 3688      54545F58 
 3688      4348475F 
 3688      4D54555F 
 3689              	.LASF100:
 3690 135c 4359424C 		.ascii	"CYBLE_LL_CONN_CH_TYPE\000"
 3690      455F4C4C 
 3690      5F434F4E 
 3690      4E5F4348 
 3690      5F545950 
 3691              	.LASF213:
 3692 1372 4359424C 		.ascii	"CYBLE_GATTS_ERR_PROCEDURE_ALREADY_IN_PROGRESS\000"
 3692      455F4741 
 3692      5454535F 
 3692      4552525F 
 3692      50524F43 
 3693              	.LASF270:
 3694 13a0 6572725F 		.ascii	"err_param\000"
 3694      70617261 
 3694      6D00
 3695              	.LASF182:
 3696 13aa 4359424C 		.ascii	"CYBLE_GATT_PREPARE_WRITE_RSP\000"
 3696      455F4741 
 3696      54545F50 
 3696      52455041 
 3696      52455F57 
 3697              	.LASF287:
 3698 13c7 67507265 		.ascii	"gPrepWriteReqMem\000"
 3698      70577269 
 3698      74655265 
 3698      714D656D 
 3698      00
 3699              	.LASF200:
 3700 13d8 4359424C 		.ascii	"CYBLE_GATT_ERR_ATTRIBUTE_NOT_FOUND\000"
 3700      455F4741 
 3700      54545F45 
 3700      52525F41 
 3700      54545249 
 3701              	.LASF88:
 3702 13fb 4359424C 		.ascii	"CYBLE_EVT_MAX\000"
 3702      455F4556 
 3702      545F4D41 
 3702      5800
 3703              	.LASF35:
 3704 1409 4359424C 		.ascii	"CYBLE_EVT_GAPC_SCAN_START_STOP\000"
 3704      455F4556 
 3704      545F4741 
 3704      50435F53 
 3704      43414E5F 
 3705              	.LASF304:
 3706 1428 433A5C55 		.ascii	"C:\\Users\\TTSS\\Documents\\Repositories\\hackAIR-P"
 3706      73657273 
 3706      5C545453 
 3706      535C446F 
 3706      63756D65 
 3707 1456 536F435C 		.ascii	"SoC\\PPD42 - Led Dust Sensor\\PSoC Firmware\\PSoC C"
 3707      50504434 
 3707      32202D20 
ARM GAS  C:\Users\TTSS\AppData\Local\Temp\ccySleeg.s 			page 117


 3707      4C656420 
 3707      44757374 
 3708 1486 72656174 		.ascii	"reator Project\\PwmLedSensor_PPD42.cydsn\000"
 3708      6F722050 
 3708      726F6A65 
 3708      63745C50 
 3708      776D4C65 
 3709              	.LASF149:
 3710 14ae 4359424C 		.ascii	"CYBLE_GAP_AUTH_FAILED_REASON_T\000"
 3710      455F4741 
 3710      505F4155 
 3710      54485F46 
 3710      41494C45 
 3711              	.LASF60:
 3712 14cd 4359424C 		.ascii	"CYBLE_EVT_GATTS_WRITE_REQ\000"
 3712      455F4556 
 3712      545F4741 
 3712      5454535F 
 3712      57524954 
 3713              	.LASF265:
 3714 14e7 70726566 		.ascii	"prefConnParamCharHandle\000"
 3714      436F6E6E 
 3714      50617261 
 3714      6D436861 
 3714      7248616E 
 3715              	.LASF27:
 3716 14ff 4359424C 		.ascii	"CYBLE_EVT_GAP_PASSKEY_DISPLAY_REQUEST\000"
 3716      455F4556 
 3716      545F4741 
 3716      505F5041 
 3716      53534B45 
 3717              	.LASF174:
 3718 1525 4359424C 		.ascii	"CYBLE_GATT_READ_MULTIPLE_REQ\000"
 3718      455F4741 
 3718      54545F52 
 3718      4541445F 
 3718      4D554C54 
 3719              	.LASF57:
 3720 1542 4359424C 		.ascii	"CYBLE_EVT_GATTC_READ_RSP\000"
 3720      455F4556 
 3720      545F4741 
 3720      5454435F 
 3720      52454144 
 3721              	.LASF197:
 3722 155b 4359424C 		.ascii	"CYBLE_GATT_ERR_INVALID_OFFSET\000"
 3722      455F4741 
 3722      54545F45 
 3722      52525F49 
 3722      4E56414C 
 3723              	.LASF168:
 3724 1579 4359424C 		.ascii	"CYBLE_GATT_READ_BY_TYPE_REQ\000"
 3724      455F4741 
 3724      54545F52 
 3724      4541445F 
 3724      42595F54 
 3725              	.LASF77:
 3726 1595 4359424C 		.ascii	"CYBLE_EVT_L2CAP_CBFC_CONN_CNF\000"
ARM GAS  C:\Users\TTSS\AppData\Local\Temp\ccySleeg.s 			page 118


 3726      455F4556 
 3726      545F4C32 
 3726      4341505F 
 3726      43424643 
 3727              	.LASF228:
 3728 15b3 4359424C 		.ascii	"CYBLE_GATT_ERR_OUT_OF_RANGE\000"
 3728      455F4741 
 3728      54545F45 
 3728      52525F4F 
 3728      55545F4F 
 3729              	.LASF87:
 3730 15cf 4359424C 		.ascii	"CYBLE_EVT_FLASH_CORRUPT\000"
 3730      455F4556 
 3730      545F464C 
 3730      4153485F 
 3730      434F5252 
 3731              	.LASF15:
 3732 15e7 6C6F6E67 		.ascii	"long double\000"
 3732      20646F75 
 3732      626C6500 
 3733              	.LASF166:
 3734 15f3 4359424C 		.ascii	"CYBLE_GATT_FIND_BY_TYPE_VALUE_REQ\000"
 3734      455F4741 
 3734      54545F46 
 3734      494E445F 
 3734      42595F54 
 3735              	.LASF91:
 3736 1615 4359424C 		.ascii	"CYBLE_LL_PWR_LVL_NEG_6_DBM\000"
 3736      455F4C4C 
 3736      5F505752 
 3736      5F4C564C 
 3736      5F4E4547 
 3737              	.LASF23:
 3738 1630 4359424C 		.ascii	"CYBLE_EVT_MEMORY_REQUEST\000"
 3738      455F4556 
 3738      545F4D45 
 3738      4D4F5259 
 3738      5F524551 
 3739              	.LASF264:
 3740 1649 61707065 		.ascii	"appearanceCharHandle\000"
 3740      6172616E 
 3740      63654368 
 3740      61724861 
 3740      6E646C65 
 3741              	.LASF131:
 3742 165e 4359424C 		.ascii	"CYBLE_GAP_AUTH_ERROR_NONE\000"
 3742      455F4741 
 3742      505F4155 
 3742      54485F45 
 3742      52524F52 
 3743              	.LASF33:
 3744 1678 4359424C 		.ascii	"CYBLE_EVT_GAP_ENCRYPT_CHANGE\000"
 3744      455F4556 
 3744      545F4741 
 3744      505F454E 
 3744      43525950 
 3745              	.LASF241:
ARM GAS  C:\Users\TTSS\AppData\Local\Temp\ccySleeg.s 			page 119


 3746 1695 71756575 		.ascii	"queueBuffer\000"
 3746      65427566 
 3746      66657200 
 3747              	.LASF51:
 3748 16a1 4359424C 		.ascii	"CYBLE_EVT_GATTS_XCNHG_MTU_REQ\000"
 3748      455F4556 
 3748      545F4741 
 3748      5454535F 
 3748      58434E48 
 3749              	.LASF165:
 3750 16bf 4359424C 		.ascii	"CYBLE_GATT_FIND_INFO_RSP\000"
 3750      455F4741 
 3750      54545F46 
 3750      494E445F 
 3750      494E464F 
 3751              	.LASF133:
 3752 16d8 4359424C 		.ascii	"CYBLE_GAP_AUTH_ERROR_OOB_DATA_NOT_AVAILABLE\000"
 3752      455F4741 
 3752      505F4155 
 3752      54485F45 
 3752      52524F52 
 3753              	.LASF47:
 3754 1704 4359424C 		.ascii	"CYBLE_EVT_GAP_SMP_LOC_P256_KEYS_GEN_AND_SET_COMPLET"
 3754      455F4556 
 3754      545F4741 
 3754      505F534D 
 3754      505F4C4F 
 3755 1737 4500     		.ascii	"E\000"
 3756              	.LASF106:
 3757 1739 4359424C 		.ascii	"CYBLE_PREPARED_WRITE_REQUEST\000"
 3757      455F5052 
 3757      45504152 
 3757      45445F57 
 3757      52495445 
 3758              	.LASF160:
 3759 1756 4359424C 		.ascii	"CYBLE_GAP_CONN_PARAM_UPDATED_IN_CONTROLLER_T\000"
 3759      455F4741 
 3759      505F434F 
 3759      4E4E5F50 
 3759      4152414D 
 3760              	.LASF7:
 3761 1783 6C6F6E67 		.ascii	"long long unsigned int\000"
 3761      206C6F6E 
 3761      6720756E 
 3761      7369676E 
 3761      65642069 
 3762              	.LASF191:
 3763 179a 4359424C 		.ascii	"CYBLE_GATT_ERR_INVALID_HANDLE\000"
 3763      455F4741 
 3763      54545F45 
 3763      52525F49 
 3763      4E56414C 
 3764              	.LASF19:
 3765 17b8 4359424C 		.ascii	"CYBLE_EVT_TIMEOUT\000"
 3765      455F4556 
 3765      545F5449 
 3765      4D454F55 
ARM GAS  C:\Users\TTSS\AppData\Local\Temp\ccySleeg.s 			page 120


 3765      5400
 3766              	.LASF189:
 3767 17ca 4359424C 		.ascii	"CYBLE_GATT_UNKNOWN_PDU_IND\000"
 3767      455F4741 
 3767      54545F55 
 3767      4E4B4E4F 
 3767      574E5F50 
 3768              	.LASF230:
 3769 17e5 4359424C 		.ascii	"CYBLE_GATT_DB_ATTR_HANDLE_T\000"
 3769      455F4741 
 3769      54545F44 
 3769      425F4154 
 3769      54525F48 
 3770              	.LASF283:
 3771 1801 626C6553 		.ascii	"bleSsPowerLevel\000"
 3771      73506F77 
 3771      65724C65 
 3771      76656C00 
 3772              	.LASF80:
 3773 1811 4359424C 		.ascii	"CYBLE_EVT_L2CAP_CBFC_DATA_READ\000"
 3773      455F4556 
 3773      545F4C32 
 3773      4341505F 
 3773      43424643 
 3774              	.LASF190:
 3775 1830 4359424C 		.ascii	"CYBLE_GATT_ERR_NONE\000"
 3775      455F4741 
 3775      54545F45 
 3775      52525F4E 
 3775      4F4E4500 
 3776              	.LASF236:
 3777 1844 76616C75 		.ascii	"value\000"
 3777      6500
 3778              	.LASF242:
 3779 184a 746F7461 		.ascii	"totalAttrValueLength\000"
 3779      6C417474 
 3779      7256616C 
 3779      75654C65 
 3779      6E677468 
 3780              	.LASF229:
 3781 185f 4359424C 		.ascii	"CYBLE_GATT_ERR_CODE_T\000"
 3781      455F4741 
 3781      54545F45 
 3781      52525F43 
 3781      4F44455F 
 3782              	.LASF117:
 3783 1875 4359424C 		.ascii	"CYBLE_GAP_SCAN_TO\000"
 3783      455F4741 
 3783      505F5343 
 3783      414E5F54 
 3783      4F00
 3784              	.LASF212:
 3785 1887 4359424C 		.ascii	"CYBLE_GATT_ERR_HTS_OUT_OF_RANGE\000"
 3785      455F4741 
 3785      54545F45 
 3785      52525F48 
 3785      54535F4F 
ARM GAS  C:\Users\TTSS\AppData\Local\Temp\ccySleeg.s 			page 121


 3786              	.LASF268:
 3787 18a7 4359424C 		.ascii	"CYBLE_GAPS_T\000"
 3787      455F4741 
 3787      50535F54 
 3787      00
 3788              	.LASF115:
 3789 18b4 4359424C 		.ascii	"CYBLE_GAP_BD_ADDR_T\000"
 3789      455F4741 
 3789      505F4244 
 3789      5F414444 
 3789      525F5400 
 3790              	.LASF172:
 3791 18c8 4359424C 		.ascii	"CYBLE_GATT_READ_BLOB_REQ\000"
 3791      455F4741 
 3791      54545F52 
 3791      4541445F 
 3791      424C4F42 
 3792              	.LASF116:
 3793 18e1 4359424C 		.ascii	"CYBLE_GAP_ADV_MODE_TO\000"
 3793      455F4741 
 3793      505F4144 
 3793      565F4D4F 
 3793      44455F54 
 3794              	.LASF248:
 3795 18f7 68616E64 		.ascii	"handleValPair\000"
 3795      6C655661 
 3795      6C506169 
 3795      7200
 3796              	.LASF239:
 3797 1905 636F6E6E 		.ascii	"connHandle\000"
 3797      48616E64 
 3797      6C6500
 3798              	.LASF274:
 3799 1910 4379426C 		.ascii	"CyBle_TimeOutEventHandler\000"
 3799      655F5469 
 3799      6D654F75 
 3799      74457665 
 3799      6E744861 
 3800              	.LASF305:
 3801 192a 4379426C 		.ascii	"CyBle_IsDeviceAddressValid\000"
 3801      655F4973 
 3801      44657669 
 3801      63654164 
 3801      64726573 
 3802              	.LASF136:
 3803 1945 4359424C 		.ascii	"CYBLE_GAP_AUTH_ERROR_PAIRING_NOT_SUPPORTED\000"
 3803      455F4741 
 3803      505F4155 
 3803      54485F45 
 3803      52524F52 
 3804              	.LASF119:
 3805 1970 4359424C 		.ascii	"CYBLE_GENERIC_TO\000"
 3805      455F4745 
 3805      4E455249 
 3805      435F544F 
 3805      00
 3806              	.LASF55:
ARM GAS  C:\Users\TTSS\AppData\Local\Temp\ccySleeg.s 			page 122


 3807 1981 4359424C 		.ascii	"CYBLE_EVT_GATTC_FIND_INFO_RSP\000"
 3807      455F4556 
 3807      545F4741 
 3807      5454435F 
 3807      46494E44 
 3808              	.LASF54:
 3809 199f 4359424C 		.ascii	"CYBLE_EVT_GATTC_READ_BY_TYPE_RSP\000"
 3809      455F4556 
 3809      545F4741 
 3809      5454435F 
 3809      52454144 
 3810              	.LASF217:
 3811 19c0 4359424C 		.ascii	"CYBLE_GATTS_ERR_OPERATION_FAILED\000"
 3811      455F4741 
 3811      5454535F 
 3811      4552525F 
 3811      4F504552 
 3812              	.LASF297:
 3813 19e1 6379426C 		.ascii	"cyBle_state\000"
 3813      655F7374 
 3813      61746500 
 3814              	.LASF154:
 3815 19ed 70616972 		.ascii	"pairingProperties\000"
 3815      696E6750 
 3815      726F7065 
 3815      72746965 
 3815      7300
 3816              	.LASF61:
 3817 19ff 4359424C 		.ascii	"CYBLE_EVT_GATTC_WRITE_RSP\000"
 3817      455F4556 
 3817      545F4741 
 3817      5454435F 
 3817      57524954 
 3818              	.LASF260:
 3819 1a19 4359424C 		.ascii	"CYBLE_STATE_DISCONNECTED\000"
 3819      455F5354 
 3819      4154455F 
 3819      44495343 
 3819      4F4E4E45 
 3820              	.LASF285:
 3821 1a32 6C654D61 		.ascii	"leMask\000"
 3821      736B00
 3822              	.LASF30:
 3823 1a39 4359424C 		.ascii	"CYBLE_EVT_GAPP_ADVERTISEMENT_START_STOP\000"
 3823      455F4556 
 3823      545F4741 
 3823      50505F41 
 3823      44564552 
 3824              	.LASF9:
 3825 1a61 75696E74 		.ascii	"uint8\000"
 3825      3800
 3826              	.LASF294:
 3827 1a67 6379426C 		.ascii	"cyBle_authInfo\000"
 3827      655F6175 
 3827      7468496E 
 3827      666F00
 3828              	.LASF38:
ARM GAS  C:\Users\TTSS\AppData\Local\Temp\ccySleeg.s 			page 123


 3829 1a76 4359424C 		.ascii	"CYBLE_EVT_GAP_KEYPRESS_NOTIFICATION\000"
 3829      455F4556 
 3829      545F4741 
 3829      505F4B45 
 3829      59505245 
 3830              	.LASF279:
 3831 1a9a 4379426C 		.ascii	"CyBle_L2Cap_ConnParamUpdateRspEventHandler\000"
 3831      655F4C32 
 3831      4361705F 
 3831      436F6E6E 
 3831      50617261 
 3832              	.LASF178:
 3833 1ac5 4359424C 		.ascii	"CYBLE_GATT_WRITE_REQ\000"
 3833      455F4741 
 3833      54545F57 
 3833      52495445 
 3833      5F524551 
 3834              	.LASF2:
 3835 1ada 73686F72 		.ascii	"short int\000"
 3835      7420696E 
 3835      7400
 3836              	.LASF153:
 3837 1ae4 61757468 		.ascii	"authErr\000"
 3837      45727200 
 3838              	.LASF211:
 3839 1aec 4359424C 		.ascii	"CYBLE_GATT_ERR_CPS_INAPPROPRIATE_CONNECTION_PARAMET"
 3839      455F4741 
 3839      54545F45 
 3839      52525F43 
 3839      50535F49 
 3840 1b1f 45525300 		.ascii	"ERS\000"
 3841              	.LASF196:
 3842 1b23 4359424C 		.ascii	"CYBLE_GATT_ERR_REQUEST_NOT_SUPPORTED\000"
 3842      455F4741 
 3842      54545F45 
 3842      52525F52 
 3842      45515545 
 3843              	.LASF48:
 3844 1b48 4359424C 		.ascii	"CYBLE_EVT_GATTC_ERROR_RSP\000"
 3844      455F4556 
 3844      545F4741 
 3844      5454435F 
 3844      4552524F 
 3845              	.LASF130:
 3846 1b62 4359424C 		.ascii	"CYBLE_GAP_IOCAP_KEYBOARD_DISPLAY\000"
 3846      455F4741 
 3846      505F494F 
 3846      4341505F 
 3846      4B455942 
 3847              	.LASF261:
 3848 1b83 4359424C 		.ascii	"CYBLE_STATE_T\000"
 3848      455F5354 
 3848      4154455F 
 3848      5400
 3849              	.LASF76:
 3850 1b91 4359424C 		.ascii	"CYBLE_EVT_L2CAP_CBFC_CONN_IND\000"
 3850      455F4556 
ARM GAS  C:\Users\TTSS\AppData\Local\Temp\ccySleeg.s 			page 124


 3850      545F4C32 
 3850      4341505F 
 3850      43424643 
 3851              	.LASF64:
 3852 1baf 4359424C 		.ascii	"CYBLE_EVT_GATTS_EXEC_WRITE_REQ\000"
 3852      455F4556 
 3852      545F4741 
 3852      5454535F 
 3852      45584543 
 3853              	.LASF24:
 3854 1bce 4359424C 		.ascii	"CYBLE_EVT_GAPC_SCAN_PROGRESS_RESULT\000"
 3854      455F4556 
 3854      545F4741 
 3854      50435F53 
 3854      43414E5F 
 3855              	.LASF253:
 3856 1bf2 63636364 		.ascii	"cccdCount\000"
 3856      436F756E 
 3856      7400
 3857              	.LASF224:
 3858 1bfc 4359424C 		.ascii	"CYBLE_GATT_ERR_ANCS_INVALID_PARAMETER\000"
 3858      455F4741 
 3858      54545F45 
 3858      52525F41 
 3858      4E43535F 
 3859              	.LASF219:
 3860 1c22 4359424C 		.ascii	"CYBLE_GATTS_ERR_HPS_INVALID_REQUEST\000"
 3860      455F4741 
 3860      5454535F 
 3860      4552525F 
 3860      4850535F 
 3861              	.LASF290:
 3862 1c46 6379426C 		.ascii	"cyBle_stackMemoryRam\000"
 3862      655F7374 
 3862      61636B4D 
 3862      656D6F72 
 3862      7952616D 
 3863              	.LASF301:
 3864 1c5b 6379426C 		.ascii	"cyBle_advertisingIntervalType\000"
 3864      655F6164 
 3864      76657274 
 3864      6973696E 
 3864      67496E74 
 3865              	.LASF45:
 3866 1c79 4359424C 		.ascii	"CYBLE_EVT_GAP_SCAN_REQ_RECVD\000"
 3866      455F4556 
 3866      545F4741 
 3866      505F5343 
 3866      414E5F52 
 3867              	.LASF266:
 3868 1c96 63656E74 		.ascii	"centralAddrResolutionCharHandle\000"
 3868      72616C41 
 3868      64647252 
 3868      65736F6C 
 3868      7574696F 
 3869              	.LASF113:
 3870 1cb6 62644164 		.ascii	"bdAddr\000"
ARM GAS  C:\Users\TTSS\AppData\Local\Temp\ccySleeg.s 			page 125


 3870      647200
 3871              	.LASF221:
 3872 1cbd 4359424C 		.ascii	"CYBLE_GATT_ERR_ANS_COMMAND_NOT_SUPPORTED\000"
 3872      455F4741 
 3872      54545F45 
 3872      52525F41 
 3872      4E535F43 
 3873              	.LASF280:
 3874 1ce6 72657370 		.ascii	"response\000"
 3874      6F6E7365 
 3874      00
 3875              	.LASF171:
 3876 1cef 4359424C 		.ascii	"CYBLE_GATT_READ_RSP\000"
 3876      455F4741 
 3876      54545F52 
 3876      4541445F 
 3876      52535000 
 3877              	.LASF284:
 3878 1d03 62644164 		.ascii	"bdAddrLoc\000"
 3878      64724C6F 
 3878      6300
 3879              	.LASF95:
 3880 1d0d 4359424C 		.ascii	"CYBLE_LL_PWR_LVL_0_DBM\000"
 3880      455F4C4C 
 3880      5F505752 
 3880      5F4C564C 
 3880      5F305F44 
 3881              	.LASF99:
 3882 1d24 4359424C 		.ascii	"CYBLE_LL_ADV_CH_TYPE\000"
 3882      455F4C4C 
 3882      5F414456 
 3882      5F43485F 
 3882      54595045 
 3883              	.LASF85:
 3884 1d39 4359424C 		.ascii	"CYBLE_EVT_LE_PING_AUTH_TIMEOUT\000"
 3884      455F4556 
 3884      545F4C45 
 3884      5F50494E 
 3884      475F4155 
 3885              	.LASF295:
 3886 1d58 6379426C 		.ascii	"cyBle_attValuesCCCD\000"
 3886      655F6174 
 3886      7456616C 
 3886      75657343 
 3886      43434400 
 3887              	.LASF67:
 3888 1d6c 4359424C 		.ascii	"CYBLE_EVT_GATTC_HANDLE_VALUE_IND\000"
 3888      455F4556 
 3888      545F4741 
 3888      5454435F 
 3888      48414E44 
 3889              	.LASF282:
 3890 1d8d 6576656E 		.ascii	"eventCode\000"
 3890      74436F64 
 3890      6500
 3891              	.LASF22:
 3892 1d97 4359424C 		.ascii	"CYBLE_EVT_STACK_BUSY_STATUS\000"
ARM GAS  C:\Users\TTSS\AppData\Local\Temp\ccySleeg.s 			page 126


 3892      455F4556 
 3892      545F5354 
 3892      41434B5F 
 3892      42555359 
 3893              	.LASF158:
 3894 1db3 636F6E6E 		.ascii	"connLatency\000"
 3894      4C617465 
 3894      6E637900 
 3895              	.LASF143:
 3896 1dbf 4359424C 		.ascii	"CYBLE_GAP_AUTH_ERROR_NUMERIC_COMPARISON_FAILED\000"
 3896      455F4741 
 3896      505F4155 
 3896      54485F45 
 3896      52524F52 
 3897              	.LASF127:
 3898 1dee 4359424C 		.ascii	"CYBLE_GAP_IOCAP_DISPLAY_YESNO\000"
 3898      455F4741 
 3898      505F494F 
 3898      4341505F 
 3898      44495350 
 3899              	.LASF36:
 3900 1e0c 4359424C 		.ascii	"CYBLE_EVT_GAP_KEYINFO_EXCHNGE_CMPLT\000"
 3900      455F4556 
 3900      545F4741 
 3900      505F4B45 
 3900      59494E46 
 3901              	.LASF183:
 3902 1e30 4359424C 		.ascii	"CYBLE_GATT_EXECUTE_WRITE_REQ\000"
 3902      455F4741 
 3902      54545F45 
 3902      58454355 
 3902      54455F57 
 3903              	.LASF105:
 3904 1e4d 4359424C 		.ascii	"CYBLE_BLESS_PWR_IN_DB_T\000"
 3904      455F424C 
 3904      4553535F 
 3904      5057525F 
 3904      494E5F44 
 3905              	.LASF101:
 3906 1e65 4359424C 		.ascii	"CYBLE_LL_MAX_CH_TYPE\000"
 3906      455F4C4C 
 3906      5F4D4158 
 3906      5F43485F 
 3906      54595045 
 3907              	.LASF73:
 3908 1e7a 4359424C 		.ascii	"CYBLE_EVT_L2CAP_CONN_PARAM_UPDATE_REQ\000"
 3908      455F4556 
 3908      545F4C32 
 3908      4341505F 
 3908      434F4E4E 
 3909              	.LASF108:
 3910 1ea0 4359424C 		.ascii	"CYBLE_PROTOCOL_REQ_T\000"
 3910      455F5052 
 3910      4F544F43 
 3910      4F4C5F52 
 3910      45515F54 
 3911              	.LASF269:
ARM GAS  C:\Users\TTSS\AppData\Local\Temp\ccySleeg.s 			page 127


 3912 1eb5 67617474 		.ascii	"gattErr\000"
 3912      45727200 
 3913              	.LASF193:
 3914 1ebd 4359424C 		.ascii	"CYBLE_GATT_ERR_WRITE_NOT_PERMITTED\000"
 3914      455F4741 
 3914      54545F45 
 3914      52525F57 
 3914      52495445 
 3915              	.LASF157:
 3916 1ee0 636F6E6E 		.ascii	"connIntv\000"
 3916      496E7476 
 3916      00
 3917              	.LASF3:
 3918 1ee9 73686F72 		.ascii	"short unsigned int\000"
 3918      7420756E 
 3918      7369676E 
 3918      65642069 
 3918      6E7400
 3919              	.LASF205:
 3920 1efc 4359424C 		.ascii	"CYBLE_GATT_ERR_INSUFFICIENT_ENCRYPTION\000"
 3920      455F4741 
 3920      54545F45 
 3920      52525F49 
 3920      4E535546 
 3921              	.LASF258:
 3922 1f23 4359424C 		.ascii	"CYBLE_STATE_CONNECTED\000"
 3922      455F5354 
 3922      4154455F 
 3922      434F4E4E 
 3922      45435445 
 3923              	.LASF303:
 3924 1f39 47656E65 		.ascii	"Generated_Source\\PSoC4\\BLE_eventHandler.c\000"
 3924      72617465 
 3924      645F536F 
 3924      75726365 
 3924      5C50536F 
 3925              	.LASF234:
 3926 1f63 61637475 		.ascii	"actualLen\000"
 3926      616C4C65 
 3926      6E00
 3927              	.LASF176:
 3928 1f6d 4359424C 		.ascii	"CYBLE_GATT_READ_BY_GROUP_REQ\000"
 3928      455F4741 
 3928      54545F52 
 3928      4541445F 
 3928      42595F47 
 3929              	.LASF232:
 3930 1f8a 61747449 		.ascii	"attId\000"
 3930      6400
 3931              	.LASF21:
 3932 1f90 4359424C 		.ascii	"CYBLE_EVT_HCI_STATUS\000"
 3932      455F4556 
 3932      545F4843 
 3932      495F5354 
 3932      41545553 
 3933              	.LASF50:
 3934 1fa5 4359424C 		.ascii	"CYBLE_EVT_GATT_DISCONNECT_IND\000"
ARM GAS  C:\Users\TTSS\AppData\Local\Temp\ccySleeg.s 			page 128


 3934      455F4556 
 3934      545F4741 
 3934      54545F44 
 3934      4953434F 
 3935              	.LASF159:
 3936 1fc3 73757065 		.ascii	"supervisionTO\000"
 3936      72766973 
 3936      696F6E54 
 3936      4F00
 3937              	.LASF118:
 3938 1fd1 4359424C 		.ascii	"CYBLE_GATT_RSP_TO\000"
 3938      455F4741 
 3938      54545F52 
 3938      53505F54 
 3938      4F00
 3939              	.LASF83:
 3940 1fe3 4359424C 		.ascii	"CYBLE_EVT_L2CAP_CBFC_DATA_WRITE_IND\000"
 3940      455F4556 
 3940      545F4C32 
 3940      4341505F 
 3940      43424643 
 3941              	.LASF72:
 3942 2007 4359424C 		.ascii	"CYBLE_EVT_GATTC_LONG_PROCEDURE_END\000"
 3942      455F4556 
 3942      545F4741 
 3942      5454435F 
 3942      4C4F4E47 
 3943              	.LASF32:
 3944 202a 4359424C 		.ascii	"CYBLE_EVT_GAP_DEVICE_DISCONNECTED\000"
 3944      455F4556 
 3944      545F4741 
 3944      505F4445 
 3944      56494345 
 3945              	.LASF68:
 3946 204c 4359424C 		.ascii	"CYBLE_EVT_GATTS_HANDLE_VALUE_CNF\000"
 3946      455F4556 
 3946      545F4741 
 3946      5454535F 
 3946      48414E44 
 3947              	.LASF10:
 3948 206d 75696E74 		.ascii	"uint16\000"
 3948      313600
 3949              		.ident	"GCC: (GNU Tools for ARM Embedded Processors) 5.4.1 20160609 (release) [ARM/embedded-5-bran
