ARM GAS  C:\Users\Toshiba\AppData\Local\Temp\ccUpswI6.s 			page 1


   1              		.syntax unified
   2              		.cpu cortex-m0
   3              		.fpu softvfp
   4              		.eabi_attribute 20, 1
   5              		.eabi_attribute 21, 1
   6              		.eabi_attribute 23, 3
   7              		.eabi_attribute 24, 1
   8              		.eabi_attribute 25, 1
   9              		.eabi_attribute 26, 1
  10              		.eabi_attribute 30, 6
  11              		.eabi_attribute 34, 0
  12              		.eabi_attribute 18, 4
  13              		.thumb
  14              		.syntax unified
  15              		.file	"BLE_HAL_PVT.c"
  16              		.text
  17              	.Ltext0:
  18              		.cfi_sections	.debug_frame
  19              		.section	.text.CyBLE_Nvram_Write,"ax",%progbits
  20              		.align	2
  21              		.global	CyBLE_Nvram_Write
  22              		.code	16
  23              		.thumb_func
  24              		.type	CyBLE_Nvram_Write, %function
  25              	CyBLE_Nvram_Write:
  26              	.LFB2:
  27              		.file 1 "Generated_Source\\PSoC4\\BLE_HAL_PVT.c"
   1:Generated_Source\PSoC4/BLE_HAL_PVT.c **** /***************************************************************************//**
   2:Generated_Source\PSoC4/BLE_HAL_PVT.c **** * \file CYBLE_HAL_PVT.c
   3:Generated_Source\PSoC4/BLE_HAL_PVT.c **** * \version 3.40
   4:Generated_Source\PSoC4/BLE_HAL_PVT.c **** *
   5:Generated_Source\PSoC4/BLE_HAL_PVT.c **** * \brief
   6:Generated_Source\PSoC4/BLE_HAL_PVT.c **** *  This file contains the source code for the HAL section of the BLE component
   7:Generated_Source\PSoC4/BLE_HAL_PVT.c **** *
   8:Generated_Source\PSoC4/BLE_HAL_PVT.c **** ********************************************************************************
   9:Generated_Source\PSoC4/BLE_HAL_PVT.c **** * \copyright
  10:Generated_Source\PSoC4/BLE_HAL_PVT.c **** * Copyright 2014-2016, Cypress Semiconductor Corporation.  All rights reserved.
  11:Generated_Source\PSoC4/BLE_HAL_PVT.c **** * You may use this file only in accordance with the license, terms, conditions,
  12:Generated_Source\PSoC4/BLE_HAL_PVT.c **** * disclaimers, and limitations in the end user license agreement accompanying
  13:Generated_Source\PSoC4/BLE_HAL_PVT.c **** * the software package with which this file was provided.
  14:Generated_Source\PSoC4/BLE_HAL_PVT.c **** *******************************************************************************/
  15:Generated_Source\PSoC4/BLE_HAL_PVT.c **** 
  16:Generated_Source\PSoC4/BLE_HAL_PVT.c **** #include "BLE_HAL_PVT.h"
  17:Generated_Source\PSoC4/BLE_HAL_PVT.c **** 
  18:Generated_Source\PSoC4/BLE_HAL_PVT.c **** 
  19:Generated_Source\PSoC4/BLE_HAL_PVT.c **** #if(CYBLE_MODE == CYBLE_HCI)
  20:Generated_Source\PSoC4/BLE_HAL_PVT.c **** 
  21:Generated_Source\PSoC4/BLE_HAL_PVT.c **** 
  22:Generated_Source\PSoC4/BLE_HAL_PVT.c **** /*******************************************************************************
  23:Generated_Source\PSoC4/BLE_HAL_PVT.c **** * Function Name: CyBLE_Uart_Start
  24:Generated_Source\PSoC4/BLE_HAL_PVT.c **** ****************************************************************************//**
  25:Generated_Source\PSoC4/BLE_HAL_PVT.c **** *
  26:Generated_Source\PSoC4/BLE_HAL_PVT.c **** *  Enables the platform UART Tx and RX interrupts and then enables the UART
  27:Generated_Source\PSoC4/BLE_HAL_PVT.c **** *  component.
  28:Generated_Source\PSoC4/BLE_HAL_PVT.c **** *
  29:Generated_Source\PSoC4/BLE_HAL_PVT.c **** * \return
  30:Generated_Source\PSoC4/BLE_HAL_PVT.c **** *  None
ARM GAS  C:\Users\Toshiba\AppData\Local\Temp\ccUpswI6.s 			page 2


  31:Generated_Source\PSoC4/BLE_HAL_PVT.c **** *
  32:Generated_Source\PSoC4/BLE_HAL_PVT.c **** *******************************************************************************/
  33:Generated_Source\PSoC4/BLE_HAL_PVT.c **** void CyBLE_Uart_Start (void)
  34:Generated_Source\PSoC4/BLE_HAL_PVT.c **** {
  35:Generated_Source\PSoC4/BLE_HAL_PVT.c ****     #if (CYBLE_HCI_TYPE == CYBLE_HCI_OVER_UART)
  36:Generated_Source\PSoC4/BLE_HAL_PVT.c ****         /* Setup ISR */
  37:Generated_Source\PSoC4/BLE_HAL_PVT.c ****         BLE_uart_isr_StartEx(&CyBLE_Uart_Interrupt);
  38:Generated_Source\PSoC4/BLE_HAL_PVT.c **** 
  39:Generated_Source\PSoC4/BLE_HAL_PVT.c ****         BLE_HAL_Uart_Start();
  40:Generated_Source\PSoC4/BLE_HAL_PVT.c ****     #endif /* (CYBLE_HCI_TYPE == CYBLE_HCI_OVER_UART) */
  41:Generated_Source\PSoC4/BLE_HAL_PVT.c **** }
  42:Generated_Source\PSoC4/BLE_HAL_PVT.c **** 
  43:Generated_Source\PSoC4/BLE_HAL_PVT.c **** 
  44:Generated_Source\PSoC4/BLE_HAL_PVT.c **** /*******************************************************************************
  45:Generated_Source\PSoC4/BLE_HAL_PVT.c **** * Function Name: CyBLE_Uart_Stop
  46:Generated_Source\PSoC4/BLE_HAL_PVT.c **** ****************************************************************************//**
  47:Generated_Source\PSoC4/BLE_HAL_PVT.c **** *
  48:Generated_Source\PSoC4/BLE_HAL_PVT.c **** *  Disables the UART, clears all pending interrupts and disables the UART Tx
  49:Generated_Source\PSoC4/BLE_HAL_PVT.c **** *  and RX interrupts. This will also empty out the FIFOs.
  50:Generated_Source\PSoC4/BLE_HAL_PVT.c **** *
  51:Generated_Source\PSoC4/BLE_HAL_PVT.c **** * \return
  52:Generated_Source\PSoC4/BLE_HAL_PVT.c **** *  None
  53:Generated_Source\PSoC4/BLE_HAL_PVT.c **** *
  54:Generated_Source\PSoC4/BLE_HAL_PVT.c **** *******************************************************************************/
  55:Generated_Source\PSoC4/BLE_HAL_PVT.c **** void CyBLE_Uart_Stop (void)
  56:Generated_Source\PSoC4/BLE_HAL_PVT.c **** {
  57:Generated_Source\PSoC4/BLE_HAL_PVT.c ****     #if (CYBLE_HCI_TYPE == CYBLE_HCI_OVER_UART)
  58:Generated_Source\PSoC4/BLE_HAL_PVT.c ****         /* Stop interrupt and UART */
  59:Generated_Source\PSoC4/BLE_HAL_PVT.c ****         BLE_uart_isr_Stop();
  60:Generated_Source\PSoC4/BLE_HAL_PVT.c **** 
  61:Generated_Source\PSoC4/BLE_HAL_PVT.c ****         BLE_HAL_Uart_Stop();
  62:Generated_Source\PSoC4/BLE_HAL_PVT.c ****     #endif /* (CYBLE_HCI_TYPE == CYBLE_HCI_OVER_UART) */
  63:Generated_Source\PSoC4/BLE_HAL_PVT.c **** }
  64:Generated_Source\PSoC4/BLE_HAL_PVT.c **** 
  65:Generated_Source\PSoC4/BLE_HAL_PVT.c **** 
  66:Generated_Source\PSoC4/BLE_HAL_PVT.c **** /*******************************************************************************
  67:Generated_Source\PSoC4/BLE_HAL_PVT.c **** * Function Name: CyBLE_Uart_Transmit
  68:Generated_Source\PSoC4/BLE_HAL_PVT.c **** ****************************************************************************//**
  69:Generated_Source\PSoC4/BLE_HAL_PVT.c **** *
  70:Generated_Source\PSoC4/BLE_HAL_PVT.c **** *  Sends the data to Uart Tx FIFO. The function handles data length up to the 
  71:Generated_Source\PSoC4/BLE_HAL_PVT.c **** *  supported Tx FIFO length of the uart hardware module.
  72:Generated_Source\PSoC4/BLE_HAL_PVT.c **** *
  73:Generated_Source\PSoC4/BLE_HAL_PVT.c **** *  \param data: Pointer to the data to send through the UART
  74:Generated_Source\PSoC4/BLE_HAL_PVT.c **** *  \param length: the length of data to transmit in bytes
  75:Generated_Source\PSoC4/BLE_HAL_PVT.c **** *
  76:Generated_Source\PSoC4/BLE_HAL_PVT.c **** * \return
  77:Generated_Source\PSoC4/BLE_HAL_PVT.c **** *  None
  78:Generated_Source\PSoC4/BLE_HAL_PVT.c **** *
  79:Generated_Source\PSoC4/BLE_HAL_PVT.c **** *******************************************************************************/
  80:Generated_Source\PSoC4/BLE_HAL_PVT.c **** void CyBLE_Uart_Transmit (const uint8 *dataBuf, uint8 length)
  81:Generated_Source\PSoC4/BLE_HAL_PVT.c **** {
  82:Generated_Source\PSoC4/BLE_HAL_PVT.c ****     #if (CYBLE_HCI_TYPE == CYBLE_HCI_OVER_UART)
  83:Generated_Source\PSoC4/BLE_HAL_PVT.c ****         BLE_HAL_Uart_SpiUartPutArray(dataBuf, (uint32)length);
  84:Generated_Source\PSoC4/BLE_HAL_PVT.c ****     #endif /* (CYBLE_HCI_TYPE == CYBLE_HCI_OVER_UART) */
  85:Generated_Source\PSoC4/BLE_HAL_PVT.c **** }
  86:Generated_Source\PSoC4/BLE_HAL_PVT.c **** 
  87:Generated_Source\PSoC4/BLE_HAL_PVT.c **** /*******************************************************************************
ARM GAS  C:\Users\Toshiba\AppData\Local\Temp\ccUpswI6.s 			page 3


  88:Generated_Source\PSoC4/BLE_HAL_PVT.c **** * Function Name: CyBLE_Uart_Isr_Enable
  89:Generated_Source\PSoC4/BLE_HAL_PVT.c **** ****************************************************************************//**
  90:Generated_Source\PSoC4/BLE_HAL_PVT.c **** *
  91:Generated_Source\PSoC4/BLE_HAL_PVT.c **** *   Enables the UART interrupt to the interrupt controller. 
  92:Generated_Source\PSoC4/BLE_HAL_PVT.c **** *   Do not call this function unless CyBLE_Uart_Start() has been called or the
  93:Generated_Source\PSoC4/BLE_HAL_PVT.c **** *   functionality of the SysInt_Init() function, which sets the vector and the
  94:Generated_Source\PSoC4/BLE_HAL_PVT.c **** *   priority, has been called.
  95:Generated_Source\PSoC4/BLE_HAL_PVT.c **** *
  96:Generated_Source\PSoC4/BLE_HAL_PVT.c **** *******************************************************************************/
  97:Generated_Source\PSoC4/BLE_HAL_PVT.c **** void CyBLE_Uart_Isr_Enable(void)
  98:Generated_Source\PSoC4/BLE_HAL_PVT.c **** {
  99:Generated_Source\PSoC4/BLE_HAL_PVT.c ****     #if (CYBLE_HCI_TYPE == CYBLE_HCI_OVER_UART)
 100:Generated_Source\PSoC4/BLE_HAL_PVT.c ****         BLE_uart_isr_Enable();
 101:Generated_Source\PSoC4/BLE_HAL_PVT.c ****     #endif /* (CYBLE_HCI_TYPE == CYBLE_HCI_OVER_UART) */
 102:Generated_Source\PSoC4/BLE_HAL_PVT.c **** }
 103:Generated_Source\PSoC4/BLE_HAL_PVT.c **** 
 104:Generated_Source\PSoC4/BLE_HAL_PVT.c **** 
 105:Generated_Source\PSoC4/BLE_HAL_PVT.c **** /*******************************************************************************
 106:Generated_Source\PSoC4/BLE_HAL_PVT.c **** * Function Name: CyBLE_Uart_Isr_Disable
 107:Generated_Source\PSoC4/BLE_HAL_PVT.c **** ****************************************************************************//**
 108:Generated_Source\PSoC4/BLE_HAL_PVT.c **** *
 109:Generated_Source\PSoC4/BLE_HAL_PVT.c **** *   Disables the UART Interrupt in the interrupt controller.
 110:Generated_Source\PSoC4/BLE_HAL_PVT.c **** *
 111:Generated_Source\PSoC4/BLE_HAL_PVT.c **** *******************************************************************************/
 112:Generated_Source\PSoC4/BLE_HAL_PVT.c **** void CyBLE_Uart_Isr_Disable(void)
 113:Generated_Source\PSoC4/BLE_HAL_PVT.c **** {
 114:Generated_Source\PSoC4/BLE_HAL_PVT.c ****     #if (CYBLE_HCI_TYPE == CYBLE_HCI_OVER_UART)
 115:Generated_Source\PSoC4/BLE_HAL_PVT.c ****         BLE_uart_isr_Disable();
 116:Generated_Source\PSoC4/BLE_HAL_PVT.c ****     #endif /* (CYBLE_HCI_TYPE == CYBLE_HCI_OVER_UART) */
 117:Generated_Source\PSoC4/BLE_HAL_PVT.c **** }
 118:Generated_Source\PSoC4/BLE_HAL_PVT.c **** 
 119:Generated_Source\PSoC4/BLE_HAL_PVT.c **** #endif /* (CYBLE_MODE == CYBLE_HCI) */
 120:Generated_Source\PSoC4/BLE_HAL_PVT.c **** 
 121:Generated_Source\PSoC4/BLE_HAL_PVT.c **** 
 122:Generated_Source\PSoC4/BLE_HAL_PVT.c **** /*******************************************************************************
 123:Generated_Source\PSoC4/BLE_HAL_PVT.c **** * Function Name: CyBLE_Nvram_Write
 124:Generated_Source\PSoC4/BLE_HAL_PVT.c **** ****************************************************************************//**
 125:Generated_Source\PSoC4/BLE_HAL_PVT.c **** *
 126:Generated_Source\PSoC4/BLE_HAL_PVT.c **** *  This function writes the data to the NVRAM store. It will check the 
 127:Generated_Source\PSoC4/BLE_HAL_PVT.c **** *  appropriate alignment of a start address and also perform an address range 
 128:Generated_Source\PSoC4/BLE_HAL_PVT.c **** *  check based on the length before performing the write operation.
 129:Generated_Source\PSoC4/BLE_HAL_PVT.c **** *  This function performs memory compare and writes only row where there are new
 130:Generated_Source\PSoC4/BLE_HAL_PVT.c **** *  data to write.
 131:Generated_Source\PSoC4/BLE_HAL_PVT.c **** *
 132:Generated_Source\PSoC4/BLE_HAL_PVT.c **** *  \param buffer:   Pointer to the buffer containing the data to be stored.
 133:Generated_Source\PSoC4/BLE_HAL_PVT.c **** *  \param varFlash: Pointer to the array or variable in the flash.
 134:Generated_Source\PSoC4/BLE_HAL_PVT.c **** *  \param length:    The length of the data in bytes.
 135:Generated_Source\PSoC4/BLE_HAL_PVT.c **** *
 136:Generated_Source\PSoC4/BLE_HAL_PVT.c **** * \return
 137:Generated_Source\PSoC4/BLE_HAL_PVT.c **** *  CYRET_SUCCESS    a successful write
 138:Generated_Source\PSoC4/BLE_HAL_PVT.c **** *  CYRET_BAD_PARAM  A request to write outside the flash boundary.
 139:Generated_Source\PSoC4/BLE_HAL_PVT.c **** *  CYRET_UNKNOWN    Other errors in writing the flash
 140:Generated_Source\PSoC4/BLE_HAL_PVT.c **** *
 141:Generated_Source\PSoC4/BLE_HAL_PVT.c **** * \sideeffect
 142:Generated_Source\PSoC4/BLE_HAL_PVT.c **** *  For BLE devices with 128K of Flash memory this function will automatically 
 143:Generated_Source\PSoC4/BLE_HAL_PVT.c **** *  modify the clock settings for the device.
 144:Generated_Source\PSoC4/BLE_HAL_PVT.c **** *  Writing to flash requires changes to be done to the IMO (set to 48 MHz)
ARM GAS  C:\Users\Toshiba\AppData\Local\Temp\ccUpswI6.s 			page 4


 145:Generated_Source\PSoC4/BLE_HAL_PVT.c **** *  and HFCLK (source set to IMO) settings. The configuration is restored before
 146:Generated_Source\PSoC4/BLE_HAL_PVT.c **** *  returning. This will impact the operation of most of the hardware in the
 147:Generated_Source\PSoC4/BLE_HAL_PVT.c **** *  device.
 148:Generated_Source\PSoC4/BLE_HAL_PVT.c **** *
 149:Generated_Source\PSoC4/BLE_HAL_PVT.c **** *******************************************************************************/
 150:Generated_Source\PSoC4/BLE_HAL_PVT.c **** cystatus CyBLE_Nvram_Write (const uint8 buffer[], const uint8 varFlash[], uint16 length)
 151:Generated_Source\PSoC4/BLE_HAL_PVT.c **** {
  28              		.loc 1 151 0
  29              		.cfi_startproc
  30              		@ args = 0, pretend = 0, frame = 176
  31              		@ frame_needed = 1, uses_anonymous_args = 0
  32 0000 80B5     		push	{r7, lr}
  33              		.cfi_def_cfa_offset 8
  34              		.cfi_offset 7, -8
  35              		.cfi_offset 14, -4
  36 0002 ACB0     		sub	sp, sp, #176
  37              		.cfi_def_cfa_offset 184
  38 0004 00AF     		add	r7, sp, #0
  39              		.cfi_def_cfa_register 7
  40 0006 F860     		str	r0, [r7, #12]
  41 0008 B960     		str	r1, [r7, #8]
  42 000a BB1D     		adds	r3, r7, #6
  43 000c 1A80     		strh	r2, [r3]
 152:Generated_Source\PSoC4/BLE_HAL_PVT.c ****     uint8 writeBuffer[CY_FLASH_SIZEOF_ROW];
 153:Generated_Source\PSoC4/BLE_HAL_PVT.c ****     uint32 rowId;
 154:Generated_Source\PSoC4/BLE_HAL_PVT.c ****     uint32 dstIndex;
 155:Generated_Source\PSoC4/BLE_HAL_PVT.c ****     uint32 srcIndex = 0u;
  44              		.loc 1 155 0
  45 000e 0023     		movs	r3, #0
  46 0010 A422     		movs	r2, #164
  47 0012 BA18     		adds	r2, r7, r2
  48 0014 1360     		str	r3, [r2]
 156:Generated_Source\PSoC4/BLE_HAL_PVT.c ****     cystatus rc = CYRET_SUCCESS;
  49              		.loc 1 156 0
  50 0016 0023     		movs	r3, #0
  51 0018 A022     		movs	r2, #160
  52 001a BA18     		adds	r2, r7, r2
  53 001c 1360     		str	r3, [r2]
 157:Generated_Source\PSoC4/BLE_HAL_PVT.c ****     uint32 eeOffset;
 158:Generated_Source\PSoC4/BLE_HAL_PVT.c ****     uint32 byteOffset;
 159:Generated_Source\PSoC4/BLE_HAL_PVT.c ****     uint32 rowsNotEqual;
 160:Generated_Source\PSoC4/BLE_HAL_PVT.c **** 
 161:Generated_Source\PSoC4/BLE_HAL_PVT.c ****     eeOffset = (uint32)varFlash;
  54              		.loc 1 161 0
  55 001e BB68     		ldr	r3, [r7, #8]
  56 0020 9422     		movs	r2, #148
  57 0022 BA18     		adds	r2, r7, r2
  58 0024 1360     		str	r3, [r2]
 162:Generated_Source\PSoC4/BLE_HAL_PVT.c **** 
 163:Generated_Source\PSoC4/BLE_HAL_PVT.c ****     /* Make sure, that varFlash[] points to Flash */
 164:Generated_Source\PSoC4/BLE_HAL_PVT.c ****     if ((eeOffset + length) < CYBLE_HAL_FLASH_END_ADDR)
  59              		.loc 1 164 0
  60 0026 BB1D     		adds	r3, r7, #6
  61 0028 1A88     		ldrh	r2, [r3]
  62 002a 9423     		movs	r3, #148
  63 002c FB18     		adds	r3, r7, r3
  64 002e 1B68     		ldr	r3, [r3]
ARM GAS  C:\Users\Toshiba\AppData\Local\Temp\ccUpswI6.s 			page 5


  65 0030 D318     		adds	r3, r2, r3
  66 0032 594A     		ldr	r2, .L14
  67 0034 9342     		cmp	r3, r2
  68 0036 00D9     		bls	.LCB36
  69 0038 94E0     		b	.L2	@long jump
  70              	.LCB36:
 165:Generated_Source\PSoC4/BLE_HAL_PVT.c ****     {
 166:Generated_Source\PSoC4/BLE_HAL_PVT.c ****         rowId = eeOffset / CY_FLASH_SIZEOF_ROW;
  71              		.loc 1 166 0
  72 003a 9423     		movs	r3, #148
  73 003c FB18     		adds	r3, r7, r3
  74 003e 1B68     		ldr	r3, [r3]
  75 0040 DB09     		lsrs	r3, r3, #7
  76 0042 AC22     		movs	r2, #172
  77 0044 BA18     		adds	r2, r7, r2
  78 0046 1360     		str	r3, [r2]
 167:Generated_Source\PSoC4/BLE_HAL_PVT.c ****         byteOffset = CY_FLASH_SIZEOF_ROW * rowId;
  79              		.loc 1 167 0
  80 0048 AC23     		movs	r3, #172
  81 004a FB18     		adds	r3, r7, r3
  82 004c 1B68     		ldr	r3, [r3]
  83 004e DB01     		lsls	r3, r3, #7
  84 0050 9C22     		movs	r2, #156
  85 0052 BA18     		adds	r2, r7, r2
  86 0054 1360     		str	r3, [r2]
 168:Generated_Source\PSoC4/BLE_HAL_PVT.c **** 
 169:Generated_Source\PSoC4/BLE_HAL_PVT.c ****         while ((srcIndex < length) && (rc == CYRET_SUCCESS))
  87              		.loc 1 169 0
  88 0056 77E0     		b	.L3
  89              	.L11:
 170:Generated_Source\PSoC4/BLE_HAL_PVT.c ****         {
 171:Generated_Source\PSoC4/BLE_HAL_PVT.c ****             rowsNotEqual = 0u;
  90              		.loc 1 171 0
  91 0058 0023     		movs	r3, #0
  92 005a 9822     		movs	r2, #152
  93 005c BA18     		adds	r2, r7, r2
  94 005e 1360     		str	r3, [r2]
 172:Generated_Source\PSoC4/BLE_HAL_PVT.c ****             /* Copy data to the write buffer either from the source buffer or from the flash */
 173:Generated_Source\PSoC4/BLE_HAL_PVT.c ****             for (dstIndex = 0u; dstIndex < CY_FLASH_SIZEOF_ROW; dstIndex++)
  95              		.loc 1 173 0
  96 0060 0023     		movs	r3, #0
  97 0062 A822     		movs	r2, #168
  98 0064 BA18     		adds	r2, r7, r2
  99 0066 1360     		str	r3, [r2]
 100 0068 50E0     		b	.L4
 101              	.L8:
 174:Generated_Source\PSoC4/BLE_HAL_PVT.c ****             {
 175:Generated_Source\PSoC4/BLE_HAL_PVT.c ****                 if ((byteOffset >= eeOffset) && (srcIndex < length))
 102              		.loc 1 175 0
 103 006a 9C23     		movs	r3, #156
 104 006c FB18     		adds	r3, r7, r3
 105 006e 1A68     		ldr	r2, [r3]
 106 0070 9423     		movs	r3, #148
 107 0072 FB18     		adds	r3, r7, r3
 108 0074 1B68     		ldr	r3, [r3]
 109 0076 9A42     		cmp	r2, r3
 110 0078 2DD3     		bcc	.L5
ARM GAS  C:\Users\Toshiba\AppData\Local\Temp\ccUpswI6.s 			page 6


 111              		.loc 1 175 0 is_stmt 0 discriminator 1
 112 007a BB1D     		adds	r3, r7, #6
 113 007c 1A88     		ldrh	r2, [r3]
 114 007e A423     		movs	r3, #164
 115 0080 FB18     		adds	r3, r7, r3
 116 0082 1B68     		ldr	r3, [r3]
 117 0084 9A42     		cmp	r2, r3
 118 0086 26D9     		bls	.L5
 176:Generated_Source\PSoC4/BLE_HAL_PVT.c ****                 {
 177:Generated_Source\PSoC4/BLE_HAL_PVT.c ****                     writeBuffer[dstIndex] = buffer[srcIndex];
 119              		.loc 1 177 0 is_stmt 1
 120 0088 FA68     		ldr	r2, [r7, #12]
 121 008a A423     		movs	r3, #164
 122 008c FB18     		adds	r3, r7, r3
 123 008e 1B68     		ldr	r3, [r3]
 124 0090 D318     		adds	r3, r2, r3
 125 0092 1978     		ldrb	r1, [r3]
 126 0094 1423     		movs	r3, #20
 127 0096 FA18     		adds	r2, r7, r3
 128 0098 A823     		movs	r3, #168
 129 009a FB18     		adds	r3, r7, r3
 130 009c 1B68     		ldr	r3, [r3]
 131 009e D318     		adds	r3, r2, r3
 132 00a0 0A1C     		adds	r2, r1, #0
 133 00a2 1A70     		strb	r2, [r3]
 178:Generated_Source\PSoC4/BLE_HAL_PVT.c ****                     /* Detect that row programming is required */
 179:Generated_Source\PSoC4/BLE_HAL_PVT.c ****                     if(CY_GET_XTND_REG8(CYDEV_FLASH_BASE + byteOffset) != buffer[srcIndex])
 134              		.loc 1 179 0
 135 00a4 9C23     		movs	r3, #156
 136 00a6 FB18     		adds	r3, r7, r3
 137 00a8 1B68     		ldr	r3, [r3]
 138 00aa 1B78     		ldrb	r3, [r3]
 139 00ac DAB2     		uxtb	r2, r3
 140 00ae F968     		ldr	r1, [r7, #12]
 141 00b0 A423     		movs	r3, #164
 142 00b2 FB18     		adds	r3, r7, r3
 143 00b4 1B68     		ldr	r3, [r3]
 144 00b6 CB18     		adds	r3, r1, r3
 145 00b8 1B78     		ldrb	r3, [r3]
 146 00ba 9A42     		cmp	r2, r3
 147 00bc 03D0     		beq	.L6
 180:Generated_Source\PSoC4/BLE_HAL_PVT.c ****                     {
 181:Generated_Source\PSoC4/BLE_HAL_PVT.c ****                         rowsNotEqual = 1u;  
 148              		.loc 1 181 0
 149 00be 0123     		movs	r3, #1
 150 00c0 9822     		movs	r2, #152
 151 00c2 BA18     		adds	r2, r7, r2
 152 00c4 1360     		str	r3, [r2]
 153              	.L6:
 182:Generated_Source\PSoC4/BLE_HAL_PVT.c ****                     }
 183:Generated_Source\PSoC4/BLE_HAL_PVT.c ****                     srcIndex++;
 154              		.loc 1 183 0
 155 00c6 A423     		movs	r3, #164
 156 00c8 FB18     		adds	r3, r7, r3
 157 00ca 1B68     		ldr	r3, [r3]
 158 00cc 0133     		adds	r3, r3, #1
 159 00ce A422     		movs	r2, #164
ARM GAS  C:\Users\Toshiba\AppData\Local\Temp\ccUpswI6.s 			page 7


 160 00d0 BA18     		adds	r2, r7, r2
 161 00d2 1360     		str	r3, [r2]
 162 00d4 0CE0     		b	.L7
 163              	.L5:
 184:Generated_Source\PSoC4/BLE_HAL_PVT.c ****                 }
 185:Generated_Source\PSoC4/BLE_HAL_PVT.c ****                 else
 186:Generated_Source\PSoC4/BLE_HAL_PVT.c ****                 {
 187:Generated_Source\PSoC4/BLE_HAL_PVT.c ****                     writeBuffer[dstIndex] = CY_GET_XTND_REG8(CYDEV_FLASH_BASE + byteOffset);
 164              		.loc 1 187 0
 165 00d6 9C23     		movs	r3, #156
 166 00d8 FB18     		adds	r3, r7, r3
 167 00da 1B68     		ldr	r3, [r3]
 168 00dc 1B78     		ldrb	r3, [r3]
 169 00de D9B2     		uxtb	r1, r3
 170 00e0 1423     		movs	r3, #20
 171 00e2 FA18     		adds	r2, r7, r3
 172 00e4 A823     		movs	r3, #168
 173 00e6 FB18     		adds	r3, r7, r3
 174 00e8 1B68     		ldr	r3, [r3]
 175 00ea D318     		adds	r3, r2, r3
 176 00ec 0A1C     		adds	r2, r1, #0
 177 00ee 1A70     		strb	r2, [r3]
 178              	.L7:
 188:Generated_Source\PSoC4/BLE_HAL_PVT.c ****                 }
 189:Generated_Source\PSoC4/BLE_HAL_PVT.c ****                 byteOffset++;
 179              		.loc 1 189 0 discriminator 2
 180 00f0 9C23     		movs	r3, #156
 181 00f2 FB18     		adds	r3, r7, r3
 182 00f4 1B68     		ldr	r3, [r3]
 183 00f6 0133     		adds	r3, r3, #1
 184 00f8 9C22     		movs	r2, #156
 185 00fa BA18     		adds	r2, r7, r2
 186 00fc 1360     		str	r3, [r2]
 173:Generated_Source\PSoC4/BLE_HAL_PVT.c ****             {
 187              		.loc 1 173 0 discriminator 2
 188 00fe A823     		movs	r3, #168
 189 0100 FB18     		adds	r3, r7, r3
 190 0102 1B68     		ldr	r3, [r3]
 191 0104 0133     		adds	r3, r3, #1
 192 0106 A822     		movs	r2, #168
 193 0108 BA18     		adds	r2, r7, r2
 194 010a 1360     		str	r3, [r2]
 195              	.L4:
 173:Generated_Source\PSoC4/BLE_HAL_PVT.c ****             {
 196              		.loc 1 173 0 is_stmt 0 discriminator 1
 197 010c A823     		movs	r3, #168
 198 010e FB18     		adds	r3, r7, r3
 199 0110 1B68     		ldr	r3, [r3]
 200 0112 7F2B     		cmp	r3, #127
 201 0114 A9D9     		bls	.L8
 190:Generated_Source\PSoC4/BLE_HAL_PVT.c ****             }
 191:Generated_Source\PSoC4/BLE_HAL_PVT.c **** 
 192:Generated_Source\PSoC4/BLE_HAL_PVT.c ****             if(rowsNotEqual != 0u)
 202              		.loc 1 192 0 is_stmt 1
 203 0116 9823     		movs	r3, #152
 204 0118 FB18     		adds	r3, r7, r3
 205 011a 1B68     		ldr	r3, [r3]
ARM GAS  C:\Users\Toshiba\AppData\Local\Temp\ccUpswI6.s 			page 8


 206 011c 002B     		cmp	r3, #0
 207 011e 0CD0     		beq	.L9
 193:Generated_Source\PSoC4/BLE_HAL_PVT.c ****             {
 194:Generated_Source\PSoC4/BLE_HAL_PVT.c ****                 /* Write flash row */
 195:Generated_Source\PSoC4/BLE_HAL_PVT.c ****                 rc = CySysFlashWriteRow(rowId, writeBuffer);
 208              		.loc 1 195 0
 209 0120 1423     		movs	r3, #20
 210 0122 FA18     		adds	r2, r7, r3
 211 0124 AC23     		movs	r3, #172
 212 0126 FB18     		adds	r3, r7, r3
 213 0128 1B68     		ldr	r3, [r3]
 214 012a 1100     		movs	r1, r2
 215 012c 1800     		movs	r0, r3
 216 012e FFF7FEFF 		bl	CySysFlashWriteRow
 217 0132 0300     		movs	r3, r0
 218 0134 A022     		movs	r2, #160
 219 0136 BA18     		adds	r2, r7, r2
 220 0138 1360     		str	r3, [r2]
 221              	.L9:
 196:Generated_Source\PSoC4/BLE_HAL_PVT.c ****             }
 197:Generated_Source\PSoC4/BLE_HAL_PVT.c **** 
 198:Generated_Source\PSoC4/BLE_HAL_PVT.c ****             /* Go to the next row */
 199:Generated_Source\PSoC4/BLE_HAL_PVT.c ****             rowId++;
 222              		.loc 1 199 0
 223 013a AC23     		movs	r3, #172
 224 013c FB18     		adds	r3, r7, r3
 225 013e 1B68     		ldr	r3, [r3]
 226 0140 0133     		adds	r3, r3, #1
 227 0142 AC22     		movs	r2, #172
 228 0144 BA18     		adds	r2, r7, r2
 229 0146 1360     		str	r3, [r2]
 230              	.L3:
 169:Generated_Source\PSoC4/BLE_HAL_PVT.c ****         {
 231              		.loc 1 169 0
 232 0148 BB1D     		adds	r3, r7, #6
 233 014a 1A88     		ldrh	r2, [r3]
 234 014c A423     		movs	r3, #164
 235 014e FB18     		adds	r3, r7, r3
 236 0150 1B68     		ldr	r3, [r3]
 237 0152 9A42     		cmp	r2, r3
 238 0154 0AD9     		bls	.L10
 169:Generated_Source\PSoC4/BLE_HAL_PVT.c ****         {
 239              		.loc 1 169 0 is_stmt 0 discriminator 1
 240 0156 A023     		movs	r3, #160
 241 0158 FB18     		adds	r3, r7, r3
 242 015a 1B68     		ldr	r3, [r3]
 243 015c 002B     		cmp	r3, #0
 244 015e 00D1     		bne	.LCB201
 245 0160 7AE7     		b	.L11	@long jump
 246              	.LCB201:
 247 0162 03E0     		b	.L10
 248              	.L2:
 200:Generated_Source\PSoC4/BLE_HAL_PVT.c ****         }
 201:Generated_Source\PSoC4/BLE_HAL_PVT.c ****     }
 202:Generated_Source\PSoC4/BLE_HAL_PVT.c ****     else
 203:Generated_Source\PSoC4/BLE_HAL_PVT.c ****     {
 204:Generated_Source\PSoC4/BLE_HAL_PVT.c ****         rc = CYRET_BAD_PARAM;
ARM GAS  C:\Users\Toshiba\AppData\Local\Temp\ccUpswI6.s 			page 9


 249              		.loc 1 204 0 is_stmt 1
 250 0164 0123     		movs	r3, #1
 251 0166 A022     		movs	r2, #160
 252 0168 BA18     		adds	r2, r7, r2
 253 016a 1360     		str	r3, [r2]
 254              	.L10:
 205:Generated_Source\PSoC4/BLE_HAL_PVT.c ****     }
 206:Generated_Source\PSoC4/BLE_HAL_PVT.c **** 
 207:Generated_Source\PSoC4/BLE_HAL_PVT.c ****     /* Mask return codes from flash, if they are not supported */
 208:Generated_Source\PSoC4/BLE_HAL_PVT.c ****     if ((CYRET_SUCCESS != rc) && (CYRET_BAD_PARAM != rc))
 255              		.loc 1 208 0
 256 016c A023     		movs	r3, #160
 257 016e FB18     		adds	r3, r7, r3
 258 0170 1B68     		ldr	r3, [r3]
 259 0172 002B     		cmp	r3, #0
 260 0174 09D0     		beq	.L12
 261              		.loc 1 208 0 is_stmt 0 discriminator 1
 262 0176 A023     		movs	r3, #160
 263 0178 FB18     		adds	r3, r7, r3
 264 017a 1B68     		ldr	r3, [r3]
 265 017c 012B     		cmp	r3, #1
 266 017e 04D0     		beq	.L12
 209:Generated_Source\PSoC4/BLE_HAL_PVT.c ****     {
 210:Generated_Source\PSoC4/BLE_HAL_PVT.c ****         rc = CYRET_UNKNOWN;
 267              		.loc 1 210 0 is_stmt 1
 268 0180 0123     		movs	r3, #1
 269 0182 5B42     		rsbs	r3, r3, #0
 270 0184 A022     		movs	r2, #160
 271 0186 BA18     		adds	r2, r7, r2
 272 0188 1360     		str	r3, [r2]
 273              	.L12:
 211:Generated_Source\PSoC4/BLE_HAL_PVT.c ****     }
 212:Generated_Source\PSoC4/BLE_HAL_PVT.c ****     
 213:Generated_Source\PSoC4/BLE_HAL_PVT.c ****     return (rc);
 274              		.loc 1 213 0
 275 018a A023     		movs	r3, #160
 276 018c FB18     		adds	r3, r7, r3
 277 018e 1B68     		ldr	r3, [r3]
 214:Generated_Source\PSoC4/BLE_HAL_PVT.c **** }
 278              		.loc 1 214 0
 279 0190 1800     		movs	r0, r3
 280 0192 BD46     		mov	sp, r7
 281 0194 2CB0     		add	sp, sp, #176
 282              		@ sp needed
 283 0196 80BD     		pop	{r7, pc}
 284              	.L15:
 285              		.align	2
 286              	.L14:
 287 0198 FFFF0100 		.word	131071
 288              		.cfi_endproc
 289              	.LFE2:
 290              		.size	CyBLE_Nvram_Write, .-CyBLE_Nvram_Write
 291              		.section	.text.CyBLE_Nvram_Erase,"ax",%progbits
 292              		.align	2
 293              		.global	CyBLE_Nvram_Erase
 294              		.code	16
 295              		.thumb_func
ARM GAS  C:\Users\Toshiba\AppData\Local\Temp\ccUpswI6.s 			page 10


 296              		.type	CyBLE_Nvram_Erase, %function
 297              	CyBLE_Nvram_Erase:
 298              	.LFB3:
 215:Generated_Source\PSoC4/BLE_HAL_PVT.c **** 
 216:Generated_Source\PSoC4/BLE_HAL_PVT.c **** /*******************************************************************************
 217:Generated_Source\PSoC4/BLE_HAL_PVT.c **** * Function Name: CyBLE_Nvram_Erase
 218:Generated_Source\PSoC4/BLE_HAL_PVT.c **** ****************************************************************************//**
 219:Generated_Source\PSoC4/BLE_HAL_PVT.c **** *
 220:Generated_Source\PSoC4/BLE_HAL_PVT.c **** *  This function erases the data from the NVRAM store. It will perform an 
 221:Generated_Source\PSoC4/BLE_HAL_PVT.c **** *  address range check based on the length before performing erase operation.
 222:Generated_Source\PSoC4/BLE_HAL_PVT.c **** *
 223:Generated_Source\PSoC4/BLE_HAL_PVT.c **** *  \param varFlash: the pointer to the array or variable in the flash.
 224:Generated_Source\PSoC4/BLE_HAL_PVT.c **** *  \param length:    the length of the data in bytes.
 225:Generated_Source\PSoC4/BLE_HAL_PVT.c **** *
 226:Generated_Source\PSoC4/BLE_HAL_PVT.c **** * \return
 227:Generated_Source\PSoC4/BLE_HAL_PVT.c **** *  CYRET_SUCCESS    a successful write
 228:Generated_Source\PSoC4/BLE_HAL_PVT.c **** *  CYRET_BAD_PARAM  A request to write outside the flash boundary.
 229:Generated_Source\PSoC4/BLE_HAL_PVT.c **** *  CYRET_UNKNOWN    Other errors in writing the flash
 230:Generated_Source\PSoC4/BLE_HAL_PVT.c **** *
 231:Generated_Source\PSoC4/BLE_HAL_PVT.c **** *******************************************************************************/
 232:Generated_Source\PSoC4/BLE_HAL_PVT.c **** cystatus CyBLE_Nvram_Erase (const uint8 *varFlash, uint16 length)
 233:Generated_Source\PSoC4/BLE_HAL_PVT.c **** {
 299              		.loc 1 233 0
 300              		.cfi_startproc
 301              		@ args = 0, pretend = 0, frame = 152
 302              		@ frame_needed = 1, uses_anonymous_args = 0
 303 0000 80B5     		push	{r7, lr}
 304              		.cfi_def_cfa_offset 8
 305              		.cfi_offset 7, -8
 306              		.cfi_offset 14, -4
 307 0002 A6B0     		sub	sp, sp, #152
 308              		.cfi_def_cfa_offset 160
 309 0004 00AF     		add	r7, sp, #0
 310              		.cfi_def_cfa_register 7
 311 0006 7860     		str	r0, [r7, #4]
 312 0008 0A00     		movs	r2, r1
 313 000a BB1C     		adds	r3, r7, #2
 314 000c 1A80     		strh	r2, [r3]
 234:Generated_Source\PSoC4/BLE_HAL_PVT.c ****     const uint8 *tempFlash;
 235:Generated_Source\PSoC4/BLE_HAL_PVT.c ****     uint8 flashBuffer[CY_FLASH_SIZEOF_ROW] = {0u};
 315              		.loc 1 235 0
 316 000e 0C23     		movs	r3, #12
 317 0010 FB18     		adds	r3, r7, r3
 318 0012 1800     		movs	r0, r3
 319 0014 8023     		movs	r3, #128
 320 0016 1A00     		movs	r2, r3
 321 0018 0021     		movs	r1, #0
 322 001a FFF7FEFF 		bl	memset
 236:Generated_Source\PSoC4/BLE_HAL_PVT.c ****     uint16 lengthFlash;
 237:Generated_Source\PSoC4/BLE_HAL_PVT.c ****     uint16 lengthRemaining;
 238:Generated_Source\PSoC4/BLE_HAL_PVT.c ****     cystatus rc = CYRET_UNKNOWN;
 323              		.loc 1 238 0
 324 001e 0123     		movs	r3, #1
 325 0020 5B42     		rsbs	r3, r3, #0
 326 0022 8C22     		movs	r2, #140
 327 0024 BA18     		adds	r2, r7, r2
 328 0026 1360     		str	r3, [r2]
ARM GAS  C:\Users\Toshiba\AppData\Local\Temp\ccUpswI6.s 			page 11


 239:Generated_Source\PSoC4/BLE_HAL_PVT.c **** 
 240:Generated_Source\PSoC4/BLE_HAL_PVT.c ****     tempFlash = varFlash;
 329              		.loc 1 240 0
 330 0028 7B68     		ldr	r3, [r7, #4]
 331 002a 9422     		movs	r2, #148
 332 002c BA18     		adds	r2, r7, r2
 333 002e 1360     		str	r3, [r2]
 241:Generated_Source\PSoC4/BLE_HAL_PVT.c ****     lengthRemaining = length;
 334              		.loc 1 241 0
 335 0030 9023     		movs	r3, #144
 336 0032 FB18     		adds	r3, r7, r3
 337 0034 BA1C     		adds	r2, r7, #2
 338 0036 1288     		ldrh	r2, [r2]
 339 0038 1A80     		strh	r2, [r3]
 242:Generated_Source\PSoC4/BLE_HAL_PVT.c **** 
 243:Generated_Source\PSoC4/BLE_HAL_PVT.c ****     while(lengthRemaining > 0u)
 340              		.loc 1 243 0
 341 003a 34E0     		b	.L17
 342              	.L22:
 244:Generated_Source\PSoC4/BLE_HAL_PVT.c ****     {
 245:Generated_Source\PSoC4/BLE_HAL_PVT.c ****         if(lengthRemaining < CY_FLASH_SIZEOF_ROW)
 343              		.loc 1 245 0
 344 003c 9023     		movs	r3, #144
 345 003e FB18     		adds	r3, r7, r3
 346 0040 1B88     		ldrh	r3, [r3]
 347 0042 7F2B     		cmp	r3, #127
 348 0044 06D8     		bhi	.L18
 246:Generated_Source\PSoC4/BLE_HAL_PVT.c ****         {
 247:Generated_Source\PSoC4/BLE_HAL_PVT.c ****             lengthFlash = lengthRemaining;
 349              		.loc 1 247 0
 350 0046 9223     		movs	r3, #146
 351 0048 FB18     		adds	r3, r7, r3
 352 004a 9022     		movs	r2, #144
 353 004c BA18     		adds	r2, r7, r2
 354 004e 1288     		ldrh	r2, [r2]
 355 0050 1A80     		strh	r2, [r3]
 356 0052 03E0     		b	.L19
 357              	.L18:
 248:Generated_Source\PSoC4/BLE_HAL_PVT.c ****         }
 249:Generated_Source\PSoC4/BLE_HAL_PVT.c ****         else
 250:Generated_Source\PSoC4/BLE_HAL_PVT.c ****         {
 251:Generated_Source\PSoC4/BLE_HAL_PVT.c ****             lengthFlash = CY_FLASH_SIZEOF_ROW;
 358              		.loc 1 251 0
 359 0054 9223     		movs	r3, #146
 360 0056 FB18     		adds	r3, r7, r3
 361 0058 8022     		movs	r2, #128
 362 005a 1A80     		strh	r2, [r3]
 363              	.L19:
 252:Generated_Source\PSoC4/BLE_HAL_PVT.c ****         }
 253:Generated_Source\PSoC4/BLE_HAL_PVT.c ****         rc = CyBLE_Nvram_Write(flashBuffer, tempFlash, lengthFlash);
 364              		.loc 1 253 0
 365 005c 9223     		movs	r3, #146
 366 005e FB18     		adds	r3, r7, r3
 367 0060 1A88     		ldrh	r2, [r3]
 368 0062 9423     		movs	r3, #148
 369 0064 FB18     		adds	r3, r7, r3
 370 0066 1968     		ldr	r1, [r3]
ARM GAS  C:\Users\Toshiba\AppData\Local\Temp\ccUpswI6.s 			page 12


 371 0068 0C23     		movs	r3, #12
 372 006a FB18     		adds	r3, r7, r3
 373 006c 1800     		movs	r0, r3
 374 006e FFF7FEFF 		bl	CyBLE_Nvram_Write
 375 0072 0300     		movs	r3, r0
 376 0074 8C22     		movs	r2, #140
 377 0076 BA18     		adds	r2, r7, r2
 378 0078 1360     		str	r3, [r2]
 254:Generated_Source\PSoC4/BLE_HAL_PVT.c ****         if(rc != CYRET_SUCCESS)
 379              		.loc 1 254 0
 380 007a 8C23     		movs	r3, #140
 381 007c FB18     		adds	r3, r7, r3
 382 007e 1B68     		ldr	r3, [r3]
 383 0080 002B     		cmp	r3, #0
 384 0082 16D1     		bne	.L24
 255:Generated_Source\PSoC4/BLE_HAL_PVT.c ****         {
 256:Generated_Source\PSoC4/BLE_HAL_PVT.c ****             break;
 257:Generated_Source\PSoC4/BLE_HAL_PVT.c ****         }
 258:Generated_Source\PSoC4/BLE_HAL_PVT.c ****         tempFlash += CY_FLASH_SIZEOF_ROW;
 385              		.loc 1 258 0
 386 0084 9423     		movs	r3, #148
 387 0086 FB18     		adds	r3, r7, r3
 388 0088 1B68     		ldr	r3, [r3]
 389 008a 8033     		adds	r3, r3, #128
 390 008c 9422     		movs	r2, #148
 391 008e BA18     		adds	r2, r7, r2
 392 0090 1360     		str	r3, [r2]
 259:Generated_Source\PSoC4/BLE_HAL_PVT.c ****         lengthRemaining -= lengthFlash;
 393              		.loc 1 259 0
 394 0092 9023     		movs	r3, #144
 395 0094 FB18     		adds	r3, r7, r3
 396 0096 9022     		movs	r2, #144
 397 0098 B918     		adds	r1, r7, r2
 398 009a 9222     		movs	r2, #146
 399 009c BA18     		adds	r2, r7, r2
 400 009e 0988     		ldrh	r1, [r1]
 401 00a0 1288     		ldrh	r2, [r2]
 402 00a2 8A1A     		subs	r2, r1, r2
 403 00a4 1A80     		strh	r2, [r3]
 404              	.L17:
 243:Generated_Source\PSoC4/BLE_HAL_PVT.c ****     {
 405              		.loc 1 243 0
 406 00a6 9023     		movs	r3, #144
 407 00a8 FB18     		adds	r3, r7, r3
 408 00aa 1B88     		ldrh	r3, [r3]
 409 00ac 002B     		cmp	r3, #0
 410 00ae C5D1     		bne	.L22
 411 00b0 00E0     		b	.L21
 412              	.L24:
 256:Generated_Source\PSoC4/BLE_HAL_PVT.c ****         }
 413              		.loc 1 256 0
 414 00b2 C046     		nop
 415              	.L21:
 260:Generated_Source\PSoC4/BLE_HAL_PVT.c ****     }
 261:Generated_Source\PSoC4/BLE_HAL_PVT.c **** 
 262:Generated_Source\PSoC4/BLE_HAL_PVT.c ****     return rc;
 416              		.loc 1 262 0
ARM GAS  C:\Users\Toshiba\AppData\Local\Temp\ccUpswI6.s 			page 13


 417 00b4 8C23     		movs	r3, #140
 418 00b6 FB18     		adds	r3, r7, r3
 419 00b8 1B68     		ldr	r3, [r3]
 263:Generated_Source\PSoC4/BLE_HAL_PVT.c **** }
 420              		.loc 1 263 0
 421 00ba 1800     		movs	r0, r3
 422 00bc BD46     		mov	sp, r7
 423 00be 26B0     		add	sp, sp, #152
 424              		@ sp needed
 425 00c0 80BD     		pop	{r7, pc}
 426              		.cfi_endproc
 427              	.LFE3:
 428              		.size	CyBLE_Nvram_Erase, .-CyBLE_Nvram_Erase
 429 00c2 C046     		.section	.text.CyBLE_Bless_LlRegRead,"ax",%progbits
 430              		.align	2
 431              		.global	CyBLE_Bless_LlRegRead
 432              		.code	16
 433              		.thumb_func
 434              		.type	CyBLE_Bless_LlRegRead, %function
 435              	CyBLE_Bless_LlRegRead:
 436              	.LFB4:
 264:Generated_Source\PSoC4/BLE_HAL_PVT.c **** 
 265:Generated_Source\PSoC4/BLE_HAL_PVT.c **** 
 266:Generated_Source\PSoC4/BLE_HAL_PVT.c **** /*******************************************************************************
 267:Generated_Source\PSoC4/BLE_HAL_PVT.c **** * Function Name: CyBLE_Bless_LlRegRead
 268:Generated_Source\PSoC4/BLE_HAL_PVT.c **** ****************************************************************************//**
 269:Generated_Source\PSoC4/BLE_HAL_PVT.c **** *
 270:Generated_Source\PSoC4/BLE_HAL_PVT.c **** *  This function reads the content of the BLESS Link Layer register from the 
 271:Generated_Source\PSoC4/BLE_HAL_PVT.c **** *  stack.
 272:Generated_Source\PSoC4/BLE_HAL_PVT.c **** *
 273:Generated_Source\PSoC4/BLE_HAL_PVT.c **** *  \param blessAddr: the pointer to the BLESS link layer address.
 274:Generated_Source\PSoC4/BLE_HAL_PVT.c **** *  \param regValue: the pointer to the buffer space to copy the read value.
 275:Generated_Source\PSoC4/BLE_HAL_PVT.c **** *
 276:Generated_Source\PSoC4/BLE_HAL_PVT.c **** * \return
 277:Generated_Source\PSoC4/BLE_HAL_PVT.c **** *  None
 278:Generated_Source\PSoC4/BLE_HAL_PVT.c **** *
 279:Generated_Source\PSoC4/BLE_HAL_PVT.c **** *******************************************************************************/
 280:Generated_Source\PSoC4/BLE_HAL_PVT.c **** void CyBLE_Bless_LlRegRead (const reg32 *blessAddr, uint16 *regValue)
 281:Generated_Source\PSoC4/BLE_HAL_PVT.c **** {
 437              		.loc 1 281 0
 438              		.cfi_startproc
 439              		@ args = 0, pretend = 0, frame = 8
 440              		@ frame_needed = 1, uses_anonymous_args = 0
 441 0000 80B5     		push	{r7, lr}
 442              		.cfi_def_cfa_offset 8
 443              		.cfi_offset 7, -8
 444              		.cfi_offset 14, -4
 445 0002 82B0     		sub	sp, sp, #8
 446              		.cfi_def_cfa_offset 16
 447 0004 00AF     		add	r7, sp, #0
 448              		.cfi_def_cfa_register 7
 449 0006 7860     		str	r0, [r7, #4]
 450 0008 3960     		str	r1, [r7]
 282:Generated_Source\PSoC4/BLE_HAL_PVT.c ****     *regValue = (uint16)CY_GET_REG32(blessAddr);
 451              		.loc 1 282 0
 452 000a 7B68     		ldr	r3, [r7, #4]
 453 000c 1B68     		ldr	r3, [r3]
ARM GAS  C:\Users\Toshiba\AppData\Local\Temp\ccUpswI6.s 			page 14


 454 000e 9AB2     		uxth	r2, r3
 455 0010 3B68     		ldr	r3, [r7]
 456 0012 1A80     		strh	r2, [r3]
 283:Generated_Source\PSoC4/BLE_HAL_PVT.c **** }
 457              		.loc 1 283 0
 458 0014 C046     		nop
 459 0016 BD46     		mov	sp, r7
 460 0018 02B0     		add	sp, sp, #8
 461              		@ sp needed
 462 001a 80BD     		pop	{r7, pc}
 463              		.cfi_endproc
 464              	.LFE4:
 465              		.size	CyBLE_Bless_LlRegRead, .-CyBLE_Bless_LlRegRead
 466              		.section	.text.CyBLE_Bless_LlRegWrite,"ax",%progbits
 467              		.align	2
 468              		.global	CyBLE_Bless_LlRegWrite
 469              		.code	16
 470              		.thumb_func
 471              		.type	CyBLE_Bless_LlRegWrite, %function
 472              	CyBLE_Bless_LlRegWrite:
 473              	.LFB5:
 284:Generated_Source\PSoC4/BLE_HAL_PVT.c **** 
 285:Generated_Source\PSoC4/BLE_HAL_PVT.c **** 
 286:Generated_Source\PSoC4/BLE_HAL_PVT.c **** /*******************************************************************************
 287:Generated_Source\PSoC4/BLE_HAL_PVT.c **** * Function Name: CyBLE_Bless_LlRegWrite
 288:Generated_Source\PSoC4/BLE_HAL_PVT.c **** ****************************************************************************//**
 289:Generated_Source\PSoC4/BLE_HAL_PVT.c **** *
 290:Generated_Source\PSoC4/BLE_HAL_PVT.c **** *  This function writes to the BLESS Link Layer register from the stack.
 291:Generated_Source\PSoC4/BLE_HAL_PVT.c **** *
 292:Generated_Source\PSoC4/BLE_HAL_PVT.c **** *  \param blessAddr: the pointer to the BLESS link layer address.
 293:Generated_Source\PSoC4/BLE_HAL_PVT.c **** *  \param regValue: the pointer to the value to be written to the BLESS LL reg.
 294:Generated_Source\PSoC4/BLE_HAL_PVT.c **** *
 295:Generated_Source\PSoC4/BLE_HAL_PVT.c **** * \return
 296:Generated_Source\PSoC4/BLE_HAL_PVT.c **** *  None
 297:Generated_Source\PSoC4/BLE_HAL_PVT.c **** *
 298:Generated_Source\PSoC4/BLE_HAL_PVT.c **** *******************************************************************************/
 299:Generated_Source\PSoC4/BLE_HAL_PVT.c **** void CyBLE_Bless_LlRegWrite (reg32 *blessAddr, const uint16 regValue)
 300:Generated_Source\PSoC4/BLE_HAL_PVT.c **** {
 474              		.loc 1 300 0
 475              		.cfi_startproc
 476              		@ args = 0, pretend = 0, frame = 8
 477              		@ frame_needed = 1, uses_anonymous_args = 0
 478 0000 80B5     		push	{r7, lr}
 479              		.cfi_def_cfa_offset 8
 480              		.cfi_offset 7, -8
 481              		.cfi_offset 14, -4
 482 0002 82B0     		sub	sp, sp, #8
 483              		.cfi_def_cfa_offset 16
 484 0004 00AF     		add	r7, sp, #0
 485              		.cfi_def_cfa_register 7
 486 0006 7860     		str	r0, [r7, #4]
 487 0008 0A00     		movs	r2, r1
 488 000a BB1C     		adds	r3, r7, #2
 489 000c 1A80     		strh	r2, [r3]
 301:Generated_Source\PSoC4/BLE_HAL_PVT.c ****     CY_SET_REG32(blessAddr, regValue);
 490              		.loc 1 301 0
 491 000e BB1C     		adds	r3, r7, #2
ARM GAS  C:\Users\Toshiba\AppData\Local\Temp\ccUpswI6.s 			page 15


 492 0010 1A88     		ldrh	r2, [r3]
 493 0012 7B68     		ldr	r3, [r7, #4]
 494 0014 1A60     		str	r2, [r3]
 302:Generated_Source\PSoC4/BLE_HAL_PVT.c **** }
 495              		.loc 1 302 0
 496 0016 C046     		nop
 497 0018 BD46     		mov	sp, r7
 498 001a 02B0     		add	sp, sp, #8
 499              		@ sp needed
 500 001c 80BD     		pop	{r7, pc}
 501              		.cfi_endproc
 502              	.LFE5:
 503              		.size	CyBLE_Bless_LlRegWrite, .-CyBLE_Bless_LlRegWrite
 504 001e C046     		.section	.text.CyBLE_Bless_RfRegRead,"ax",%progbits
 505              		.align	2
 506              		.global	CyBLE_Bless_RfRegRead
 507              		.code	16
 508              		.thumb_func
 509              		.type	CyBLE_Bless_RfRegRead, %function
 510              	CyBLE_Bless_RfRegRead:
 511              	.LFB6:
 303:Generated_Source\PSoC4/BLE_HAL_PVT.c **** 
 304:Generated_Source\PSoC4/BLE_HAL_PVT.c **** 
 305:Generated_Source\PSoC4/BLE_HAL_PVT.c **** /*******************************************************************************
 306:Generated_Source\PSoC4/BLE_HAL_PVT.c **** * Function Name: CyBLE_Bless_RfRegRead
 307:Generated_Source\PSoC4/BLE_HAL_PVT.c **** ****************************************************************************//**
 308:Generated_Source\PSoC4/BLE_HAL_PVT.c **** *
 309:Generated_Source\PSoC4/BLE_HAL_PVT.c **** *  This function reads the content of the BLESS RF register from the stack.
 310:Generated_Source\PSoC4/BLE_HAL_PVT.c **** *
 311:Generated_Source\PSoC4/BLE_HAL_PVT.c **** *  \param blessAddr: the pointer to BLESS RF register address.
 312:Generated_Source\PSoC4/BLE_HAL_PVT.c **** *  \param regValue: the pointer to the buffer space to copy the read value.
 313:Generated_Source\PSoC4/BLE_HAL_PVT.c **** *
 314:Generated_Source\PSoC4/BLE_HAL_PVT.c **** * \return
 315:Generated_Source\PSoC4/BLE_HAL_PVT.c **** *  None
 316:Generated_Source\PSoC4/BLE_HAL_PVT.c **** *
 317:Generated_Source\PSoC4/BLE_HAL_PVT.c **** *******************************************************************************/
 318:Generated_Source\PSoC4/BLE_HAL_PVT.c **** void CyBLE_Bless_RfRegRead (const reg32 *blessAddr, uint16 *regValue)
 319:Generated_Source\PSoC4/BLE_HAL_PVT.c **** {
 512              		.loc 1 319 0
 513              		.cfi_startproc
 514              		@ args = 0, pretend = 0, frame = 8
 515              		@ frame_needed = 1, uses_anonymous_args = 0
 516 0000 80B5     		push	{r7, lr}
 517              		.cfi_def_cfa_offset 8
 518              		.cfi_offset 7, -8
 519              		.cfi_offset 14, -4
 520 0002 82B0     		sub	sp, sp, #8
 521              		.cfi_def_cfa_offset 16
 522 0004 00AF     		add	r7, sp, #0
 523              		.cfi_def_cfa_register 7
 524 0006 7860     		str	r0, [r7, #4]
 525 0008 3960     		str	r1, [r7]
 320:Generated_Source\PSoC4/BLE_HAL_PVT.c ****     *regValue = (uint16)CY_GET_REG32(blessAddr);
 526              		.loc 1 320 0
 527 000a 7B68     		ldr	r3, [r7, #4]
 528 000c 1B68     		ldr	r3, [r3]
 529 000e 9AB2     		uxth	r2, r3
ARM GAS  C:\Users\Toshiba\AppData\Local\Temp\ccUpswI6.s 			page 16


 530 0010 3B68     		ldr	r3, [r7]
 531 0012 1A80     		strh	r2, [r3]
 321:Generated_Source\PSoC4/BLE_HAL_PVT.c **** }
 532              		.loc 1 321 0
 533 0014 C046     		nop
 534 0016 BD46     		mov	sp, r7
 535 0018 02B0     		add	sp, sp, #8
 536              		@ sp needed
 537 001a 80BD     		pop	{r7, pc}
 538              		.cfi_endproc
 539              	.LFE6:
 540              		.size	CyBLE_Bless_RfRegRead, .-CyBLE_Bless_RfRegRead
 541              		.section	.text.CyBLE_Bless_RfRegWrite,"ax",%progbits
 542              		.align	2
 543              		.global	CyBLE_Bless_RfRegWrite
 544              		.code	16
 545              		.thumb_func
 546              		.type	CyBLE_Bless_RfRegWrite, %function
 547              	CyBLE_Bless_RfRegWrite:
 548              	.LFB7:
 322:Generated_Source\PSoC4/BLE_HAL_PVT.c **** 
 323:Generated_Source\PSoC4/BLE_HAL_PVT.c **** 
 324:Generated_Source\PSoC4/BLE_HAL_PVT.c **** /*******************************************************************************
 325:Generated_Source\PSoC4/BLE_HAL_PVT.c **** * Function Name: CyBLE_Bless_RfRegWrite
 326:Generated_Source\PSoC4/BLE_HAL_PVT.c **** ****************************************************************************//**
 327:Generated_Source\PSoC4/BLE_HAL_PVT.c **** *
 328:Generated_Source\PSoC4/BLE_HAL_PVT.c **** *  This function writes to the BLESS RF register from the stack.
 329:Generated_Source\PSoC4/BLE_HAL_PVT.c **** *
 330:Generated_Source\PSoC4/BLE_HAL_PVT.c **** *  \param blessAddr: the pointer to the BLESS RF address.
 331:Generated_Source\PSoC4/BLE_HAL_PVT.c **** *  \param regValue: the pointer to the value to be written to the BLESS RF reg.
 332:Generated_Source\PSoC4/BLE_HAL_PVT.c **** *
 333:Generated_Source\PSoC4/BLE_HAL_PVT.c **** * \return
 334:Generated_Source\PSoC4/BLE_HAL_PVT.c **** *  None
 335:Generated_Source\PSoC4/BLE_HAL_PVT.c **** *
 336:Generated_Source\PSoC4/BLE_HAL_PVT.c **** *******************************************************************************/
 337:Generated_Source\PSoC4/BLE_HAL_PVT.c **** void CyBLE_Bless_RfRegWrite (reg32 *blessAddr, const uint16 regValue)
 338:Generated_Source\PSoC4/BLE_HAL_PVT.c **** {
 549              		.loc 1 338 0
 550              		.cfi_startproc
 551              		@ args = 0, pretend = 0, frame = 8
 552              		@ frame_needed = 1, uses_anonymous_args = 0
 553 0000 80B5     		push	{r7, lr}
 554              		.cfi_def_cfa_offset 8
 555              		.cfi_offset 7, -8
 556              		.cfi_offset 14, -4
 557 0002 82B0     		sub	sp, sp, #8
 558              		.cfi_def_cfa_offset 16
 559 0004 00AF     		add	r7, sp, #0
 560              		.cfi_def_cfa_register 7
 561 0006 7860     		str	r0, [r7, #4]
 562 0008 0A00     		movs	r2, r1
 563 000a BB1C     		adds	r3, r7, #2
 564 000c 1A80     		strh	r2, [r3]
 339:Generated_Source\PSoC4/BLE_HAL_PVT.c ****      CY_SET_REG32(blessAddr, regValue);
 565              		.loc 1 339 0
 566 000e BB1C     		adds	r3, r7, #2
 567 0010 1A88     		ldrh	r2, [r3]
ARM GAS  C:\Users\Toshiba\AppData\Local\Temp\ccUpswI6.s 			page 17


 568 0012 7B68     		ldr	r3, [r7, #4]
 569 0014 1A60     		str	r2, [r3]
 340:Generated_Source\PSoC4/BLE_HAL_PVT.c **** }
 570              		.loc 1 340 0
 571 0016 C046     		nop
 572 0018 BD46     		mov	sp, r7
 573 001a 02B0     		add	sp, sp, #8
 574              		@ sp needed
 575 001c 80BD     		pop	{r7, pc}
 576              		.cfi_endproc
 577              	.LFE7:
 578              		.size	CyBLE_Bless_RfRegWrite, .-CyBLE_Bless_RfRegWrite
 579 001e C046     		.section	.text.CyBLE_BlessDeviceConfig,"ax",%progbits
 580              		.align	2
 581              		.global	CyBLE_BlessDeviceConfig
 582              		.code	16
 583              		.thumb_func
 584              		.type	CyBLE_BlessDeviceConfig, %function
 585              	CyBLE_BlessDeviceConfig:
 586              	.LFB8:
 341:Generated_Source\PSoC4/BLE_HAL_PVT.c **** 
 342:Generated_Source\PSoC4/BLE_HAL_PVT.c **** /*******************************************************************************
 343:Generated_Source\PSoC4/BLE_HAL_PVT.c **** * Function Name: CyBLE_BlessDeviceConfig
 344:Generated_Source\PSoC4/BLE_HAL_PVT.c **** ****************************************************************************//**
 345:Generated_Source\PSoC4/BLE_HAL_PVT.c **** *
 346:Generated_Source\PSoC4/BLE_HAL_PVT.c **** *  This function configures BLESS registers by trimmed values stored in SFLASH.
 347:Generated_Source\PSoC4/BLE_HAL_PVT.c **** *
 348:Generated_Source\PSoC4/BLE_HAL_PVT.c **** * \return
 349:Generated_Source\PSoC4/BLE_HAL_PVT.c **** *  None
 350:Generated_Source\PSoC4/BLE_HAL_PVT.c **** *
 351:Generated_Source\PSoC4/BLE_HAL_PVT.c **** *******************************************************************************/
 352:Generated_Source\PSoC4/BLE_HAL_PVT.c **** void CyBLE_BlessDeviceConfig(void)
 353:Generated_Source\PSoC4/BLE_HAL_PVT.c **** {
 587              		.loc 1 353 0
 588              		.cfi_startproc
 589              		@ args = 0, pretend = 0, frame = 16
 590              		@ frame_needed = 1, uses_anonymous_args = 0
 591 0000 80B5     		push	{r7, lr}
 592              		.cfi_def_cfa_offset 8
 593              		.cfi_offset 7, -8
 594              		.cfi_offset 14, -4
 595 0002 84B0     		sub	sp, sp, #16
 596              		.cfi_def_cfa_offset 24
 597 0004 00AF     		add	r7, sp, #0
 598              		.cfi_def_cfa_register 7
 354:Generated_Source\PSoC4/BLE_HAL_PVT.c **** #if (CYIPBLOCK_m0s8bless_VERSION < 3)
 355:Generated_Source\PSoC4/BLE_HAL_PVT.c ****     
 356:Generated_Source\PSoC4/BLE_HAL_PVT.c ****     uint32 trimRegValue;
 357:Generated_Source\PSoC4/BLE_HAL_PVT.c ****     uint32 ldo;
 358:Generated_Source\PSoC4/BLE_HAL_PVT.c ****     uint16 trimRef34Val;
 359:Generated_Source\PSoC4/BLE_HAL_PVT.c ****     uint16 trimRef38Val;    
 360:Generated_Source\PSoC4/BLE_HAL_PVT.c ****     uint32 siliconRev;
 361:Generated_Source\PSoC4/BLE_HAL_PVT.c **** 
 362:Generated_Source\PSoC4/BLE_HAL_PVT.c ****     trimRegValue = ((uint32)CYBLE_SFLASH_BLESS_BB_BUMP2_HIGH_REG << 8u) | CYBLE_SFLASH_BLESS_BB_BUM
 599              		.loc 1 362 0
 600 0006 494B     		ldr	r3, .L38
 601 0008 1B78     		ldrb	r3, [r3]
ARM GAS  C:\Users\Toshiba\AppData\Local\Temp\ccUpswI6.s 			page 18


 602 000a DBB2     		uxtb	r3, r3
 603 000c 1B02     		lsls	r3, r3, #8
 604 000e 484A     		ldr	r2, .L38+4
 605 0010 1278     		ldrb	r2, [r2]
 606 0012 D2B2     		uxtb	r2, r2
 607 0014 1343     		orrs	r3, r2
 608 0016 FB60     		str	r3, [r7, #12]
 363:Generated_Source\PSoC4/BLE_HAL_PVT.c ****     ldo = ((uint32)CYBLE_SFLASH_BLESS_LDO_HIGH_REG << 8u) | CYBLE_SFLASH_BLESS_LDO_LOW_REG;
 609              		.loc 1 363 0
 610 0018 464B     		ldr	r3, .L38+8
 611 001a 1B78     		ldrb	r3, [r3]
 612 001c DBB2     		uxtb	r3, r3
 613 001e 1B02     		lsls	r3, r3, #8
 614 0020 454A     		ldr	r2, .L38+12
 615 0022 1278     		ldrb	r2, [r2]
 616 0024 D2B2     		uxtb	r2, r2
 617 0026 1343     		orrs	r3, r2
 618 0028 BB60     		str	r3, [r7, #8]
 364:Generated_Source\PSoC4/BLE_HAL_PVT.c **** 
 365:Generated_Source\PSoC4/BLE_HAL_PVT.c ****     if ((ldo == CYBLE_SFLASH_BLERD_LDO_REG_VAL1) && (trimRegValue == CYBLE_SFLASH_BLERD_BB_BUMP2_RE
 619              		.loc 1 365 0
 620 002a BB68     		ldr	r3, [r7, #8]
 621 002c 434A     		ldr	r2, .L38+16
 622 002e 9342     		cmp	r3, r2
 623 0030 07D1     		bne	.L30
 624              		.loc 1 365 0 is_stmt 0 discriminator 1
 625 0032 FB68     		ldr	r3, [r7, #12]
 626 0034 072B     		cmp	r3, #7
 627 0036 04D1     		bne	.L30
 366:Generated_Source\PSoC4/BLE_HAL_PVT.c ****     {
 367:Generated_Source\PSoC4/BLE_HAL_PVT.c ****         ldo = CYBLE_BLERD_LDO_REG_VAL_FINAL;
 628              		.loc 1 367 0 is_stmt 1
 629 0038 414B     		ldr	r3, .L38+20
 630 003a BB60     		str	r3, [r7, #8]
 368:Generated_Source\PSoC4/BLE_HAL_PVT.c ****         trimRegValue = CYBLE_BLERD_BB_BUMP2_REG_VAL_FINAL;
 631              		.loc 1 368 0
 632 003c 0423     		movs	r3, #4
 633 003e FB60     		str	r3, [r7, #12]
 634 0040 09E0     		b	.L31
 635              	.L30:
 369:Generated_Source\PSoC4/BLE_HAL_PVT.c ****     }
 370:Generated_Source\PSoC4/BLE_HAL_PVT.c ****     else if ((ldo == CYBLE_SFLASH_BLERD_LDO_REG_VAL2) && (trimRegValue == CYBLE_BLERD_BB_BUMP2_REG_
 636              		.loc 1 370 0
 637 0042 BA68     		ldr	r2, [r7, #8]
 638 0044 D423     		movs	r3, #212
 639 0046 1B01     		lsls	r3, r3, #4
 640 0048 9A42     		cmp	r2, r3
 641 004a 04D1     		bne	.L31
 642              		.loc 1 370 0 is_stmt 0 discriminator 1
 643 004c FB68     		ldr	r3, [r7, #12]
 644 004e 042B     		cmp	r3, #4
 645 0050 01D1     		bne	.L31
 371:Generated_Source\PSoC4/BLE_HAL_PVT.c ****     {
 372:Generated_Source\PSoC4/BLE_HAL_PVT.c ****         ldo = CYBLE_BLERD_LDO_REG_VAL_FINAL;
 646              		.loc 1 372 0 is_stmt 1
 647 0052 3B4B     		ldr	r3, .L38+20
 648 0054 BB60     		str	r3, [r7, #8]
ARM GAS  C:\Users\Toshiba\AppData\Local\Temp\ccUpswI6.s 			page 19


 649              	.L31:
 373:Generated_Source\PSoC4/BLE_HAL_PVT.c ****     }
 374:Generated_Source\PSoC4/BLE_HAL_PVT.c ****     else
 375:Generated_Source\PSoC4/BLE_HAL_PVT.c ****     {
 376:Generated_Source\PSoC4/BLE_HAL_PVT.c ****     }
 377:Generated_Source\PSoC4/BLE_HAL_PVT.c **** 
 378:Generated_Source\PSoC4/BLE_HAL_PVT.c ****     CYBLE_BLE_BLERD_LDO_REG = ldo;
 650              		.loc 1 378 0
 651 0056 3B4B     		ldr	r3, .L38+24
 652 0058 BA68     		ldr	r2, [r7, #8]
 653 005a 1A60     		str	r2, [r3]
 379:Generated_Source\PSoC4/BLE_HAL_PVT.c ****     CYBLE_BLE_BLERD_BB_BUMP2_REG = trimRegValue;
 654              		.loc 1 379 0
 655 005c 3A4B     		ldr	r3, .L38+28
 656 005e FA68     		ldr	r2, [r7, #12]
 657 0060 1A60     		str	r2, [r3]
 380:Generated_Source\PSoC4/BLE_HAL_PVT.c **** 
 381:Generated_Source\PSoC4/BLE_HAL_PVT.c ****     /* Edit only XTAL fast charge bit */
 382:Generated_Source\PSoC4/BLE_HAL_PVT.c ****     trimRegValue = ((uint32)CYBLE_SFLASH_BLESS_BB_XO_HIGH_REG << 8u) | CYBLE_SFLASH_BLESS_BB_XO_LOW
 658              		.loc 1 382 0
 659 0062 3A4B     		ldr	r3, .L38+32
 660 0064 1B78     		ldrb	r3, [r3]
 661 0066 DBB2     		uxtb	r3, r3
 662 0068 1B02     		lsls	r3, r3, #8
 663 006a 394A     		ldr	r2, .L38+36
 664 006c 1278     		ldrb	r2, [r2]
 665 006e D2B2     		uxtb	r2, r2
 666 0070 1343     		orrs	r3, r2
 667 0072 FB60     		str	r3, [r7, #12]
 383:Generated_Source\PSoC4/BLE_HAL_PVT.c **** 
 384:Generated_Source\PSoC4/BLE_HAL_PVT.c ****     if ((trimRegValue == CYBLE_SFLASH_BLERD_BB_XO_REG_VAL1) || (trimRegValue == CYBLE_SFLASH_BLERD_
 668              		.loc 1 384 0
 669 0074 FA68     		ldr	r2, [r7, #12]
 670 0076 8023     		movs	r3, #128
 671 0078 9B01     		lsls	r3, r3, #6
 672 007a 9A42     		cmp	r2, r3
 673 007c 02D0     		beq	.L32
 674              		.loc 1 384 0 is_stmt 0 discriminator 1
 675 007e FB68     		ldr	r3, [r7, #12]
 676 0080 002B     		cmp	r3, #0
 677 0082 01D1     		bne	.L33
 678              	.L32:
 385:Generated_Source\PSoC4/BLE_HAL_PVT.c ****     {
 386:Generated_Source\PSoC4/BLE_HAL_PVT.c ****         trimRegValue = CYBLE_BLERD_BB_XO_REG_VAL_FINAL;
 679              		.loc 1 386 0 is_stmt 1
 680 0084 334B     		ldr	r3, .L38+40
 681 0086 FB60     		str	r3, [r7, #12]
 682              	.L33:
 387:Generated_Source\PSoC4/BLE_HAL_PVT.c ****     }
 388:Generated_Source\PSoC4/BLE_HAL_PVT.c ****     
 389:Generated_Source\PSoC4/BLE_HAL_PVT.c ****     CYBLE_BLE_BLERD_BB_XO_REG = trimRegValue;
 683              		.loc 1 389 0
 684 0088 334B     		ldr	r3, .L38+44
 685 008a FA68     		ldr	r2, [r7, #12]
 686 008c 1A60     		str	r2, [r3]
 390:Generated_Source\PSoC4/BLE_HAL_PVT.c ****     
 391:Generated_Source\PSoC4/BLE_HAL_PVT.c ****     trimRegValue = ((uint32)CYBLE_SFLASH_BLESS_SY_BUMP1_HIGH_REG << 8u) | CYBLE_SFLASH_BLESS_SY_BUM
ARM GAS  C:\Users\Toshiba\AppData\Local\Temp\ccUpswI6.s 			page 20


 687              		.loc 1 391 0
 688 008e 334B     		ldr	r3, .L38+48
 689 0090 1B78     		ldrb	r3, [r3]
 690 0092 DBB2     		uxtb	r3, r3
 691 0094 1B02     		lsls	r3, r3, #8
 692 0096 324A     		ldr	r2, .L38+52
 693 0098 1278     		ldrb	r2, [r2]
 694 009a D2B2     		uxtb	r2, r2
 695 009c 1343     		orrs	r3, r2
 696 009e FB60     		str	r3, [r7, #12]
 392:Generated_Source\PSoC4/BLE_HAL_PVT.c **** 
 393:Generated_Source\PSoC4/BLE_HAL_PVT.c ****     if ((trimRegValue == CYBLE_SFLASH_BLERD_SY_BUMP1_REG_VAL1) || 
 697              		.loc 1 393 0
 698 00a0 FB68     		ldr	r3, [r7, #12]
 699 00a2 304A     		ldr	r2, .L38+56
 700 00a4 9342     		cmp	r3, r2
 701 00a6 06D0     		beq	.L34
 702              		.loc 1 393 0 is_stmt 0 discriminator 1
 703 00a8 FB68     		ldr	r3, [r7, #12]
 704 00aa 2F4A     		ldr	r2, .L38+60
 705 00ac 9342     		cmp	r3, r2
 706 00ae 02D0     		beq	.L34
 394:Generated_Source\PSoC4/BLE_HAL_PVT.c ****         (trimRegValue == CYBLE_SFLASH_BLERD_SY_BUMP1_REG_VAL2) ||  
 707              		.loc 1 394 0 is_stmt 1
 708 00b0 FB68     		ldr	r3, [r7, #12]
 709 00b2 052B     		cmp	r3, #5
 710 00b4 01D1     		bne	.L35
 711              	.L34:
 395:Generated_Source\PSoC4/BLE_HAL_PVT.c ****         (trimRegValue == CYBLE_SFLASH_BLERD_SY_BUMP1_REG_VAL3))
 396:Generated_Source\PSoC4/BLE_HAL_PVT.c ****     {
 397:Generated_Source\PSoC4/BLE_HAL_PVT.c ****         trimRegValue = CYBLE_BLERD_SY_BUMP1_REG_VAL_FINAL;
 712              		.loc 1 397 0
 713 00b6 2D4B     		ldr	r3, .L38+64
 714 00b8 FB60     		str	r3, [r7, #12]
 715              	.L35:
 398:Generated_Source\PSoC4/BLE_HAL_PVT.c ****     }
 399:Generated_Source\PSoC4/BLE_HAL_PVT.c ****     CYBLE_BLE_BLERD_SY_BUMP1_REG = trimRegValue;
 716              		.loc 1 399 0
 717 00ba 2D4B     		ldr	r3, .L38+68
 718 00bc FA68     		ldr	r2, [r7, #12]
 719 00be 1A60     		str	r2, [r3]
 400:Generated_Source\PSoC4/BLE_HAL_PVT.c **** 
 401:Generated_Source\PSoC4/BLE_HAL_PVT.c ****     /* Following code is for F02FN trimming */
 402:Generated_Source\PSoC4/BLE_HAL_PVT.c ****     siliconRev = (CYBLE_BLE_SILICON_REV_REG >> 4u);
 720              		.loc 1 402 0
 721 00c0 2C4B     		ldr	r3, .L38+72
 722 00c2 1B68     		ldr	r3, [r3]
 723 00c4 1B09     		lsrs	r3, r3, #4
 724 00c6 7B60     		str	r3, [r7, #4]
 403:Generated_Source\PSoC4/BLE_HAL_PVT.c ****     
 404:Generated_Source\PSoC4/BLE_HAL_PVT.c ****     if((CYBLE_BLE_FAMILY_ID_REG == CYBLE_PSOC4A_BLE256DMA_FID) && (siliconRev >= 0x02u) &&
 725              		.loc 1 404 0
 726 00c8 2B4B     		ldr	r3, .L38+76
 727 00ca 1B68     		ldr	r3, [r3]
 728 00cc AA2B     		cmp	r3, #170
 729 00ce 29D1     		bne	.L37
 730              		.loc 1 404 0 is_stmt 0 discriminator 1
ARM GAS  C:\Users\Toshiba\AppData\Local\Temp\ccUpswI6.s 			page 21


 731 00d0 7B68     		ldr	r3, [r7, #4]
 732 00d2 012B     		cmp	r3, #1
 733 00d4 26D9     		bls	.L37
 405:Generated_Source\PSoC4/BLE_HAL_PVT.c ****         (CYBLE_SFLASH_BLESS_SY_BUMP1_HIGH_REG == 0x0Eu))
 734              		.loc 1 405 0 is_stmt 1 discriminator 2
 735 00d6 214B     		ldr	r3, .L38+48
 736 00d8 1B78     		ldrb	r3, [r3]
 737 00da DBB2     		uxtb	r3, r3
 404:Generated_Source\PSoC4/BLE_HAL_PVT.c ****         (CYBLE_SFLASH_BLESS_SY_BUMP1_HIGH_REG == 0x0Eu))
 738              		.loc 1 404 0 discriminator 2
 739 00dc 0E2B     		cmp	r3, #14
 740 00de 21D1     		bne	.L37
 406:Generated_Source\PSoC4/BLE_HAL_PVT.c **** 	{
 407:Generated_Source\PSoC4/BLE_HAL_PVT.c **** 		trimRef34Val = ((uint16)(((uint16) CYBLE_BLE_BLESS_REG34_TRIM_HIGH_REG) << 8u)) |
 741              		.loc 1 407 0
 742 00e0 264B     		ldr	r3, .L38+80
 743 00e2 1B78     		ldrb	r3, [r3]
 744 00e4 DBB2     		uxtb	r3, r3
 745 00e6 9BB2     		uxth	r3, r3
 746 00e8 1B02     		lsls	r3, r3, #8
 747 00ea 99B2     		uxth	r1, r3
 408:Generated_Source\PSoC4/BLE_HAL_PVT.c ****                         ((uint16)CYBLE_BLE_BLESS_REG34_TRIM_LOW_REG);
 748              		.loc 1 408 0
 749 00ec 244B     		ldr	r3, .L38+84
 750 00ee 1B78     		ldrb	r3, [r3]
 751 00f0 DBB2     		uxtb	r3, r3
 407:Generated_Source\PSoC4/BLE_HAL_PVT.c ****                         ((uint16)CYBLE_BLE_BLESS_REG34_TRIM_LOW_REG);
 752              		.loc 1 407 0
 753 00f2 9AB2     		uxth	r2, r3
 754 00f4 BB1C     		adds	r3, r7, #2
 755 00f6 0A43     		orrs	r2, r1
 756 00f8 1A80     		strh	r2, [r3]
 409:Generated_Source\PSoC4/BLE_HAL_PVT.c **** 		CYBLE_BLERD_SY_BUMP2_REG = trimRef34Val;
 757              		.loc 1 409 0
 758 00fa 224B     		ldr	r3, .L38+88
 759 00fc BA1C     		adds	r2, r7, #2
 760 00fe 1288     		ldrh	r2, [r2]
 761 0100 1A60     		str	r2, [r3]
 410:Generated_Source\PSoC4/BLE_HAL_PVT.c **** 	
 411:Generated_Source\PSoC4/BLE_HAL_PVT.c **** 		trimRef38Val = ((uint16)(((uint16)CYBLE_BLE_BLESS_REG38_TRIM_HIGH_REG) << 8u)) |
 762              		.loc 1 411 0
 763 0102 214B     		ldr	r3, .L38+92
 764 0104 1B78     		ldrb	r3, [r3]
 765 0106 DBB2     		uxtb	r3, r3
 766 0108 9BB2     		uxth	r3, r3
 767 010a 1B02     		lsls	r3, r3, #8
 768 010c 99B2     		uxth	r1, r3
 412:Generated_Source\PSoC4/BLE_HAL_PVT.c ****             ((uint16) CYBLE_BLE_BLESS_REG38_TRIM_LOW_REG);
 769              		.loc 1 412 0
 770 010e 1F4B     		ldr	r3, .L38+96
 771 0110 1B78     		ldrb	r3, [r3]
 772 0112 DBB2     		uxtb	r3, r3
 411:Generated_Source\PSoC4/BLE_HAL_PVT.c ****             ((uint16) CYBLE_BLE_BLESS_REG38_TRIM_LOW_REG);
 773              		.loc 1 411 0
 774 0114 9AB2     		uxth	r2, r3
 775 0116 3B00     		movs	r3, r7
 776 0118 0A43     		orrs	r2, r1
ARM GAS  C:\Users\Toshiba\AppData\Local\Temp\ccUpswI6.s 			page 22


 777 011a 1A80     		strh	r2, [r3]
 413:Generated_Source\PSoC4/BLE_HAL_PVT.c **** 		CYBLE_BLERD_RX_BUMP2_REG = trimRef38Val;
 778              		.loc 1 413 0
 779 011c 1C4B     		ldr	r3, .L38+100
 780 011e 3A00     		movs	r2, r7
 781 0120 1288     		ldrh	r2, [r2]
 782 0122 1A60     		str	r2, [r3]
 783              	.L37:
 414:Generated_Source\PSoC4/BLE_HAL_PVT.c **** 	}
 415:Generated_Source\PSoC4/BLE_HAL_PVT.c **** #endif /* (CYIPBLOCK_m0s8bless_VERSION < 3) */
 416:Generated_Source\PSoC4/BLE_HAL_PVT.c **** }
 784              		.loc 1 416 0
 785 0124 C046     		nop
 786 0126 BD46     		mov	sp, r7
 787 0128 04B0     		add	sp, sp, #16
 788              		@ sp needed
 789 012a 80BD     		pop	{r7, pc}
 790              	.L39:
 791              		.align	2
 792              	.L38:
 793 012c D9F0FF0F 		.word	268431577
 794 0130 D8F0FF0F 		.word	268431576
 795 0134 DFF0FF0F 		.word	268431583
 796 0138 DEF0FF0F 		.word	268431582
 797 013c 580B0000 		.word	2904
 798 0140 580D0000 		.word	3416
 799 0144 6C002E40 		.word	1076756588
 800 0148 74002E40 		.word	1076756596
 801 014c DBF0FF0F 		.word	268431579
 802 0150 DAF0FF0F 		.word	268431578
 803 0154 02200000 		.word	8194
 804 0158 78002E40 		.word	1076756600
 805 015c DDF0FF0F 		.word	268431581
 806 0160 DCF0FF0F 		.word	268431580
 807 0164 0F0F0000 		.word	3855
 808 0168 05050000 		.word	1285
 809 016c 050F0000 		.word	3845
 810 0170 80002E40 		.word	1076756608
 811 0174 EC0F00F0 		.word	-268431380
 812 0178 E00F00F0 		.word	-268431392
 813 017c 6DF2FF0F 		.word	268431981
 814 0180 6CF2FF0F 		.word	268431980
 815 0184 84002E40 		.word	1076756612
 816 0188 6FF2FF0F 		.word	268431983
 817 018c 6EF2FF0F 		.word	268431982
 818 0190 94002E40 		.word	1076756628
 819              		.cfi_endproc
 820              	.LFE8:
 821              		.size	CyBLE_BlessDeviceConfig, .-CyBLE_BlessDeviceConfig
 822              		.section	.text.CyBleHal_DelayUs,"ax",%progbits
 823              		.align	2
 824              		.global	CyBleHal_DelayUs
 825              		.code	16
 826              		.thumb_func
 827              		.type	CyBleHal_DelayUs, %function
 828              	CyBleHal_DelayUs:
 829              	.LFB9:
ARM GAS  C:\Users\Toshiba\AppData\Local\Temp\ccUpswI6.s 			page 23


 417:Generated_Source\PSoC4/BLE_HAL_PVT.c **** 
 418:Generated_Source\PSoC4/BLE_HAL_PVT.c **** 
 419:Generated_Source\PSoC4/BLE_HAL_PVT.c **** /* Interface to CyDelayUs function */
 420:Generated_Source\PSoC4/BLE_HAL_PVT.c **** void CyBleHal_DelayUs(uint16 delayVal)
 421:Generated_Source\PSoC4/BLE_HAL_PVT.c **** {
 830              		.loc 1 421 0
 831              		.cfi_startproc
 832              		@ args = 0, pretend = 0, frame = 8
 833              		@ frame_needed = 1, uses_anonymous_args = 0
 834 0000 80B5     		push	{r7, lr}
 835              		.cfi_def_cfa_offset 8
 836              		.cfi_offset 7, -8
 837              		.cfi_offset 14, -4
 838 0002 82B0     		sub	sp, sp, #8
 839              		.cfi_def_cfa_offset 16
 840 0004 00AF     		add	r7, sp, #0
 841              		.cfi_def_cfa_register 7
 842 0006 0200     		movs	r2, r0
 843 0008 BB1D     		adds	r3, r7, #6
 844 000a 1A80     		strh	r2, [r3]
 422:Generated_Source\PSoC4/BLE_HAL_PVT.c ****     CyDelayUs(delayVal);
 845              		.loc 1 422 0
 846 000c BB1D     		adds	r3, r7, #6
 847 000e 1B88     		ldrh	r3, [r3]
 848 0010 1800     		movs	r0, r3
 849 0012 FFF7FEFF 		bl	CyDelayUs
 423:Generated_Source\PSoC4/BLE_HAL_PVT.c **** }
 850              		.loc 1 423 0
 851 0016 C046     		nop
 852 0018 BD46     		mov	sp, r7
 853 001a 02B0     		add	sp, sp, #8
 854              		@ sp needed
 855 001c 80BD     		pop	{r7, pc}
 856              		.cfi_endproc
 857              	.LFE9:
 858              		.size	CyBleHal_DelayUs, .-CyBleHal_DelayUs
 859 001e C046     		.section	.text.CyBleHal_DelayMs,"ax",%progbits
 860              		.align	2
 861              		.global	CyBleHal_DelayMs
 862              		.code	16
 863              		.thumb_func
 864              		.type	CyBleHal_DelayMs, %function
 865              	CyBleHal_DelayMs:
 866              	.LFB10:
 424:Generated_Source\PSoC4/BLE_HAL_PVT.c **** 
 425:Generated_Source\PSoC4/BLE_HAL_PVT.c **** /* Interface to CyDelay function */
 426:Generated_Source\PSoC4/BLE_HAL_PVT.c **** void CyBleHal_DelayMs(uint32 delayVal)
 427:Generated_Source\PSoC4/BLE_HAL_PVT.c **** {
 867              		.loc 1 427 0
 868              		.cfi_startproc
 869              		@ args = 0, pretend = 0, frame = 8
 870              		@ frame_needed = 1, uses_anonymous_args = 0
 871 0000 80B5     		push	{r7, lr}
 872              		.cfi_def_cfa_offset 8
 873              		.cfi_offset 7, -8
 874              		.cfi_offset 14, -4
 875 0002 82B0     		sub	sp, sp, #8
ARM GAS  C:\Users\Toshiba\AppData\Local\Temp\ccUpswI6.s 			page 24


 876              		.cfi_def_cfa_offset 16
 877 0004 00AF     		add	r7, sp, #0
 878              		.cfi_def_cfa_register 7
 879 0006 7860     		str	r0, [r7, #4]
 428:Generated_Source\PSoC4/BLE_HAL_PVT.c ****     CyDelay(delayVal);
 880              		.loc 1 428 0
 881 0008 7B68     		ldr	r3, [r7, #4]
 882 000a 1800     		movs	r0, r3
 883 000c FFF7FEFF 		bl	CyDelay
 429:Generated_Source\PSoC4/BLE_HAL_PVT.c **** }
 884              		.loc 1 429 0
 885 0010 C046     		nop
 886 0012 BD46     		mov	sp, r7
 887 0014 02B0     		add	sp, sp, #8
 888              		@ sp needed
 889 0016 80BD     		pop	{r7, pc}
 890              		.cfi_endproc
 891              	.LFE10:
 892              		.size	CyBleHal_DelayMs, .-CyBleHal_DelayMs
 893              		.section	.text.CyBleHal_EnableGlobalInterrupts,"ax",%progbits
 894              		.align	2
 895              		.global	CyBleHal_EnableGlobalInterrupts
 896              		.code	16
 897              		.thumb_func
 898              		.type	CyBleHal_EnableGlobalInterrupts, %function
 899              	CyBleHal_EnableGlobalInterrupts:
 900              	.LFB11:
 430:Generated_Source\PSoC4/BLE_HAL_PVT.c **** 
 431:Generated_Source\PSoC4/BLE_HAL_PVT.c **** /* Interface to BLE_bless_isr_Enable function */
 432:Generated_Source\PSoC4/BLE_HAL_PVT.c **** void CyBleHal_EnableGlobalInterrupts(void)
 433:Generated_Source\PSoC4/BLE_HAL_PVT.c **** {
 901              		.loc 1 433 0
 902              		.cfi_startproc
 903              		@ args = 0, pretend = 0, frame = 0
 904              		@ frame_needed = 1, uses_anonymous_args = 0
 905 0000 80B5     		push	{r7, lr}
 906              		.cfi_def_cfa_offset 8
 907              		.cfi_offset 7, -8
 908              		.cfi_offset 14, -4
 909 0002 00AF     		add	r7, sp, #0
 910              		.cfi_def_cfa_register 7
 434:Generated_Source\PSoC4/BLE_HAL_PVT.c ****     BLE_bless_isr_Enable();
 911              		.loc 1 434 0
 912 0004 FFF7FEFF 		bl	BLE_bless_isr_Enable
 435:Generated_Source\PSoC4/BLE_HAL_PVT.c **** }
 913              		.loc 1 435 0
 914 0008 C046     		nop
 915 000a BD46     		mov	sp, r7
 916              		@ sp needed
 917 000c 80BD     		pop	{r7, pc}
 918              		.cfi_endproc
 919              	.LFE11:
 920              		.size	CyBleHal_EnableGlobalInterrupts, .-CyBleHal_EnableGlobalInterrupts
 921 000e C046     		.section	.text.CyBleHal_DisableGlobalInterrupts,"ax",%progbits
 922              		.align	2
 923              		.global	CyBleHal_DisableGlobalInterrupts
 924              		.code	16
ARM GAS  C:\Users\Toshiba\AppData\Local\Temp\ccUpswI6.s 			page 25


 925              		.thumb_func
 926              		.type	CyBleHal_DisableGlobalInterrupts, %function
 927              	CyBleHal_DisableGlobalInterrupts:
 928              	.LFB12:
 436:Generated_Source\PSoC4/BLE_HAL_PVT.c **** 
 437:Generated_Source\PSoC4/BLE_HAL_PVT.c **** /* Interface to BLE_bless_isr_Disable function */
 438:Generated_Source\PSoC4/BLE_HAL_PVT.c **** void CyBleHal_DisableGlobalInterrupts(void)
 439:Generated_Source\PSoC4/BLE_HAL_PVT.c **** {
 929              		.loc 1 439 0
 930              		.cfi_startproc
 931              		@ args = 0, pretend = 0, frame = 0
 932              		@ frame_needed = 1, uses_anonymous_args = 0
 933 0000 80B5     		push	{r7, lr}
 934              		.cfi_def_cfa_offset 8
 935              		.cfi_offset 7, -8
 936              		.cfi_offset 14, -4
 937 0002 00AF     		add	r7, sp, #0
 938              		.cfi_def_cfa_register 7
 440:Generated_Source\PSoC4/BLE_HAL_PVT.c ****     BLE_bless_isr_Disable();
 939              		.loc 1 440 0
 940 0004 FFF7FEFF 		bl	BLE_bless_isr_Disable
 441:Generated_Source\PSoC4/BLE_HAL_PVT.c **** }
 941              		.loc 1 441 0
 942 0008 C046     		nop
 943 000a BD46     		mov	sp, r7
 944              		@ sp needed
 945 000c 80BD     		pop	{r7, pc}
 946              		.cfi_endproc
 947              	.LFE12:
 948              		.size	CyBleHal_DisableGlobalInterrupts, .-CyBleHal_DisableGlobalInterrupts
 949 000e C046     		.section	.text.CyBle_HalInit,"ax",%progbits
 950              		.align	2
 951              		.global	CyBle_HalInit
 952              		.code	16
 953              		.thumb_func
 954              		.type	CyBle_HalInit, %function
 955              	CyBle_HalInit:
 956              	.LFB13:
 442:Generated_Source\PSoC4/BLE_HAL_PVT.c **** 
 443:Generated_Source\PSoC4/BLE_HAL_PVT.c **** /*******************************************************************************
 444:Generated_Source\PSoC4/BLE_HAL_PVT.c **** * Function Name: CyBle_HalInit
 445:Generated_Source\PSoC4/BLE_HAL_PVT.c **** ****************************************************************************//**
 446:Generated_Source\PSoC4/BLE_HAL_PVT.c **** *
 447:Generated_Source\PSoC4/BLE_HAL_PVT.c **** *  Initializes the BLESS interrupt.
 448:Generated_Source\PSoC4/BLE_HAL_PVT.c **** *
 449:Generated_Source\PSoC4/BLE_HAL_PVT.c **** * \return
 450:Generated_Source\PSoC4/BLE_HAL_PVT.c **** *  None
 451:Generated_Source\PSoC4/BLE_HAL_PVT.c **** *
 452:Generated_Source\PSoC4/BLE_HAL_PVT.c **** *******************************************************************************/
 453:Generated_Source\PSoC4/BLE_HAL_PVT.c **** void CyBle_HalInit(void)
 454:Generated_Source\PSoC4/BLE_HAL_PVT.c **** {
 957              		.loc 1 454 0
 958              		.cfi_startproc
 959              		@ args = 0, pretend = 0, frame = 0
 960              		@ frame_needed = 1, uses_anonymous_args = 0
 961 0000 80B5     		push	{r7, lr}
 962              		.cfi_def_cfa_offset 8
ARM GAS  C:\Users\Toshiba\AppData\Local\Temp\ccUpswI6.s 			page 26


 963              		.cfi_offset 7, -8
 964              		.cfi_offset 14, -4
 965 0002 00AF     		add	r7, sp, #0
 966              		.cfi_def_cfa_register 7
 455:Generated_Source\PSoC4/BLE_HAL_PVT.c ****     /* For all we know the interrupt is active. */
 456:Generated_Source\PSoC4/BLE_HAL_PVT.c ****     BLE_bless_isr_Disable();
 967              		.loc 1 456 0
 968 0004 FFF7FEFF 		bl	BLE_bless_isr_Disable
 457:Generated_Source\PSoC4/BLE_HAL_PVT.c **** 
 458:Generated_Source\PSoC4/BLE_HAL_PVT.c ****     /* Set the ISR to point to the BLE_bless_isr Interrupt. */
 459:Generated_Source\PSoC4/BLE_HAL_PVT.c ****     BLE_bless_isr_SetVector(&CyBLE_Bless_Interrupt);
 969              		.loc 1 459 0
 970 0008 044B     		ldr	r3, .L45
 971 000a 1800     		movs	r0, r3
 972 000c FFF7FEFF 		bl	BLE_bless_isr_SetVector
 460:Generated_Source\PSoC4/BLE_HAL_PVT.c **** 
 461:Generated_Source\PSoC4/BLE_HAL_PVT.c ****     /* Set the priority. */
 462:Generated_Source\PSoC4/BLE_HAL_PVT.c ****     BLE_bless_isr_SetPriority((uint8)BLE_bless_isr_INTC_PRIOR_NUMBER);
 973              		.loc 1 462 0
 974 0010 0320     		movs	r0, #3
 975 0012 FFF7FEFF 		bl	BLE_bless_isr_SetPriority
 463:Generated_Source\PSoC4/BLE_HAL_PVT.c **** }
 976              		.loc 1 463 0
 977 0016 C046     		nop
 978 0018 BD46     		mov	sp, r7
 979              		@ sp needed
 980 001a 80BD     		pop	{r7, pc}
 981              	.L46:
 982              		.align	2
 983              	.L45:
 984 001c 00000000 		.word	CyBLE_Bless_Interrupt
 985              		.cfi_endproc
 986              	.LFE13:
 987              		.size	CyBle_HalInit, .-CyBle_HalInit
 988              		.section	.text.CYBLE_BlessStart,"ax",%progbits
 989              		.align	2
 990              		.global	CYBLE_BlessStart
 991              		.code	16
 992              		.thumb_func
 993              		.type	CYBLE_BlessStart, %function
 994              	CYBLE_BlessStart:
 995              	.LFB14:
 464:Generated_Source\PSoC4/BLE_HAL_PVT.c **** 
 465:Generated_Source\PSoC4/BLE_HAL_PVT.c **** 
 466:Generated_Source\PSoC4/BLE_HAL_PVT.c **** /*******************************************************************************
 467:Generated_Source\PSoC4/BLE_HAL_PVT.c **** * Function Name: CYBLE_BlessStart
 468:Generated_Source\PSoC4/BLE_HAL_PVT.c **** ****************************************************************************//**
 469:Generated_Source\PSoC4/BLE_HAL_PVT.c **** *
 470:Generated_Source\PSoC4/BLE_HAL_PVT.c **** *  Starts Interrupt Controller.
 471:Generated_Source\PSoC4/BLE_HAL_PVT.c **** *
 472:Generated_Source\PSoC4/BLE_HAL_PVT.c **** * \return
 473:Generated_Source\PSoC4/BLE_HAL_PVT.c **** *  None
 474:Generated_Source\PSoC4/BLE_HAL_PVT.c **** *
 475:Generated_Source\PSoC4/BLE_HAL_PVT.c **** *******************************************************************************/
 476:Generated_Source\PSoC4/BLE_HAL_PVT.c **** void CYBLE_BlessStart(void)
 477:Generated_Source\PSoC4/BLE_HAL_PVT.c **** {
 996              		.loc 1 477 0
ARM GAS  C:\Users\Toshiba\AppData\Local\Temp\ccUpswI6.s 			page 27


 997              		.cfi_startproc
 998              		@ args = 0, pretend = 0, frame = 0
 999              		@ frame_needed = 1, uses_anonymous_args = 0
 1000 0000 80B5     		push	{r7, lr}
 1001              		.cfi_def_cfa_offset 8
 1002              		.cfi_offset 7, -8
 1003              		.cfi_offset 14, -4
 1004 0002 00AF     		add	r7, sp, #0
 1005              		.cfi_def_cfa_register 7
 478:Generated_Source\PSoC4/BLE_HAL_PVT.c **** #if((CYBLE_M0S8BLESS_VERSION_3) && (CYBLE_EXT_PA_ENABLED))
 479:Generated_Source\PSoC4/BLE_HAL_PVT.c ****     CYBLE_EXT_PA_LNA_CTRL_REG |= CYBLE_EXT_PA_LNA_ENABLE | CYBLE_EXT_OUT_EN_DRIVE_VAL; 
 480:Generated_Source\PSoC4/BLE_HAL_PVT.c **** #endif  /* (CYBLE_M0S8BLESS_VERSION_3) */
 481:Generated_Source\PSoC4/BLE_HAL_PVT.c **** 
 482:Generated_Source\PSoC4/BLE_HAL_PVT.c ****     BLE_bless_isr_StartEx(&CyBLE_Bless_Interrupt);
 1006              		.loc 1 482 0
 1007 0004 034B     		ldr	r3, .L48
 1008 0006 1800     		movs	r0, r3
 1009 0008 FFF7FEFF 		bl	BLE_bless_isr_StartEx
 483:Generated_Source\PSoC4/BLE_HAL_PVT.c **** }
 1010              		.loc 1 483 0
 1011 000c C046     		nop
 1012 000e BD46     		mov	sp, r7
 1013              		@ sp needed
 1014 0010 80BD     		pop	{r7, pc}
 1015              	.L49:
 1016 0012 C046     		.align	2
 1017              	.L48:
 1018 0014 00000000 		.word	CyBLE_Bless_Interrupt
 1019              		.cfi_endproc
 1020              	.LFE14:
 1021              		.size	CYBLE_BlessStart, .-CYBLE_BlessStart
 1022              		.section	.text.CyBLE_GetIpBlockVersion,"ax",%progbits
 1023              		.align	2
 1024              		.global	CyBLE_GetIpBlockVersion
 1025              		.code	16
 1026              		.thumb_func
 1027              		.type	CyBLE_GetIpBlockVersion, %function
 1028              	CyBLE_GetIpBlockVersion:
 1029              	.LFB15:
 484:Generated_Source\PSoC4/BLE_HAL_PVT.c **** 
 485:Generated_Source\PSoC4/BLE_HAL_PVT.c **** 
 486:Generated_Source\PSoC4/BLE_HAL_PVT.c **** /*******************************************************************************
 487:Generated_Source\PSoC4/BLE_HAL_PVT.c **** * Function Name: CyBLE_GetIpBlockVersion
 488:Generated_Source\PSoC4/BLE_HAL_PVT.c **** ****************************************************************************//**
 489:Generated_Source\PSoC4/BLE_HAL_PVT.c **** *
 490:Generated_Source\PSoC4/BLE_HAL_PVT.c **** * This function returns the version of m0s8bless ip block.
 491:Generated_Source\PSoC4/BLE_HAL_PVT.c **** *
 492:Generated_Source\PSoC4/BLE_HAL_PVT.c **** * \return
 493:Generated_Source\PSoC4/BLE_HAL_PVT.c **** * uint32 bits:
 494:Generated_Source\PSoC4/BLE_HAL_PVT.c **** * 7:0 - ip version ( 1 - BLE_ver1, 2 - BLE_ver2, 3 - BLE_ver3 )
 495:Generated_Source\PSoC4/BLE_HAL_PVT.c **** * 15:8 - flash size ( 0 - 128k, 1 - 256k )
 496:Generated_Source\PSoC4/BLE_HAL_PVT.c **** * 16 - PSVP device
 497:Generated_Source\PSoC4/BLE_HAL_PVT.c **** * 31:17 - reserved for future usage
 498:Generated_Source\PSoC4/BLE_HAL_PVT.c **** *
 499:Generated_Source\PSoC4/BLE_HAL_PVT.c **** *******************************************************************************/
 500:Generated_Source\PSoC4/BLE_HAL_PVT.c **** uint32 CyBLE_GetIpBlockVersion(void)
 501:Generated_Source\PSoC4/BLE_HAL_PVT.c **** {
ARM GAS  C:\Users\Toshiba\AppData\Local\Temp\ccUpswI6.s 			page 28


 1030              		.loc 1 501 0
 1031              		.cfi_startproc
 1032              		@ args = 0, pretend = 0, frame = 0
 1033              		@ frame_needed = 1, uses_anonymous_args = 0
 1034 0000 80B5     		push	{r7, lr}
 1035              		.cfi_def_cfa_offset 8
 1036              		.cfi_offset 7, -8
 1037              		.cfi_offset 14, -4
 1038 0002 00AF     		add	r7, sp, #0
 1039              		.cfi_def_cfa_register 7
 502:Generated_Source\PSoC4/BLE_HAL_PVT.c ****     return(((uint32)CYBLE_M0S8BLESS_VERSION) | ((uint32)((uint32)CYBLE_FLASH_SIZE) << 8u) |
 1040              		.loc 1 502 0
 1041 0004 0223     		movs	r3, #2
 1042 0006 FF33     		adds	r3, r3, #255
 503:Generated_Source\PSoC4/BLE_HAL_PVT.c ****         ((uint32)(((uint32)CYBLE_PSVP_DEVICE)) << 16u));
 504:Generated_Source\PSoC4/BLE_HAL_PVT.c **** }
 1043              		.loc 1 504 0
 1044 0008 1800     		movs	r0, r3
 1045 000a BD46     		mov	sp, r7
 1046              		@ sp needed
 1047 000c 80BD     		pop	{r7, pc}
 1048              		.cfi_endproc
 1049              	.LFE15:
 1050              		.size	CyBLE_GetIpBlockVersion, .-CyBLE_GetIpBlockVersion
 1051 000e C046     		.section	.text.CyBle_Hal_pairing_local_public_key_handler,"ax",%progbits
 1052              		.align	2
 1053              		.global	CyBle_Hal_pairing_local_public_key_handler
 1054              		.code	16
 1055              		.thumb_func
 1056              		.type	CyBle_Hal_pairing_local_public_key_handler, %function
 1057              	CyBle_Hal_pairing_local_public_key_handler:
 1058              	.LFB16:
 505:Generated_Source\PSoC4/BLE_HAL_PVT.c **** 
 506:Generated_Source\PSoC4/BLE_HAL_PVT.c **** /* Mapping functions for stack size optimization */
 507:Generated_Source\PSoC4/BLE_HAL_PVT.c **** #if(CYBLE_MODE_PROFILE)
 508:Generated_Source\PSoC4/BLE_HAL_PVT.c ****     
 509:Generated_Source\PSoC4/BLE_HAL_PVT.c **** #if(CYBLE_SECURE_CONN_FEATURE_ENABLED)
 510:Generated_Source\PSoC4/BLE_HAL_PVT.c ****     
 511:Generated_Source\PSoC4/BLE_HAL_PVT.c ****     CYBLE_API_RESULT_T CyBle_Hal_pairing_local_public_key_handler(void *param)
 512:Generated_Source\PSoC4/BLE_HAL_PVT.c ****     {
 513:Generated_Source\PSoC4/BLE_HAL_PVT.c ****         return (CyBle_Hal_mapping_pairing_local_public_key_handler(param));
 514:Generated_Source\PSoC4/BLE_HAL_PVT.c ****     }
 515:Generated_Source\PSoC4/BLE_HAL_PVT.c ****      
 516:Generated_Source\PSoC4/BLE_HAL_PVT.c ****     CYBLE_API_RESULT_T CyBle_Hal_pairing_remote_key_handler(void *param)
 517:Generated_Source\PSoC4/BLE_HAL_PVT.c ****     {
 518:Generated_Source\PSoC4/BLE_HAL_PVT.c ****         return (CyBle_Hal_mapping_pairing_remote_key_handler(param));
 519:Generated_Source\PSoC4/BLE_HAL_PVT.c ****     }
 520:Generated_Source\PSoC4/BLE_HAL_PVT.c ****      
 521:Generated_Source\PSoC4/BLE_HAL_PVT.c ****     CYBLE_API_RESULT_T CyBle_Hal_pairing_dhkey_handler(void *param)
 522:Generated_Source\PSoC4/BLE_HAL_PVT.c ****     {
 523:Generated_Source\PSoC4/BLE_HAL_PVT.c ****         return (CyBle_Hal_mapping_pairing_dhkey_handler(param));
 524:Generated_Source\PSoC4/BLE_HAL_PVT.c ****     }
 525:Generated_Source\PSoC4/BLE_HAL_PVT.c **** 
 526:Generated_Source\PSoC4/BLE_HAL_PVT.c ****     CYBLE_API_RESULT_T CyBle_Hal_pairing_dhkey_check_handler(void *param)
 527:Generated_Source\PSoC4/BLE_HAL_PVT.c ****     {
 528:Generated_Source\PSoC4/BLE_HAL_PVT.c ****         return (CyBle_Hal_mapping_pairing_dhkey_check_handler(param));
 529:Generated_Source\PSoC4/BLE_HAL_PVT.c ****     }
ARM GAS  C:\Users\Toshiba\AppData\Local\Temp\ccUpswI6.s 			page 29


 530:Generated_Source\PSoC4/BLE_HAL_PVT.c **** 
 531:Generated_Source\PSoC4/BLE_HAL_PVT.c ****     CYBLE_API_RESULT_T CyBle_Hal_pairing_keypress_notification_handler(void *param)
 532:Generated_Source\PSoC4/BLE_HAL_PVT.c ****     {
 533:Generated_Source\PSoC4/BLE_HAL_PVT.c ****         return (CyBle_Hal_mapping_pairing_keypress_notification_handler(param));
 534:Generated_Source\PSoC4/BLE_HAL_PVT.c ****     }
 535:Generated_Source\PSoC4/BLE_HAL_PVT.c **** 
 536:Generated_Source\PSoC4/BLE_HAL_PVT.c ****     CYBLE_API_RESULT_T CyBle_Hal_pairing_rand_handler(void *param)
 537:Generated_Source\PSoC4/BLE_HAL_PVT.c ****     {
 538:Generated_Source\PSoC4/BLE_HAL_PVT.c ****         return (CyBle_Hal_mapping_pairing_rand_handler(param));
 539:Generated_Source\PSoC4/BLE_HAL_PVT.c ****     }
 540:Generated_Source\PSoC4/BLE_HAL_PVT.c **** 
 541:Generated_Source\PSoC4/BLE_HAL_PVT.c ****     CYBLE_API_RESULT_T CyBle_Hal_pairing_confirm_handler(void *param)
 542:Generated_Source\PSoC4/BLE_HAL_PVT.c ****     {
 543:Generated_Source\PSoC4/BLE_HAL_PVT.c ****         return (CyBle_Hal_mapping_pairing_confirm_handler(param));
 544:Generated_Source\PSoC4/BLE_HAL_PVT.c ****     }
 545:Generated_Source\PSoC4/BLE_HAL_PVT.c **** 
 546:Generated_Source\PSoC4/BLE_HAL_PVT.c ****     CYBLE_API_RESULT_T CyBle_Hal_pairing_lr_confirming_handler(void *param)
 547:Generated_Source\PSoC4/BLE_HAL_PVT.c ****     {
 548:Generated_Source\PSoC4/BLE_HAL_PVT.c ****         return (CyBle_Hal_mapping_pairing_lr_confirming_handler(param));
 549:Generated_Source\PSoC4/BLE_HAL_PVT.c ****     }
 550:Generated_Source\PSoC4/BLE_HAL_PVT.c ****     
 551:Generated_Source\PSoC4/BLE_HAL_PVT.c ****     CYBLE_API_RESULT_T CyBle_Hal_pairing_sc_tbx_dhkey_generate_complete(void* param)
 552:Generated_Source\PSoC4/BLE_HAL_PVT.c ****     {
 553:Generated_Source\PSoC4/BLE_HAL_PVT.c ****         CyBle_Hal_mapping_tbx_dhkey_generate_complete(param);
 554:Generated_Source\PSoC4/BLE_HAL_PVT.c ****         return (CYBLE_ERROR_OK);
 555:Generated_Source\PSoC4/BLE_HAL_PVT.c ****     }
 556:Generated_Source\PSoC4/BLE_HAL_PVT.c **** 
 557:Generated_Source\PSoC4/BLE_HAL_PVT.c ****     CYBLE_API_RESULT_T CyBle_Hal_pairing_sc_tbx_local_pubkey_generate_complete(void)
 558:Generated_Source\PSoC4/BLE_HAL_PVT.c ****     {
 559:Generated_Source\PSoC4/BLE_HAL_PVT.c ****         CyBle_Hal_mapping_tbx_local_pubkey_generate_complete();
 560:Generated_Source\PSoC4/BLE_HAL_PVT.c ****         return (CYBLE_ERROR_OK);
 561:Generated_Source\PSoC4/BLE_HAL_PVT.c ****     }
 562:Generated_Source\PSoC4/BLE_HAL_PVT.c **** 
 563:Generated_Source\PSoC4/BLE_HAL_PVT.c ****     CYBLE_API_RESULT_T CyBle_Hal_pairing_sc_tbx_generate_local_P256_public_key(uint8 param)
 564:Generated_Source\PSoC4/BLE_HAL_PVT.c ****     {
 565:Generated_Source\PSoC4/BLE_HAL_PVT.c ****         return (CyBle_Hal_mapping_tbx_generate_local_P256_public_key(param));
 566:Generated_Source\PSoC4/BLE_HAL_PVT.c ****     }
 567:Generated_Source\PSoC4/BLE_HAL_PVT.c **** 
 568:Generated_Source\PSoC4/BLE_HAL_PVT.c ****     CYBLE_API_RESULT_T CyBle_Hal_pairing_sc_tbx_generate_DHkey(void  * param1, void  * param2)
 569:Generated_Source\PSoC4/BLE_HAL_PVT.c ****     {
 570:Generated_Source\PSoC4/BLE_HAL_PVT.c ****         return (CyBle_Hal_mapping_tbx_generate_DHkey(param1, param2));
 571:Generated_Source\PSoC4/BLE_HAL_PVT.c ****     }
 572:Generated_Source\PSoC4/BLE_HAL_PVT.c **** 
 573:Generated_Source\PSoC4/BLE_HAL_PVT.c ****     void CyBle_Hal_smp_sc_cmac_complete(void)
 574:Generated_Source\PSoC4/BLE_HAL_PVT.c ****     {
 575:Generated_Source\PSoC4/BLE_HAL_PVT.c ****        CyBle_Hal_Mapping_smp_sc_cmac_complete();
 576:Generated_Source\PSoC4/BLE_HAL_PVT.c ****     }
 577:Generated_Source\PSoC4/BLE_HAL_PVT.c **** 
 578:Generated_Source\PSoC4/BLE_HAL_PVT.c ****     CYBLE_API_RESULT_T CyBle_Hal_se_smp_sc_user_passkey_handler(void *param1, void *param2)
 579:Generated_Source\PSoC4/BLE_HAL_PVT.c ****     {
 580:Generated_Source\PSoC4/BLE_HAL_PVT.c ****         return (CyBle_Hal_mapping_se_smp_sc_user_passkey_handler(param1, param2));
 581:Generated_Source\PSoC4/BLE_HAL_PVT.c ****     }
 582:Generated_Source\PSoC4/BLE_HAL_PVT.c **** 
 583:Generated_Source\PSoC4/BLE_HAL_PVT.c ****     void CyBle_Hal_EccPointMult(void)
 584:Generated_Source\PSoC4/BLE_HAL_PVT.c ****     {
 585:Generated_Source\PSoC4/BLE_HAL_PVT.c ****         CyBle_Hal_Mapping_EccPointMult();
 586:Generated_Source\PSoC4/BLE_HAL_PVT.c ****     }
ARM GAS  C:\Users\Toshiba\AppData\Local\Temp\ccUpswI6.s 			page 30


 587:Generated_Source\PSoC4/BLE_HAL_PVT.c ****     
 588:Generated_Source\PSoC4/BLE_HAL_PVT.c **** #else     /* If feature is not required, return error. */
 589:Generated_Source\PSoC4/BLE_HAL_PVT.c ****     
 590:Generated_Source\PSoC4/BLE_HAL_PVT.c ****     CYBLE_API_RESULT_T CyBle_Hal_pairing_local_public_key_handler(void *param CYBLE_UNUSED_ATTR)
 591:Generated_Source\PSoC4/BLE_HAL_PVT.c ****     {
 1059              		.loc 1 591 0
 1060              		.cfi_startproc
 1061              		@ args = 0, pretend = 0, frame = 8
 1062              		@ frame_needed = 1, uses_anonymous_args = 0
 1063 0000 80B5     		push	{r7, lr}
 1064              		.cfi_def_cfa_offset 8
 1065              		.cfi_offset 7, -8
 1066              		.cfi_offset 14, -4
 1067 0002 82B0     		sub	sp, sp, #8
 1068              		.cfi_def_cfa_offset 16
 1069 0004 00AF     		add	r7, sp, #0
 1070              		.cfi_def_cfa_register 7
 1071 0006 7860     		str	r0, [r7, #4]
 592:Generated_Source\PSoC4/BLE_HAL_PVT.c ****         return (CYBLE_ERROR_UNSUPPORTED_FEATURE_OR_PARAMETER_VALUE);
 1072              		.loc 1 592 0
 1073 0008 2B23     		movs	r3, #43
 593:Generated_Source\PSoC4/BLE_HAL_PVT.c ****     }
 1074              		.loc 1 593 0
 1075 000a 1800     		movs	r0, r3
 1076 000c BD46     		mov	sp, r7
 1077 000e 02B0     		add	sp, sp, #8
 1078              		@ sp needed
 1079 0010 80BD     		pop	{r7, pc}
 1080              		.cfi_endproc
 1081              	.LFE16:
 1082              		.size	CyBle_Hal_pairing_local_public_key_handler, .-CyBle_Hal_pairing_local_public_key_handler
 1083 0012 C046     		.section	.text.CyBle_Hal_pairing_remote_key_handler,"ax",%progbits
 1084              		.align	2
 1085              		.global	CyBle_Hal_pairing_remote_key_handler
 1086              		.code	16
 1087              		.thumb_func
 1088              		.type	CyBle_Hal_pairing_remote_key_handler, %function
 1089              	CyBle_Hal_pairing_remote_key_handler:
 1090              	.LFB17:
 594:Generated_Source\PSoC4/BLE_HAL_PVT.c ****      
 595:Generated_Source\PSoC4/BLE_HAL_PVT.c ****     CYBLE_API_RESULT_T CyBle_Hal_pairing_remote_key_handler(void *param CYBLE_UNUSED_ATTR)
 596:Generated_Source\PSoC4/BLE_HAL_PVT.c ****     {
 1091              		.loc 1 596 0
 1092              		.cfi_startproc
 1093              		@ args = 0, pretend = 0, frame = 8
 1094              		@ frame_needed = 1, uses_anonymous_args = 0
 1095 0000 80B5     		push	{r7, lr}
 1096              		.cfi_def_cfa_offset 8
 1097              		.cfi_offset 7, -8
 1098              		.cfi_offset 14, -4
 1099 0002 82B0     		sub	sp, sp, #8
 1100              		.cfi_def_cfa_offset 16
 1101 0004 00AF     		add	r7, sp, #0
 1102              		.cfi_def_cfa_register 7
 1103 0006 7860     		str	r0, [r7, #4]
 597:Generated_Source\PSoC4/BLE_HAL_PVT.c ****         return (CYBLE_ERROR_UNSUPPORTED_FEATURE_OR_PARAMETER_VALUE);
 1104              		.loc 1 597 0
ARM GAS  C:\Users\Toshiba\AppData\Local\Temp\ccUpswI6.s 			page 31


 1105 0008 2B23     		movs	r3, #43
 598:Generated_Source\PSoC4/BLE_HAL_PVT.c ****     }
 1106              		.loc 1 598 0
 1107 000a 1800     		movs	r0, r3
 1108 000c BD46     		mov	sp, r7
 1109 000e 02B0     		add	sp, sp, #8
 1110              		@ sp needed
 1111 0010 80BD     		pop	{r7, pc}
 1112              		.cfi_endproc
 1113              	.LFE17:
 1114              		.size	CyBle_Hal_pairing_remote_key_handler, .-CyBle_Hal_pairing_remote_key_handler
 1115 0012 C046     		.section	.text.CyBle_Hal_pairing_dhkey_handler,"ax",%progbits
 1116              		.align	2
 1117              		.global	CyBle_Hal_pairing_dhkey_handler
 1118              		.code	16
 1119              		.thumb_func
 1120              		.type	CyBle_Hal_pairing_dhkey_handler, %function
 1121              	CyBle_Hal_pairing_dhkey_handler:
 1122              	.LFB18:
 599:Generated_Source\PSoC4/BLE_HAL_PVT.c ****      
 600:Generated_Source\PSoC4/BLE_HAL_PVT.c ****     CYBLE_API_RESULT_T CyBle_Hal_pairing_dhkey_handler(void *param CYBLE_UNUSED_ATTR)
 601:Generated_Source\PSoC4/BLE_HAL_PVT.c ****     {
 1123              		.loc 1 601 0
 1124              		.cfi_startproc
 1125              		@ args = 0, pretend = 0, frame = 8
 1126              		@ frame_needed = 1, uses_anonymous_args = 0
 1127 0000 80B5     		push	{r7, lr}
 1128              		.cfi_def_cfa_offset 8
 1129              		.cfi_offset 7, -8
 1130              		.cfi_offset 14, -4
 1131 0002 82B0     		sub	sp, sp, #8
 1132              		.cfi_def_cfa_offset 16
 1133 0004 00AF     		add	r7, sp, #0
 1134              		.cfi_def_cfa_register 7
 1135 0006 7860     		str	r0, [r7, #4]
 602:Generated_Source\PSoC4/BLE_HAL_PVT.c ****         return (CYBLE_ERROR_UNSUPPORTED_FEATURE_OR_PARAMETER_VALUE);
 1136              		.loc 1 602 0
 1137 0008 2B23     		movs	r3, #43
 603:Generated_Source\PSoC4/BLE_HAL_PVT.c ****     }
 1138              		.loc 1 603 0
 1139 000a 1800     		movs	r0, r3
 1140 000c BD46     		mov	sp, r7
 1141 000e 02B0     		add	sp, sp, #8
 1142              		@ sp needed
 1143 0010 80BD     		pop	{r7, pc}
 1144              		.cfi_endproc
 1145              	.LFE18:
 1146              		.size	CyBle_Hal_pairing_dhkey_handler, .-CyBle_Hal_pairing_dhkey_handler
 1147 0012 C046     		.section	.text.CyBle_Hal_pairing_dhkey_check_handler,"ax",%progbits
 1148              		.align	2
 1149              		.global	CyBle_Hal_pairing_dhkey_check_handler
 1150              		.code	16
 1151              		.thumb_func
 1152              		.type	CyBle_Hal_pairing_dhkey_check_handler, %function
 1153              	CyBle_Hal_pairing_dhkey_check_handler:
 1154              	.LFB19:
 604:Generated_Source\PSoC4/BLE_HAL_PVT.c **** 
ARM GAS  C:\Users\Toshiba\AppData\Local\Temp\ccUpswI6.s 			page 32


 605:Generated_Source\PSoC4/BLE_HAL_PVT.c ****     CYBLE_API_RESULT_T CyBle_Hal_pairing_dhkey_check_handler(void *param CYBLE_UNUSED_ATTR)
 606:Generated_Source\PSoC4/BLE_HAL_PVT.c ****     {
 1155              		.loc 1 606 0
 1156              		.cfi_startproc
 1157              		@ args = 0, pretend = 0, frame = 8
 1158              		@ frame_needed = 1, uses_anonymous_args = 0
 1159 0000 80B5     		push	{r7, lr}
 1160              		.cfi_def_cfa_offset 8
 1161              		.cfi_offset 7, -8
 1162              		.cfi_offset 14, -4
 1163 0002 82B0     		sub	sp, sp, #8
 1164              		.cfi_def_cfa_offset 16
 1165 0004 00AF     		add	r7, sp, #0
 1166              		.cfi_def_cfa_register 7
 1167 0006 7860     		str	r0, [r7, #4]
 607:Generated_Source\PSoC4/BLE_HAL_PVT.c ****         return (CYBLE_ERROR_UNSUPPORTED_FEATURE_OR_PARAMETER_VALUE);
 1168              		.loc 1 607 0
 1169 0008 2B23     		movs	r3, #43
 608:Generated_Source\PSoC4/BLE_HAL_PVT.c ****     }
 1170              		.loc 1 608 0
 1171 000a 1800     		movs	r0, r3
 1172 000c BD46     		mov	sp, r7
 1173 000e 02B0     		add	sp, sp, #8
 1174              		@ sp needed
 1175 0010 80BD     		pop	{r7, pc}
 1176              		.cfi_endproc
 1177              	.LFE19:
 1178              		.size	CyBle_Hal_pairing_dhkey_check_handler, .-CyBle_Hal_pairing_dhkey_check_handler
 1179 0012 C046     		.section	.text.CyBle_Hal_pairing_keypress_notification_handler,"ax",%progbits
 1180              		.align	2
 1181              		.global	CyBle_Hal_pairing_keypress_notification_handler
 1182              		.code	16
 1183              		.thumb_func
 1184              		.type	CyBle_Hal_pairing_keypress_notification_handler, %function
 1185              	CyBle_Hal_pairing_keypress_notification_handler:
 1186              	.LFB20:
 609:Generated_Source\PSoC4/BLE_HAL_PVT.c **** 
 610:Generated_Source\PSoC4/BLE_HAL_PVT.c ****     CYBLE_API_RESULT_T CyBle_Hal_pairing_keypress_notification_handler(void *param CYBLE_UNUSED_ATT
 611:Generated_Source\PSoC4/BLE_HAL_PVT.c ****     {
 1187              		.loc 1 611 0
 1188              		.cfi_startproc
 1189              		@ args = 0, pretend = 0, frame = 8
 1190              		@ frame_needed = 1, uses_anonymous_args = 0
 1191 0000 80B5     		push	{r7, lr}
 1192              		.cfi_def_cfa_offset 8
 1193              		.cfi_offset 7, -8
 1194              		.cfi_offset 14, -4
 1195 0002 82B0     		sub	sp, sp, #8
 1196              		.cfi_def_cfa_offset 16
 1197 0004 00AF     		add	r7, sp, #0
 1198              		.cfi_def_cfa_register 7
 1199 0006 7860     		str	r0, [r7, #4]
 612:Generated_Source\PSoC4/BLE_HAL_PVT.c ****         return (CYBLE_ERROR_UNSUPPORTED_FEATURE_OR_PARAMETER_VALUE);
 1200              		.loc 1 612 0
 1201 0008 2B23     		movs	r3, #43
 613:Generated_Source\PSoC4/BLE_HAL_PVT.c ****     }
 1202              		.loc 1 613 0
ARM GAS  C:\Users\Toshiba\AppData\Local\Temp\ccUpswI6.s 			page 33


 1203 000a 1800     		movs	r0, r3
 1204 000c BD46     		mov	sp, r7
 1205 000e 02B0     		add	sp, sp, #8
 1206              		@ sp needed
 1207 0010 80BD     		pop	{r7, pc}
 1208              		.cfi_endproc
 1209              	.LFE20:
 1210              		.size	CyBle_Hal_pairing_keypress_notification_handler, .-CyBle_Hal_pairing_keypress_notification_h
 1211 0012 C046     		.section	.text.CyBle_Hal_pairing_rand_handler,"ax",%progbits
 1212              		.align	2
 1213              		.global	CyBle_Hal_pairing_rand_handler
 1214              		.code	16
 1215              		.thumb_func
 1216              		.type	CyBle_Hal_pairing_rand_handler, %function
 1217              	CyBle_Hal_pairing_rand_handler:
 1218              	.LFB21:
 614:Generated_Source\PSoC4/BLE_HAL_PVT.c **** 
 615:Generated_Source\PSoC4/BLE_HAL_PVT.c ****     CYBLE_API_RESULT_T CyBle_Hal_pairing_rand_handler(void *param CYBLE_UNUSED_ATTR)
 616:Generated_Source\PSoC4/BLE_HAL_PVT.c ****     {
 1219              		.loc 1 616 0
 1220              		.cfi_startproc
 1221              		@ args = 0, pretend = 0, frame = 8
 1222              		@ frame_needed = 1, uses_anonymous_args = 0
 1223 0000 80B5     		push	{r7, lr}
 1224              		.cfi_def_cfa_offset 8
 1225              		.cfi_offset 7, -8
 1226              		.cfi_offset 14, -4
 1227 0002 82B0     		sub	sp, sp, #8
 1228              		.cfi_def_cfa_offset 16
 1229 0004 00AF     		add	r7, sp, #0
 1230              		.cfi_def_cfa_register 7
 1231 0006 7860     		str	r0, [r7, #4]
 617:Generated_Source\PSoC4/BLE_HAL_PVT.c ****         return (CYBLE_ERROR_UNSUPPORTED_FEATURE_OR_PARAMETER_VALUE);
 1232              		.loc 1 617 0
 1233 0008 2B23     		movs	r3, #43
 618:Generated_Source\PSoC4/BLE_HAL_PVT.c ****     }
 1234              		.loc 1 618 0
 1235 000a 1800     		movs	r0, r3
 1236 000c BD46     		mov	sp, r7
 1237 000e 02B0     		add	sp, sp, #8
 1238              		@ sp needed
 1239 0010 80BD     		pop	{r7, pc}
 1240              		.cfi_endproc
 1241              	.LFE21:
 1242              		.size	CyBle_Hal_pairing_rand_handler, .-CyBle_Hal_pairing_rand_handler
 1243 0012 C046     		.section	.text.CyBle_Hal_pairing_confirm_handler,"ax",%progbits
 1244              		.align	2
 1245              		.global	CyBle_Hal_pairing_confirm_handler
 1246              		.code	16
 1247              		.thumb_func
 1248              		.type	CyBle_Hal_pairing_confirm_handler, %function
 1249              	CyBle_Hal_pairing_confirm_handler:
 1250              	.LFB22:
 619:Generated_Source\PSoC4/BLE_HAL_PVT.c ****     
 620:Generated_Source\PSoC4/BLE_HAL_PVT.c ****     CYBLE_API_RESULT_T CyBle_Hal_pairing_confirm_handler(void *param CYBLE_UNUSED_ATTR)
 621:Generated_Source\PSoC4/BLE_HAL_PVT.c ****     {
 1251              		.loc 1 621 0
ARM GAS  C:\Users\Toshiba\AppData\Local\Temp\ccUpswI6.s 			page 34


 1252              		.cfi_startproc
 1253              		@ args = 0, pretend = 0, frame = 8
 1254              		@ frame_needed = 1, uses_anonymous_args = 0
 1255 0000 80B5     		push	{r7, lr}
 1256              		.cfi_def_cfa_offset 8
 1257              		.cfi_offset 7, -8
 1258              		.cfi_offset 14, -4
 1259 0002 82B0     		sub	sp, sp, #8
 1260              		.cfi_def_cfa_offset 16
 1261 0004 00AF     		add	r7, sp, #0
 1262              		.cfi_def_cfa_register 7
 1263 0006 7860     		str	r0, [r7, #4]
 622:Generated_Source\PSoC4/BLE_HAL_PVT.c ****         return (CYBLE_ERROR_UNSUPPORTED_FEATURE_OR_PARAMETER_VALUE);
 1264              		.loc 1 622 0
 1265 0008 2B23     		movs	r3, #43
 623:Generated_Source\PSoC4/BLE_HAL_PVT.c ****     }
 1266              		.loc 1 623 0
 1267 000a 1800     		movs	r0, r3
 1268 000c BD46     		mov	sp, r7
 1269 000e 02B0     		add	sp, sp, #8
 1270              		@ sp needed
 1271 0010 80BD     		pop	{r7, pc}
 1272              		.cfi_endproc
 1273              	.LFE22:
 1274              		.size	CyBle_Hal_pairing_confirm_handler, .-CyBle_Hal_pairing_confirm_handler
 1275 0012 C046     		.section	.text.CyBle_Hal_pairing_lr_confirming_handler,"ax",%progbits
 1276              		.align	2
 1277              		.global	CyBle_Hal_pairing_lr_confirming_handler
 1278              		.code	16
 1279              		.thumb_func
 1280              		.type	CyBle_Hal_pairing_lr_confirming_handler, %function
 1281              	CyBle_Hal_pairing_lr_confirming_handler:
 1282              	.LFB23:
 624:Generated_Source\PSoC4/BLE_HAL_PVT.c **** 
 625:Generated_Source\PSoC4/BLE_HAL_PVT.c ****     CYBLE_API_RESULT_T CyBle_Hal_pairing_lr_confirming_handler(void *param CYBLE_UNUSED_ATTR)
 626:Generated_Source\PSoC4/BLE_HAL_PVT.c ****     {
 1283              		.loc 1 626 0
 1284              		.cfi_startproc
 1285              		@ args = 0, pretend = 0, frame = 8
 1286              		@ frame_needed = 1, uses_anonymous_args = 0
 1287 0000 80B5     		push	{r7, lr}
 1288              		.cfi_def_cfa_offset 8
 1289              		.cfi_offset 7, -8
 1290              		.cfi_offset 14, -4
 1291 0002 82B0     		sub	sp, sp, #8
 1292              		.cfi_def_cfa_offset 16
 1293 0004 00AF     		add	r7, sp, #0
 1294              		.cfi_def_cfa_register 7
 1295 0006 7860     		str	r0, [r7, #4]
 627:Generated_Source\PSoC4/BLE_HAL_PVT.c ****         return (CYBLE_ERROR_UNSUPPORTED_FEATURE_OR_PARAMETER_VALUE);
 1296              		.loc 1 627 0
 1297 0008 2B23     		movs	r3, #43
 628:Generated_Source\PSoC4/BLE_HAL_PVT.c ****     }
 1298              		.loc 1 628 0
 1299 000a 1800     		movs	r0, r3
 1300 000c BD46     		mov	sp, r7
 1301 000e 02B0     		add	sp, sp, #8
ARM GAS  C:\Users\Toshiba\AppData\Local\Temp\ccUpswI6.s 			page 35


 1302              		@ sp needed
 1303 0010 80BD     		pop	{r7, pc}
 1304              		.cfi_endproc
 1305              	.LFE23:
 1306              		.size	CyBle_Hal_pairing_lr_confirming_handler, .-CyBle_Hal_pairing_lr_confirming_handler
 1307 0012 C046     		.section	.text.CyBle_Hal_pairing_sc_tbx_dhkey_generate_complete,"ax",%progbits
 1308              		.align	2
 1309              		.global	CyBle_Hal_pairing_sc_tbx_dhkey_generate_complete
 1310              		.code	16
 1311              		.thumb_func
 1312              		.type	CyBle_Hal_pairing_sc_tbx_dhkey_generate_complete, %function
 1313              	CyBle_Hal_pairing_sc_tbx_dhkey_generate_complete:
 1314              	.LFB24:
 629:Generated_Source\PSoC4/BLE_HAL_PVT.c ****     
 630:Generated_Source\PSoC4/BLE_HAL_PVT.c ****     CYBLE_API_RESULT_T CyBle_Hal_pairing_sc_tbx_dhkey_generate_complete(void* param CYBLE_UNUSED_AT
 631:Generated_Source\PSoC4/BLE_HAL_PVT.c ****     {
 1315              		.loc 1 631 0
 1316              		.cfi_startproc
 1317              		@ args = 0, pretend = 0, frame = 8
 1318              		@ frame_needed = 1, uses_anonymous_args = 0
 1319 0000 80B5     		push	{r7, lr}
 1320              		.cfi_def_cfa_offset 8
 1321              		.cfi_offset 7, -8
 1322              		.cfi_offset 14, -4
 1323 0002 82B0     		sub	sp, sp, #8
 1324              		.cfi_def_cfa_offset 16
 1325 0004 00AF     		add	r7, sp, #0
 1326              		.cfi_def_cfa_register 7
 1327 0006 7860     		str	r0, [r7, #4]
 632:Generated_Source\PSoC4/BLE_HAL_PVT.c ****         return (CYBLE_ERROR_UNSUPPORTED_FEATURE_OR_PARAMETER_VALUE);
 1328              		.loc 1 632 0
 1329 0008 2B23     		movs	r3, #43
 633:Generated_Source\PSoC4/BLE_HAL_PVT.c ****     }
 1330              		.loc 1 633 0
 1331 000a 1800     		movs	r0, r3
 1332 000c BD46     		mov	sp, r7
 1333 000e 02B0     		add	sp, sp, #8
 1334              		@ sp needed
 1335 0010 80BD     		pop	{r7, pc}
 1336              		.cfi_endproc
 1337              	.LFE24:
 1338              		.size	CyBle_Hal_pairing_sc_tbx_dhkey_generate_complete, .-CyBle_Hal_pairing_sc_tbx_dhkey_generate_
 1339 0012 C046     		.section	.text.CyBle_Hal_pairing_sc_tbx_local_pubkey_generate_complete,"ax",%progbits
 1340              		.align	2
 1341              		.global	CyBle_Hal_pairing_sc_tbx_local_pubkey_generate_complete
 1342              		.code	16
 1343              		.thumb_func
 1344              		.type	CyBle_Hal_pairing_sc_tbx_local_pubkey_generate_complete, %function
 1345              	CyBle_Hal_pairing_sc_tbx_local_pubkey_generate_complete:
 1346              	.LFB25:
 634:Generated_Source\PSoC4/BLE_HAL_PVT.c **** 
 635:Generated_Source\PSoC4/BLE_HAL_PVT.c ****     CYBLE_API_RESULT_T CyBle_Hal_pairing_sc_tbx_local_pubkey_generate_complete(void)
 636:Generated_Source\PSoC4/BLE_HAL_PVT.c ****     {
 1347              		.loc 1 636 0
 1348              		.cfi_startproc
 1349              		@ args = 0, pretend = 0, frame = 0
 1350              		@ frame_needed = 1, uses_anonymous_args = 0
ARM GAS  C:\Users\Toshiba\AppData\Local\Temp\ccUpswI6.s 			page 36


 1351 0000 80B5     		push	{r7, lr}
 1352              		.cfi_def_cfa_offset 8
 1353              		.cfi_offset 7, -8
 1354              		.cfi_offset 14, -4
 1355 0002 00AF     		add	r7, sp, #0
 1356              		.cfi_def_cfa_register 7
 637:Generated_Source\PSoC4/BLE_HAL_PVT.c ****         return (CYBLE_ERROR_UNSUPPORTED_FEATURE_OR_PARAMETER_VALUE);
 1357              		.loc 1 637 0
 1358 0004 2B23     		movs	r3, #43
 638:Generated_Source\PSoC4/BLE_HAL_PVT.c ****     }
 1359              		.loc 1 638 0
 1360 0006 1800     		movs	r0, r3
 1361 0008 BD46     		mov	sp, r7
 1362              		@ sp needed
 1363 000a 80BD     		pop	{r7, pc}
 1364              		.cfi_endproc
 1365              	.LFE25:
 1366              		.size	CyBle_Hal_pairing_sc_tbx_local_pubkey_generate_complete, .-CyBle_Hal_pairing_sc_tbx_local_pu
 1367              		.section	.text.CyBle_Hal_pairing_sc_tbx_generate_local_P256_public_key,"ax",%progbits
 1368              		.align	2
 1369              		.global	CyBle_Hal_pairing_sc_tbx_generate_local_P256_public_key
 1370              		.code	16
 1371              		.thumb_func
 1372              		.type	CyBle_Hal_pairing_sc_tbx_generate_local_P256_public_key, %function
 1373              	CyBle_Hal_pairing_sc_tbx_generate_local_P256_public_key:
 1374              	.LFB26:
 639:Generated_Source\PSoC4/BLE_HAL_PVT.c **** 
 640:Generated_Source\PSoC4/BLE_HAL_PVT.c ****     CYBLE_API_RESULT_T CyBle_Hal_pairing_sc_tbx_generate_local_P256_public_key(uint8 param CYBLE_UN
 641:Generated_Source\PSoC4/BLE_HAL_PVT.c ****     {
 1375              		.loc 1 641 0
 1376              		.cfi_startproc
 1377              		@ args = 0, pretend = 0, frame = 8
 1378              		@ frame_needed = 1, uses_anonymous_args = 0
 1379 0000 80B5     		push	{r7, lr}
 1380              		.cfi_def_cfa_offset 8
 1381              		.cfi_offset 7, -8
 1382              		.cfi_offset 14, -4
 1383 0002 82B0     		sub	sp, sp, #8
 1384              		.cfi_def_cfa_offset 16
 1385 0004 00AF     		add	r7, sp, #0
 1386              		.cfi_def_cfa_register 7
 1387 0006 0200     		movs	r2, r0
 1388 0008 FB1D     		adds	r3, r7, #7
 1389 000a 1A70     		strb	r2, [r3]
 642:Generated_Source\PSoC4/BLE_HAL_PVT.c ****         return (CYBLE_ERROR_UNSUPPORTED_FEATURE_OR_PARAMETER_VALUE);
 1390              		.loc 1 642 0
 1391 000c 2B23     		movs	r3, #43
 643:Generated_Source\PSoC4/BLE_HAL_PVT.c ****     }
 1392              		.loc 1 643 0
 1393 000e 1800     		movs	r0, r3
 1394 0010 BD46     		mov	sp, r7
 1395 0012 02B0     		add	sp, sp, #8
 1396              		@ sp needed
 1397 0014 80BD     		pop	{r7, pc}
 1398              		.cfi_endproc
 1399              	.LFE26:
 1400              		.size	CyBle_Hal_pairing_sc_tbx_generate_local_P256_public_key, .-CyBle_Hal_pairing_sc_tbx_generate
ARM GAS  C:\Users\Toshiba\AppData\Local\Temp\ccUpswI6.s 			page 37


 1401 0016 C046     		.section	.text.CyBle_Hal_pairing_sc_tbx_generate_DHkey,"ax",%progbits
 1402              		.align	2
 1403              		.global	CyBle_Hal_pairing_sc_tbx_generate_DHkey
 1404              		.code	16
 1405              		.thumb_func
 1406              		.type	CyBle_Hal_pairing_sc_tbx_generate_DHkey, %function
 1407              	CyBle_Hal_pairing_sc_tbx_generate_DHkey:
 1408              	.LFB27:
 644:Generated_Source\PSoC4/BLE_HAL_PVT.c **** 
 645:Generated_Source\PSoC4/BLE_HAL_PVT.c ****     CYBLE_API_RESULT_T CyBle_Hal_pairing_sc_tbx_generate_DHkey(void  * param1 CYBLE_UNUSED_ATTR,
 646:Generated_Source\PSoC4/BLE_HAL_PVT.c ****                                                                void  * param2 CYBLE_UNUSED_ATTR)
 647:Generated_Source\PSoC4/BLE_HAL_PVT.c ****     {
 1409              		.loc 1 647 0
 1410              		.cfi_startproc
 1411              		@ args = 0, pretend = 0, frame = 8
 1412              		@ frame_needed = 1, uses_anonymous_args = 0
 1413 0000 80B5     		push	{r7, lr}
 1414              		.cfi_def_cfa_offset 8
 1415              		.cfi_offset 7, -8
 1416              		.cfi_offset 14, -4
 1417 0002 82B0     		sub	sp, sp, #8
 1418              		.cfi_def_cfa_offset 16
 1419 0004 00AF     		add	r7, sp, #0
 1420              		.cfi_def_cfa_register 7
 1421 0006 7860     		str	r0, [r7, #4]
 1422 0008 3960     		str	r1, [r7]
 648:Generated_Source\PSoC4/BLE_HAL_PVT.c ****         return (CYBLE_ERROR_UNSUPPORTED_FEATURE_OR_PARAMETER_VALUE);
 1423              		.loc 1 648 0
 1424 000a 2B23     		movs	r3, #43
 649:Generated_Source\PSoC4/BLE_HAL_PVT.c ****     }
 1425              		.loc 1 649 0
 1426 000c 1800     		movs	r0, r3
 1427 000e BD46     		mov	sp, r7
 1428 0010 02B0     		add	sp, sp, #8
 1429              		@ sp needed
 1430 0012 80BD     		pop	{r7, pc}
 1431              		.cfi_endproc
 1432              	.LFE27:
 1433              		.size	CyBle_Hal_pairing_sc_tbx_generate_DHkey, .-CyBle_Hal_pairing_sc_tbx_generate_DHkey
 1434              		.section	.text.CyBle_Hal_smp_sc_cmac_complete,"ax",%progbits
 1435              		.align	2
 1436              		.global	CyBle_Hal_smp_sc_cmac_complete
 1437              		.code	16
 1438              		.thumb_func
 1439              		.type	CyBle_Hal_smp_sc_cmac_complete, %function
 1440              	CyBle_Hal_smp_sc_cmac_complete:
 1441              	.LFB28:
 650:Generated_Source\PSoC4/BLE_HAL_PVT.c **** 
 651:Generated_Source\PSoC4/BLE_HAL_PVT.c ****     void CyBle_Hal_smp_sc_cmac_complete(void)
 652:Generated_Source\PSoC4/BLE_HAL_PVT.c ****     {
 1442              		.loc 1 652 0
 1443              		.cfi_startproc
 1444              		@ args = 0, pretend = 0, frame = 0
 1445              		@ frame_needed = 1, uses_anonymous_args = 0
 1446 0000 80B5     		push	{r7, lr}
 1447              		.cfi_def_cfa_offset 8
 1448              		.cfi_offset 7, -8
ARM GAS  C:\Users\Toshiba\AppData\Local\Temp\ccUpswI6.s 			page 38


 1449              		.cfi_offset 14, -4
 1450 0002 00AF     		add	r7, sp, #0
 1451              		.cfi_def_cfa_register 7
 653:Generated_Source\PSoC4/BLE_HAL_PVT.c ****     }
 1452              		.loc 1 653 0
 1453 0004 C046     		nop
 1454 0006 BD46     		mov	sp, r7
 1455              		@ sp needed
 1456 0008 80BD     		pop	{r7, pc}
 1457              		.cfi_endproc
 1458              	.LFE28:
 1459              		.size	CyBle_Hal_smp_sc_cmac_complete, .-CyBle_Hal_smp_sc_cmac_complete
 1460              		.section	.text.CyBle_Hal_se_smp_sc_user_passkey_handler,"ax",%progbits
 1461              		.align	2
 1462              		.global	CyBle_Hal_se_smp_sc_user_passkey_handler
 1463              		.code	16
 1464              		.thumb_func
 1465              		.type	CyBle_Hal_se_smp_sc_user_passkey_handler, %function
 1466              	CyBle_Hal_se_smp_sc_user_passkey_handler:
 1467              	.LFB29:
 654:Generated_Source\PSoC4/BLE_HAL_PVT.c **** 
 655:Generated_Source\PSoC4/BLE_HAL_PVT.c ****     CYBLE_API_RESULT_T CyBle_Hal_se_smp_sc_user_passkey_handler(void  * param1 CYBLE_UNUSED_ATTR,
 656:Generated_Source\PSoC4/BLE_HAL_PVT.c ****                                                                 void  * param2 CYBLE_UNUSED_ATTR)
 657:Generated_Source\PSoC4/BLE_HAL_PVT.c ****     {
 1468              		.loc 1 657 0
 1469              		.cfi_startproc
 1470              		@ args = 0, pretend = 0, frame = 8
 1471              		@ frame_needed = 1, uses_anonymous_args = 0
 1472 0000 80B5     		push	{r7, lr}
 1473              		.cfi_def_cfa_offset 8
 1474              		.cfi_offset 7, -8
 1475              		.cfi_offset 14, -4
 1476 0002 82B0     		sub	sp, sp, #8
 1477              		.cfi_def_cfa_offset 16
 1478 0004 00AF     		add	r7, sp, #0
 1479              		.cfi_def_cfa_register 7
 1480 0006 7860     		str	r0, [r7, #4]
 1481 0008 3960     		str	r1, [r7]
 658:Generated_Source\PSoC4/BLE_HAL_PVT.c ****         return (CYBLE_ERROR_UNSUPPORTED_FEATURE_OR_PARAMETER_VALUE);
 1482              		.loc 1 658 0
 1483 000a 2B23     		movs	r3, #43
 659:Generated_Source\PSoC4/BLE_HAL_PVT.c ****     }
 1484              		.loc 1 659 0
 1485 000c 1800     		movs	r0, r3
 1486 000e BD46     		mov	sp, r7
 1487 0010 02B0     		add	sp, sp, #8
 1488              		@ sp needed
 1489 0012 80BD     		pop	{r7, pc}
 1490              		.cfi_endproc
 1491              	.LFE29:
 1492              		.size	CyBle_Hal_se_smp_sc_user_passkey_handler, .-CyBle_Hal_se_smp_sc_user_passkey_handler
 1493              		.section	.text.CyBle_Hal_EccPointMult,"ax",%progbits
 1494              		.align	2
 1495              		.global	CyBle_Hal_EccPointMult
 1496              		.code	16
 1497              		.thumb_func
 1498              		.type	CyBle_Hal_EccPointMult, %function
ARM GAS  C:\Users\Toshiba\AppData\Local\Temp\ccUpswI6.s 			page 39


 1499              	CyBle_Hal_EccPointMult:
 1500              	.LFB30:
 660:Generated_Source\PSoC4/BLE_HAL_PVT.c **** 
 661:Generated_Source\PSoC4/BLE_HAL_PVT.c ****     void CyBle_Hal_EccPointMult(void)
 662:Generated_Source\PSoC4/BLE_HAL_PVT.c ****     {
 1501              		.loc 1 662 0
 1502              		.cfi_startproc
 1503              		@ args = 0, pretend = 0, frame = 0
 1504              		@ frame_needed = 1, uses_anonymous_args = 0
 1505 0000 80B5     		push	{r7, lr}
 1506              		.cfi_def_cfa_offset 8
 1507              		.cfi_offset 7, -8
 1508              		.cfi_offset 14, -4
 1509 0002 00AF     		add	r7, sp, #0
 1510              		.cfi_def_cfa_register 7
 663:Generated_Source\PSoC4/BLE_HAL_PVT.c ****     }
 1511              		.loc 1 663 0
 1512 0004 C046     		nop
 1513 0006 BD46     		mov	sp, r7
 1514              		@ sp needed
 1515 0008 80BD     		pop	{r7, pc}
 1516              		.cfi_endproc
 1517              	.LFE30:
 1518              		.size	CyBle_Hal_EccPointMult, .-CyBle_Hal_EccPointMult
 1519              		.section	.text.BLE_CMP_FTR_API_lec_hci_handle_read_local_P256_public_key_command,"ax",%progbits
 1520              		.align	2
 1521              		.global	BLE_CMP_FTR_API_lec_hci_handle_read_local_P256_public_key_command
 1522              		.code	16
 1523              		.thumb_func
 1524              		.type	BLE_CMP_FTR_API_lec_hci_handle_read_local_P256_public_key_command, %function
 1525              	BLE_CMP_FTR_API_lec_hci_handle_read_local_P256_public_key_command:
 1526              	.LFB31:
 664:Generated_Source\PSoC4/BLE_HAL_PVT.c ****     
 665:Generated_Source\PSoC4/BLE_HAL_PVT.c **** #endif /* (CYBLE_SECURE_CONN_FEATURE_ENABLED) */
 666:Generated_Source\PSoC4/BLE_HAL_PVT.c **** 
 667:Generated_Source\PSoC4/BLE_HAL_PVT.c **** #endif /* CYBLE_MODE_PROFILE */
 668:Generated_Source\PSoC4/BLE_HAL_PVT.c **** 
 669:Generated_Source\PSoC4/BLE_HAL_PVT.c **** #if(CYBLE_SECURE_CONN_FEATURE_ENABLED)
 670:Generated_Source\PSoC4/BLE_HAL_PVT.c ****     
 671:Generated_Source\PSoC4/BLE_HAL_PVT.c ****     uint16 BLE_CMP_FTR_API_lec_hci_handle_read_local_P256_public_key_command(void *param)
 672:Generated_Source\PSoC4/BLE_HAL_PVT.c ****     {
 673:Generated_Source\PSoC4/BLE_HAL_PVT.c ****         return (BLE_STK_FTR_API_lec_hci_handle_read_local_P256_public_key_command(param));
 674:Generated_Source\PSoC4/BLE_HAL_PVT.c ****     }
 675:Generated_Source\PSoC4/BLE_HAL_PVT.c ****     
 676:Generated_Source\PSoC4/BLE_HAL_PVT.c ****     uint16 BLE_CMP_FTR_API_lec_hci_handle_generate_DHkey_command(void *param)
 677:Generated_Source\PSoC4/BLE_HAL_PVT.c ****     {
 678:Generated_Source\PSoC4/BLE_HAL_PVT.c ****         return (BLE_STK_FTR_API_lec_hci_handle_generate_DHkey_command(param));
 679:Generated_Source\PSoC4/BLE_HAL_PVT.c ****     }
 680:Generated_Source\PSoC4/BLE_HAL_PVT.c **** 
 681:Generated_Source\PSoC4/BLE_HAL_PVT.c **** #else     /* If feature is not required, return error. */
 682:Generated_Source\PSoC4/BLE_HAL_PVT.c ****     
 683:Generated_Source\PSoC4/BLE_HAL_PVT.c ****     uint16 BLE_CMP_FTR_API_lec_hci_handle_read_local_P256_public_key_command(void *param CYBLE_UNUS
 684:Generated_Source\PSoC4/BLE_HAL_PVT.c ****     {
 1527              		.loc 1 684 0
 1528              		.cfi_startproc
 1529              		@ args = 0, pretend = 0, frame = 8
 1530              		@ frame_needed = 1, uses_anonymous_args = 0
ARM GAS  C:\Users\Toshiba\AppData\Local\Temp\ccUpswI6.s 			page 40


 1531 0000 80B5     		push	{r7, lr}
 1532              		.cfi_def_cfa_offset 8
 1533              		.cfi_offset 7, -8
 1534              		.cfi_offset 14, -4
 1535 0002 82B0     		sub	sp, sp, #8
 1536              		.cfi_def_cfa_offset 16
 1537 0004 00AF     		add	r7, sp, #0
 1538              		.cfi_def_cfa_register 7
 1539 0006 7860     		str	r0, [r7, #4]
 685:Generated_Source\PSoC4/BLE_HAL_PVT.c ****         return (CYBLE_UNKNOWN_HCI_COMMAND_ERROR);
 1540              		.loc 1 685 0
 1541 0008 0123     		movs	r3, #1
 686:Generated_Source\PSoC4/BLE_HAL_PVT.c ****     }
 1542              		.loc 1 686 0
 1543 000a 1800     		movs	r0, r3
 1544 000c BD46     		mov	sp, r7
 1545 000e 02B0     		add	sp, sp, #8
 1546              		@ sp needed
 1547 0010 80BD     		pop	{r7, pc}
 1548              		.cfi_endproc
 1549              	.LFE31:
 1550              		.size	BLE_CMP_FTR_API_lec_hci_handle_read_local_P256_public_key_command, .-BLE_CMP_FTR_API_lec_hci
 1551 0012 C046     		.section	.text.BLE_CMP_FTR_API_lec_hci_handle_generate_DHkey_command,"ax",%progbits
 1552              		.align	2
 1553              		.global	BLE_CMP_FTR_API_lec_hci_handle_generate_DHkey_command
 1554              		.code	16
 1555              		.thumb_func
 1556              		.type	BLE_CMP_FTR_API_lec_hci_handle_generate_DHkey_command, %function
 1557              	BLE_CMP_FTR_API_lec_hci_handle_generate_DHkey_command:
 1558              	.LFB32:
 687:Generated_Source\PSoC4/BLE_HAL_PVT.c ****     
 688:Generated_Source\PSoC4/BLE_HAL_PVT.c ****     uint16 BLE_CMP_FTR_API_lec_hci_handle_generate_DHkey_command(void *param CYBLE_UNUSED_ATTR)
 689:Generated_Source\PSoC4/BLE_HAL_PVT.c ****     {
 1559              		.loc 1 689 0
 1560              		.cfi_startproc
 1561              		@ args = 0, pretend = 0, frame = 8
 1562              		@ frame_needed = 1, uses_anonymous_args = 0
 1563 0000 80B5     		push	{r7, lr}
 1564              		.cfi_def_cfa_offset 8
 1565              		.cfi_offset 7, -8
 1566              		.cfi_offset 14, -4
 1567 0002 82B0     		sub	sp, sp, #8
 1568              		.cfi_def_cfa_offset 16
 1569 0004 00AF     		add	r7, sp, #0
 1570              		.cfi_def_cfa_register 7
 1571 0006 7860     		str	r0, [r7, #4]
 690:Generated_Source\PSoC4/BLE_HAL_PVT.c ****         return (CYBLE_UNKNOWN_HCI_COMMAND_ERROR);
 1572              		.loc 1 690 0
 1573 0008 0123     		movs	r3, #1
 691:Generated_Source\PSoC4/BLE_HAL_PVT.c ****     }
 1574              		.loc 1 691 0
 1575 000a 1800     		movs	r0, r3
 1576 000c BD46     		mov	sp, r7
 1577 000e 02B0     		add	sp, sp, #8
 1578              		@ sp needed
 1579 0010 80BD     		pop	{r7, pc}
 1580              		.cfi_endproc
ARM GAS  C:\Users\Toshiba\AppData\Local\Temp\ccUpswI6.s 			page 41


 1581              	.LFE32:
 1582              		.size	BLE_CMP_FTR_API_lec_hci_handle_generate_DHkey_command, .-BLE_CMP_FTR_API_lec_hci_handle_gene
 1583 0012 C046     		.text
 1584              	.Letext0:
 1585              		.file 2 "Generated_Source\\PSoC4\\cytypes.h"
 1586              		.file 3 "Generated_Source\\PSoC4\\BLE_Stack.h"
 1587              		.section	.debug_info,"",%progbits
 1588              	.Ldebug_info0:
 1589 0000 B6070000 		.4byte	0x7b6
 1590 0004 0400     		.2byte	0x4
 1591 0006 00000000 		.4byte	.Ldebug_abbrev0
 1592 000a 04       		.byte	0x4
 1593 000b 01       		.uleb128 0x1
 1594 000c F1040000 		.4byte	.LASF110
 1595 0010 0C       		.byte	0xc
 1596 0011 EF010000 		.4byte	.LASF111
 1597 0015 AD020000 		.4byte	.LASF112
 1598 0019 00000000 		.4byte	.Ldebug_ranges0+0
 1599 001d 00000000 		.4byte	0
 1600 0021 00000000 		.4byte	.Ldebug_line0
 1601 0025 02       		.uleb128 0x2
 1602 0026 01       		.byte	0x1
 1603 0027 06       		.byte	0x6
 1604 0028 14060000 		.4byte	.LASF0
 1605 002c 02       		.uleb128 0x2
 1606 002d 01       		.byte	0x1
 1607 002e 08       		.byte	0x8
 1608 002f BA050000 		.4byte	.LASF1
 1609 0033 02       		.uleb128 0x2
 1610 0034 02       		.byte	0x2
 1611 0035 05       		.byte	0x5
 1612 0036 16010000 		.4byte	.LASF2
 1613 003a 02       		.uleb128 0x2
 1614 003b 02       		.byte	0x2
 1615 003c 07       		.byte	0x7
 1616 003d 1E070000 		.4byte	.LASF3
 1617 0041 02       		.uleb128 0x2
 1618 0042 04       		.byte	0x4
 1619 0043 05       		.byte	0x5
 1620 0044 83040000 		.4byte	.LASF4
 1621 0048 02       		.uleb128 0x2
 1622 0049 04       		.byte	0x4
 1623 004a 07       		.byte	0x7
 1624 004b 65080000 		.4byte	.LASF5
 1625 004f 02       		.uleb128 0x2
 1626 0050 08       		.byte	0x8
 1627 0051 05       		.byte	0x5
 1628 0052 3F040000 		.4byte	.LASF6
 1629 0056 02       		.uleb128 0x2
 1630 0057 08       		.byte	0x8
 1631 0058 07       		.byte	0x7
 1632 0059 20060000 		.4byte	.LASF7
 1633 005d 03       		.uleb128 0x3
 1634 005e 04       		.byte	0x4
 1635 005f 05       		.byte	0x5
 1636 0060 696E7400 		.ascii	"int\000"
 1637 0064 02       		.uleb128 0x2
ARM GAS  C:\Users\Toshiba\AppData\Local\Temp\ccUpswI6.s 			page 42


 1638 0065 04       		.byte	0x4
 1639 0066 07       		.byte	0x7
 1640 0067 74060000 		.4byte	.LASF8
 1641 006b 04       		.uleb128 0x4
 1642 006c D6070000 		.4byte	.LASF9
 1643 0070 02       		.byte	0x2
 1644 0071 D201     		.2byte	0x1d2
 1645 0073 2C000000 		.4byte	0x2c
 1646 0077 04       		.uleb128 0x4
 1647 0078 4B080000 		.4byte	.LASF10
 1648 007c 02       		.byte	0x2
 1649 007d D301     		.2byte	0x1d3
 1650 007f 3A000000 		.4byte	0x3a
 1651 0083 04       		.uleb128 0x4
 1652 0084 59080000 		.4byte	.LASF11
 1653 0088 02       		.byte	0x2
 1654 0089 D401     		.2byte	0x1d4
 1655 008b 48000000 		.4byte	0x48
 1656 008f 02       		.uleb128 0x2
 1657 0090 04       		.byte	0x4
 1658 0091 04       		.byte	0x4
 1659 0092 39040000 		.4byte	.LASF12
 1660 0096 02       		.uleb128 0x2
 1661 0097 08       		.byte	0x8
 1662 0098 04       		.byte	0x4
 1663 0099 5C0A0000 		.4byte	.LASF13
 1664 009d 02       		.uleb128 0x2
 1665 009e 01       		.byte	0x1
 1666 009f 08       		.byte	0x8
 1667 00a0 47070000 		.4byte	.LASF14
 1668 00a4 04       		.uleb128 0x4
 1669 00a5 A6060000 		.4byte	.LASF15
 1670 00a9 02       		.byte	0x2
 1671 00aa 7402     		.2byte	0x274
 1672 00ac 48000000 		.4byte	0x48
 1673 00b0 04       		.uleb128 0x4
 1674 00b1 60080000 		.4byte	.LASF16
 1675 00b5 02       		.byte	0x2
 1676 00b6 7C02     		.2byte	0x27c
 1677 00b8 BC000000 		.4byte	0xbc
 1678 00bc 05       		.uleb128 0x5
 1679 00bd 6B000000 		.4byte	0x6b
 1680 00c1 04       		.uleb128 0x4
 1681 00c2 F5060000 		.4byte	.LASF17
 1682 00c6 02       		.byte	0x2
 1683 00c7 7E02     		.2byte	0x27e
 1684 00c9 CD000000 		.4byte	0xcd
 1685 00cd 05       		.uleb128 0x5
 1686 00ce 83000000 		.4byte	0x83
 1687 00d2 02       		.uleb128 0x2
 1688 00d3 08       		.byte	0x8
 1689 00d4 04       		.byte	0x4
 1690 00d5 91050000 		.4byte	.LASF18
 1691 00d9 02       		.uleb128 0x2
 1692 00da 04       		.byte	0x4
 1693 00db 07       		.byte	0x7
 1694 00dc 20010000 		.4byte	.LASF19
ARM GAS  C:\Users\Toshiba\AppData\Local\Temp\ccUpswI6.s 			page 43


 1695 00e0 06       		.uleb128 0x6
 1696 00e1 04       		.byte	0x4
 1697 00e2 07       		.uleb128 0x7
 1698 00e3 02       		.byte	0x2
 1699 00e4 3A000000 		.4byte	0x3a
 1700 00e8 03       		.byte	0x3
 1701 00e9 EA03     		.2byte	0x3ea
 1702 00eb C1010000 		.4byte	0x1c1
 1703 00ef 08       		.uleb128 0x8
 1704 00f0 32010000 		.4byte	.LASF20
 1705 00f4 00       		.byte	0
 1706 00f5 08       		.uleb128 0x8
 1707 00f6 14020000 		.4byte	.LASF21
 1708 00fa 01       		.byte	0x1
 1709 00fb 08       		.uleb128 0x8
 1710 00fc 7E020000 		.4byte	.LASF22
 1711 0100 02       		.byte	0x2
 1712 0101 08       		.uleb128 0x8
 1713 0102 DC070000 		.4byte	.LASF23
 1714 0106 03       		.byte	0x3
 1715 0107 08       		.uleb128 0x8
 1716 0108 16040000 		.4byte	.LASF24
 1717 010c 04       		.byte	0x4
 1718 010d 08       		.uleb128 0x8
 1719 010e 32020000 		.4byte	.LASF25
 1720 0112 05       		.byte	0x5
 1721 0113 08       		.uleb128 0x8
 1722 0114 C6030000 		.4byte	.LASF26
 1723 0118 06       		.byte	0x6
 1724 0119 08       		.uleb128 0x8
 1725 011a 9D050000 		.4byte	.LASF27
 1726 011e 07       		.byte	0x7
 1727 011f 08       		.uleb128 0x8
 1728 0120 B7040000 		.4byte	.LASF28
 1729 0124 08       		.byte	0x8
 1730 0125 08       		.uleb128 0x8
 1731 0126 5F060000 		.4byte	.LASF29
 1732 012a 09       		.byte	0x9
 1733 012b 08       		.uleb128 0x8
 1734 012c 8A000000 		.4byte	.LASF30
 1735 0130 0A       		.byte	0xa
 1736 0131 08       		.uleb128 0x8
 1737 0132 4D040000 		.4byte	.LASF31
 1738 0136 0B       		.byte	0xb
 1739 0137 08       		.uleb128 0x8
 1740 0138 48060000 		.4byte	.LASF32
 1741 013c 0C       		.byte	0xc
 1742 013d 08       		.uleb128 0x8
 1743 013e 81060000 		.4byte	.LASF33
 1744 0142 0D       		.byte	0xd
 1745 0143 08       		.uleb128 0x8
 1746 0144 2E000000 		.4byte	.LASF34
 1747 0148 0E       		.byte	0xe
 1748 0149 08       		.uleb128 0x8
 1749 014a 09000000 		.4byte	.LASF35
 1750 014e 0F       		.byte	0xf
 1751 014f 08       		.uleb128 0x8
ARM GAS  C:\Users\Toshiba\AppData\Local\Temp\ccUpswI6.s 			page 44


 1752 0150 E40A0000 		.4byte	.LASF36
 1753 0154 10       		.byte	0x10
 1754 0155 08       		.uleb128 0x8
 1755 0156 BA000000 		.4byte	.LASF37
 1756 015a 11       		.byte	0x11
 1757 015b 08       		.uleb128 0x8
 1758 015c E1080000 		.4byte	.LASF38
 1759 0160 12       		.byte	0x12
 1760 0161 08       		.uleb128 0x8
 1761 0162 9D080000 		.4byte	.LASF39
 1762 0166 13       		.byte	0x13
 1763 0167 08       		.uleb128 0x8
 1764 0168 F9090000 		.4byte	.LASF40
 1765 016c 27       		.byte	0x27
 1766 016d 08       		.uleb128 0x8
 1767 016e 72010000 		.4byte	.LASF41
 1768 0172 28       		.byte	0x28
 1769 0173 08       		.uleb128 0x8
 1770 0174 D3010000 		.4byte	.LASF42
 1771 0178 29       		.byte	0x29
 1772 0179 08       		.uleb128 0x8
 1773 017a 97010000 		.4byte	.LASF43
 1774 017e 2A       		.byte	0x2a
 1775 017f 08       		.uleb128 0x8
 1776 0180 01080000 		.4byte	.LASF44
 1777 0184 2B       		.byte	0x2b
 1778 0185 08       		.uleb128 0x8
 1779 0186 C8050000 		.4byte	.LASF45
 1780 018a 2C       		.byte	0x2c
 1781 018b 08       		.uleb128 0x8
 1782 018c 41010000 		.4byte	.LASF46
 1783 0190 2D       		.byte	0x2d
 1784 0191 08       		.uleb128 0x8
 1785 0192 70070000 		.4byte	.LASF47
 1786 0196 FE       		.byte	0xfe
 1787 0197 08       		.uleb128 0x8
 1788 0198 3E0A0000 		.4byte	.LASF48
 1789 019c FF       		.byte	0xff
 1790 019d 09       		.uleb128 0x9
 1791 019e C0090000 		.4byte	.LASF49
 1792 01a2 0001     		.2byte	0x100
 1793 01a4 09       		.uleb128 0x9
 1794 01a5 120B0000 		.4byte	.LASF50
 1795 01a9 0101     		.2byte	0x101
 1796 01ab 09       		.uleb128 0x9
 1797 01ac FB060000 		.4byte	.LASF51
 1798 01b0 0201     		.2byte	0x102
 1799 01b2 09       		.uleb128 0x9
 1800 01b3 8C070000 		.4byte	.LASF52
 1801 01b7 0301     		.2byte	0x103
 1802 01b9 09       		.uleb128 0x9
 1803 01ba 59070000 		.4byte	.LASF53
 1804 01be 0401     		.2byte	0x104
 1805 01c0 00       		.byte	0
 1806 01c1 04       		.uleb128 0x4
 1807 01c2 42030000 		.4byte	.LASF54
 1808 01c6 03       		.byte	0x3
ARM GAS  C:\Users\Toshiba\AppData\Local\Temp\ccUpswI6.s 			page 45


 1809 01c7 5C04     		.2byte	0x45c
 1810 01c9 E2000000 		.4byte	0xe2
 1811 01cd 0A       		.uleb128 0xa
 1812 01ce 04       		.byte	0x4
 1813 01cf 77000000 		.4byte	0x77
 1814 01d3 0B       		.uleb128 0xb
 1815 01d4 7F050000 		.4byte	.LASF65
 1816 01d8 01       		.byte	0x1
 1817 01d9 96       		.byte	0x96
 1818 01da A4000000 		.4byte	0xa4
 1819 01de 00000000 		.4byte	.LFB2
 1820 01e2 9C010000 		.4byte	.LFE2-.LFB2
 1821 01e6 01       		.uleb128 0x1
 1822 01e7 9C       		.byte	0x9c
 1823 01e8 8A020000 		.4byte	0x28a
 1824 01ec 0C       		.uleb128 0xc
 1825 01ed 52080000 		.4byte	.LASF55
 1826 01f1 01       		.byte	0x1
 1827 01f2 96       		.byte	0x96
 1828 01f3 8A020000 		.4byte	0x28a
 1829 01f7 03       		.uleb128 0x3
 1830 01f8 91       		.byte	0x91
 1831 01f9 D47E     		.sleb128 -172
 1832 01fb 0C       		.uleb128 0xc
 1833 01fc 00000000 		.4byte	.LASF56
 1834 0200 01       		.byte	0x1
 1835 0201 96       		.byte	0x96
 1836 0202 8A020000 		.4byte	0x28a
 1837 0206 03       		.uleb128 0x3
 1838 0207 91       		.byte	0x91
 1839 0208 D07E     		.sleb128 -176
 1840 020a 0C       		.uleb128 0xc
 1841 020b 6B010000 		.4byte	.LASF57
 1842 020f 01       		.byte	0x1
 1843 0210 96       		.byte	0x96
 1844 0211 77000000 		.4byte	0x77
 1845 0215 03       		.uleb128 0x3
 1846 0216 91       		.byte	0x91
 1847 0217 CE7E     		.sleb128 -178
 1848 0219 0D       		.uleb128 0xd
 1849 021a E0050000 		.4byte	.LASF58
 1850 021e 01       		.byte	0x1
 1851 021f 98       		.byte	0x98
 1852 0220 95020000 		.4byte	0x295
 1853 0224 03       		.uleb128 0x3
 1854 0225 91       		.byte	0x91
 1855 0226 DC7E     		.sleb128 -164
 1856 0228 0D       		.uleb128 0xd
 1857 0229 D5040000 		.4byte	.LASF59
 1858 022d 01       		.byte	0x1
 1859 022e 99       		.byte	0x99
 1860 022f 83000000 		.4byte	0x83
 1861 0233 02       		.uleb128 0x2
 1862 0234 91       		.byte	0x91
 1863 0235 74       		.sleb128 -12
 1864 0236 0D       		.uleb128 0xd
 1865 0237 29010000 		.4byte	.LASF60
ARM GAS  C:\Users\Toshiba\AppData\Local\Temp\ccUpswI6.s 			page 46


 1866 023b 01       		.byte	0x1
 1867 023c 9A       		.byte	0x9a
 1868 023d 83000000 		.4byte	0x83
 1869 0241 02       		.uleb128 0x2
 1870 0242 91       		.byte	0x91
 1871 0243 70       		.sleb128 -16
 1872 0244 0D       		.uleb128 0xd
 1873 0245 6D040000 		.4byte	.LASF61
 1874 0249 01       		.byte	0x1
 1875 024a 9B       		.byte	0x9b
 1876 024b 83000000 		.4byte	0x83
 1877 024f 02       		.uleb128 0x2
 1878 0250 91       		.byte	0x91
 1879 0251 6C       		.sleb128 -20
 1880 0252 0E       		.uleb128 0xe
 1881 0253 726300   		.ascii	"rc\000"
 1882 0256 01       		.byte	0x1
 1883 0257 9C       		.byte	0x9c
 1884 0258 A4000000 		.4byte	0xa4
 1885 025c 02       		.uleb128 0x2
 1886 025d 91       		.byte	0x91
 1887 025e 68       		.sleb128 -24
 1888 025f 0D       		.uleb128 0xd
 1889 0260 2B0B0000 		.4byte	.LASF62
 1890 0264 01       		.byte	0x1
 1891 0265 9D       		.byte	0x9d
 1892 0266 83000000 		.4byte	0x83
 1893 026a 02       		.uleb128 0x2
 1894 026b 91       		.byte	0x91
 1895 026c 5C       		.sleb128 -36
 1896 026d 0D       		.uleb128 0xd
 1897 026e 330A0000 		.4byte	.LASF63
 1898 0272 01       		.byte	0x1
 1899 0273 9E       		.byte	0x9e
 1900 0274 83000000 		.4byte	0x83
 1901 0278 02       		.uleb128 0x2
 1902 0279 91       		.byte	0x91
 1903 027a 64       		.sleb128 -28
 1904 027b 0D       		.uleb128 0xd
 1905 027c 99040000 		.4byte	.LASF64
 1906 0280 01       		.byte	0x1
 1907 0281 9F       		.byte	0x9f
 1908 0282 83000000 		.4byte	0x83
 1909 0286 02       		.uleb128 0x2
 1910 0287 91       		.byte	0x91
 1911 0288 60       		.sleb128 -32
 1912 0289 00       		.byte	0
 1913 028a 0A       		.uleb128 0xa
 1914 028b 04       		.byte	0x4
 1915 028c 90020000 		.4byte	0x290
 1916 0290 0F       		.uleb128 0xf
 1917 0291 6B000000 		.4byte	0x6b
 1918 0295 10       		.uleb128 0x10
 1919 0296 6B000000 		.4byte	0x6b
 1920 029a A5020000 		.4byte	0x2a5
 1921 029e 11       		.uleb128 0x11
 1922 029f D9000000 		.4byte	0xd9
ARM GAS  C:\Users\Toshiba\AppData\Local\Temp\ccUpswI6.s 			page 47


 1923 02a3 7F       		.byte	0x7f
 1924 02a4 00       		.byte	0
 1925 02a5 0B       		.uleb128 0xb
 1926 02a6 CF080000 		.4byte	.LASF66
 1927 02aa 01       		.byte	0x1
 1928 02ab E8       		.byte	0xe8
 1929 02ac A4000000 		.4byte	0xa4
 1930 02b0 00000000 		.4byte	.LFB3
 1931 02b4 C2000000 		.4byte	.LFE3-.LFB3
 1932 02b8 01       		.uleb128 0x1
 1933 02b9 9C       		.byte	0x9c
 1934 02ba 23030000 		.4byte	0x323
 1935 02be 0C       		.uleb128 0xc
 1936 02bf 00000000 		.4byte	.LASF56
 1937 02c3 01       		.byte	0x1
 1938 02c4 E8       		.byte	0xe8
 1939 02c5 8A020000 		.4byte	0x28a
 1940 02c9 03       		.uleb128 0x3
 1941 02ca 91       		.byte	0x91
 1942 02cb E47E     		.sleb128 -156
 1943 02cd 0C       		.uleb128 0xc
 1944 02ce 6B010000 		.4byte	.LASF57
 1945 02d2 01       		.byte	0x1
 1946 02d3 E8       		.byte	0xe8
 1947 02d4 77000000 		.4byte	0x77
 1948 02d8 03       		.uleb128 0x3
 1949 02d9 91       		.byte	0x91
 1950 02da E27E     		.sleb128 -158
 1951 02dc 0D       		.uleb128 0xd
 1952 02dd C5080000 		.4byte	.LASF67
 1953 02e1 01       		.byte	0x1
 1954 02e2 EA       		.byte	0xea
 1955 02e3 8A020000 		.4byte	0x28a
 1956 02e7 02       		.uleb128 0x2
 1957 02e8 91       		.byte	0x91
 1958 02e9 74       		.sleb128 -12
 1959 02ea 0D       		.uleb128 0xd
 1960 02eb 72020000 		.4byte	.LASF68
 1961 02ef 01       		.byte	0x1
 1962 02f0 EB       		.byte	0xeb
 1963 02f1 95020000 		.4byte	0x295
 1964 02f5 03       		.uleb128 0x3
 1965 02f6 91       		.byte	0x91
 1966 02f7 EC7E     		.sleb128 -148
 1967 02f9 0D       		.uleb128 0xd
 1968 02fa 36030000 		.4byte	.LASF69
 1969 02fe 01       		.byte	0x1
 1970 02ff EC       		.byte	0xec
 1971 0300 77000000 		.4byte	0x77
 1972 0304 02       		.uleb128 0x2
 1973 0305 91       		.byte	0x91
 1974 0306 72       		.sleb128 -14
 1975 0307 0D       		.uleb128 0xd
 1976 0308 37070000 		.4byte	.LASF70
 1977 030c 01       		.byte	0x1
 1978 030d ED       		.byte	0xed
 1979 030e 77000000 		.4byte	0x77
ARM GAS  C:\Users\Toshiba\AppData\Local\Temp\ccUpswI6.s 			page 48


 1980 0312 02       		.uleb128 0x2
 1981 0313 91       		.byte	0x91
 1982 0314 70       		.sleb128 -16
 1983 0315 0E       		.uleb128 0xe
 1984 0316 726300   		.ascii	"rc\000"
 1985 0319 01       		.byte	0x1
 1986 031a EE       		.byte	0xee
 1987 031b A4000000 		.4byte	0xa4
 1988 031f 02       		.uleb128 0x2
 1989 0320 91       		.byte	0x91
 1990 0321 6C       		.sleb128 -20
 1991 0322 00       		.byte	0
 1992 0323 12       		.uleb128 0x12
 1993 0324 DB040000 		.4byte	.LASF73
 1994 0328 01       		.byte	0x1
 1995 0329 1801     		.2byte	0x118
 1996 032b 00000000 		.4byte	.LFB4
 1997 032f 1C000000 		.4byte	.LFE4-.LFB4
 1998 0333 01       		.uleb128 0x1
 1999 0334 9C       		.byte	0x9c
 2000 0335 58030000 		.4byte	0x358
 2001 0339 13       		.uleb128 0x13
 2002 033a 80000000 		.4byte	.LASF71
 2003 033e 01       		.byte	0x1
 2004 033f 1801     		.2byte	0x118
 2005 0341 58030000 		.4byte	0x358
 2006 0345 02       		.uleb128 0x2
 2007 0346 91       		.byte	0x91
 2008 0347 74       		.sleb128 -12
 2009 0348 13       		.uleb128 0x13
 2010 0349 55030000 		.4byte	.LASF72
 2011 034d 01       		.byte	0x1
 2012 034e 1801     		.2byte	0x118
 2013 0350 CD010000 		.4byte	0x1cd
 2014 0354 02       		.uleb128 0x2
 2015 0355 91       		.byte	0x91
 2016 0356 70       		.sleb128 -16
 2017 0357 00       		.byte	0
 2018 0358 0A       		.uleb128 0xa
 2019 0359 04       		.byte	0x4
 2020 035a 5E030000 		.4byte	0x35e
 2021 035e 0F       		.uleb128 0xf
 2022 035f C1000000 		.4byte	0xc1
 2023 0363 12       		.uleb128 0x12
 2024 0364 A50A0000 		.4byte	.LASF74
 2025 0368 01       		.byte	0x1
 2026 0369 2B01     		.2byte	0x12b
 2027 036b 00000000 		.4byte	.LFB5
 2028 036f 1E000000 		.4byte	.LFE5-.LFB5
 2029 0373 01       		.uleb128 0x1
 2030 0374 9C       		.byte	0x9c
 2031 0375 98030000 		.4byte	0x398
 2032 0379 13       		.uleb128 0x13
 2033 037a 80000000 		.4byte	.LASF71
 2034 037e 01       		.byte	0x1
 2035 037f 2B01     		.2byte	0x12b
 2036 0381 98030000 		.4byte	0x398
ARM GAS  C:\Users\Toshiba\AppData\Local\Temp\ccUpswI6.s 			page 49


 2037 0385 02       		.uleb128 0x2
 2038 0386 91       		.byte	0x91
 2039 0387 74       		.sleb128 -12
 2040 0388 13       		.uleb128 0x13
 2041 0389 55030000 		.4byte	.LASF72
 2042 038d 01       		.byte	0x1
 2043 038e 2B01     		.2byte	0x12b
 2044 0390 9E030000 		.4byte	0x39e
 2045 0394 02       		.uleb128 0x2
 2046 0395 91       		.byte	0x91
 2047 0396 72       		.sleb128 -14
 2048 0397 00       		.byte	0
 2049 0398 0A       		.uleb128 0xa
 2050 0399 04       		.byte	0x4
 2051 039a C1000000 		.4byte	0xc1
 2052 039e 0F       		.uleb128 0xf
 2053 039f 77000000 		.4byte	0x77
 2054 03a3 12       		.uleb128 0x12
 2055 03a4 A4000000 		.4byte	.LASF75
 2056 03a8 01       		.byte	0x1
 2057 03a9 3E01     		.2byte	0x13e
 2058 03ab 00000000 		.4byte	.LFB6
 2059 03af 1C000000 		.4byte	.LFE6-.LFB6
 2060 03b3 01       		.uleb128 0x1
 2061 03b4 9C       		.byte	0x9c
 2062 03b5 D8030000 		.4byte	0x3d8
 2063 03b9 13       		.uleb128 0x13
 2064 03ba 80000000 		.4byte	.LASF71
 2065 03be 01       		.byte	0x1
 2066 03bf 3E01     		.2byte	0x13e
 2067 03c1 58030000 		.4byte	0x358
 2068 03c5 02       		.uleb128 0x2
 2069 03c6 91       		.byte	0x91
 2070 03c7 74       		.sleb128 -12
 2071 03c8 13       		.uleb128 0x13
 2072 03c9 55030000 		.4byte	.LASF72
 2073 03cd 01       		.byte	0x1
 2074 03ce 3E01     		.2byte	0x13e
 2075 03d0 CD010000 		.4byte	0x1cd
 2076 03d4 02       		.uleb128 0x2
 2077 03d5 91       		.byte	0x91
 2078 03d6 70       		.sleb128 -16
 2079 03d7 00       		.byte	0
 2080 03d8 12       		.uleb128 0x12
 2081 03d9 D0060000 		.4byte	.LASF76
 2082 03dd 01       		.byte	0x1
 2083 03de 5101     		.2byte	0x151
 2084 03e0 00000000 		.4byte	.LFB7
 2085 03e4 1E000000 		.4byte	.LFE7-.LFB7
 2086 03e8 01       		.uleb128 0x1
 2087 03e9 9C       		.byte	0x9c
 2088 03ea 0D040000 		.4byte	0x40d
 2089 03ee 13       		.uleb128 0x13
 2090 03ef 80000000 		.4byte	.LASF71
 2091 03f3 01       		.byte	0x1
 2092 03f4 5101     		.2byte	0x151
 2093 03f6 98030000 		.4byte	0x398
ARM GAS  C:\Users\Toshiba\AppData\Local\Temp\ccUpswI6.s 			page 50


 2094 03fa 02       		.uleb128 0x2
 2095 03fb 91       		.byte	0x91
 2096 03fc 74       		.sleb128 -12
 2097 03fd 13       		.uleb128 0x13
 2098 03fe 55030000 		.4byte	.LASF72
 2099 0402 01       		.byte	0x1
 2100 0403 5101     		.2byte	0x151
 2101 0405 9E030000 		.4byte	0x39e
 2102 0409 02       		.uleb128 0x2
 2103 040a 91       		.byte	0x91
 2104 040b 72       		.sleb128 -14
 2105 040c 00       		.byte	0
 2106 040d 12       		.uleb128 0x12
 2107 040e 1B0A0000 		.4byte	.LASF77
 2108 0412 01       		.byte	0x1
 2109 0413 6001     		.2byte	0x160
 2110 0415 00000000 		.4byte	.LFB8
 2111 0419 94010000 		.4byte	.LFE8-.LFB8
 2112 041d 01       		.uleb128 0x1
 2113 041e 9C       		.byte	0x9c
 2114 041f 6F040000 		.4byte	0x46f
 2115 0423 14       		.uleb128 0x14
 2116 0424 4C070000 		.4byte	.LASF78
 2117 0428 01       		.byte	0x1
 2118 0429 6401     		.2byte	0x164
 2119 042b 83000000 		.4byte	0x83
 2120 042f 02       		.uleb128 0x2
 2121 0430 91       		.byte	0x91
 2122 0431 74       		.sleb128 -12
 2123 0432 15       		.uleb128 0x15
 2124 0433 6C646F00 		.ascii	"ldo\000"
 2125 0437 01       		.byte	0x1
 2126 0438 6501     		.2byte	0x165
 2127 043a 83000000 		.4byte	0x83
 2128 043e 02       		.uleb128 0x2
 2129 043f 91       		.byte	0x91
 2130 0440 70       		.sleb128 -16
 2131 0441 14       		.uleb128 0x14
 2132 0442 76040000 		.4byte	.LASF79
 2133 0446 01       		.byte	0x1
 2134 0447 6601     		.2byte	0x166
 2135 0449 77000000 		.4byte	0x77
 2136 044d 02       		.uleb128 0x2
 2137 044e 91       		.byte	0x91
 2138 044f 6A       		.sleb128 -22
 2139 0450 14       		.uleb128 0x14
 2140 0451 8C040000 		.4byte	.LASF80
 2141 0455 01       		.byte	0x1
 2142 0456 6701     		.2byte	0x167
 2143 0458 77000000 		.4byte	0x77
 2144 045c 02       		.uleb128 0x2
 2145 045d 91       		.byte	0x91
 2146 045e 68       		.sleb128 -24
 2147 045f 14       		.uleb128 0x14
 2148 0460 A6070000 		.4byte	.LASF81
 2149 0464 01       		.byte	0x1
 2150 0465 6801     		.2byte	0x168
ARM GAS  C:\Users\Toshiba\AppData\Local\Temp\ccUpswI6.s 			page 51


 2151 0467 83000000 		.4byte	0x83
 2152 046b 02       		.uleb128 0x2
 2153 046c 91       		.byte	0x91
 2154 046d 6C       		.sleb128 -20
 2155 046e 00       		.byte	0
 2156 046f 16       		.uleb128 0x16
 2157 0470 37060000 		.4byte	.LASF82
 2158 0474 01       		.byte	0x1
 2159 0475 A401     		.2byte	0x1a4
 2160 0477 00000000 		.4byte	.LFB9
 2161 047b 1E000000 		.4byte	.LFE9-.LFB9
 2162 047f 01       		.uleb128 0x1
 2163 0480 9C       		.byte	0x9c
 2164 0481 95040000 		.4byte	0x495
 2165 0485 13       		.uleb128 0x13
 2166 0486 9F090000 		.4byte	.LASF83
 2167 048a 01       		.byte	0x1
 2168 048b A401     		.2byte	0x1a4
 2169 048d 77000000 		.4byte	0x77
 2170 0491 02       		.uleb128 0x2
 2171 0492 91       		.byte	0x91
 2172 0493 76       		.sleb128 -10
 2173 0494 00       		.byte	0
 2174 0495 16       		.uleb128 0x16
 2175 0496 A6040000 		.4byte	.LASF84
 2176 049a 01       		.byte	0x1
 2177 049b AA01     		.2byte	0x1aa
 2178 049d 00000000 		.4byte	.LFB10
 2179 04a1 18000000 		.4byte	.LFE10-.LFB10
 2180 04a5 01       		.uleb128 0x1
 2181 04a6 9C       		.byte	0x9c
 2182 04a7 BB040000 		.4byte	0x4bb
 2183 04ab 13       		.uleb128 0x13
 2184 04ac 9F090000 		.4byte	.LASF83
 2185 04b0 01       		.byte	0x1
 2186 04b1 AA01     		.2byte	0x1aa
 2187 04b3 83000000 		.4byte	0x83
 2188 04b7 02       		.uleb128 0x2
 2189 04b8 91       		.byte	0x91
 2190 04b9 74       		.sleb128 -12
 2191 04ba 00       		.byte	0
 2192 04bb 17       		.uleb128 0x17
 2193 04bc D9090000 		.4byte	.LASF85
 2194 04c0 01       		.byte	0x1
 2195 04c1 B001     		.2byte	0x1b0
 2196 04c3 00000000 		.4byte	.LFB11
 2197 04c7 0E000000 		.4byte	.LFE11-.LFB11
 2198 04cb 01       		.uleb128 0x1
 2199 04cc 9C       		.byte	0x9c
 2200 04cd 17       		.uleb128 0x17
 2201 04ce AF060000 		.4byte	.LASF86
 2202 04d2 01       		.byte	0x1
 2203 04d3 B601     		.2byte	0x1b6
 2204 04d5 00000000 		.4byte	.LFB12
 2205 04d9 0E000000 		.4byte	.LFE12-.LFB12
 2206 04dd 01       		.uleb128 0x1
 2207 04de 9C       		.byte	0x9c
ARM GAS  C:\Users\Toshiba\AppData\Local\Temp\ccUpswI6.s 			page 52


 2208 04df 17       		.uleb128 0x17
 2209 04e0 4E0A0000 		.4byte	.LASF87
 2210 04e4 01       		.byte	0x1
 2211 04e5 C501     		.2byte	0x1c5
 2212 04e7 00000000 		.4byte	.LFB13
 2213 04eb 20000000 		.4byte	.LFE13-.LFB13
 2214 04ef 01       		.uleb128 0x1
 2215 04f0 9C       		.byte	0x9c
 2216 04f1 17       		.uleb128 0x17
 2217 04f2 9C020000 		.4byte	.LASF88
 2218 04f6 01       		.byte	0x1
 2219 04f7 DC01     		.2byte	0x1dc
 2220 04f9 00000000 		.4byte	.LFB14
 2221 04fd 18000000 		.4byte	.LFE14-.LFB14
 2222 0501 01       		.uleb128 0x1
 2223 0502 9C       		.byte	0x9c
 2224 0503 18       		.uleb128 0x18
 2225 0504 A8090000 		.4byte	.LASF99
 2226 0508 01       		.byte	0x1
 2227 0509 F401     		.2byte	0x1f4
 2228 050b 83000000 		.4byte	0x83
 2229 050f 00000000 		.4byte	.LFB15
 2230 0513 0E000000 		.4byte	.LFE15-.LFB15
 2231 0517 01       		.uleb128 0x1
 2232 0518 9C       		.byte	0x9c
 2233 0519 19       		.uleb128 0x19
 2234 051a 43090000 		.4byte	.LASF89
 2235 051e 01       		.byte	0x1
 2236 051f 4E02     		.2byte	0x24e
 2237 0521 C1010000 		.4byte	0x1c1
 2238 0525 00000000 		.4byte	.LFB16
 2239 0529 12000000 		.4byte	.LFE16-.LFB16
 2240 052d 01       		.uleb128 0x1
 2241 052e 9C       		.byte	0x9c
 2242 052f 43050000 		.4byte	0x543
 2243 0533 13       		.uleb128 0x13
 2244 0534 31070000 		.4byte	.LASF90
 2245 0538 01       		.byte	0x1
 2246 0539 4E02     		.2byte	0x24e
 2247 053b E0000000 		.4byte	0xe0
 2248 053f 02       		.uleb128 0x2
 2249 0540 91       		.byte	0x91
 2250 0541 74       		.sleb128 -12
 2251 0542 00       		.byte	0
 2252 0543 19       		.uleb128 0x19
 2253 0544 B1070000 		.4byte	.LASF91
 2254 0548 01       		.byte	0x1
 2255 0549 5302     		.2byte	0x253
 2256 054b C1010000 		.4byte	0x1c1
 2257 054f 00000000 		.4byte	.LFB17
 2258 0553 12000000 		.4byte	.LFE17-.LFB17
 2259 0557 01       		.uleb128 0x1
 2260 0558 9C       		.byte	0x9c
 2261 0559 6D050000 		.4byte	0x56d
 2262 055d 13       		.uleb128 0x13
 2263 055e 31070000 		.4byte	.LASF90
 2264 0562 01       		.byte	0x1
ARM GAS  C:\Users\Toshiba\AppData\Local\Temp\ccUpswI6.s 			page 53


 2265 0563 5302     		.2byte	0x253
 2266 0565 E0000000 		.4byte	0xe0
 2267 0569 02       		.uleb128 0x2
 2268 056a 91       		.byte	0x91
 2269 056b 74       		.sleb128 -12
 2270 056c 00       		.byte	0
 2271 056d 19       		.uleb128 0x19
 2272 056e 23090000 		.4byte	.LASF92
 2273 0572 01       		.byte	0x1
 2274 0573 5802     		.2byte	0x258
 2275 0575 C1010000 		.4byte	0x1c1
 2276 0579 00000000 		.4byte	.LFB18
 2277 057d 12000000 		.4byte	.LFE18-.LFB18
 2278 0581 01       		.uleb128 0x1
 2279 0582 9C       		.byte	0x9c
 2280 0583 97050000 		.4byte	0x597
 2281 0587 13       		.uleb128 0x13
 2282 0588 31070000 		.4byte	.LASF90
 2283 058c 01       		.byte	0x1
 2284 058d 5802     		.2byte	0x258
 2285 058f E0000000 		.4byte	0xe0
 2286 0593 02       		.uleb128 0x2
 2287 0594 91       		.byte	0x91
 2288 0595 74       		.sleb128 -12
 2289 0596 00       		.byte	0
 2290 0597 19       		.uleb128 0x19
 2291 0598 77080000 		.4byte	.LASF93
 2292 059c 01       		.byte	0x1
 2293 059d 5D02     		.2byte	0x25d
 2294 059f C1010000 		.4byte	0x1c1
 2295 05a3 00000000 		.4byte	.LFB19
 2296 05a7 12000000 		.4byte	.LFE19-.LFB19
 2297 05ab 01       		.uleb128 0x1
 2298 05ac 9C       		.byte	0x9c
 2299 05ad C1050000 		.4byte	0x5c1
 2300 05b1 13       		.uleb128 0x13
 2301 05b2 31070000 		.4byte	.LASF90
 2302 05b6 01       		.byte	0x1
 2303 05b7 5D02     		.2byte	0x25d
 2304 05b9 E0000000 		.4byte	0xe0
 2305 05bd 02       		.uleb128 0x2
 2306 05be 91       		.byte	0x91
 2307 05bf 74       		.sleb128 -12
 2308 05c0 00       		.byte	0
 2309 05c1 19       		.uleb128 0x19
 2310 05c2 5E030000 		.4byte	.LASF94
 2311 05c6 01       		.byte	0x1
 2312 05c7 6202     		.2byte	0x262
 2313 05c9 C1010000 		.4byte	0x1c1
 2314 05cd 00000000 		.4byte	.LFB20
 2315 05d1 12000000 		.4byte	.LFE20-.LFB20
 2316 05d5 01       		.uleb128 0x1
 2317 05d6 9C       		.byte	0x9c
 2318 05d7 EB050000 		.4byte	0x5eb
 2319 05db 13       		.uleb128 0x13
 2320 05dc 31070000 		.4byte	.LASF90
 2321 05e0 01       		.byte	0x1
ARM GAS  C:\Users\Toshiba\AppData\Local\Temp\ccUpswI6.s 			page 54


 2322 05e1 6202     		.2byte	0x262
 2323 05e3 E0000000 		.4byte	0xe0
 2324 05e7 02       		.uleb128 0x2
 2325 05e8 91       		.byte	0x91
 2326 05e9 74       		.sleb128 -12
 2327 05ea 00       		.byte	0
 2328 05eb 19       		.uleb128 0x19
 2329 05ec 04090000 		.4byte	.LASF95
 2330 05f0 01       		.byte	0x1
 2331 05f1 6702     		.2byte	0x267
 2332 05f3 C1010000 		.4byte	0x1c1
 2333 05f7 00000000 		.4byte	.LFB21
 2334 05fb 12000000 		.4byte	.LFE21-.LFB21
 2335 05ff 01       		.uleb128 0x1
 2336 0600 9C       		.byte	0x9c
 2337 0601 15060000 		.4byte	0x615
 2338 0605 13       		.uleb128 0x13
 2339 0606 31070000 		.4byte	.LASF90
 2340 060a 01       		.byte	0x1
 2341 060b 6702     		.2byte	0x267
 2342 060d E0000000 		.4byte	0xe0
 2343 0611 02       		.uleb128 0x2
 2344 0612 91       		.byte	0x91
 2345 0613 74       		.sleb128 -12
 2346 0614 00       		.byte	0
 2347 0615 19       		.uleb128 0x19
 2348 0616 50020000 		.4byte	.LASF96
 2349 061a 01       		.byte	0x1
 2350 061b 6C02     		.2byte	0x26c
 2351 061d C1010000 		.4byte	0x1c1
 2352 0621 00000000 		.4byte	.LFB22
 2353 0625 12000000 		.4byte	.LFE22-.LFB22
 2354 0629 01       		.uleb128 0x1
 2355 062a 9C       		.byte	0x9c
 2356 062b 3F060000 		.4byte	0x63f
 2357 062f 13       		.uleb128 0x13
 2358 0630 31070000 		.4byte	.LASF90
 2359 0634 01       		.byte	0x1
 2360 0635 6C02     		.2byte	0x26c
 2361 0637 E0000000 		.4byte	0xe0
 2362 063b 02       		.uleb128 0x2
 2363 063c 91       		.byte	0x91
 2364 063d 74       		.sleb128 -12
 2365 063e 00       		.byte	0
 2366 063f 19       		.uleb128 0x19
 2367 0640 EC050000 		.4byte	.LASF97
 2368 0644 01       		.byte	0x1
 2369 0645 7102     		.2byte	0x271
 2370 0647 C1010000 		.4byte	0x1c1
 2371 064b 00000000 		.4byte	.LFB23
 2372 064f 12000000 		.4byte	.LFE23-.LFB23
 2373 0653 01       		.uleb128 0x1
 2374 0654 9C       		.byte	0x9c
 2375 0655 69060000 		.4byte	0x669
 2376 0659 13       		.uleb128 0x13
 2377 065a 31070000 		.4byte	.LASF90
 2378 065e 01       		.byte	0x1
ARM GAS  C:\Users\Toshiba\AppData\Local\Temp\ccUpswI6.s 			page 55


 2379 065f 7102     		.2byte	0x271
 2380 0661 E0000000 		.4byte	0xe0
 2381 0665 02       		.uleb128 0x2
 2382 0666 91       		.byte	0x91
 2383 0667 74       		.sleb128 -12
 2384 0668 00       		.byte	0
 2385 0669 19       		.uleb128 0x19
 2386 066a 6E090000 		.4byte	.LASF98
 2387 066e 01       		.byte	0x1
 2388 066f 7602     		.2byte	0x276
 2389 0671 C1010000 		.4byte	0x1c1
 2390 0675 00000000 		.4byte	.LFB24
 2391 0679 12000000 		.4byte	.LFE24-.LFB24
 2392 067d 01       		.uleb128 0x1
 2393 067e 9C       		.byte	0x9c
 2394 067f 93060000 		.4byte	0x693
 2395 0683 13       		.uleb128 0x13
 2396 0684 31070000 		.4byte	.LASF90
 2397 0688 01       		.byte	0x1
 2398 0689 7602     		.2byte	0x276
 2399 068b E0000000 		.4byte	0xe0
 2400 068f 02       		.uleb128 0x2
 2401 0690 91       		.byte	0x91
 2402 0691 74       		.sleb128 -12
 2403 0692 00       		.byte	0
 2404 0693 18       		.uleb128 0x18
 2405 0694 8E030000 		.4byte	.LASF100
 2406 0698 01       		.byte	0x1
 2407 0699 7B02     		.2byte	0x27b
 2408 069b C1010000 		.4byte	0x1c1
 2409 069f 00000000 		.4byte	.LFB25
 2410 06a3 0C000000 		.4byte	.LFE25-.LFB25
 2411 06a7 01       		.uleb128 0x1
 2412 06a8 9C       		.byte	0x9c
 2413 06a9 19       		.uleb128 0x19
 2414 06aa DE000000 		.4byte	.LASF101
 2415 06ae 01       		.byte	0x1
 2416 06af 8002     		.2byte	0x280
 2417 06b1 C1010000 		.4byte	0x1c1
 2418 06b5 00000000 		.4byte	.LFB26
 2419 06b9 16000000 		.4byte	.LFE26-.LFB26
 2420 06bd 01       		.uleb128 0x1
 2421 06be 9C       		.byte	0x9c
 2422 06bf D3060000 		.4byte	0x6d3
 2423 06c3 13       		.uleb128 0x13
 2424 06c4 31070000 		.4byte	.LASF90
 2425 06c8 01       		.byte	0x1
 2426 06c9 8002     		.2byte	0x280
 2427 06cb 6B000000 		.4byte	0x6b
 2428 06cf 02       		.uleb128 0x2
 2429 06d0 91       		.byte	0x91
 2430 06d1 77       		.sleb128 -9
 2431 06d2 00       		.byte	0
 2432 06d3 19       		.uleb128 0x19
 2433 06d4 BC0A0000 		.4byte	.LASF102
 2434 06d8 01       		.byte	0x1
 2435 06d9 8502     		.2byte	0x285
ARM GAS  C:\Users\Toshiba\AppData\Local\Temp\ccUpswI6.s 			page 56


 2436 06db C1010000 		.4byte	0x1c1
 2437 06df 00000000 		.4byte	.LFB27
 2438 06e3 14000000 		.4byte	.LFE27-.LFB27
 2439 06e7 01       		.uleb128 0x1
 2440 06e8 9C       		.byte	0x9c
 2441 06e9 0C070000 		.4byte	0x70c
 2442 06ed 13       		.uleb128 0x13
 2443 06ee E7060000 		.4byte	.LASF103
 2444 06f2 01       		.byte	0x1
 2445 06f3 8502     		.2byte	0x285
 2446 06f5 E0000000 		.4byte	0xe0
 2447 06f9 02       		.uleb128 0x2
 2448 06fa 91       		.byte	0x91
 2449 06fb 74       		.sleb128 -12
 2450 06fc 13       		.uleb128 0x13
 2451 06fd EE060000 		.4byte	.LASF104
 2452 0701 01       		.byte	0x1
 2453 0702 8602     		.2byte	0x286
 2454 0704 E0000000 		.4byte	0xe0
 2455 0708 02       		.uleb128 0x2
 2456 0709 91       		.byte	0x91
 2457 070a 70       		.sleb128 -16
 2458 070b 00       		.byte	0
 2459 070c 1A       		.uleb128 0x1a
 2460 070d B4010000 		.4byte	.LASF105
 2461 0711 01       		.byte	0x1
 2462 0712 8B02     		.2byte	0x28b
 2463 0714 00000000 		.4byte	.LFB28
 2464 0718 0A000000 		.4byte	.LFE28-.LFB28
 2465 071c 01       		.uleb128 0x1
 2466 071d 9C       		.byte	0x9c
 2467 071e 19       		.uleb128 0x19
 2468 071f 57000000 		.4byte	.LASF106
 2469 0723 01       		.byte	0x1
 2470 0724 8F02     		.2byte	0x28f
 2471 0726 C1010000 		.4byte	0x1c1
 2472 072a 00000000 		.4byte	.LFB29
 2473 072e 14000000 		.4byte	.LFE29-.LFB29
 2474 0732 01       		.uleb128 0x1
 2475 0733 9C       		.byte	0x9c
 2476 0734 57070000 		.4byte	0x757
 2477 0738 13       		.uleb128 0x13
 2478 0739 E7060000 		.4byte	.LASF103
 2479 073d 01       		.byte	0x1
 2480 073e 8F02     		.2byte	0x28f
 2481 0740 E0000000 		.4byte	0xe0
 2482 0744 02       		.uleb128 0x2
 2483 0745 91       		.byte	0x91
 2484 0746 74       		.sleb128 -12
 2485 0747 13       		.uleb128 0x13
 2486 0748 EE060000 		.4byte	.LASF104
 2487 074c 01       		.byte	0x1
 2488 074d 9002     		.2byte	0x290
 2489 074f E0000000 		.4byte	0xe0
 2490 0753 02       		.uleb128 0x2
 2491 0754 91       		.byte	0x91
 2492 0755 70       		.sleb128 -16
ARM GAS  C:\Users\Toshiba\AppData\Local\Temp\ccUpswI6.s 			page 57


 2493 0756 00       		.byte	0
 2494 0757 1A       		.uleb128 0x1a
 2495 0758 34080000 		.4byte	.LASF107
 2496 075c 01       		.byte	0x1
 2497 075d 9502     		.2byte	0x295
 2498 075f 00000000 		.4byte	.LFB30
 2499 0763 0A000000 		.4byte	.LFE30-.LFB30
 2500 0767 01       		.uleb128 0x1
 2501 0768 9C       		.byte	0x9c
 2502 0769 19       		.uleb128 0x19
 2503 076a 630A0000 		.4byte	.LASF108
 2504 076e 01       		.byte	0x1
 2505 076f AB02     		.2byte	0x2ab
 2506 0771 77000000 		.4byte	0x77
 2507 0775 00000000 		.4byte	.LFB31
 2508 0779 12000000 		.4byte	.LFE31-.LFB31
 2509 077d 01       		.uleb128 0x1
 2510 077e 9C       		.byte	0x9c
 2511 077f 93070000 		.4byte	0x793
 2512 0783 13       		.uleb128 0x13
 2513 0784 31070000 		.4byte	.LASF90
 2514 0788 01       		.byte	0x1
 2515 0789 AB02     		.2byte	0x2ab
 2516 078b E0000000 		.4byte	0xe0
 2517 078f 02       		.uleb128 0x2
 2518 0790 91       		.byte	0x91
 2519 0791 74       		.sleb128 -12
 2520 0792 00       		.byte	0
 2521 0793 1B       		.uleb128 0x1b
 2522 0794 E0030000 		.4byte	.LASF109
 2523 0798 01       		.byte	0x1
 2524 0799 B002     		.2byte	0x2b0
 2525 079b 77000000 		.4byte	0x77
 2526 079f 00000000 		.4byte	.LFB32
 2527 07a3 12000000 		.4byte	.LFE32-.LFB32
 2528 07a7 01       		.uleb128 0x1
 2529 07a8 9C       		.byte	0x9c
 2530 07a9 13       		.uleb128 0x13
 2531 07aa 31070000 		.4byte	.LASF90
 2532 07ae 01       		.byte	0x1
 2533 07af B002     		.2byte	0x2b0
 2534 07b1 E0000000 		.4byte	0xe0
 2535 07b5 02       		.uleb128 0x2
 2536 07b6 91       		.byte	0x91
 2537 07b7 74       		.sleb128 -12
 2538 07b8 00       		.byte	0
 2539 07b9 00       		.byte	0
 2540              		.section	.debug_abbrev,"",%progbits
 2541              	.Ldebug_abbrev0:
 2542 0000 01       		.uleb128 0x1
 2543 0001 11       		.uleb128 0x11
 2544 0002 01       		.byte	0x1
 2545 0003 25       		.uleb128 0x25
 2546 0004 0E       		.uleb128 0xe
 2547 0005 13       		.uleb128 0x13
 2548 0006 0B       		.uleb128 0xb
 2549 0007 03       		.uleb128 0x3
ARM GAS  C:\Users\Toshiba\AppData\Local\Temp\ccUpswI6.s 			page 58


 2550 0008 0E       		.uleb128 0xe
 2551 0009 1B       		.uleb128 0x1b
 2552 000a 0E       		.uleb128 0xe
 2553 000b 55       		.uleb128 0x55
 2554 000c 17       		.uleb128 0x17
 2555 000d 11       		.uleb128 0x11
 2556 000e 01       		.uleb128 0x1
 2557 000f 10       		.uleb128 0x10
 2558 0010 17       		.uleb128 0x17
 2559 0011 00       		.byte	0
 2560 0012 00       		.byte	0
 2561 0013 02       		.uleb128 0x2
 2562 0014 24       		.uleb128 0x24
 2563 0015 00       		.byte	0
 2564 0016 0B       		.uleb128 0xb
 2565 0017 0B       		.uleb128 0xb
 2566 0018 3E       		.uleb128 0x3e
 2567 0019 0B       		.uleb128 0xb
 2568 001a 03       		.uleb128 0x3
 2569 001b 0E       		.uleb128 0xe
 2570 001c 00       		.byte	0
 2571 001d 00       		.byte	0
 2572 001e 03       		.uleb128 0x3
 2573 001f 24       		.uleb128 0x24
 2574 0020 00       		.byte	0
 2575 0021 0B       		.uleb128 0xb
 2576 0022 0B       		.uleb128 0xb
 2577 0023 3E       		.uleb128 0x3e
 2578 0024 0B       		.uleb128 0xb
 2579 0025 03       		.uleb128 0x3
 2580 0026 08       		.uleb128 0x8
 2581 0027 00       		.byte	0
 2582 0028 00       		.byte	0
 2583 0029 04       		.uleb128 0x4
 2584 002a 16       		.uleb128 0x16
 2585 002b 00       		.byte	0
 2586 002c 03       		.uleb128 0x3
 2587 002d 0E       		.uleb128 0xe
 2588 002e 3A       		.uleb128 0x3a
 2589 002f 0B       		.uleb128 0xb
 2590 0030 3B       		.uleb128 0x3b
 2591 0031 05       		.uleb128 0x5
 2592 0032 49       		.uleb128 0x49
 2593 0033 13       		.uleb128 0x13
 2594 0034 00       		.byte	0
 2595 0035 00       		.byte	0
 2596 0036 05       		.uleb128 0x5
 2597 0037 35       		.uleb128 0x35
 2598 0038 00       		.byte	0
 2599 0039 49       		.uleb128 0x49
 2600 003a 13       		.uleb128 0x13
 2601 003b 00       		.byte	0
 2602 003c 00       		.byte	0
 2603 003d 06       		.uleb128 0x6
 2604 003e 0F       		.uleb128 0xf
 2605 003f 00       		.byte	0
 2606 0040 0B       		.uleb128 0xb
ARM GAS  C:\Users\Toshiba\AppData\Local\Temp\ccUpswI6.s 			page 59


 2607 0041 0B       		.uleb128 0xb
 2608 0042 00       		.byte	0
 2609 0043 00       		.byte	0
 2610 0044 07       		.uleb128 0x7
 2611 0045 04       		.uleb128 0x4
 2612 0046 01       		.byte	0x1
 2613 0047 0B       		.uleb128 0xb
 2614 0048 0B       		.uleb128 0xb
 2615 0049 49       		.uleb128 0x49
 2616 004a 13       		.uleb128 0x13
 2617 004b 3A       		.uleb128 0x3a
 2618 004c 0B       		.uleb128 0xb
 2619 004d 3B       		.uleb128 0x3b
 2620 004e 05       		.uleb128 0x5
 2621 004f 01       		.uleb128 0x1
 2622 0050 13       		.uleb128 0x13
 2623 0051 00       		.byte	0
 2624 0052 00       		.byte	0
 2625 0053 08       		.uleb128 0x8
 2626 0054 28       		.uleb128 0x28
 2627 0055 00       		.byte	0
 2628 0056 03       		.uleb128 0x3
 2629 0057 0E       		.uleb128 0xe
 2630 0058 1C       		.uleb128 0x1c
 2631 0059 0B       		.uleb128 0xb
 2632 005a 00       		.byte	0
 2633 005b 00       		.byte	0
 2634 005c 09       		.uleb128 0x9
 2635 005d 28       		.uleb128 0x28
 2636 005e 00       		.byte	0
 2637 005f 03       		.uleb128 0x3
 2638 0060 0E       		.uleb128 0xe
 2639 0061 1C       		.uleb128 0x1c
 2640 0062 05       		.uleb128 0x5
 2641 0063 00       		.byte	0
 2642 0064 00       		.byte	0
 2643 0065 0A       		.uleb128 0xa
 2644 0066 0F       		.uleb128 0xf
 2645 0067 00       		.byte	0
 2646 0068 0B       		.uleb128 0xb
 2647 0069 0B       		.uleb128 0xb
 2648 006a 49       		.uleb128 0x49
 2649 006b 13       		.uleb128 0x13
 2650 006c 00       		.byte	0
 2651 006d 00       		.byte	0
 2652 006e 0B       		.uleb128 0xb
 2653 006f 2E       		.uleb128 0x2e
 2654 0070 01       		.byte	0x1
 2655 0071 3F       		.uleb128 0x3f
 2656 0072 19       		.uleb128 0x19
 2657 0073 03       		.uleb128 0x3
 2658 0074 0E       		.uleb128 0xe
 2659 0075 3A       		.uleb128 0x3a
 2660 0076 0B       		.uleb128 0xb
 2661 0077 3B       		.uleb128 0x3b
 2662 0078 0B       		.uleb128 0xb
 2663 0079 27       		.uleb128 0x27
ARM GAS  C:\Users\Toshiba\AppData\Local\Temp\ccUpswI6.s 			page 60


 2664 007a 19       		.uleb128 0x19
 2665 007b 49       		.uleb128 0x49
 2666 007c 13       		.uleb128 0x13
 2667 007d 11       		.uleb128 0x11
 2668 007e 01       		.uleb128 0x1
 2669 007f 12       		.uleb128 0x12
 2670 0080 06       		.uleb128 0x6
 2671 0081 40       		.uleb128 0x40
 2672 0082 18       		.uleb128 0x18
 2673 0083 9642     		.uleb128 0x2116
 2674 0085 19       		.uleb128 0x19
 2675 0086 01       		.uleb128 0x1
 2676 0087 13       		.uleb128 0x13
 2677 0088 00       		.byte	0
 2678 0089 00       		.byte	0
 2679 008a 0C       		.uleb128 0xc
 2680 008b 05       		.uleb128 0x5
 2681 008c 00       		.byte	0
 2682 008d 03       		.uleb128 0x3
 2683 008e 0E       		.uleb128 0xe
 2684 008f 3A       		.uleb128 0x3a
 2685 0090 0B       		.uleb128 0xb
 2686 0091 3B       		.uleb128 0x3b
 2687 0092 0B       		.uleb128 0xb
 2688 0093 49       		.uleb128 0x49
 2689 0094 13       		.uleb128 0x13
 2690 0095 02       		.uleb128 0x2
 2691 0096 18       		.uleb128 0x18
 2692 0097 00       		.byte	0
 2693 0098 00       		.byte	0
 2694 0099 0D       		.uleb128 0xd
 2695 009a 34       		.uleb128 0x34
 2696 009b 00       		.byte	0
 2697 009c 03       		.uleb128 0x3
 2698 009d 0E       		.uleb128 0xe
 2699 009e 3A       		.uleb128 0x3a
 2700 009f 0B       		.uleb128 0xb
 2701 00a0 3B       		.uleb128 0x3b
 2702 00a1 0B       		.uleb128 0xb
 2703 00a2 49       		.uleb128 0x49
 2704 00a3 13       		.uleb128 0x13
 2705 00a4 02       		.uleb128 0x2
 2706 00a5 18       		.uleb128 0x18
 2707 00a6 00       		.byte	0
 2708 00a7 00       		.byte	0
 2709 00a8 0E       		.uleb128 0xe
 2710 00a9 34       		.uleb128 0x34
 2711 00aa 00       		.byte	0
 2712 00ab 03       		.uleb128 0x3
 2713 00ac 08       		.uleb128 0x8
 2714 00ad 3A       		.uleb128 0x3a
 2715 00ae 0B       		.uleb128 0xb
 2716 00af 3B       		.uleb128 0x3b
 2717 00b0 0B       		.uleb128 0xb
 2718 00b1 49       		.uleb128 0x49
 2719 00b2 13       		.uleb128 0x13
 2720 00b3 02       		.uleb128 0x2
ARM GAS  C:\Users\Toshiba\AppData\Local\Temp\ccUpswI6.s 			page 61


 2721 00b4 18       		.uleb128 0x18
 2722 00b5 00       		.byte	0
 2723 00b6 00       		.byte	0
 2724 00b7 0F       		.uleb128 0xf
 2725 00b8 26       		.uleb128 0x26
 2726 00b9 00       		.byte	0
 2727 00ba 49       		.uleb128 0x49
 2728 00bb 13       		.uleb128 0x13
 2729 00bc 00       		.byte	0
 2730 00bd 00       		.byte	0
 2731 00be 10       		.uleb128 0x10
 2732 00bf 01       		.uleb128 0x1
 2733 00c0 01       		.byte	0x1
 2734 00c1 49       		.uleb128 0x49
 2735 00c2 13       		.uleb128 0x13
 2736 00c3 01       		.uleb128 0x1
 2737 00c4 13       		.uleb128 0x13
 2738 00c5 00       		.byte	0
 2739 00c6 00       		.byte	0
 2740 00c7 11       		.uleb128 0x11
 2741 00c8 21       		.uleb128 0x21
 2742 00c9 00       		.byte	0
 2743 00ca 49       		.uleb128 0x49
 2744 00cb 13       		.uleb128 0x13
 2745 00cc 2F       		.uleb128 0x2f
 2746 00cd 0B       		.uleb128 0xb
 2747 00ce 00       		.byte	0
 2748 00cf 00       		.byte	0
 2749 00d0 12       		.uleb128 0x12
 2750 00d1 2E       		.uleb128 0x2e
 2751 00d2 01       		.byte	0x1
 2752 00d3 3F       		.uleb128 0x3f
 2753 00d4 19       		.uleb128 0x19
 2754 00d5 03       		.uleb128 0x3
 2755 00d6 0E       		.uleb128 0xe
 2756 00d7 3A       		.uleb128 0x3a
 2757 00d8 0B       		.uleb128 0xb
 2758 00d9 3B       		.uleb128 0x3b
 2759 00da 05       		.uleb128 0x5
 2760 00db 27       		.uleb128 0x27
 2761 00dc 19       		.uleb128 0x19
 2762 00dd 11       		.uleb128 0x11
 2763 00de 01       		.uleb128 0x1
 2764 00df 12       		.uleb128 0x12
 2765 00e0 06       		.uleb128 0x6
 2766 00e1 40       		.uleb128 0x40
 2767 00e2 18       		.uleb128 0x18
 2768 00e3 9742     		.uleb128 0x2117
 2769 00e5 19       		.uleb128 0x19
 2770 00e6 01       		.uleb128 0x1
 2771 00e7 13       		.uleb128 0x13
 2772 00e8 00       		.byte	0
 2773 00e9 00       		.byte	0
 2774 00ea 13       		.uleb128 0x13
 2775 00eb 05       		.uleb128 0x5
 2776 00ec 00       		.byte	0
 2777 00ed 03       		.uleb128 0x3
ARM GAS  C:\Users\Toshiba\AppData\Local\Temp\ccUpswI6.s 			page 62


 2778 00ee 0E       		.uleb128 0xe
 2779 00ef 3A       		.uleb128 0x3a
 2780 00f0 0B       		.uleb128 0xb
 2781 00f1 3B       		.uleb128 0x3b
 2782 00f2 05       		.uleb128 0x5
 2783 00f3 49       		.uleb128 0x49
 2784 00f4 13       		.uleb128 0x13
 2785 00f5 02       		.uleb128 0x2
 2786 00f6 18       		.uleb128 0x18
 2787 00f7 00       		.byte	0
 2788 00f8 00       		.byte	0
 2789 00f9 14       		.uleb128 0x14
 2790 00fa 34       		.uleb128 0x34
 2791 00fb 00       		.byte	0
 2792 00fc 03       		.uleb128 0x3
 2793 00fd 0E       		.uleb128 0xe
 2794 00fe 3A       		.uleb128 0x3a
 2795 00ff 0B       		.uleb128 0xb
 2796 0100 3B       		.uleb128 0x3b
 2797 0101 05       		.uleb128 0x5
 2798 0102 49       		.uleb128 0x49
 2799 0103 13       		.uleb128 0x13
 2800 0104 02       		.uleb128 0x2
 2801 0105 18       		.uleb128 0x18
 2802 0106 00       		.byte	0
 2803 0107 00       		.byte	0
 2804 0108 15       		.uleb128 0x15
 2805 0109 34       		.uleb128 0x34
 2806 010a 00       		.byte	0
 2807 010b 03       		.uleb128 0x3
 2808 010c 08       		.uleb128 0x8
 2809 010d 3A       		.uleb128 0x3a
 2810 010e 0B       		.uleb128 0xb
 2811 010f 3B       		.uleb128 0x3b
 2812 0110 05       		.uleb128 0x5
 2813 0111 49       		.uleb128 0x49
 2814 0112 13       		.uleb128 0x13
 2815 0113 02       		.uleb128 0x2
 2816 0114 18       		.uleb128 0x18
 2817 0115 00       		.byte	0
 2818 0116 00       		.byte	0
 2819 0117 16       		.uleb128 0x16
 2820 0118 2E       		.uleb128 0x2e
 2821 0119 01       		.byte	0x1
 2822 011a 3F       		.uleb128 0x3f
 2823 011b 19       		.uleb128 0x19
 2824 011c 03       		.uleb128 0x3
 2825 011d 0E       		.uleb128 0xe
 2826 011e 3A       		.uleb128 0x3a
 2827 011f 0B       		.uleb128 0xb
 2828 0120 3B       		.uleb128 0x3b
 2829 0121 05       		.uleb128 0x5
 2830 0122 27       		.uleb128 0x27
 2831 0123 19       		.uleb128 0x19
 2832 0124 11       		.uleb128 0x11
 2833 0125 01       		.uleb128 0x1
 2834 0126 12       		.uleb128 0x12
ARM GAS  C:\Users\Toshiba\AppData\Local\Temp\ccUpswI6.s 			page 63


 2835 0127 06       		.uleb128 0x6
 2836 0128 40       		.uleb128 0x40
 2837 0129 18       		.uleb128 0x18
 2838 012a 9642     		.uleb128 0x2116
 2839 012c 19       		.uleb128 0x19
 2840 012d 01       		.uleb128 0x1
 2841 012e 13       		.uleb128 0x13
 2842 012f 00       		.byte	0
 2843 0130 00       		.byte	0
 2844 0131 17       		.uleb128 0x17
 2845 0132 2E       		.uleb128 0x2e
 2846 0133 00       		.byte	0
 2847 0134 3F       		.uleb128 0x3f
 2848 0135 19       		.uleb128 0x19
 2849 0136 03       		.uleb128 0x3
 2850 0137 0E       		.uleb128 0xe
 2851 0138 3A       		.uleb128 0x3a
 2852 0139 0B       		.uleb128 0xb
 2853 013a 3B       		.uleb128 0x3b
 2854 013b 05       		.uleb128 0x5
 2855 013c 27       		.uleb128 0x27
 2856 013d 19       		.uleb128 0x19
 2857 013e 11       		.uleb128 0x11
 2858 013f 01       		.uleb128 0x1
 2859 0140 12       		.uleb128 0x12
 2860 0141 06       		.uleb128 0x6
 2861 0142 40       		.uleb128 0x40
 2862 0143 18       		.uleb128 0x18
 2863 0144 9642     		.uleb128 0x2116
 2864 0146 19       		.uleb128 0x19
 2865 0147 00       		.byte	0
 2866 0148 00       		.byte	0
 2867 0149 18       		.uleb128 0x18
 2868 014a 2E       		.uleb128 0x2e
 2869 014b 00       		.byte	0
 2870 014c 3F       		.uleb128 0x3f
 2871 014d 19       		.uleb128 0x19
 2872 014e 03       		.uleb128 0x3
 2873 014f 0E       		.uleb128 0xe
 2874 0150 3A       		.uleb128 0x3a
 2875 0151 0B       		.uleb128 0xb
 2876 0152 3B       		.uleb128 0x3b
 2877 0153 05       		.uleb128 0x5
 2878 0154 27       		.uleb128 0x27
 2879 0155 19       		.uleb128 0x19
 2880 0156 49       		.uleb128 0x49
 2881 0157 13       		.uleb128 0x13
 2882 0158 11       		.uleb128 0x11
 2883 0159 01       		.uleb128 0x1
 2884 015a 12       		.uleb128 0x12
 2885 015b 06       		.uleb128 0x6
 2886 015c 40       		.uleb128 0x40
 2887 015d 18       		.uleb128 0x18
 2888 015e 9742     		.uleb128 0x2117
 2889 0160 19       		.uleb128 0x19
 2890 0161 00       		.byte	0
 2891 0162 00       		.byte	0
ARM GAS  C:\Users\Toshiba\AppData\Local\Temp\ccUpswI6.s 			page 64


 2892 0163 19       		.uleb128 0x19
 2893 0164 2E       		.uleb128 0x2e
 2894 0165 01       		.byte	0x1
 2895 0166 3F       		.uleb128 0x3f
 2896 0167 19       		.uleb128 0x19
 2897 0168 03       		.uleb128 0x3
 2898 0169 0E       		.uleb128 0xe
 2899 016a 3A       		.uleb128 0x3a
 2900 016b 0B       		.uleb128 0xb
 2901 016c 3B       		.uleb128 0x3b
 2902 016d 05       		.uleb128 0x5
 2903 016e 27       		.uleb128 0x27
 2904 016f 19       		.uleb128 0x19
 2905 0170 49       		.uleb128 0x49
 2906 0171 13       		.uleb128 0x13
 2907 0172 11       		.uleb128 0x11
 2908 0173 01       		.uleb128 0x1
 2909 0174 12       		.uleb128 0x12
 2910 0175 06       		.uleb128 0x6
 2911 0176 40       		.uleb128 0x40
 2912 0177 18       		.uleb128 0x18
 2913 0178 9742     		.uleb128 0x2117
 2914 017a 19       		.uleb128 0x19
 2915 017b 01       		.uleb128 0x1
 2916 017c 13       		.uleb128 0x13
 2917 017d 00       		.byte	0
 2918 017e 00       		.byte	0
 2919 017f 1A       		.uleb128 0x1a
 2920 0180 2E       		.uleb128 0x2e
 2921 0181 00       		.byte	0
 2922 0182 3F       		.uleb128 0x3f
 2923 0183 19       		.uleb128 0x19
 2924 0184 03       		.uleb128 0x3
 2925 0185 0E       		.uleb128 0xe
 2926 0186 3A       		.uleb128 0x3a
 2927 0187 0B       		.uleb128 0xb
 2928 0188 3B       		.uleb128 0x3b
 2929 0189 05       		.uleb128 0x5
 2930 018a 27       		.uleb128 0x27
 2931 018b 19       		.uleb128 0x19
 2932 018c 11       		.uleb128 0x11
 2933 018d 01       		.uleb128 0x1
 2934 018e 12       		.uleb128 0x12
 2935 018f 06       		.uleb128 0x6
 2936 0190 40       		.uleb128 0x40
 2937 0191 18       		.uleb128 0x18
 2938 0192 9742     		.uleb128 0x2117
 2939 0194 19       		.uleb128 0x19
 2940 0195 00       		.byte	0
 2941 0196 00       		.byte	0
 2942 0197 1B       		.uleb128 0x1b
 2943 0198 2E       		.uleb128 0x2e
 2944 0199 01       		.byte	0x1
 2945 019a 3F       		.uleb128 0x3f
 2946 019b 19       		.uleb128 0x19
 2947 019c 03       		.uleb128 0x3
 2948 019d 0E       		.uleb128 0xe
ARM GAS  C:\Users\Toshiba\AppData\Local\Temp\ccUpswI6.s 			page 65


 2949 019e 3A       		.uleb128 0x3a
 2950 019f 0B       		.uleb128 0xb
 2951 01a0 3B       		.uleb128 0x3b
 2952 01a1 05       		.uleb128 0x5
 2953 01a2 27       		.uleb128 0x27
 2954 01a3 19       		.uleb128 0x19
 2955 01a4 49       		.uleb128 0x49
 2956 01a5 13       		.uleb128 0x13
 2957 01a6 11       		.uleb128 0x11
 2958 01a7 01       		.uleb128 0x1
 2959 01a8 12       		.uleb128 0x12
 2960 01a9 06       		.uleb128 0x6
 2961 01aa 40       		.uleb128 0x40
 2962 01ab 18       		.uleb128 0x18
 2963 01ac 9742     		.uleb128 0x2117
 2964 01ae 19       		.uleb128 0x19
 2965 01af 00       		.byte	0
 2966 01b0 00       		.byte	0
 2967 01b1 00       		.byte	0
 2968              		.section	.debug_aranges,"",%progbits
 2969 0000 0C010000 		.4byte	0x10c
 2970 0004 0200     		.2byte	0x2
 2971 0006 00000000 		.4byte	.Ldebug_info0
 2972 000a 04       		.byte	0x4
 2973 000b 00       		.byte	0
 2974 000c 0000     		.2byte	0
 2975 000e 0000     		.2byte	0
 2976 0010 00000000 		.4byte	.LFB2
 2977 0014 9C010000 		.4byte	.LFE2-.LFB2
 2978 0018 00000000 		.4byte	.LFB3
 2979 001c C2000000 		.4byte	.LFE3-.LFB3
 2980 0020 00000000 		.4byte	.LFB4
 2981 0024 1C000000 		.4byte	.LFE4-.LFB4
 2982 0028 00000000 		.4byte	.LFB5
 2983 002c 1E000000 		.4byte	.LFE5-.LFB5
 2984 0030 00000000 		.4byte	.LFB6
 2985 0034 1C000000 		.4byte	.LFE6-.LFB6
 2986 0038 00000000 		.4byte	.LFB7
 2987 003c 1E000000 		.4byte	.LFE7-.LFB7
 2988 0040 00000000 		.4byte	.LFB8
 2989 0044 94010000 		.4byte	.LFE8-.LFB8
 2990 0048 00000000 		.4byte	.LFB9
 2991 004c 1E000000 		.4byte	.LFE9-.LFB9
 2992 0050 00000000 		.4byte	.LFB10
 2993 0054 18000000 		.4byte	.LFE10-.LFB10
 2994 0058 00000000 		.4byte	.LFB11
 2995 005c 0E000000 		.4byte	.LFE11-.LFB11
 2996 0060 00000000 		.4byte	.LFB12
 2997 0064 0E000000 		.4byte	.LFE12-.LFB12
 2998 0068 00000000 		.4byte	.LFB13
 2999 006c 20000000 		.4byte	.LFE13-.LFB13
 3000 0070 00000000 		.4byte	.LFB14
 3001 0074 18000000 		.4byte	.LFE14-.LFB14
 3002 0078 00000000 		.4byte	.LFB15
 3003 007c 0E000000 		.4byte	.LFE15-.LFB15
 3004 0080 00000000 		.4byte	.LFB16
 3005 0084 12000000 		.4byte	.LFE16-.LFB16
ARM GAS  C:\Users\Toshiba\AppData\Local\Temp\ccUpswI6.s 			page 66


 3006 0088 00000000 		.4byte	.LFB17
 3007 008c 12000000 		.4byte	.LFE17-.LFB17
 3008 0090 00000000 		.4byte	.LFB18
 3009 0094 12000000 		.4byte	.LFE18-.LFB18
 3010 0098 00000000 		.4byte	.LFB19
 3011 009c 12000000 		.4byte	.LFE19-.LFB19
 3012 00a0 00000000 		.4byte	.LFB20
 3013 00a4 12000000 		.4byte	.LFE20-.LFB20
 3014 00a8 00000000 		.4byte	.LFB21
 3015 00ac 12000000 		.4byte	.LFE21-.LFB21
 3016 00b0 00000000 		.4byte	.LFB22
 3017 00b4 12000000 		.4byte	.LFE22-.LFB22
 3018 00b8 00000000 		.4byte	.LFB23
 3019 00bc 12000000 		.4byte	.LFE23-.LFB23
 3020 00c0 00000000 		.4byte	.LFB24
 3021 00c4 12000000 		.4byte	.LFE24-.LFB24
 3022 00c8 00000000 		.4byte	.LFB25
 3023 00cc 0C000000 		.4byte	.LFE25-.LFB25
 3024 00d0 00000000 		.4byte	.LFB26
 3025 00d4 16000000 		.4byte	.LFE26-.LFB26
 3026 00d8 00000000 		.4byte	.LFB27
 3027 00dc 14000000 		.4byte	.LFE27-.LFB27
 3028 00e0 00000000 		.4byte	.LFB28
 3029 00e4 0A000000 		.4byte	.LFE28-.LFB28
 3030 00e8 00000000 		.4byte	.LFB29
 3031 00ec 14000000 		.4byte	.LFE29-.LFB29
 3032 00f0 00000000 		.4byte	.LFB30
 3033 00f4 0A000000 		.4byte	.LFE30-.LFB30
 3034 00f8 00000000 		.4byte	.LFB31
 3035 00fc 12000000 		.4byte	.LFE31-.LFB31
 3036 0100 00000000 		.4byte	.LFB32
 3037 0104 12000000 		.4byte	.LFE32-.LFB32
 3038 0108 00000000 		.4byte	0
 3039 010c 00000000 		.4byte	0
 3040              		.section	.debug_ranges,"",%progbits
 3041              	.Ldebug_ranges0:
 3042 0000 00000000 		.4byte	.LFB2
 3043 0004 9C010000 		.4byte	.LFE2
 3044 0008 00000000 		.4byte	.LFB3
 3045 000c C2000000 		.4byte	.LFE3
 3046 0010 00000000 		.4byte	.LFB4
 3047 0014 1C000000 		.4byte	.LFE4
 3048 0018 00000000 		.4byte	.LFB5
 3049 001c 1E000000 		.4byte	.LFE5
 3050 0020 00000000 		.4byte	.LFB6
 3051 0024 1C000000 		.4byte	.LFE6
 3052 0028 00000000 		.4byte	.LFB7
 3053 002c 1E000000 		.4byte	.LFE7
 3054 0030 00000000 		.4byte	.LFB8
 3055 0034 94010000 		.4byte	.LFE8
 3056 0038 00000000 		.4byte	.LFB9
 3057 003c 1E000000 		.4byte	.LFE9
 3058 0040 00000000 		.4byte	.LFB10
 3059 0044 18000000 		.4byte	.LFE10
 3060 0048 00000000 		.4byte	.LFB11
 3061 004c 0E000000 		.4byte	.LFE11
 3062 0050 00000000 		.4byte	.LFB12
ARM GAS  C:\Users\Toshiba\AppData\Local\Temp\ccUpswI6.s 			page 67


 3063 0054 0E000000 		.4byte	.LFE12
 3064 0058 00000000 		.4byte	.LFB13
 3065 005c 20000000 		.4byte	.LFE13
 3066 0060 00000000 		.4byte	.LFB14
 3067 0064 18000000 		.4byte	.LFE14
 3068 0068 00000000 		.4byte	.LFB15
 3069 006c 0E000000 		.4byte	.LFE15
 3070 0070 00000000 		.4byte	.LFB16
 3071 0074 12000000 		.4byte	.LFE16
 3072 0078 00000000 		.4byte	.LFB17
 3073 007c 12000000 		.4byte	.LFE17
 3074 0080 00000000 		.4byte	.LFB18
 3075 0084 12000000 		.4byte	.LFE18
 3076 0088 00000000 		.4byte	.LFB19
 3077 008c 12000000 		.4byte	.LFE19
 3078 0090 00000000 		.4byte	.LFB20
 3079 0094 12000000 		.4byte	.LFE20
 3080 0098 00000000 		.4byte	.LFB21
 3081 009c 12000000 		.4byte	.LFE21
 3082 00a0 00000000 		.4byte	.LFB22
 3083 00a4 12000000 		.4byte	.LFE22
 3084 00a8 00000000 		.4byte	.LFB23
 3085 00ac 12000000 		.4byte	.LFE23
 3086 00b0 00000000 		.4byte	.LFB24
 3087 00b4 12000000 		.4byte	.LFE24
 3088 00b8 00000000 		.4byte	.LFB25
 3089 00bc 0C000000 		.4byte	.LFE25
 3090 00c0 00000000 		.4byte	.LFB26
 3091 00c4 16000000 		.4byte	.LFE26
 3092 00c8 00000000 		.4byte	.LFB27
 3093 00cc 14000000 		.4byte	.LFE27
 3094 00d0 00000000 		.4byte	.LFB28
 3095 00d4 0A000000 		.4byte	.LFE28
 3096 00d8 00000000 		.4byte	.LFB29
 3097 00dc 14000000 		.4byte	.LFE29
 3098 00e0 00000000 		.4byte	.LFB30
 3099 00e4 0A000000 		.4byte	.LFE30
 3100 00e8 00000000 		.4byte	.LFB31
 3101 00ec 12000000 		.4byte	.LFE31
 3102 00f0 00000000 		.4byte	.LFB32
 3103 00f4 12000000 		.4byte	.LFE32
 3104 00f8 00000000 		.4byte	0
 3105 00fc 00000000 		.4byte	0
 3106              		.section	.debug_line,"",%progbits
 3107              	.Ldebug_line0:
 3108 0000 2B030000 		.section	.debug_str,"MS",%progbits,1
 3108      02005700 
 3108      00000201 
 3108      FB0E0D00 
 3108      01010101 
 3109              	.LASF56:
 3110 0000 76617246 		.ascii	"varFlash\000"
 3110      6C617368 
 3110      00
 3111              	.LASF35:
 3112 0009 4359424C 		.ascii	"CYBLE_ERROR_L2CAP_PSM_NOT_REGISTERED\000"
 3112      455F4552 
ARM GAS  C:\Users\Toshiba\AppData\Local\Temp\ccUpswI6.s 			page 68


 3112      524F525F 
 3112      4C324341 
 3112      505F5053 
 3113              	.LASF34:
 3114 002e 4359424C 		.ascii	"CYBLE_ERROR_L2CAP_PSM_ALREADY_REGISTERED\000"
 3114      455F4552 
 3114      524F525F 
 3114      4C324341 
 3114      505F5053 
 3115              	.LASF106:
 3116 0057 4379426C 		.ascii	"CyBle_Hal_se_smp_sc_user_passkey_handler\000"
 3116      655F4861 
 3116      6C5F7365 
 3116      5F736D70 
 3116      5F73635F 
 3117              	.LASF71:
 3118 0080 626C6573 		.ascii	"blessAddr\000"
 3118      73416464 
 3118      7200
 3119              	.LASF30:
 3120 008a 4359424C 		.ascii	"CYBLE_ERROR_TX_POWER_READ\000"
 3120      455F4552 
 3120      524F525F 
 3120      54585F50 
 3120      4F574552 
 3121              	.LASF75:
 3122 00a4 4379424C 		.ascii	"CyBLE_Bless_RfRegRead\000"
 3122      455F426C 
 3122      6573735F 
 3122      52665265 
 3122      67526561 
 3123              	.LASF37:
 3124 00ba 4359424C 		.ascii	"CYBLE_ERROR_L2CAP_CHANNEL_NOT_FOUND\000"
 3124      455F4552 
 3124      524F525F 
 3124      4C324341 
 3124      505F4348 
 3125              	.LASF101:
 3126 00de 4379426C 		.ascii	"CyBle_Hal_pairing_sc_tbx_generate_local_P256_public"
 3126      655F4861 
 3126      6C5F7061 
 3126      6972696E 
 3126      675F7363 
 3127 0111 5F6B6579 		.ascii	"_key\000"
 3127      00
 3128              	.LASF2:
 3129 0116 73686F72 		.ascii	"short int\000"
 3129      7420696E 
 3129      7400
 3130              	.LASF19:
 3131 0120 73697A65 		.ascii	"sizetype\000"
 3131      74797065 
 3131      00
 3132              	.LASF60:
 3133 0129 64737449 		.ascii	"dstIndex\000"
 3133      6E646578 
 3133      00
ARM GAS  C:\Users\Toshiba\AppData\Local\Temp\ccUpswI6.s 			page 69


 3134              	.LASF20:
 3135 0132 4359424C 		.ascii	"CYBLE_ERROR_OK\000"
 3135      455F4552 
 3135      524F525F 
 3135      4F4B00
 3136              	.LASF46:
 3137 0141 4359424C 		.ascii	"CYBLE_ERROR_LL_SAME_TRANSACTION_COLLISION\000"
 3137      455F4552 
 3137      524F525F 
 3137      4C4C5F53 
 3137      414D455F 
 3138              	.LASF57:
 3139 016b 6C656E67 		.ascii	"length\000"
 3139      746800
 3140              	.LASF41:
 3141 0172 4359424C 		.ascii	"CYBLE_ERROR_FLASH_WRITE_NOT_PERMITED\000"
 3141      455F4552 
 3141      524F525F 
 3141      464C4153 
 3141      485F5752 
 3142              	.LASF43:
 3143 0197 4359424C 		.ascii	"CYBLE_ERROR_HARDWARE_FAILURE\000"
 3143      455F4552 
 3143      524F525F 
 3143      48415244 
 3143      57415245 
 3144              	.LASF105:
 3145 01b4 4379426C 		.ascii	"CyBle_Hal_smp_sc_cmac_complete\000"
 3145      655F4861 
 3145      6C5F736D 
 3145      705F7363 
 3145      5F636D61 
 3146              	.LASF42:
 3147 01d3 4359424C 		.ascii	"CYBLE_ERROR_MIC_AUTH_FAILED\000"
 3147      455F4552 
 3147      524F525F 
 3147      4D49435F 
 3147      41555448 
 3148              	.LASF111:
 3149 01ef 47656E65 		.ascii	"Generated_Source\\PSoC4\\BLE_HAL_PVT.c\000"
 3149      72617465 
 3149      645F536F 
 3149      75726365 
 3149      5C50536F 
 3150              	.LASF21:
 3151 0214 4359424C 		.ascii	"CYBLE_ERROR_INVALID_PARAMETER\000"
 3151      455F4552 
 3151      524F525F 
 3151      494E5641 
 3151      4C49445F 
 3152              	.LASF25:
 3153 0232 4359424C 		.ascii	"CYBLE_ERROR_OOB_NOT_AVAILABLE\000"
 3153      455F4552 
 3153      524F525F 
 3153      4F4F425F 
 3153      4E4F545F 
 3154              	.LASF96:
ARM GAS  C:\Users\Toshiba\AppData\Local\Temp\ccUpswI6.s 			page 70


 3155 0250 4379426C 		.ascii	"CyBle_Hal_pairing_confirm_handler\000"
 3155      655F4861 
 3155      6C5F7061 
 3155      6972696E 
 3155      675F636F 
 3156              	.LASF68:
 3157 0272 666C6173 		.ascii	"flashBuffer\000"
 3157      68427566 
 3157      66657200 
 3158              	.LASF22:
 3159 027e 4359424C 		.ascii	"CYBLE_ERROR_INVALID_OPERATION\000"
 3159      455F4552 
 3159      524F525F 
 3159      494E5641 
 3159      4C49445F 
 3160              	.LASF88:
 3161 029c 4359424C 		.ascii	"CYBLE_BlessStart\000"
 3161      455F426C 
 3161      65737353 
 3161      74617274 
 3161      00
 3162              	.LASF112:
 3163 02ad 433A5C55 		.ascii	"C:\\Users\\Toshiba\\Documents\\Repositories\\hackAI"
 3163      73657273 
 3163      5C546F73 
 3163      68696261 
 3163      5C446F63 
 3164 02db 522D5053 		.ascii	"R-PSoC\\PPD42 - Led Dust Sensor\\PSoC Firmware\\PSo"
 3164      6F435C50 
 3164      50443432 
 3164      202D204C 
 3164      65642044 
 3165 030b 43204372 		.ascii	"C Creator Project\\PwmLedSensor_PPD42.cydsn\000"
 3165      6561746F 
 3165      72205072 
 3165      6F6A6563 
 3165      745C5077 
 3166              	.LASF69:
 3167 0336 6C656E67 		.ascii	"lengthFlash\000"
 3167      7468466C 
 3167      61736800 
 3168              	.LASF54:
 3169 0342 4359424C 		.ascii	"CYBLE_API_RESULT_T\000"
 3169      455F4150 
 3169      495F5245 
 3169      53554C54 
 3169      5F5400
 3170              	.LASF72:
 3171 0355 72656756 		.ascii	"regValue\000"
 3171      616C7565 
 3171      00
 3172              	.LASF94:
 3173 035e 4379426C 		.ascii	"CyBle_Hal_pairing_keypress_notification_handler\000"
 3173      655F4861 
 3173      6C5F7061 
 3173      6972696E 
 3173      675F6B65 
ARM GAS  C:\Users\Toshiba\AppData\Local\Temp\ccUpswI6.s 			page 71


 3174              	.LASF100:
 3175 038e 4379426C 		.ascii	"CyBle_Hal_pairing_sc_tbx_local_pubkey_generate_comp"
 3175      655F4861 
 3175      6C5F7061 
 3175      6972696E 
 3175      675F7363 
 3176 03c1 6C657465 		.ascii	"lete\000"
 3176      00
 3177              	.LASF26:
 3178 03c6 4359424C 		.ascii	"CYBLE_ERROR_NO_CONNECTION\000"
 3178      455F4552 
 3178      524F525F 
 3178      4E4F5F43 
 3178      4F4E4E45 
 3179              	.LASF109:
 3180 03e0 424C455F 		.ascii	"BLE_CMP_FTR_API_lec_hci_handle_generate_DHkey_comma"
 3180      434D505F 
 3180      4654525F 
 3180      4150495F 
 3180      6C65635F 
 3181 0413 6E6400   		.ascii	"nd\000"
 3182              	.LASF24:
 3183 0416 4359424C 		.ascii	"CYBLE_ERROR_INSUFFICIENT_RESOURCES\000"
 3183      455F4552 
 3183      524F525F 
 3183      494E5355 
 3183      46464943 
 3184              	.LASF12:
 3185 0439 666C6F61 		.ascii	"float\000"
 3185      7400
 3186              	.LASF6:
 3187 043f 6C6F6E67 		.ascii	"long long int\000"
 3187      206C6F6E 
 3187      6720696E 
 3187      7400
 3188              	.LASF31:
 3189 044d 4359424C 		.ascii	"CYBLE_ERROR_BT_ON_NOT_COMPLETED\000"
 3189      455F4552 
 3189      524F525F 
 3189      42545F4F 
 3189      4E5F4E4F 
 3190              	.LASF61:
 3191 046d 73726349 		.ascii	"srcIndex\000"
 3191      6E646578 
 3191      00
 3192              	.LASF79:
 3193 0476 7472696D 		.ascii	"trimRef34Val\000"
 3193      52656633 
 3193      3456616C 
 3193      00
 3194              	.LASF4:
 3195 0483 6C6F6E67 		.ascii	"long int\000"
 3195      20696E74 
 3195      00
 3196              	.LASF80:
 3197 048c 7472696D 		.ascii	"trimRef38Val\000"
 3197      52656633 
ARM GAS  C:\Users\Toshiba\AppData\Local\Temp\ccUpswI6.s 			page 72


 3197      3856616C 
 3197      00
 3198              	.LASF64:
 3199 0499 726F7773 		.ascii	"rowsNotEqual\000"
 3199      4E6F7445 
 3199      7175616C 
 3199      00
 3200              	.LASF84:
 3201 04a6 4379426C 		.ascii	"CyBleHal_DelayMs\000"
 3201      6548616C 
 3201      5F44656C 
 3201      61794D73 
 3201      00
 3202              	.LASF28:
 3203 04b7 4359424C 		.ascii	"CYBLE_ERROR_REPEATED_ATTEMPTS\000"
 3203      455F4552 
 3203      524F525F 
 3203      52455045 
 3203      41544544 
 3204              	.LASF59:
 3205 04d5 726F7749 		.ascii	"rowId\000"
 3205      6400
 3206              	.LASF73:
 3207 04db 4379424C 		.ascii	"CyBLE_Bless_LlRegRead\000"
 3207      455F426C 
 3207      6573735F 
 3207      4C6C5265 
 3207      67526561 
 3208              	.LASF110:
 3209 04f1 474E5520 		.ascii	"GNU C11 5.4.1 20160609 (release) [ARM/embedded-5-br"
 3209      43313120 
 3209      352E342E 
 3209      31203230 
 3209      31363036 
 3210 0524 616E6368 		.ascii	"anch revision 237715] -mcpu=cortex-m0 -mthumb -g -O"
 3210      20726576 
 3210      6973696F 
 3210      6E203233 
 3210      37373135 
 3211 0557 30202D66 		.ascii	"0 -ffunction-sections -ffat-lto-objects\000"
 3211      66756E63 
 3211      74696F6E 
 3211      2D736563 
 3211      74696F6E 
 3212              	.LASF65:
 3213 057f 4379424C 		.ascii	"CyBLE_Nvram_Write\000"
 3213      455F4E76 
 3213      72616D5F 
 3213      57726974 
 3213      6500
 3214              	.LASF18:
 3215 0591 6C6F6E67 		.ascii	"long double\000"
 3215      20646F75 
 3215      626C6500 
 3216              	.LASF27:
 3217 059d 4359424C 		.ascii	"CYBLE_ERROR_NO_DEVICE_ENTITY\000"
 3217      455F4552 
ARM GAS  C:\Users\Toshiba\AppData\Local\Temp\ccUpswI6.s 			page 73


 3217      524F525F 
 3217      4E4F5F44 
 3217      45564943 
 3218              	.LASF1:
 3219 05ba 756E7369 		.ascii	"unsigned char\000"
 3219      676E6564 
 3219      20636861 
 3219      7200
 3220              	.LASF45:
 3221 05c8 4359424C 		.ascii	"CYBLE_ERROR_FLASH_WRITE\000"
 3221      455F4552 
 3221      524F525F 
 3221      464C4153 
 3221      485F5752 
 3222              	.LASF58:
 3223 05e0 77726974 		.ascii	"writeBuffer\000"
 3223      65427566 
 3223      66657200 
 3224              	.LASF97:
 3225 05ec 4379426C 		.ascii	"CyBle_Hal_pairing_lr_confirming_handler\000"
 3225      655F4861 
 3225      6C5F7061 
 3225      6972696E 
 3225      675F6C72 
 3226              	.LASF0:
 3227 0614 7369676E 		.ascii	"signed char\000"
 3227      65642063 
 3227      68617200 
 3228              	.LASF7:
 3229 0620 6C6F6E67 		.ascii	"long long unsigned int\000"
 3229      206C6F6E 
 3229      6720756E 
 3229      7369676E 
 3229      65642069 
 3230              	.LASF82:
 3231 0637 4379426C 		.ascii	"CyBleHal_DelayUs\000"
 3231      6548616C 
 3231      5F44656C 
 3231      61795573 
 3231      00
 3232              	.LASF32:
 3233 0648 4359424C 		.ascii	"CYBLE_ERROR_SEC_FAILED\000"
 3233      455F4552 
 3233      524F525F 
 3233      5345435F 
 3233      4641494C 
 3234              	.LASF29:
 3235 065f 4359424C 		.ascii	"CYBLE_ERROR_GAP_ROLE\000"
 3235      455F4552 
 3235      524F525F 
 3235      4741505F 
 3235      524F4C45 
 3236              	.LASF8:
 3237 0674 756E7369 		.ascii	"unsigned int\000"
 3237      676E6564 
 3237      20696E74 
 3237      00
ARM GAS  C:\Users\Toshiba\AppData\Local\Temp\ccUpswI6.s 			page 74


 3238              	.LASF33:
 3239 0681 4359424C 		.ascii	"CYBLE_ERROR_L2CAP_PSM_WRONG_ENCODING\000"
 3239      455F4552 
 3239      524F525F 
 3239      4C324341 
 3239      505F5053 
 3240              	.LASF15:
 3241 06a6 63797374 		.ascii	"cystatus\000"
 3241      61747573 
 3241      00
 3242              	.LASF86:
 3243 06af 4379426C 		.ascii	"CyBleHal_DisableGlobalInterrupts\000"
 3243      6548616C 
 3243      5F446973 
 3243      61626C65 
 3243      476C6F62 
 3244              	.LASF76:
 3245 06d0 4379424C 		.ascii	"CyBLE_Bless_RfRegWrite\000"
 3245      455F426C 
 3245      6573735F 
 3245      52665265 
 3245      67577269 
 3246              	.LASF103:
 3247 06e7 70617261 		.ascii	"param1\000"
 3247      6D3100
 3248              	.LASF104:
 3249 06ee 70617261 		.ascii	"param2\000"
 3249      6D3200
 3250              	.LASF17:
 3251 06f5 72656733 		.ascii	"reg32\000"
 3251      3200
 3252              	.LASF51:
 3253 06fb 4359424C 		.ascii	"CYBLE_ERROR_CHAR_IS_NOT_DISCOVERED\000"
 3253      455F4552 
 3253      524F525F 
 3253      43484152 
 3253      5F49535F 
 3254              	.LASF3:
 3255 071e 73686F72 		.ascii	"short unsigned int\000"
 3255      7420756E 
 3255      7369676E 
 3255      65642069 
 3255      6E7400
 3256              	.LASF90:
 3257 0731 70617261 		.ascii	"param\000"
 3257      6D00
 3258              	.LASF70:
 3259 0737 6C656E67 		.ascii	"lengthRemaining\000"
 3259      74685265 
 3259      6D61696E 
 3259      696E6700 
 3260              	.LASF14:
 3261 0747 63686172 		.ascii	"char\000"
 3261      00
 3262              	.LASF78:
 3263 074c 7472696D 		.ascii	"trimRegValue\000"
 3263      52656756 
ARM GAS  C:\Users\Toshiba\AppData\Local\Temp\ccUpswI6.s 			page 75


 3263      616C7565 
 3263      00
 3264              	.LASF53:
 3265 0759 4359424C 		.ascii	"CYBLE_ERROR_STACK_BUSY\000"
 3265      455F4552 
 3265      524F525F 
 3265      53544143 
 3265      4B5F4255 
 3266              	.LASF47:
 3267 0770 4359424C 		.ascii	"CYBLE_ERROR_CONTROLLER_BUSY\000"
 3267      455F4552 
 3267      524F525F 
 3267      434F4E54 
 3267      524F4C4C 
 3268              	.LASF52:
 3269 078c 4359424C 		.ascii	"CYBLE_ERROR_INVALID_STATE\000"
 3269      455F4552 
 3269      524F525F 
 3269      494E5641 
 3269      4C49445F 
 3270              	.LASF81:
 3271 07a6 73696C69 		.ascii	"siliconRev\000"
 3271      636F6E52 
 3271      657600
 3272              	.LASF91:
 3273 07b1 4379426C 		.ascii	"CyBle_Hal_pairing_remote_key_handler\000"
 3273      655F4861 
 3273      6C5F7061 
 3273      6972696E 
 3273      675F7265 
 3274              	.LASF9:
 3275 07d6 75696E74 		.ascii	"uint8\000"
 3275      3800
 3276              	.LASF23:
 3277 07dc 4359424C 		.ascii	"CYBLE_ERROR_MEMORY_ALLOCATION_FAILED\000"
 3277      455F4552 
 3277      524F525F 
 3277      4D454D4F 
 3277      52595F41 
 3278              	.LASF44:
 3279 0801 4359424C 		.ascii	"CYBLE_ERROR_UNSUPPORTED_FEATURE_OR_PARAMETER_VALUE\000"
 3279      455F4552 
 3279      524F525F 
 3279      554E5355 
 3279      50504F52 
 3280              	.LASF107:
 3281 0834 4379426C 		.ascii	"CyBle_Hal_EccPointMult\000"
 3281      655F4861 
 3281      6C5F4563 
 3281      63506F69 
 3281      6E744D75 
 3282              	.LASF10:
 3283 084b 75696E74 		.ascii	"uint16\000"
 3283      313600
 3284              	.LASF55:
 3285 0852 62756666 		.ascii	"buffer\000"
 3285      657200
ARM GAS  C:\Users\Toshiba\AppData\Local\Temp\ccUpswI6.s 			page 76


 3286              	.LASF11:
 3287 0859 75696E74 		.ascii	"uint32\000"
 3287      333200
 3288              	.LASF16:
 3289 0860 72656738 		.ascii	"reg8\000"
 3289      00
 3290              	.LASF5:
 3291 0865 6C6F6E67 		.ascii	"long unsigned int\000"
 3291      20756E73 
 3291      69676E65 
 3291      6420696E 
 3291      7400
 3292              	.LASF93:
 3293 0877 4379426C 		.ascii	"CyBle_Hal_pairing_dhkey_check_handler\000"
 3293      655F4861 
 3293      6C5F7061 
 3293      6972696E 
 3293      675F6468 
 3294              	.LASF39:
 3295 089d 4359424C 		.ascii	"CYBLE_ERROR_GATT_DB_INVALID_ATTR_HANDLE\000"
 3295      455F4552 
 3295      524F525F 
 3295      47415454 
 3295      5F44425F 
 3296              	.LASF67:
 3297 08c5 74656D70 		.ascii	"tempFlash\000"
 3297      466C6173 
 3297      6800
 3298              	.LASF66:
 3299 08cf 4379424C 		.ascii	"CyBLE_Nvram_Erase\000"
 3299      455F4E76 
 3299      72616D5F 
 3299      45726173 
 3299      6500
 3300              	.LASF38:
 3301 08e1 4359424C 		.ascii	"CYBLE_ERROR_L2CAP_PSM_NOT_IN_RANGE\000"
 3301      455F4552 
 3301      524F525F 
 3301      4C324341 
 3301      505F5053 
 3302              	.LASF95:
 3303 0904 4379426C 		.ascii	"CyBle_Hal_pairing_rand_handler\000"
 3303      655F4861 
 3303      6C5F7061 
 3303      6972696E 
 3303      675F7261 
 3304              	.LASF92:
 3305 0923 4379426C 		.ascii	"CyBle_Hal_pairing_dhkey_handler\000"
 3305      655F4861 
 3305      6C5F7061 
 3305      6972696E 
 3305      675F6468 
 3306              	.LASF89:
 3307 0943 4379426C 		.ascii	"CyBle_Hal_pairing_local_public_key_handler\000"
 3307      655F4861 
 3307      6C5F7061 
 3307      6972696E 
ARM GAS  C:\Users\Toshiba\AppData\Local\Temp\ccUpswI6.s 			page 77


 3307      675F6C6F 
 3308              	.LASF98:
 3309 096e 4379426C 		.ascii	"CyBle_Hal_pairing_sc_tbx_dhkey_generate_complete\000"
 3309      655F4861 
 3309      6C5F7061 
 3309      6972696E 
 3309      675F7363 
 3310              	.LASF83:
 3311 099f 64656C61 		.ascii	"delayVal\000"
 3311      7956616C 
 3311      00
 3312              	.LASF99:
 3313 09a8 4379424C 		.ascii	"CyBLE_GetIpBlockVersion\000"
 3313      455F4765 
 3313      74497042 
 3313      6C6F636B 
 3313      56657273 
 3314              	.LASF49:
 3315 09c0 4359424C 		.ascii	"CYBLE_ERROR_NTF_DISABLED\000"
 3315      455F4552 
 3315      524F525F 
 3315      4E54465F 
 3315      44495341 
 3316              	.LASF85:
 3317 09d9 4379426C 		.ascii	"CyBleHal_EnableGlobalInterrupts\000"
 3317      6548616C 
 3317      5F456E61 
 3317      626C6547 
 3317      6C6F6261 
 3318              	.LASF40:
 3319 09f9 4359424C 		.ascii	"CYBLE_ERROR_DEVICE_ALREADY_EXISTS\000"
 3319      455F4552 
 3319      524F525F 
 3319      44455649 
 3319      43455F41 
 3320              	.LASF77:
 3321 0a1b 4379424C 		.ascii	"CyBLE_BlessDeviceConfig\000"
 3321      455F426C 
 3321      65737344 
 3321      65766963 
 3321      65436F6E 
 3322              	.LASF63:
 3323 0a33 62797465 		.ascii	"byteOffset\000"
 3323      4F666673 
 3323      657400
 3324              	.LASF48:
 3325 0a3e 4359424C 		.ascii	"CYBLE_ERROR_MAX\000"
 3325      455F4552 
 3325      524F525F 
 3325      4D415800 
 3326              	.LASF87:
 3327 0a4e 4379426C 		.ascii	"CyBle_HalInit\000"
 3327      655F4861 
 3327      6C496E69 
 3327      7400
 3328              	.LASF13:
 3329 0a5c 646F7562 		.ascii	"double\000"
ARM GAS  C:\Users\Toshiba\AppData\Local\Temp\ccUpswI6.s 			page 78


 3329      6C6500
 3330              	.LASF108:
 3331 0a63 424C455F 		.ascii	"BLE_CMP_FTR_API_lec_hci_handle_read_local_P256_publ"
 3331      434D505F 
 3331      4654525F 
 3331      4150495F 
 3331      6C65635F 
 3332 0a96 69635F6B 		.ascii	"ic_key_command\000"
 3332      65795F63 
 3332      6F6D6D61 
 3332      6E6400
 3333              	.LASF74:
 3334 0aa5 4379424C 		.ascii	"CyBLE_Bless_LlRegWrite\000"
 3334      455F426C 
 3334      6573735F 
 3334      4C6C5265 
 3334      67577269 
 3335              	.LASF102:
 3336 0abc 4379426C 		.ascii	"CyBle_Hal_pairing_sc_tbx_generate_DHkey\000"
 3336      655F4861 
 3336      6C5F7061 
 3336      6972696E 
 3336      675F7363 
 3337              	.LASF36:
 3338 0ae4 4359424C 		.ascii	"CYBLE_ERROR_L2CAP_CONNECTION_ENTITY_NOT_FOUND\000"
 3338      455F4552 
 3338      524F525F 
 3338      4C324341 
 3338      505F434F 
 3339              	.LASF50:
 3340 0b12 4359424C 		.ascii	"CYBLE_ERROR_IND_DISABLED\000"
 3340      455F4552 
 3340      524F525F 
 3340      494E445F 
 3340      44495341 
 3341              	.LASF62:
 3342 0b2b 65654F66 		.ascii	"eeOffset\000"
 3342      66736574 
 3342      00
 3343              		.ident	"GCC: (GNU Tools for ARM Embedded Processors) 5.4.1 20160609 (release) [ARM/embedded-5-bran
