ARM GAS  C:\Users\Toshiba\AppData\Local\Temp\ccDzK1Zy.s 			page 1


   1              		.syntax unified
   2              		.cpu cortex-m0
   3              		.fpu softvfp
   4              		.eabi_attribute 20, 1
   5              		.eabi_attribute 21, 1
   6              		.eabi_attribute 23, 3
   7              		.eabi_attribute 24, 1
   8              		.eabi_attribute 25, 1
   9              		.eabi_attribute 26, 1
  10              		.eabi_attribute 30, 6
  11              		.eabi_attribute 34, 0
  12              		.eabi_attribute 18, 4
  13              		.thumb
  14              		.syntax unified
  15              		.file	"CyLib.c"
  16              		.text
  17              	.Ltext0:
  18              		.cfi_sections	.debug_frame
  19              		.global	cydelayFreqHz
  20              		.data
  21              		.align	2
  22              		.type	cydelayFreqHz, %object
  23              		.size	cydelayFreqHz, 4
  24              	cydelayFreqHz:
  25 0000 006CDC02 		.word	48000000
  26              		.global	cydelayFreqKhz
  27              		.align	2
  28              		.type	cydelayFreqKhz, %object
  29              		.size	cydelayFreqKhz, 4
  30              	cydelayFreqKhz:
  31 0004 80BB0000 		.word	48000
  32              		.global	cydelayFreqMhz
  33              		.type	cydelayFreqMhz, %object
  34              		.size	cydelayFreqMhz, 1
  35              	cydelayFreqMhz:
  36 0008 30       		.byte	48
  37              		.global	cydelay32kMs
  38 0009 000000   		.align	2
  39              		.type	cydelay32kMs, %object
  40              		.size	cydelay32kMs, 4
  41              	cydelay32kMs:
  42 000c 0000C05D 		.word	1572864000
  43              		.bss
  44              		.align	2
  45              	CySysTickCallbacks:
  46 0000 00000000 		.space	20
  46      00000000 
  46      00000000 
  46      00000000 
  46      00000000 
  47              		.global	CySysTickInitVar
  48              		.align	2
  49              		.type	CySysTickInitVar, %object
  50              		.size	CySysTickInitVar, 4
  51              	CySysTickInitVar:
  52 0014 00000000 		.space	4
  53              		.global	cyImoFreqMhz2Reg
ARM GAS  C:\Users\Toshiba\AppData\Local\Temp\ccDzK1Zy.s 			page 2


  54              		.section	.rodata
  55              		.align	2
  56              		.type	cyImoFreqMhz2Reg, %object
  57              		.size	cyImoFreqMhz2Reg, 46
  58              	cyImoFreqMhz2Reg:
  59 0000 03       		.byte	3
  60 0001 04       		.byte	4
  61 0002 05       		.byte	5
  62 0003 06       		.byte	6
  63 0004 07       		.byte	7
  64 0005 08       		.byte	8
  65 0006 09       		.byte	9
  66 0007 0A       		.byte	10
  67 0008 0B       		.byte	11
  68 0009 0C       		.byte	12
  69 000a 0E       		.byte	14
  70 000b 0F       		.byte	15
  71 000c 10       		.byte	16
  72 000d 11       		.byte	17
  73 000e 12       		.byte	18
  74 000f 13       		.byte	19
  75 0010 14       		.byte	20
  76 0011 15       		.byte	21
  77 0012 16       		.byte	22
  78 0013 17       		.byte	23
  79 0014 18       		.byte	24
  80 0015 19       		.byte	25
  81 0016 1B       		.byte	27
  82 0017 1C       		.byte	28
  83 0018 1D       		.byte	29
  84 0019 1E       		.byte	30
  85 001a 1F       		.byte	31
  86 001b 20       		.byte	32
  87 001c 21       		.byte	33
  88 001d 22       		.byte	34
  89 001e 23       		.byte	35
  90 001f 25       		.byte	37
  91 0020 26       		.byte	38
  92 0021 27       		.byte	39
  93 0022 28       		.byte	40
  94 0023 29       		.byte	41
  95 0024 2A       		.byte	42
  96 0025 2B       		.byte	43
  97 0026 2E       		.byte	46
  98 0027 2F       		.byte	47
  99 0028 30       		.byte	48
 100 0029 31       		.byte	49
 101 002a 32       		.byte	50
 102 002b 33       		.byte	51
 103 002c 34       		.byte	52
 104 002d 35       		.byte	53
 105              		.global	CySysClkPumpConfig
 106              		.data
 107              		.align	2
 108              		.type	CySysClkPumpConfig, %object
 109              		.size	CySysClkPumpConfig, 4
 110              	CySysClkPumpConfig:
ARM GAS  C:\Users\Toshiba\AppData\Local\Temp\ccDzK1Zy.s 			page 3


 111 0010 01000000 		.word	1
 112              		.section	.text.CySysClkImoStart,"ax",%progbits
 113              		.align	2
 114              		.global	CySysClkImoStart
 115              		.code	16
 116              		.thumb_func
 117              		.type	CySysClkImoStart, %function
 118              	CySysClkImoStart:
 119              	.LFB2:
 120              		.file 1 "Generated_Source\\PSoC4\\CyLib.c"
   1:Generated_Source\PSoC4/CyLib.c **** /***************************************************************************//**
   2:Generated_Source\PSoC4/CyLib.c **** * \file CyLib.c
   3:Generated_Source\PSoC4/CyLib.c **** * \version 5.60
   4:Generated_Source\PSoC4/CyLib.c **** *
   5:Generated_Source\PSoC4/CyLib.c **** * \brief Provides a system API for the Clocking, Interrupts, SysTick, and
   6:Generated_Source\PSoC4/CyLib.c **** * Voltage Detect.
   7:Generated_Source\PSoC4/CyLib.c **** *
   8:Generated_Source\PSoC4/CyLib.c **** * \note Documentation of the API's in this file is located in the PSoC 4 System
   9:Generated_Source\PSoC4/CyLib.c **** * Reference Guide provided with PSoC Creator.
  10:Generated_Source\PSoC4/CyLib.c **** *
  11:Generated_Source\PSoC4/CyLib.c **** ********************************************************************************
  12:Generated_Source\PSoC4/CyLib.c **** * \copyright
  13:Generated_Source\PSoC4/CyLib.c **** * Copyright 2010-2017, Cypress Semiconductor Corporation.  All rights reserved.
  14:Generated_Source\PSoC4/CyLib.c **** * You may use this file only in accordance with the license, terms, conditions,
  15:Generated_Source\PSoC4/CyLib.c **** * disclaimers, and limitations in the end user license agreement accompanying
  16:Generated_Source\PSoC4/CyLib.c **** * the software package with which this file was provided.
  17:Generated_Source\PSoC4/CyLib.c **** *******************************************************************************/
  18:Generated_Source\PSoC4/CyLib.c **** 
  19:Generated_Source\PSoC4/CyLib.c **** #include "CyLib.h"
  20:Generated_Source\PSoC4/CyLib.c **** 
  21:Generated_Source\PSoC4/CyLib.c **** /* CySysClkWriteImoFreq() || CySysClkImoEnableWcoLock() */
  22:Generated_Source\PSoC4/CyLib.c **** #if ((CY_IP_SRSSV2 && CY_IP_FMLT) || CY_IP_IMO_TRIMMABLE_BY_WCO)
  23:Generated_Source\PSoC4/CyLib.c ****     #include "CyFlash.h"
  24:Generated_Source\PSoC4/CyLib.c **** #endif /* (CY_IP_SRSSV2 && CY_IP_FMLT) */
  25:Generated_Source\PSoC4/CyLib.c **** 
  26:Generated_Source\PSoC4/CyLib.c **** /* Do not use these definitions directly in your application */
  27:Generated_Source\PSoC4/CyLib.c **** uint32 cydelayFreqHz  = CYDEV_BCLK__SYSCLK__HZ;
  28:Generated_Source\PSoC4/CyLib.c **** uint32 cydelayFreqKhz = (CYDEV_BCLK__SYSCLK__HZ + CY_DELAY_1K_MINUS_1_THRESHOLD) / CY_DELAY_1K_THRE
  29:Generated_Source\PSoC4/CyLib.c **** uint8  cydelayFreqMhz = (uint8)((CYDEV_BCLK__SYSCLK__HZ + CY_DELAY_1M_MINUS_1_THRESHOLD) / CY_DELAY
  30:Generated_Source\PSoC4/CyLib.c **** uint32 cydelay32kMs   = CY_DELAY_MS_OVERFLOW * ((CYDEV_BCLK__SYSCLK__HZ + CY_DELAY_1K_MINUS_1_THRES
  31:Generated_Source\PSoC4/CyLib.c ****                         CY_DELAY_1K_THRESHOLD);
  32:Generated_Source\PSoC4/CyLib.c **** 
  33:Generated_Source\PSoC4/CyLib.c **** 
  34:Generated_Source\PSoC4/CyLib.c **** static cySysTickCallback CySysTickCallbacks[CY_SYS_SYST_NUM_OF_CALLBACKS];
  35:Generated_Source\PSoC4/CyLib.c **** static void CySysTickServiceCallbacks(void);
  36:Generated_Source\PSoC4/CyLib.c **** 
  37:Generated_Source\PSoC4/CyLib.c **** #if (CY_IP_SRSSV2 && CY_IP_PLL)
  38:Generated_Source\PSoC4/CyLib.c ****     static uint32 CySysClkPllGetBypassMode(uint32 pll);
  39:Generated_Source\PSoC4/CyLib.c ****     static cystatus CySysClkPllConfigChangeAllowed(uint32 pll);
  40:Generated_Source\PSoC4/CyLib.c **** #endif /* #if (CY_IP_SRSSV2 && CY_IP_PLL) */
  41:Generated_Source\PSoC4/CyLib.c **** 
  42:Generated_Source\PSoC4/CyLib.c **** 
  43:Generated_Source\PSoC4/CyLib.c **** /***************************************************************************//**
  44:Generated_Source\PSoC4/CyLib.c **** * Indicates whether or not the SysTick has been initialized. The variable is
  45:Generated_Source\PSoC4/CyLib.c **** * initialized to 0 and set to 1 the first time CySysTickStart() is called.
  46:Generated_Source\PSoC4/CyLib.c **** *
  47:Generated_Source\PSoC4/CyLib.c **** * This allows the component to restart without reinitialization after the first
ARM GAS  C:\Users\Toshiba\AppData\Local\Temp\ccDzK1Zy.s 			page 4


  48:Generated_Source\PSoC4/CyLib.c **** * call to the CySysTickStart() routine.
  49:Generated_Source\PSoC4/CyLib.c **** *
  50:Generated_Source\PSoC4/CyLib.c **** * If reinitialization of the SysTick is required, call CySysTickInit() before
  51:Generated_Source\PSoC4/CyLib.c **** * calling CySysTickStart(). Alternatively, the SysTick can be reinitialized by
  52:Generated_Source\PSoC4/CyLib.c **** * calling the CySysTickInit() and CySysTickEnable() functions.
  53:Generated_Source\PSoC4/CyLib.c **** *******************************************************************************/
  54:Generated_Source\PSoC4/CyLib.c **** uint32 CySysTickInitVar = 0u;
  55:Generated_Source\PSoC4/CyLib.c **** 
  56:Generated_Source\PSoC4/CyLib.c **** 
  57:Generated_Source\PSoC4/CyLib.c **** #if(CY_IP_SRSSV2)
  58:Generated_Source\PSoC4/CyLib.c ****         /* Conversion between CySysClkWriteImoFreq() parameter and register's value */
  59:Generated_Source\PSoC4/CyLib.c ****         const uint8 cyImoFreqMhz2Reg[CY_SYS_CLK_IMO_FREQ_TABLE_SIZE] = {
  60:Generated_Source\PSoC4/CyLib.c ****             /*  3 MHz */ 0x03u,  /*  4 MHz */ 0x04u,  /*  5 MHz */ 0x05u,  /*  6 MHz */ 0x06u,
  61:Generated_Source\PSoC4/CyLib.c ****             /*  7 MHz */ 0x07u,  /*  8 MHz */ 0x08u,  /*  9 MHz */ 0x09u,  /* 10 MHz */ 0x0Au,
  62:Generated_Source\PSoC4/CyLib.c ****             /* 11 MHz */ 0x0Bu,  /* 12 MHz */ 0x0Cu,  /* 13 MHz */ 0x0Eu,  /* 14 MHz */ 0x0Fu,
  63:Generated_Source\PSoC4/CyLib.c ****             /* 15 MHz */ 0x10u,  /* 16 MHz */ 0x11u,  /* 17 MHz */ 0x12u,  /* 18 MHz */ 0x13u,
  64:Generated_Source\PSoC4/CyLib.c ****             /* 19 MHz */ 0x14u,  /* 20 MHz */ 0x15u,  /* 21 MHz */ 0x16u,  /* 22 MHz */ 0x17u,
  65:Generated_Source\PSoC4/CyLib.c ****             /* 23 MHz */ 0x18u,  /* 24 MHz */ 0x19u,  /* 25 MHz */ 0x1Bu,  /* 26 MHz */ 0x1Cu,
  66:Generated_Source\PSoC4/CyLib.c ****             /* 27 MHz */ 0x1Du,  /* 28 MHz */ 0x1Eu,  /* 29 MHz */ 0x1Fu,  /* 30 MHz */ 0x20u,
  67:Generated_Source\PSoC4/CyLib.c ****             /* 31 MHz */ 0x21u,  /* 32 MHz */ 0x22u,  /* 33 MHz */ 0x23u,  /* 34 MHz */ 0x25u,
  68:Generated_Source\PSoC4/CyLib.c ****             /* 35 MHz */ 0x26u,  /* 36 MHz */ 0x27u,  /* 37 MHz */ 0x28u,  /* 38 MHz */ 0x29u,
  69:Generated_Source\PSoC4/CyLib.c ****             /* 39 MHz */ 0x2Au,  /* 40 MHz */ 0x2Bu,  /* 41 MHz */ 0x2Eu,  /* 42 MHz */ 0x2Fu,
  70:Generated_Source\PSoC4/CyLib.c ****             /* 43 MHz */ 0x30u,  /* 44 MHz */ 0x31u,  /* 45 MHz */ 0x32u,  /* 46 MHz */ 0x33u,
  71:Generated_Source\PSoC4/CyLib.c ****             /* 47 MHz */ 0x34u,  /* 48 MHz */ 0x35u };
  72:Generated_Source\PSoC4/CyLib.c **** #endif /* (CY_IP_SRSSV2) */
  73:Generated_Source\PSoC4/CyLib.c **** 
  74:Generated_Source\PSoC4/CyLib.c **** #if (CY_IP_IMO_TRIMMABLE_BY_WCO)
  75:Generated_Source\PSoC4/CyLib.c ****         /* Conversion between IMO frequency and WCO DPLL max offset steps */
  76:Generated_Source\PSoC4/CyLib.c ****         const uint8 cyImoFreqMhz2DpllOffset[CY_SYS_CLK_IMO_FREQ_WCO_DPLL_TABLE_SIZE] = {
  77:Generated_Source\PSoC4/CyLib.c ****             /* 26 MHz */  238u, /* 27 MHz */  219u, /* 28 MHz */  201u, /* 29 MHz */  185u,
  78:Generated_Source\PSoC4/CyLib.c ****             /* 30 MHz */  170u, /* 31 MHz */  155u, /* 32 MHz */  142u, /* 33 MHz */  130u,
  79:Generated_Source\PSoC4/CyLib.c ****             /* 34 MHz */  118u, /* 35 MHz */  107u, /* 36 MHz */   96u, /* 37 MHz */  86u,
  80:Generated_Source\PSoC4/CyLib.c ****             /* 38 MHz */   77u, /* 39 MHz */   68u, /* 40 MHz */   59u, /* 41 MHz */  51u,
  81:Generated_Source\PSoC4/CyLib.c ****             /* 42 MHz */   44u, /* 43 MHz */   36u, /* 44 MHz */   29u, /* 45 MHz */  23u,
  82:Generated_Source\PSoC4/CyLib.c ****             /* 46 MHz */   16u, /* 47 MHz */   10u, /* 48 MHz */   4u };
  83:Generated_Source\PSoC4/CyLib.c **** #endif /* (CY_IP_IMO_TRIMMABLE_BY_WCO) */
  84:Generated_Source\PSoC4/CyLib.c **** 
  85:Generated_Source\PSoC4/CyLib.c **** /* Stored CY_SYS_CLK_IMO_TRIM4_REG when modified for USB lock */
  86:Generated_Source\PSoC4/CyLib.c **** #if (CY_IP_IMO_TRIMMABLE_BY_USB && CY_IP_SRSSV2)
  87:Generated_Source\PSoC4/CyLib.c ****     uint32 CySysClkImoTrim4 = 0u;
  88:Generated_Source\PSoC4/CyLib.c **** #endif /* (CY_IP_IMO_TRIMMABLE_BY_USB && CY_IP_SRSSV2) */
  89:Generated_Source\PSoC4/CyLib.c **** 
  90:Generated_Source\PSoC4/CyLib.c **** /* Stored PUMP_SEL configuration during disable (IMO output by default) */
  91:Generated_Source\PSoC4/CyLib.c **** uint32 CySysClkPumpConfig = CY_SYS_CLK_PUMP_ENABLE;
  92:Generated_Source\PSoC4/CyLib.c **** 
  93:Generated_Source\PSoC4/CyLib.c **** /*******************************************************************************
  94:Generated_Source\PSoC4/CyLib.c **** * Function Name: CySysClkImoStart
  95:Generated_Source\PSoC4/CyLib.c **** ****************************************************************************//**
  96:Generated_Source\PSoC4/CyLib.c **** *
  97:Generated_Source\PSoC4/CyLib.c **** * Enables the IMO.
  98:Generated_Source\PSoC4/CyLib.c **** *
  99:Generated_Source\PSoC4/CyLib.c **** * For PSoC 4100M / PSoC 4200M / PSoC 4000S / PSoC 4100S / PSoC 4400 devices,
 100:Generated_Source\PSoC4/CyLib.c **** * this function will also enable WCO lock if selected in the Design Wide
 101:Generated_Source\PSoC4/CyLib.c **** * Resources tab.
 102:Generated_Source\PSoC4/CyLib.c **** *
 103:Generated_Source\PSoC4/CyLib.c **** * For PSoC 4200L / devices, this function will also enable USB lock if selected
 104:Generated_Source\PSoC4/CyLib.c **** * in the Design Wide Resources tab.
ARM GAS  C:\Users\Toshiba\AppData\Local\Temp\ccDzK1Zy.s 			page 5


 105:Generated_Source\PSoC4/CyLib.c **** *
 106:Generated_Source\PSoC4/CyLib.c **** *******************************************************************************/
 107:Generated_Source\PSoC4/CyLib.c **** void CySysClkImoStart(void)
 108:Generated_Source\PSoC4/CyLib.c **** {
 121              		.loc 1 108 0
 122              		.cfi_startproc
 123              		@ args = 0, pretend = 0, frame = 0
 124              		@ frame_needed = 1, uses_anonymous_args = 0
 125 0000 80B5     		push	{r7, lr}
 126              		.cfi_def_cfa_offset 8
 127              		.cfi_offset 7, -8
 128              		.cfi_offset 14, -4
 129 0002 00AF     		add	r7, sp, #0
 130              		.cfi_def_cfa_register 7
 109:Generated_Source\PSoC4/CyLib.c ****     CY_SYS_CLK_IMO_CONFIG_REG |= CY_SYS_CLK_IMO_CONFIG_ENABLE;
 131              		.loc 1 109 0
 132 0004 044B     		ldr	r3, .L2
 133 0006 044A     		ldr	r2, .L2
 134 0008 1268     		ldr	r2, [r2]
 135 000a 8021     		movs	r1, #128
 136 000c 0906     		lsls	r1, r1, #24
 137 000e 0A43     		orrs	r2, r1
 138 0010 1A60     		str	r2, [r3]
 110:Generated_Source\PSoC4/CyLib.c **** 
 111:Generated_Source\PSoC4/CyLib.c ****     #if (CY_IP_IMO_TRIMMABLE_BY_WCO)
 112:Generated_Source\PSoC4/CyLib.c ****         #if (CYDEV_IMO_TRIMMED_BY_WCO == 1u)
 113:Generated_Source\PSoC4/CyLib.c ****             CySysClkImoEnableWcoLock();
 114:Generated_Source\PSoC4/CyLib.c ****         #endif  /* (CYDEV_IMO_TRIMMED_BY_WCO == 1u) */
 115:Generated_Source\PSoC4/CyLib.c ****     #endif  /* (CY_IP_IMO_TRIMMABLE_BY_WCO) */
 116:Generated_Source\PSoC4/CyLib.c **** 
 117:Generated_Source\PSoC4/CyLib.c **** 
 118:Generated_Source\PSoC4/CyLib.c ****     #if (CY_IP_IMO_TRIMMABLE_BY_USB)
 119:Generated_Source\PSoC4/CyLib.c ****         #if (CYDEV_IMO_TRIMMED_BY_USB == 1u)
 120:Generated_Source\PSoC4/CyLib.c ****             CySysClkImoEnableUsbLock();
 121:Generated_Source\PSoC4/CyLib.c ****         #endif  /* (CYDEV_IMO_TRIMMED_BY_USB == 1u) */
 122:Generated_Source\PSoC4/CyLib.c ****     #endif  /* (CY_IP_IMO_TRIMMABLE_BY_USB) */
 123:Generated_Source\PSoC4/CyLib.c **** 
 124:Generated_Source\PSoC4/CyLib.c **** }
 139              		.loc 1 124 0
 140 0012 C046     		nop
 141 0014 BD46     		mov	sp, r7
 142              		@ sp needed
 143 0016 80BD     		pop	{r7, pc}
 144              	.L3:
 145              		.align	2
 146              	.L2:
 147 0018 08010B40 		.word	1074462984
 148              		.cfi_endproc
 149              	.LFE2:
 150              		.size	CySysClkImoStart, .-CySysClkImoStart
 151              		.section	.text.CySysClkImoStop,"ax",%progbits
 152              		.align	2
 153              		.global	CySysClkImoStop
 154              		.code	16
 155              		.thumb_func
 156              		.type	CySysClkImoStop, %function
 157              	CySysClkImoStop:
ARM GAS  C:\Users\Toshiba\AppData\Local\Temp\ccDzK1Zy.s 			page 6


 158              	.LFB3:
 125:Generated_Source\PSoC4/CyLib.c **** 
 126:Generated_Source\PSoC4/CyLib.c **** 
 127:Generated_Source\PSoC4/CyLib.c **** /*******************************************************************************
 128:Generated_Source\PSoC4/CyLib.c **** * Function Name: CySysClkImoStop
 129:Generated_Source\PSoC4/CyLib.c **** ****************************************************************************//**
 130:Generated_Source\PSoC4/CyLib.c **** *
 131:Generated_Source\PSoC4/CyLib.c **** * Disables the IMO.
 132:Generated_Source\PSoC4/CyLib.c **** *
 133:Generated_Source\PSoC4/CyLib.c **** * For PSoC 4100M / PSoC 4200M / PSoC 4000S / PSoC 4100S / PSoC 4400 devices,
 134:Generated_Source\PSoC4/CyLib.c **** * this function will also disable WCO lock.
 135:Generated_Source\PSoC4/CyLib.c **** *
 136:Generated_Source\PSoC4/CyLib.c **** * For PSoC PSoC 4200L devices, this function will also disable USB lock.
 137:Generated_Source\PSoC4/CyLib.c **** *
 138:Generated_Source\PSoC4/CyLib.c **** *******************************************************************************/
 139:Generated_Source\PSoC4/CyLib.c **** void CySysClkImoStop(void)
 140:Generated_Source\PSoC4/CyLib.c **** {
 159              		.loc 1 140 0
 160              		.cfi_startproc
 161              		@ args = 0, pretend = 0, frame = 0
 162              		@ frame_needed = 1, uses_anonymous_args = 0
 163 0000 80B5     		push	{r7, lr}
 164              		.cfi_def_cfa_offset 8
 165              		.cfi_offset 7, -8
 166              		.cfi_offset 14, -4
 167 0002 00AF     		add	r7, sp, #0
 168              		.cfi_def_cfa_register 7
 141:Generated_Source\PSoC4/CyLib.c ****     #if (CY_IP_IMO_TRIMMABLE_BY_WCO)
 142:Generated_Source\PSoC4/CyLib.c ****         CySysClkImoDisableWcoLock();
 143:Generated_Source\PSoC4/CyLib.c ****     #endif  /* (CY_IP_IMO_TRIMMABLE_BY_WCO) */
 144:Generated_Source\PSoC4/CyLib.c **** 
 145:Generated_Source\PSoC4/CyLib.c ****     #if (CY_IP_IMO_TRIMMABLE_BY_USB)
 146:Generated_Source\PSoC4/CyLib.c ****         CySysClkImoDisableUsbLock();
 147:Generated_Source\PSoC4/CyLib.c ****     #endif  /* (CY_IP_IMO_TRIMMABLE_BY_USB) */
 148:Generated_Source\PSoC4/CyLib.c **** 
 149:Generated_Source\PSoC4/CyLib.c ****     CY_SYS_CLK_IMO_CONFIG_REG &= ( uint32 ) ( ~( uint32 )CY_SYS_CLK_IMO_CONFIG_ENABLE);
 169              		.loc 1 149 0
 170 0004 044B     		ldr	r3, .L5
 171 0006 044A     		ldr	r2, .L5
 172 0008 1268     		ldr	r2, [r2]
 173 000a 5200     		lsls	r2, r2, #1
 174 000c 5208     		lsrs	r2, r2, #1
 175 000e 1A60     		str	r2, [r3]
 150:Generated_Source\PSoC4/CyLib.c **** }
 176              		.loc 1 150 0
 177 0010 C046     		nop
 178 0012 BD46     		mov	sp, r7
 179              		@ sp needed
 180 0014 80BD     		pop	{r7, pc}
 181              	.L6:
 182 0016 C046     		.align	2
 183              	.L5:
 184 0018 08010B40 		.word	1074462984
 185              		.cfi_endproc
 186              	.LFE3:
 187              		.size	CySysClkImoStop, .-CySysClkImoStop
 188              		.section	.text.CySysClkWriteHfclkDirect,"ax",%progbits
ARM GAS  C:\Users\Toshiba\AppData\Local\Temp\ccDzK1Zy.s 			page 7


 189              		.align	2
 190              		.global	CySysClkWriteHfclkDirect
 191              		.code	16
 192              		.thumb_func
 193              		.type	CySysClkWriteHfclkDirect, %function
 194              	CySysClkWriteHfclkDirect:
 195              	.LFB4:
 151:Generated_Source\PSoC4/CyLib.c **** 
 152:Generated_Source\PSoC4/CyLib.c **** #if (CY_IP_IMO_TRIMMABLE_BY_WCO)
 153:Generated_Source\PSoC4/CyLib.c **** 
 154:Generated_Source\PSoC4/CyLib.c ****     /*******************************************************************************
 155:Generated_Source\PSoC4/CyLib.c ****     * Function Name: CySysClkImoEnableWcoLock
 156:Generated_Source\PSoC4/CyLib.c ****     ****************************************************************************//**
 157:Generated_Source\PSoC4/CyLib.c ****     *
 158:Generated_Source\PSoC4/CyLib.c ****     * Enables the IMO to WCO lock feature. This function works only if the WCO is
 159:Generated_Source\PSoC4/CyLib.c ****     * already enabled. If the WCO is not enabled then this function returns
 160:Generated_Source\PSoC4/CyLib.c ****     * without enabling the lock feature.
 161:Generated_Source\PSoC4/CyLib.c ****     *
 162:Generated_Source\PSoC4/CyLib.c ****     * It takes up to 20 ms for the IMO to stabilize. The delay is implemented with
 163:Generated_Source\PSoC4/CyLib.c ****     * CyDelay() function. The delay interval is measured based on the system
 164:Generated_Source\PSoC4/CyLib.c ****     * frequency defined by PSoC Creator at build time. If System clock frequency
 165:Generated_Source\PSoC4/CyLib.c ****     * is changed in runtime, the CyDelayFreq() with the appropriate parameter
 166:Generated_Source\PSoC4/CyLib.c ****     * should be called.
 167:Generated_Source\PSoC4/CyLib.c ****     *
 168:Generated_Source\PSoC4/CyLib.c ****     * For PSoC 4200L devices, note that the IMO can lock to either WCO or USB
 169:Generated_Source\PSoC4/CyLib.c ****     * but not both.
 170:Generated_Source\PSoC4/CyLib.c ****     *
 171:Generated_Source\PSoC4/CyLib.c ****     * This function is applicable for PSoC 4100M / PSoC 4200M / PSoC 4000S /
 172:Generated_Source\PSoC4/CyLib.c ****     * PSoC 4100S / PSoC 4400 / PSoC 4200L.
 173:Generated_Source\PSoC4/CyLib.c ****     *
 174:Generated_Source\PSoC4/CyLib.c ****     *******************************************************************************/
 175:Generated_Source\PSoC4/CyLib.c ****     void CySysClkImoEnableWcoLock(void)
 176:Generated_Source\PSoC4/CyLib.c ****     {
 177:Generated_Source\PSoC4/CyLib.c ****         #if(CY_IP_SRSSV2)
 178:Generated_Source\PSoC4/CyLib.c ****             uint32 i;
 179:Generated_Source\PSoC4/CyLib.c ****         #endif  /* (CY_IP_SRSSV2) */
 180:Generated_Source\PSoC4/CyLib.c **** 
 181:Generated_Source\PSoC4/CyLib.c ****         uint32 freq;
 182:Generated_Source\PSoC4/CyLib.c ****         uint8  interruptState;
 183:Generated_Source\PSoC4/CyLib.c ****         uint32 regTmp;
 184:Generated_Source\PSoC4/CyLib.c ****         uint32 lfLimit = 0u;
 185:Generated_Source\PSoC4/CyLib.c ****         volatile uint32 flashCtlReg;
 186:Generated_Source\PSoC4/CyLib.c **** 
 187:Generated_Source\PSoC4/CyLib.c ****         if (0u != CySysClkWcoEnabled())
 188:Generated_Source\PSoC4/CyLib.c ****         {
 189:Generated_Source\PSoC4/CyLib.c ****             interruptState = CyEnterCriticalSection();
 190:Generated_Source\PSoC4/CyLib.c **** 
 191:Generated_Source\PSoC4/CyLib.c ****             /* Set oscillator interface control port to WCO */
 192:Generated_Source\PSoC4/CyLib.c ****             #if (CY_IP_IMO_TRIMMABLE_BY_WCO && CY_IP_IMO_TRIMMABLE_BY_USB)
 193:Generated_Source\PSoC4/CyLib.c ****                 CY_SYS_CLK_OSCINTF_CTL_REG =
 194:Generated_Source\PSoC4/CyLib.c ****                     (CY_SYS_CLK_OSCINTF_CTL_REG & (uint32) ~CY_SYS_CLK_OSCINTF_CTL_PORT_SEL_MASK) |
 195:Generated_Source\PSoC4/CyLib.c ****                     CY_SYS_CLK_OSCINTF_CTL_PORT_SEL_WCO;
 196:Generated_Source\PSoC4/CyLib.c ****             #endif /* (CY_IP_IMO_TRIMMABLE_BY_WCO && CY_IP_IMO_TRIMMABLE_BY_USB) */
 197:Generated_Source\PSoC4/CyLib.c **** 
 198:Generated_Source\PSoC4/CyLib.c ****             /* Get current IMO frequency based on the register value */
 199:Generated_Source\PSoC4/CyLib.c ****             #if(CY_IP_SRSSV2)
 200:Generated_Source\PSoC4/CyLib.c ****                 freq = CY_SYS_CLK_IMO_MIN_FREQ_MHZ;
ARM GAS  C:\Users\Toshiba\AppData\Local\Temp\ccDzK1Zy.s 			page 8


 201:Generated_Source\PSoC4/CyLib.c ****                 for(i = 0u; i < CY_SYS_CLK_IMO_FREQ_TABLE_SIZE; i++)
 202:Generated_Source\PSoC4/CyLib.c ****                 {
 203:Generated_Source\PSoC4/CyLib.c ****                     if ((uint8) (CY_SYS_CLK_IMO_TRIM2_REG & CY_SYS_CLK_IMO_FREQ_BITS_MASK) == cyImo
 204:Generated_Source\PSoC4/CyLib.c ****                     {
 205:Generated_Source\PSoC4/CyLib.c ****                         freq = i + CY_SYS_CLK_IMO_FREQ_TABLE_OFFSET;
 206:Generated_Source\PSoC4/CyLib.c ****                         break;
 207:Generated_Source\PSoC4/CyLib.c ****                     }
 208:Generated_Source\PSoC4/CyLib.c ****                 }
 209:Generated_Source\PSoC4/CyLib.c ****             #else
 210:Generated_Source\PSoC4/CyLib.c ****                 /* Calculate frequency by shifting register field value and adding constant. */
 211:Generated_Source\PSoC4/CyLib.c ****                 #if(CY_IP_SRSSLT)
 212:Generated_Source\PSoC4/CyLib.c ****                     freq = (((uint32) ((CY_SYS_CLK_IMO_SELECT_REG & ((uint32) CY_SYS_CLK_IMO_SELECT
 213:Generated_Source\PSoC4/CyLib.c ****                                         CY_SYS_CLK_IMO_SELECT_FREQ_SHIFT) + CY_SYS_CLK_IMO_MIN_FREQ
 214:Generated_Source\PSoC4/CyLib.c ****                                       ((CY_SYS_CLK_SELECT_REG >> CY_SYS_CLK_SELECT_HFCLK_DIV_SHIFT)
 215:Generated_Source\PSoC4/CyLib.c ****                                        (uint32) CY_SYS_CLK_SELECT_HFCLK_DIV_MASK));
 216:Generated_Source\PSoC4/CyLib.c ****                 #else
 217:Generated_Source\PSoC4/CyLib.c ****                     freq = ((uint32) ((CY_SYS_CLK_IMO_SELECT_REG & ((uint32) CY_SYS_CLK_IMO_SELECT_
 218:Generated_Source\PSoC4/CyLib.c ****                                        CY_SYS_CLK_IMO_SELECT_FREQ_SHIFT) + CY_SYS_CLK_IMO_MIN_FREQ_
 219:Generated_Source\PSoC4/CyLib.c ****                 #endif  /* (CY_IP_SRSSLT) */
 220:Generated_Source\PSoC4/CyLib.c **** 
 221:Generated_Source\PSoC4/CyLib.c ****             #endif  /* (CY_IP_SRSSV2) */
 222:Generated_Source\PSoC4/CyLib.c **** 
 223:Generated_Source\PSoC4/CyLib.c ****             /* For the WCO locking mode, the IMO gain needs to be CY_SYS_CLK_IMO_TRIM4_GAIN */
 224:Generated_Source\PSoC4/CyLib.c ****             #if(CY_IP_SRSSV2)
 225:Generated_Source\PSoC4/CyLib.c ****                 if ((CY_SYS_CLK_IMO_TRIM4_REG & CY_SYS_CLK_IMO_TRIM4_GAIN_MASK) == 0u)
 226:Generated_Source\PSoC4/CyLib.c ****                 {
 227:Generated_Source\PSoC4/CyLib.c **** 			         CY_SYS_CLK_IMO_TRIM4_REG = (CY_SYS_CLK_IMO_TRIM4_REG & (uint32) ~CY_SYS_CLK_IMO_TRIM4_G
 228:Generated_Source\PSoC4/CyLib.c **** 			                  				     CY_SYS_CLK_IMO_TRIM4_WCO_GAIN;
 229:Generated_Source\PSoC4/CyLib.c ****                 }
 230:Generated_Source\PSoC4/CyLib.c ****             #endif /* (CY_IP_SRSSV2) */
 231:Generated_Source\PSoC4/CyLib.c **** 
 232:Generated_Source\PSoC4/CyLib.c ****             regTmp  = CY_SYS_CLK_WCO_DPLL_REG & ~(CY_SYS_CLK_WCO_DPLL_MULT_MASK |
 233:Generated_Source\PSoC4/CyLib.c ****                                                   CY_SYS_CLK_WCO_CONFIG_DPLL_LF_IGAIN_MASK |
 234:Generated_Source\PSoC4/CyLib.c ****                                                   CY_SYS_CLK_WCO_CONFIG_DPLL_LF_PGAIN_MASK |
 235:Generated_Source\PSoC4/CyLib.c ****                                                   CY_SYS_CLK_WCO_CONFIG_DPLL_LF_LIMIT_MASK);
 236:Generated_Source\PSoC4/CyLib.c **** 
 237:Generated_Source\PSoC4/CyLib.c ****             /* Set multiplier to determine IMO frequency in multiples of the WCO frequency */
 238:Generated_Source\PSoC4/CyLib.c ****             regTmp |= (CY_SYS_CLK_WCO_DPLL_MULT_VALUE(freq) & CY_SYS_CLK_WCO_DPLL_MULT_MASK);
 239:Generated_Source\PSoC4/CyLib.c **** 
 240:Generated_Source\PSoC4/CyLib.c ****             /* Set DPLL Loop Filter Integral and Proportional Gains Setting */
 241:Generated_Source\PSoC4/CyLib.c ****             regTmp |= (CY_SYS_CLK_WCO_CONFIG_DPLL_LF_IGAIN | CY_SYS_CLK_WCO_CONFIG_DPLL_LF_PGAIN);
 242:Generated_Source\PSoC4/CyLib.c **** 
 243:Generated_Source\PSoC4/CyLib.c ****             /* Set maximum allowed IMO offset */
 244:Generated_Source\PSoC4/CyLib.c ****             if (freq < CY_SYS_CLK_IMO_FREQ_WCO_DPLL_SAFE_POINT)
 245:Generated_Source\PSoC4/CyLib.c ****             {
 246:Generated_Source\PSoC4/CyLib.c ****                 regTmp |= (CY_SYS_CLK_WCO_CONFIG_DPLL_LF_LIMIT_MAX << CY_SYS_CLK_WCO_CONFIG_DPLL_LF
 247:Generated_Source\PSoC4/CyLib.c ****             }
 248:Generated_Source\PSoC4/CyLib.c ****             else
 249:Generated_Source\PSoC4/CyLib.c ****             {
 250:Generated_Source\PSoC4/CyLib.c ****                 lfLimit = (uint32) CY_SFLASH_IMO_TRIM_REG(freq - CY_SYS_CLK_IMO_MIN_FREQ_MHZ) +
 251:Generated_Source\PSoC4/CyLib.c ****                     cyImoFreqMhz2DpllOffset[freq - CY_SYS_CLK_IMO_FREQ_WCO_DPLL_TABLE_OFFSET];
 252:Generated_Source\PSoC4/CyLib.c **** 
 253:Generated_Source\PSoC4/CyLib.c ****                 lfLimit = (lfLimit > CY_SYS_CLK_WCO_CONFIG_DPLL_LF_LIMIT_MAX) ?
 254:Generated_Source\PSoC4/CyLib.c ****                     CY_SYS_CLK_WCO_CONFIG_DPLL_LF_LIMIT_MAX : lfLimit;
 255:Generated_Source\PSoC4/CyLib.c **** 
 256:Generated_Source\PSoC4/CyLib.c ****                 regTmp |= (lfLimit << CY_SYS_CLK_WCO_CONFIG_DPLL_LF_LIMIT_SHIFT);
 257:Generated_Source\PSoC4/CyLib.c ****             }
ARM GAS  C:\Users\Toshiba\AppData\Local\Temp\ccDzK1Zy.s 			page 9


 258:Generated_Source\PSoC4/CyLib.c **** 
 259:Generated_Source\PSoC4/CyLib.c ****             CY_SYS_CLK_WCO_DPLL_REG = regTmp;
 260:Generated_Source\PSoC4/CyLib.c **** 
 261:Generated_Source\PSoC4/CyLib.c ****             flashCtlReg = CY_FLASH_CTL_REG;
 262:Generated_Source\PSoC4/CyLib.c ****             CySysFlashSetWaitCycles(CY_SYS_CLK_IMO_MAX_FREQ_MHZ);
 263:Generated_Source\PSoC4/CyLib.c ****             CY_SYS_CLK_WCO_CONFIG_REG |= CY_SYS_CLK_WCO_CONFIG_DPLL_ENABLE;
 264:Generated_Source\PSoC4/CyLib.c ****             CyDelay(CY_SYS_CLK_WCO_IMO_TIMEOUT_MS);
 265:Generated_Source\PSoC4/CyLib.c ****             CY_FLASH_CTL_REG = flashCtlReg;
 266:Generated_Source\PSoC4/CyLib.c **** 
 267:Generated_Source\PSoC4/CyLib.c ****             CyExitCriticalSection(interruptState);
 268:Generated_Source\PSoC4/CyLib.c ****         }
 269:Generated_Source\PSoC4/CyLib.c ****     }
 270:Generated_Source\PSoC4/CyLib.c **** 
 271:Generated_Source\PSoC4/CyLib.c **** 
 272:Generated_Source\PSoC4/CyLib.c ****     /*******************************************************************************
 273:Generated_Source\PSoC4/CyLib.c ****     * Function Name: CySysClkImoDisableWcoLock
 274:Generated_Source\PSoC4/CyLib.c ****     ****************************************************************************//**
 275:Generated_Source\PSoC4/CyLib.c ****     *
 276:Generated_Source\PSoC4/CyLib.c ****     * Disables the IMO to WCO lock feature.
 277:Generated_Source\PSoC4/CyLib.c ****     *
 278:Generated_Source\PSoC4/CyLib.c ****     * For PSoC 4200L devices, note that the IMO can lock to either WCO or USB
 279:Generated_Source\PSoC4/CyLib.c ****     * but not both.
 280:Generated_Source\PSoC4/CyLib.c ****     *
 281:Generated_Source\PSoC4/CyLib.c ****     * This function is applicable for PSoC 4100M / PSoC 4200M / PSoC 4000S /
 282:Generated_Source\PSoC4/CyLib.c ****     * PSoC 4100S / PSoC 4400 / PSoC 4200L.
 283:Generated_Source\PSoC4/CyLib.c ****     *
 284:Generated_Source\PSoC4/CyLib.c ****     *******************************************************************************/
 285:Generated_Source\PSoC4/CyLib.c ****     void CySysClkImoDisableWcoLock(void)
 286:Generated_Source\PSoC4/CyLib.c ****     {
 287:Generated_Source\PSoC4/CyLib.c ****         CY_SYS_CLK_WCO_CONFIG_REG &= (uint32) ~CY_SYS_CLK_WCO_CONFIG_DPLL_ENABLE;
 288:Generated_Source\PSoC4/CyLib.c ****     }
 289:Generated_Source\PSoC4/CyLib.c **** 
 290:Generated_Source\PSoC4/CyLib.c **** 
 291:Generated_Source\PSoC4/CyLib.c ****     /*******************************************************************************
 292:Generated_Source\PSoC4/CyLib.c ****     * Function Name: CySysClkImoGetWcoLock
 293:Generated_Source\PSoC4/CyLib.c ****     ****************************************************************************//**
 294:Generated_Source\PSoC4/CyLib.c ****     *
 295:Generated_Source\PSoC4/CyLib.c ****     * Reports the IMO to WCO lock enable state.
 296:Generated_Source\PSoC4/CyLib.c ****     *
 297:Generated_Source\PSoC4/CyLib.c ****     * This function is applicable for PSoC 4100M / PSoC 4200M / PSoC 4000S /
 298:Generated_Source\PSoC4/CyLib.c ****     * PSoC 4100S / PSoC 4400 / PSoC 4200L.
 299:Generated_Source\PSoC4/CyLib.c ****     *
 300:Generated_Source\PSoC4/CyLib.c ****     * \return 1 if IMO to WCO lock is enabled.
 301:Generated_Source\PSoC4/CyLib.c ****     * \return 0 if IMO to WCO lock is disabled.
 302:Generated_Source\PSoC4/CyLib.c ****     *
 303:Generated_Source\PSoC4/CyLib.c ****     *******************************************************************************/
 304:Generated_Source\PSoC4/CyLib.c ****     uint32 CySysClkImoGetWcoLock(void)
 305:Generated_Source\PSoC4/CyLib.c ****     {
 306:Generated_Source\PSoC4/CyLib.c ****         return ((0u != (CY_SYS_CLK_WCO_CONFIG_REG & CY_SYS_CLK_WCO_CONFIG_DPLL_ENABLE)) ?
 307:Generated_Source\PSoC4/CyLib.c ****                 (uint32) 1u :
 308:Generated_Source\PSoC4/CyLib.c ****                 (uint32) 0u);
 309:Generated_Source\PSoC4/CyLib.c ****     }
 310:Generated_Source\PSoC4/CyLib.c **** 
 311:Generated_Source\PSoC4/CyLib.c **** #endif /* (CY_IP_IMO_TRIMMABLE_BY_WCO) */
 312:Generated_Source\PSoC4/CyLib.c **** 
 313:Generated_Source\PSoC4/CyLib.c **** 
 314:Generated_Source\PSoC4/CyLib.c **** #if (CY_IP_IMO_TRIMMABLE_BY_USB)
ARM GAS  C:\Users\Toshiba\AppData\Local\Temp\ccDzK1Zy.s 			page 10


 315:Generated_Source\PSoC4/CyLib.c **** 
 316:Generated_Source\PSoC4/CyLib.c ****     /*******************************************************************************
 317:Generated_Source\PSoC4/CyLib.c ****     * Function Name: CySysClkImoEnableUsbLock
 318:Generated_Source\PSoC4/CyLib.c ****     ****************************************************************************//**
 319:Generated_Source\PSoC4/CyLib.c ****     *
 320:Generated_Source\PSoC4/CyLib.c ****     * Enables the IMO to USB lock feature.
 321:Generated_Source\PSoC4/CyLib.c ****     *
 322:Generated_Source\PSoC4/CyLib.c ****     * This function must be called before CySysClkWriteImoFreq().
 323:Generated_Source\PSoC4/CyLib.c ****     *
 324:Generated_Source\PSoC4/CyLib.c ****     * This function is called from CySysClkImoStart() function if USB lock
 325:Generated_Source\PSoC4/CyLib.c ****     * selected in the Design Wide Resources tab.
 326:Generated_Source\PSoC4/CyLib.c ****     *
 327:Generated_Source\PSoC4/CyLib.c ****     * This is applicable for PSoC 4200L family of devices only. For PSoC 4200L
 328:Generated_Source\PSoC4/CyLib.c ****     * devices, the IMO can lock to either WCO or USB, but not both.
 329:Generated_Source\PSoC4/CyLib.c ****     *
 330:Generated_Source\PSoC4/CyLib.c ****     *******************************************************************************/
 331:Generated_Source\PSoC4/CyLib.c ****     void CySysClkImoEnableUsbLock(void)
 332:Generated_Source\PSoC4/CyLib.c ****     {
 333:Generated_Source\PSoC4/CyLib.c ****         /* Set oscillator interface control port to USB */
 334:Generated_Source\PSoC4/CyLib.c ****         #if (CY_IP_IMO_TRIMMABLE_BY_WCO && CY_IP_IMO_TRIMMABLE_BY_USB)
 335:Generated_Source\PSoC4/CyLib.c ****             CY_SYS_CLK_OSCINTF_CTL_REG = (CY_SYS_CLK_OSCINTF_CTL_REG & (uint32) ~CY_SYS_CLK_OSCINTF
 336:Generated_Source\PSoC4/CyLib.c ****                                           CY_SYS_CLK_OSCINTF_CTL_PORT_SEL_USB;
 337:Generated_Source\PSoC4/CyLib.c ****         #endif /* (CY_IP_IMO_TRIMMABLE_BY_WCO && CY_IP_IMO_TRIMMABLE_BY_USB) */
 338:Generated_Source\PSoC4/CyLib.c **** 
 339:Generated_Source\PSoC4/CyLib.c ****         #if(CY_IP_SRSSV2)
 340:Generated_Source\PSoC4/CyLib.c ****             /* Save CY_SYS_CLK_IMO_TRIM4_REG and set IMO gain for USB lock */
 341:Generated_Source\PSoC4/CyLib.c ****             CySysClkImoTrim4 = CY_SYS_CLK_IMO_TRIM4_REG & (uint32) ~CY_SYS_CLK_IMO_TRIM4_GAIN_MASK;
 342:Generated_Source\PSoC4/CyLib.c ****             CY_SYS_CLK_IMO_TRIM4_REG = (CY_SYS_CLK_IMO_TRIM4_REG & (uint32) ~CY_SYS_CLK_IMO_TRIM4_G
 343:Generated_Source\PSoC4/CyLib.c ****                                         CY_SYS_CLK_IMO_TRIM4_USB_GAIN;
 344:Generated_Source\PSoC4/CyLib.c ****         #endif  /* (CY_IP_SRSSV2) */
 345:Generated_Source\PSoC4/CyLib.c **** 
 346:Generated_Source\PSoC4/CyLib.c ****         CY_SYS_CLK_USBDEVv2_CR1_REG |= CY_SYS_CLK_USBDEVv2_CR1_ENABLE_LOCK;
 347:Generated_Source\PSoC4/CyLib.c ****     }
 348:Generated_Source\PSoC4/CyLib.c **** 
 349:Generated_Source\PSoC4/CyLib.c **** 
 350:Generated_Source\PSoC4/CyLib.c ****     /*******************************************************************************
 351:Generated_Source\PSoC4/CyLib.c ****     * Function Name: CySysClkImoDisableUsbLock
 352:Generated_Source\PSoC4/CyLib.c ****     ****************************************************************************//**
 353:Generated_Source\PSoC4/CyLib.c ****     *
 354:Generated_Source\PSoC4/CyLib.c ****     * Disables the IMO to USB lock feature.
 355:Generated_Source\PSoC4/CyLib.c ****     *
 356:Generated_Source\PSoC4/CyLib.c ****     * This function is called from CySysClkImoStop() function if USB lock selected
 357:Generated_Source\PSoC4/CyLib.c ****     * in the Design Wide Resources tab.
 358:Generated_Source\PSoC4/CyLib.c ****     *
 359:Generated_Source\PSoC4/CyLib.c ****     * This is applicable for PSoC 4200L family of devices only. For PSoC 4200L
 360:Generated_Source\PSoC4/CyLib.c ****     * devices, the IMO can lock to either WCO or USB, but not both.
 361:Generated_Source\PSoC4/CyLib.c ****     *
 362:Generated_Source\PSoC4/CyLib.c ****     *******************************************************************************/
 363:Generated_Source\PSoC4/CyLib.c ****     void CySysClkImoDisableUsbLock(void)
 364:Generated_Source\PSoC4/CyLib.c ****     {
 365:Generated_Source\PSoC4/CyLib.c ****         CY_SYS_CLK_USBDEVv2_CR1_REG &= (uint32) ~CY_SYS_CLK_USBDEVv2_CR1_ENABLE_LOCK;
 366:Generated_Source\PSoC4/CyLib.c **** 
 367:Generated_Source\PSoC4/CyLib.c ****         #if(CY_IP_SRSSV2)
 368:Generated_Source\PSoC4/CyLib.c ****             /* Restore CY_SYS_CLK_IMO_TRIM4_REG */
 369:Generated_Source\PSoC4/CyLib.c ****             CY_SYS_CLK_IMO_TRIM4_REG = (CY_SYS_CLK_IMO_TRIM4_REG & (uint32) ~CY_SYS_CLK_IMO_TRIM4_G
 370:Generated_Source\PSoC4/CyLib.c ****                                     CySysClkImoTrim4;
 371:Generated_Source\PSoC4/CyLib.c ****         #endif  /* (CY_IP_SRSSV2) */
ARM GAS  C:\Users\Toshiba\AppData\Local\Temp\ccDzK1Zy.s 			page 11


 372:Generated_Source\PSoC4/CyLib.c ****     }
 373:Generated_Source\PSoC4/CyLib.c **** 
 374:Generated_Source\PSoC4/CyLib.c **** 
 375:Generated_Source\PSoC4/CyLib.c ****     /*******************************************************************************
 376:Generated_Source\PSoC4/CyLib.c ****     * Function Name: CySysClkImoGetUsbLock
 377:Generated_Source\PSoC4/CyLib.c ****     ****************************************************************************//**
 378:Generated_Source\PSoC4/CyLib.c ****     *
 379:Generated_Source\PSoC4/CyLib.c ****     * Reports the IMO to USB lock enable state.
 380:Generated_Source\PSoC4/CyLib.c ****     *
 381:Generated_Source\PSoC4/CyLib.c ****     * This is applicable for PSoC 4200L family of devices only. For PSoC 4200L
 382:Generated_Source\PSoC4/CyLib.c ****     * devices, the IMO can lock to either WCO or USB, but not both.
 383:Generated_Source\PSoC4/CyLib.c ****     *
 384:Generated_Source\PSoC4/CyLib.c ****     * \return 1 if IMO to USB lock is enabled.
 385:Generated_Source\PSoC4/CyLib.c ****     * \return 0 if IMO to USB lock is disabled.
 386:Generated_Source\PSoC4/CyLib.c ****     *
 387:Generated_Source\PSoC4/CyLib.c ****     *******************************************************************************/
 388:Generated_Source\PSoC4/CyLib.c ****     uint32 CySysClkImoGetUsbLock(void)
 389:Generated_Source\PSoC4/CyLib.c ****     {
 390:Generated_Source\PSoC4/CyLib.c ****         return ((0u != (CY_SYS_CLK_USBDEVv2_CR1_REG & CY_SYS_CLK_USBDEVv2_CR1_ENABLE_LOCK)) ?
 391:Generated_Source\PSoC4/CyLib.c ****                 (uint32) 1u :
 392:Generated_Source\PSoC4/CyLib.c ****                 (uint32) 0u);
 393:Generated_Source\PSoC4/CyLib.c ****     }
 394:Generated_Source\PSoC4/CyLib.c **** #endif  /* (CY_IP_IMO_TRIMMABLE_BY_USB) */
 395:Generated_Source\PSoC4/CyLib.c **** 
 396:Generated_Source\PSoC4/CyLib.c **** 
 397:Generated_Source\PSoC4/CyLib.c **** 
 398:Generated_Source\PSoC4/CyLib.c **** /*******************************************************************************
 399:Generated_Source\PSoC4/CyLib.c **** * Function Name: CySysClkWriteHfclkDirect
 400:Generated_Source\PSoC4/CyLib.c **** ****************************************************************************//**
 401:Generated_Source\PSoC4/CyLib.c **** *
 402:Generated_Source\PSoC4/CyLib.c **** * Selects the direct source for the HFCLK.
 403:Generated_Source\PSoC4/CyLib.c **** *
 404:Generated_Source\PSoC4/CyLib.c **** * The new source must be running and stable before calling this function.
 405:Generated_Source\PSoC4/CyLib.c **** *
 406:Generated_Source\PSoC4/CyLib.c **** * PSoC 4000:
 407:Generated_Source\PSoC4/CyLib.c **** * The SYSCLK has a maximum speed of 16 MHz, so HFCLK and SYSCLK dividers should
 408:Generated_Source\PSoC4/CyLib.c **** * be selected in a way to not to exceed 16 MHz for the System clock.
 409:Generated_Source\PSoC4/CyLib.c **** *
 410:Generated_Source\PSoC4/CyLib.c **** * If the SYSCLK clock frequency increases during device operation, call
 411:Generated_Source\PSoC4/CyLib.c **** * CySysFlashSetWaitCycles() with the appropriate parameter to adjust the number
 412:Generated_Source\PSoC4/CyLib.c **** * of clock cycles the cache will wait before sampling data comes back from
 413:Generated_Source\PSoC4/CyLib.c **** * Flash. If the SYSCLK clock frequency decreases, you can call
 414:Generated_Source\PSoC4/CyLib.c **** * CySysFlashSetWaitCycles() to improve the CPU performance. See
 415:Generated_Source\PSoC4/CyLib.c **** * CySysFlashSetWaitCycles() description for more information.
 416:Generated_Source\PSoC4/CyLib.c **** *
 417:Generated_Source\PSoC4/CyLib.c **** * Do not select PLL as the source for HFCLK if PLL output frequency exceeds
 418:Generated_Source\PSoC4/CyLib.c **** * maximum permissible value for HFCLK.
 419:Generated_Source\PSoC4/CyLib.c **** *
 420:Generated_Source\PSoC4/CyLib.c **** * \param clkSelect One of the available HFCLK direct sources.
 421:Generated_Source\PSoC4/CyLib.c **** * CY_SYS_CLK_HFCLK_IMO     IMO.
 422:Generated_Source\PSoC4/CyLib.c **** * CY_SYS_CLK_HFCLK_EXTCLK  External clock pin.
 423:Generated_Source\PSoC4/CyLib.c **** * CY_SYS_CLK_HFCLK_ECO     External crystal oscillator. Applicable for
 424:Generated_Source\PSoC4/CyLib.c **** *                          PSoC 4100 BLE / PSoC 4200 BLE / PSoC 4200L.
 425:Generated_Source\PSoC4/CyLib.c **** * CY_SYS_CLK_HFCLK_PLL0    PLL#0. Applicable for PSoC 4200L.
 426:Generated_Source\PSoC4/CyLib.c **** * CY_SYS_CLK_HFCLK_PLL1    PLL#1. Applicable for PSoC 4200L.
 427:Generated_Source\PSoC4/CyLib.c **** *
 428:Generated_Source\PSoC4/CyLib.c **** *******************************************************************************/
ARM GAS  C:\Users\Toshiba\AppData\Local\Temp\ccDzK1Zy.s 			page 12


 429:Generated_Source\PSoC4/CyLib.c **** void CySysClkWriteHfclkDirect(uint32 clkSelect)
 430:Generated_Source\PSoC4/CyLib.c **** {
 196              		.loc 1 430 0
 197              		.cfi_startproc
 198              		@ args = 0, pretend = 0, frame = 16
 199              		@ frame_needed = 1, uses_anonymous_args = 0
 200 0000 90B5     		push	{r4, r7, lr}
 201              		.cfi_def_cfa_offset 12
 202              		.cfi_offset 4, -12
 203              		.cfi_offset 7, -8
 204              		.cfi_offset 14, -4
 205 0002 85B0     		sub	sp, sp, #20
 206              		.cfi_def_cfa_offset 32
 207 0004 00AF     		add	r7, sp, #0
 208              		.cfi_def_cfa_register 7
 209 0006 7860     		str	r0, [r7, #4]
 431:Generated_Source\PSoC4/CyLib.c ****     uint8  interruptState;
 432:Generated_Source\PSoC4/CyLib.c ****     uint32 tmpReg;
 433:Generated_Source\PSoC4/CyLib.c **** 
 434:Generated_Source\PSoC4/CyLib.c ****     interruptState = CyEnterCriticalSection();
 210              		.loc 1 434 0
 211 0008 0F23     		movs	r3, #15
 212 000a FC18     		adds	r4, r7, r3
 213 000c FFF7FEFF 		bl	CyEnterCriticalSection
 214 0010 0300     		movs	r3, r0
 215 0012 2370     		strb	r3, [r4]
 435:Generated_Source\PSoC4/CyLib.c **** 
 436:Generated_Source\PSoC4/CyLib.c **** 
 437:Generated_Source\PSoC4/CyLib.c ****     tmpReg = CY_SYS_CLK_SELECT_REG & ~(CY_SYS_CLK_SELECT_DIRECT_SEL_MASK |
 216              		.loc 1 437 0
 217 0014 0B4B     		ldr	r3, .L8
 218 0016 1B68     		ldr	r3, [r3]
 219 0018 0722     		movs	r2, #7
 220 001a 9343     		bics	r3, r2
 221 001c BB60     		str	r3, [r7, #8]
 438:Generated_Source\PSoC4/CyLib.c ****                                        CY_SYS_CLK_SELECT_HFCLK_SEL_MASK);
 439:Generated_Source\PSoC4/CyLib.c **** 
 440:Generated_Source\PSoC4/CyLib.c **** #if (CY_IP_SRSSV2 && CY_IP_PLL)
 441:Generated_Source\PSoC4/CyLib.c ****     if ((CY_SYS_CLK_HFCLK_PLL0 == clkSelect) || (CY_SYS_CLK_HFCLK_PLL1 == clkSelect))
 442:Generated_Source\PSoC4/CyLib.c ****     {
 443:Generated_Source\PSoC4/CyLib.c ****         tmpReg |= (clkSelect & CY_SYS_CLK_SELECT_HFCLK_SEL_MASK);
 444:Generated_Source\PSoC4/CyLib.c ****     }
 445:Generated_Source\PSoC4/CyLib.c ****     else
 446:Generated_Source\PSoC4/CyLib.c **** #endif /* (CY_IP_SRSSV2 && CY_IP_PLL) */
 447:Generated_Source\PSoC4/CyLib.c ****     {
 448:Generated_Source\PSoC4/CyLib.c ****         tmpReg |= (clkSelect & CY_SYS_CLK_SELECT_DIRECT_SEL_MASK);
 222              		.loc 1 448 0
 223 001e 7B68     		ldr	r3, [r7, #4]
 224 0020 0722     		movs	r2, #7
 225 0022 1340     		ands	r3, r2
 226 0024 BA68     		ldr	r2, [r7, #8]
 227 0026 1343     		orrs	r3, r2
 228 0028 BB60     		str	r3, [r7, #8]
 449:Generated_Source\PSoC4/CyLib.c ****     }
 450:Generated_Source\PSoC4/CyLib.c **** 
 451:Generated_Source\PSoC4/CyLib.c ****     CY_SYS_CLK_SELECT_REG = tmpReg;
 229              		.loc 1 451 0
ARM GAS  C:\Users\Toshiba\AppData\Local\Temp\ccDzK1Zy.s 			page 13


 230 002a 064B     		ldr	r3, .L8
 231 002c BA68     		ldr	r2, [r7, #8]
 232 002e 1A60     		str	r2, [r3]
 452:Generated_Source\PSoC4/CyLib.c **** 
 453:Generated_Source\PSoC4/CyLib.c ****     CyExitCriticalSection(interruptState);
 233              		.loc 1 453 0
 234 0030 0F23     		movs	r3, #15
 235 0032 FB18     		adds	r3, r7, r3
 236 0034 1B78     		ldrb	r3, [r3]
 237 0036 1800     		movs	r0, r3
 238 0038 FFF7FEFF 		bl	CyExitCriticalSection
 454:Generated_Source\PSoC4/CyLib.c **** }
 239              		.loc 1 454 0
 240 003c C046     		nop
 241 003e BD46     		mov	sp, r7
 242 0040 05B0     		add	sp, sp, #20
 243              		@ sp needed
 244 0042 90BD     		pop	{r4, r7, pc}
 245              	.L9:
 246              		.align	2
 247              	.L8:
 248 0044 00010B40 		.word	1074462976
 249              		.cfi_endproc
 250              	.LFE4:
 251              		.size	CySysClkWriteHfclkDirect, .-CySysClkWriteHfclkDirect
 252              		.section	.text.CySysEnablePumpClock,"ax",%progbits
 253              		.align	2
 254              		.global	CySysEnablePumpClock
 255              		.code	16
 256              		.thumb_func
 257              		.type	CySysEnablePumpClock, %function
 258              	CySysEnablePumpClock:
 259              	.LFB5:
 455:Generated_Source\PSoC4/CyLib.c **** 
 456:Generated_Source\PSoC4/CyLib.c **** 
 457:Generated_Source\PSoC4/CyLib.c **** /*******************************************************************************
 458:Generated_Source\PSoC4/CyLib.c **** * Function Name: CySysEnablePumpClock
 459:Generated_Source\PSoC4/CyLib.c **** ****************************************************************************//**
 460:Generated_Source\PSoC4/CyLib.c **** *
 461:Generated_Source\PSoC4/CyLib.c **** * Enables / disables the pump clock.
 462:Generated_Source\PSoC4/CyLib.c **** *
 463:Generated_Source\PSoC4/CyLib.c **** * \param enable  
 464:Generated_Source\PSoC4/CyLib.c **** * CY_SYS_CLK_PUMP_DISABLE - Disables the pump clock
 465:Generated_Source\PSoC4/CyLib.c **** * CY_SYS_CLK_PUMP_ENABLE - Enables and restores the operating source of 
 466:Generated_Source\PSoC4/CyLib.c **** * the pump clock.
 467:Generated_Source\PSoC4/CyLib.c **** *
 468:Generated_Source\PSoC4/CyLib.c **** * \sideeffect
 469:Generated_Source\PSoC4/CyLib.c **** *  Enabling/disabling the pump clock does not guarantee glitch free operation 
 470:Generated_Source\PSoC4/CyLib.c **** *  when changing the IMO parameters or clock divider settings.
 471:Generated_Source\PSoC4/CyLib.c **** *
 472:Generated_Source\PSoC4/CyLib.c **** *******************************************************************************/
 473:Generated_Source\PSoC4/CyLib.c **** void CySysEnablePumpClock(uint32 enable)
 474:Generated_Source\PSoC4/CyLib.c **** {
 260              		.loc 1 474 0
 261              		.cfi_startproc
 262              		@ args = 0, pretend = 0, frame = 8
 263              		@ frame_needed = 1, uses_anonymous_args = 0
ARM GAS  C:\Users\Toshiba\AppData\Local\Temp\ccDzK1Zy.s 			page 14


 264 0000 80B5     		push	{r7, lr}
 265              		.cfi_def_cfa_offset 8
 266              		.cfi_offset 7, -8
 267              		.cfi_offset 14, -4
 268 0002 82B0     		sub	sp, sp, #8
 269              		.cfi_def_cfa_offset 16
 270 0004 00AF     		add	r7, sp, #0
 271              		.cfi_def_cfa_register 7
 272 0006 7860     		str	r0, [r7, #4]
 475:Generated_Source\PSoC4/CyLib.c ****     #if(CY_IP_SRSSV2)
 476:Generated_Source\PSoC4/CyLib.c ****         if (0u != (CY_SYS_CLK_PUMP_ENABLE & enable))
 273              		.loc 1 476 0
 274 0008 7B68     		ldr	r3, [r7, #4]
 275 000a 0122     		movs	r2, #1
 276 000c 1340     		ands	r3, r2
 277 000e 08D0     		beq	.L11
 477:Generated_Source\PSoC4/CyLib.c ****         {
 478:Generated_Source\PSoC4/CyLib.c ****             CY_SYS_CLK_IMO_CONFIG_REG |= (CySysClkPumpConfig << CY_SYS_CLK_IMO_CONFIG_PUMP_SEL_SHIF
 278              		.loc 1 478 0
 279 0010 0C4A     		ldr	r2, .L14
 280 0012 0C4B     		ldr	r3, .L14
 281 0014 1968     		ldr	r1, [r3]
 282 0016 0C4B     		ldr	r3, .L14+4
 283 0018 1B68     		ldr	r3, [r3]
 284 001a 5B06     		lsls	r3, r3, #25
 285 001c 0B43     		orrs	r3, r1
 286 001e 1360     		str	r3, [r2]
 479:Generated_Source\PSoC4/CyLib.c ****         }
 480:Generated_Source\PSoC4/CyLib.c ****         else
 481:Generated_Source\PSoC4/CyLib.c ****         {
 482:Generated_Source\PSoC4/CyLib.c ****             CySysClkPumpConfig = (CY_SYS_CLK_IMO_CONFIG_REG >> CY_SYS_CLK_IMO_CONFIG_PUMP_SEL_SHIFT
 483:Generated_Source\PSoC4/CyLib.c ****                                   CY_SYS_CLK_IMO_CONFIG_PUMP_SEL_MASK;
 484:Generated_Source\PSoC4/CyLib.c ****             CY_SYS_CLK_IMO_CONFIG_REG &= ~(CY_SYS_CLK_IMO_CONFIG_PUMP_SEL_MASK << CY_SYS_CLK_IMO_CO
 485:Generated_Source\PSoC4/CyLib.c ****         }
 486:Generated_Source\PSoC4/CyLib.c ****     #else /* CY_IP_SRSSLT */
 487:Generated_Source\PSoC4/CyLib.c ****         if (0u != (CY_SYS_CLK_PUMP_ENABLE & enable))
 488:Generated_Source\PSoC4/CyLib.c ****         {
 489:Generated_Source\PSoC4/CyLib.c ****             CY_SYS_CLK_SELECT_REG |= (CySysClkPumpConfig << CY_SYS_CLK_SELECT_PUMP_SEL_SHIFT);
 490:Generated_Source\PSoC4/CyLib.c ****         }
 491:Generated_Source\PSoC4/CyLib.c ****         else
 492:Generated_Source\PSoC4/CyLib.c ****         {
 493:Generated_Source\PSoC4/CyLib.c ****             CySysClkPumpConfig = (CY_SYS_CLK_SELECT_REG >> CY_SYS_CLK_SELECT_PUMP_SEL_SHIFT) & 
 494:Generated_Source\PSoC4/CyLib.c ****                                   CY_SYS_CLK_SELECT_PUMP_SEL_MASK;
 495:Generated_Source\PSoC4/CyLib.c ****             CY_SYS_CLK_SELECT_REG &= ~(CY_SYS_CLK_SELECT_PUMP_SEL_MASK << CY_SYS_CLK_SELECT_PUMP_SE
 496:Generated_Source\PSoC4/CyLib.c ****         }
 497:Generated_Source\PSoC4/CyLib.c ****     #endif  /* (CY_IP_SRSSV2) */
 498:Generated_Source\PSoC4/CyLib.c **** }
 287              		.loc 1 498 0
 288 0020 0CE0     		b	.L13
 289              	.L11:
 482:Generated_Source\PSoC4/CyLib.c ****                                   CY_SYS_CLK_IMO_CONFIG_PUMP_SEL_MASK;
 290              		.loc 1 482 0
 291 0022 084B     		ldr	r3, .L14
 292 0024 1B68     		ldr	r3, [r3]
 293 0026 5B0E     		lsrs	r3, r3, #25
 294 0028 0722     		movs	r2, #7
 295 002a 1A40     		ands	r2, r3
ARM GAS  C:\Users\Toshiba\AppData\Local\Temp\ccDzK1Zy.s 			page 15


 296 002c 064B     		ldr	r3, .L14+4
 297 002e 1A60     		str	r2, [r3]
 484:Generated_Source\PSoC4/CyLib.c ****         }
 298              		.loc 1 484 0
 299 0030 044B     		ldr	r3, .L14
 300 0032 044A     		ldr	r2, .L14
 301 0034 1268     		ldr	r2, [r2]
 302 0036 0549     		ldr	r1, .L14+8
 303 0038 0A40     		ands	r2, r1
 304 003a 1A60     		str	r2, [r3]
 305              	.L13:
 306              		.loc 1 498 0
 307 003c C046     		nop
 308 003e BD46     		mov	sp, r7
 309 0040 02B0     		add	sp, sp, #8
 310              		@ sp needed
 311 0042 80BD     		pop	{r7, pc}
 312              	.L15:
 313              		.align	2
 314              	.L14:
 315 0044 08010B40 		.word	1074462984
 316 0048 00000000 		.word	CySysClkPumpConfig
 317 004c FFFFFFF1 		.word	-234881025
 318              		.cfi_endproc
 319              	.LFE5:
 320              		.size	CySysEnablePumpClock, .-CySysEnablePumpClock
 321              		.section	.text.CySysClkGetSysclkSource,"ax",%progbits
 322              		.align	2
 323              		.global	CySysClkGetSysclkSource
 324              		.code	16
 325              		.thumb_func
 326              		.type	CySysClkGetSysclkSource, %function
 327              	CySysClkGetSysclkSource:
 328              	.LFB6:
 499:Generated_Source\PSoC4/CyLib.c **** 
 500:Generated_Source\PSoC4/CyLib.c **** 
 501:Generated_Source\PSoC4/CyLib.c **** /*******************************************************************************
 502:Generated_Source\PSoC4/CyLib.c **** * Function Name: CySysClkGetSysclkSource
 503:Generated_Source\PSoC4/CyLib.c **** ****************************************************************************//**
 504:Generated_Source\PSoC4/CyLib.c **** *
 505:Generated_Source\PSoC4/CyLib.c **** * Returns the source of the System clock.
 506:Generated_Source\PSoC4/CyLib.c **** *
 507:Generated_Source\PSoC4/CyLib.c **** * \return The same as \ref CySysClkWriteHfclkDirect() function parameters.
 508:Generated_Source\PSoC4/CyLib.c **** *
 509:Generated_Source\PSoC4/CyLib.c **** *******************************************************************************/
 510:Generated_Source\PSoC4/CyLib.c **** uint32 CySysClkGetSysclkSource(void)
 511:Generated_Source\PSoC4/CyLib.c **** {
 329              		.loc 1 511 0
 330              		.cfi_startproc
 331              		@ args = 0, pretend = 0, frame = 8
 332              		@ frame_needed = 1, uses_anonymous_args = 0
 333 0000 90B5     		push	{r4, r7, lr}
 334              		.cfi_def_cfa_offset 12
 335              		.cfi_offset 4, -12
 336              		.cfi_offset 7, -8
 337              		.cfi_offset 14, -4
 338 0002 83B0     		sub	sp, sp, #12
ARM GAS  C:\Users\Toshiba\AppData\Local\Temp\ccDzK1Zy.s 			page 16


 339              		.cfi_def_cfa_offset 24
 340 0004 00AF     		add	r7, sp, #0
 341              		.cfi_def_cfa_register 7
 512:Generated_Source\PSoC4/CyLib.c ****     uint8  interruptState;
 513:Generated_Source\PSoC4/CyLib.c ****     uint32 sysclkSource;
 514:Generated_Source\PSoC4/CyLib.c **** 
 515:Generated_Source\PSoC4/CyLib.c ****     interruptState = CyEnterCriticalSection();
 342              		.loc 1 515 0
 343 0006 FC1D     		adds	r4, r7, #7
 344 0008 FFF7FEFF 		bl	CyEnterCriticalSection
 345 000c 0300     		movs	r3, r0
 346 000e 2370     		strb	r3, [r4]
 516:Generated_Source\PSoC4/CyLib.c **** 
 517:Generated_Source\PSoC4/CyLib.c **** #if (CY_IP_SRSSV2 && CY_IP_PLL)
 518:Generated_Source\PSoC4/CyLib.c ****     if ((CY_SYS_CLK_SELECT_REG & CY_SYS_CLK_SELECT_HFCLK_SEL_MASK) != 0u)
 519:Generated_Source\PSoC4/CyLib.c ****     {
 520:Generated_Source\PSoC4/CyLib.c ****         sysclkSource = (CY_SYS_CLK_SELECT_REG & CY_SYS_CLK_SELECT_HFCLK_SEL_MASK);
 521:Generated_Source\PSoC4/CyLib.c ****     }
 522:Generated_Source\PSoC4/CyLib.c ****     else
 523:Generated_Source\PSoC4/CyLib.c **** #endif /* (CY_IP_SRSSV2 && CY_IP_PLL) */
 524:Generated_Source\PSoC4/CyLib.c ****     {
 525:Generated_Source\PSoC4/CyLib.c ****         sysclkSource = (CY_SYS_CLK_SELECT_REG & CY_SYS_CLK_SELECT_DIRECT_SEL_MASK);
 347              		.loc 1 525 0
 348 0010 074B     		ldr	r3, .L18
 349 0012 1B68     		ldr	r3, [r3]
 350 0014 0722     		movs	r2, #7
 351 0016 1340     		ands	r3, r2
 352 0018 3B60     		str	r3, [r7]
 526:Generated_Source\PSoC4/CyLib.c ****     }
 527:Generated_Source\PSoC4/CyLib.c **** 
 528:Generated_Source\PSoC4/CyLib.c ****     CyExitCriticalSection(interruptState);
 353              		.loc 1 528 0
 354 001a FB1D     		adds	r3, r7, #7
 355 001c 1B78     		ldrb	r3, [r3]
 356 001e 1800     		movs	r0, r3
 357 0020 FFF7FEFF 		bl	CyExitCriticalSection
 529:Generated_Source\PSoC4/CyLib.c **** 
 530:Generated_Source\PSoC4/CyLib.c ****     return (sysclkSource);
 358              		.loc 1 530 0
 359 0024 3B68     		ldr	r3, [r7]
 531:Generated_Source\PSoC4/CyLib.c **** }
 360              		.loc 1 531 0
 361 0026 1800     		movs	r0, r3
 362 0028 BD46     		mov	sp, r7
 363 002a 03B0     		add	sp, sp, #12
 364              		@ sp needed
 365 002c 90BD     		pop	{r4, r7, pc}
 366              	.L19:
 367 002e C046     		.align	2
 368              	.L18:
 369 0030 00010B40 		.word	1074462976
 370              		.cfi_endproc
 371              	.LFE6:
 372              		.size	CySysClkGetSysclkSource, .-CySysClkGetSysclkSource
 373              		.section	.text.CySysClkWriteSysclkDiv,"ax",%progbits
 374              		.align	2
 375              		.global	CySysClkWriteSysclkDiv
ARM GAS  C:\Users\Toshiba\AppData\Local\Temp\ccDzK1Zy.s 			page 17


 376              		.code	16
 377              		.thumb_func
 378              		.type	CySysClkWriteSysclkDiv, %function
 379              	CySysClkWriteSysclkDiv:
 380              	.LFB7:
 532:Generated_Source\PSoC4/CyLib.c **** 
 533:Generated_Source\PSoC4/CyLib.c **** 
 534:Generated_Source\PSoC4/CyLib.c **** /*******************************************************************************
 535:Generated_Source\PSoC4/CyLib.c **** * Function Name: CySysClkWriteSysclkDiv
 536:Generated_Source\PSoC4/CyLib.c **** ****************************************************************************//**
 537:Generated_Source\PSoC4/CyLib.c **** *
 538:Generated_Source\PSoC4/CyLib.c **** * Selects the prescaler divide amount for SYSCLK from HFCLK.
 539:Generated_Source\PSoC4/CyLib.c **** *
 540:Generated_Source\PSoC4/CyLib.c **** * PSoC 4000: The SYSCLK has the speed of 16 MHz, so HFCLK and SYSCLK dividers
 541:Generated_Source\PSoC4/CyLib.c **** * should be selected in a way, not to exceed 16 MHz for SYSCLK.
 542:Generated_Source\PSoC4/CyLib.c **** *
 543:Generated_Source\PSoC4/CyLib.c **** * PSoC 4100 \ PSoC 4100 BLE \ PSoC 4100M: The SYSCLK has the speed of 24 MHz,
 544:Generated_Source\PSoC4/CyLib.c **** * so HFCLK and SYSCLK dividers should be selected in a way, not to exceed 24 MHz
 545:Generated_Source\PSoC4/CyLib.c **** * for SYSCLK.
 546:Generated_Source\PSoC4/CyLib.c **** *
 547:Generated_Source\PSoC4/CyLib.c **** * If the SYSCLK clock frequency increases during the device operation, call
 548:Generated_Source\PSoC4/CyLib.c **** * \ref CySysFlashSetWaitCycles() with the appropriate parameter to adjust the
 549:Generated_Source\PSoC4/CyLib.c **** * number of clock cycles the cache will wait before sampling data comes back
 550:Generated_Source\PSoC4/CyLib.c **** * from Flash. If the SYSCLK clock frequency decreases, you can call
 551:Generated_Source\PSoC4/CyLib.c **** * \ref CySysFlashSetWaitCycles() to improve the CPU performance. See
 552:Generated_Source\PSoC4/CyLib.c **** * \ref CySysFlashSetWaitCycles() description for more information.
 553:Generated_Source\PSoC4/CyLib.c **** *
 554:Generated_Source\PSoC4/CyLib.c **** * \param divider Power of 2 prescaler selection
 555:Generated_Source\PSoC4/CyLib.c **** *  CY_SYS_CLK_SYSCLK_DIV1        SYSCLK = HFCLK / 1
 556:Generated_Source\PSoC4/CyLib.c **** *  CY_SYS_CLK_SYSCLK_DIV2        SYSCLK = HFCLK / 2
 557:Generated_Source\PSoC4/CyLib.c **** *  CY_SYS_CLK_SYSCLK_DIV4        SYSCLK = HFCLK / 4
 558:Generated_Source\PSoC4/CyLib.c **** *  CY_SYS_CLK_SYSCLK_DIV8        SYSCLK = HFCLK / 8
 559:Generated_Source\PSoC4/CyLib.c **** *  CY_SYS_CLK_SYSCLK_DIV16       SYSCLK = HFCLK / 16  (N/A for 4000 Family)
 560:Generated_Source\PSoC4/CyLib.c **** *  CY_SYS_CLK_SYSCLK_DIV32       SYSCLK = HFCLK / 32  (N/A for 4000 Family)
 561:Generated_Source\PSoC4/CyLib.c **** *  CY_SYS_CLK_SYSCLK_DIV64       SYSCLK = HFCLK / 64  (N/A for 4000 Family)
 562:Generated_Source\PSoC4/CyLib.c **** *  CY_SYS_CLK_SYSCLK_DIV128      SYSCLK = HFCLK / 128 (N/A for 4000 Family)
 563:Generated_Source\PSoC4/CyLib.c **** *
 564:Generated_Source\PSoC4/CyLib.c **** *******************************************************************************/
 565:Generated_Source\PSoC4/CyLib.c **** void CySysClkWriteSysclkDiv(uint32 divider)
 566:Generated_Source\PSoC4/CyLib.c **** {
 381              		.loc 1 566 0
 382              		.cfi_startproc
 383              		@ args = 0, pretend = 0, frame = 16
 384              		@ frame_needed = 1, uses_anonymous_args = 0
 385 0000 90B5     		push	{r4, r7, lr}
 386              		.cfi_def_cfa_offset 12
 387              		.cfi_offset 4, -12
 388              		.cfi_offset 7, -8
 389              		.cfi_offset 14, -4
 390 0002 85B0     		sub	sp, sp, #20
 391              		.cfi_def_cfa_offset 32
 392 0004 00AF     		add	r7, sp, #0
 393              		.cfi_def_cfa_register 7
 394 0006 7860     		str	r0, [r7, #4]
 567:Generated_Source\PSoC4/CyLib.c ****     uint8  interruptState;
 568:Generated_Source\PSoC4/CyLib.c **** 
 569:Generated_Source\PSoC4/CyLib.c ****     interruptState = CyEnterCriticalSection();
ARM GAS  C:\Users\Toshiba\AppData\Local\Temp\ccDzK1Zy.s 			page 18


 395              		.loc 1 569 0
 396 0008 0F23     		movs	r3, #15
 397 000a FC18     		adds	r4, r7, r3
 398 000c FFF7FEFF 		bl	CyEnterCriticalSection
 399 0010 0300     		movs	r3, r0
 400 0012 2370     		strb	r3, [r4]
 570:Generated_Source\PSoC4/CyLib.c **** 
 571:Generated_Source\PSoC4/CyLib.c ****     CY_SYS_CLK_SELECT_REG = ((uint32)(((uint32)divider & CY_SYS_CLK_SELECT_SYSCLK_DIV_MASK) <<
 401              		.loc 1 571 0
 402 0014 0A4B     		ldr	r3, .L21
 403 0016 7A68     		ldr	r2, [r7, #4]
 404 0018 D104     		lsls	r1, r2, #19
 405 001a E022     		movs	r2, #224
 406 001c 9203     		lsls	r2, r2, #14
 407 001e 1140     		ands	r1, r2
 572:Generated_Source\PSoC4/CyLib.c ****                                     CY_SYS_CLK_SELECT_SYSCLK_DIV_SHIFT)) |
 573:Generated_Source\PSoC4/CyLib.c ****                             (CY_SYS_CLK_SELECT_REG & ((uint32)(~(uint32)(CY_SYS_CLK_SELECT_SYSCLK_D
 408              		.loc 1 573 0
 409 0020 074A     		ldr	r2, .L21
 410 0022 1268     		ldr	r2, [r2]
 411 0024 0748     		ldr	r0, .L21+4
 412 0026 0240     		ands	r2, r0
 572:Generated_Source\PSoC4/CyLib.c ****                                     CY_SYS_CLK_SELECT_SYSCLK_DIV_SHIFT)) |
 413              		.loc 1 572 0
 414 0028 0A43     		orrs	r2, r1
 571:Generated_Source\PSoC4/CyLib.c ****                                     CY_SYS_CLK_SELECT_SYSCLK_DIV_SHIFT)) |
 415              		.loc 1 571 0
 416 002a 1A60     		str	r2, [r3]
 574:Generated_Source\PSoC4/CyLib.c ****                                     CY_SYS_CLK_SELECT_SYSCLK_DIV_SHIFT))));
 575:Generated_Source\PSoC4/CyLib.c **** 
 576:Generated_Source\PSoC4/CyLib.c ****     CyExitCriticalSection(interruptState);
 417              		.loc 1 576 0
 418 002c 0F23     		movs	r3, #15
 419 002e FB18     		adds	r3, r7, r3
 420 0030 1B78     		ldrb	r3, [r3]
 421 0032 1800     		movs	r0, r3
 422 0034 FFF7FEFF 		bl	CyExitCriticalSection
 577:Generated_Source\PSoC4/CyLib.c **** }
 423              		.loc 1 577 0
 424 0038 C046     		nop
 425 003a BD46     		mov	sp, r7
 426 003c 05B0     		add	sp, sp, #20
 427              		@ sp needed
 428 003e 90BD     		pop	{r4, r7, pc}
 429              	.L22:
 430              		.align	2
 431              	.L21:
 432 0040 00010B40 		.word	1074462976
 433 0044 FFFFC7FF 		.word	-3670017
 434              		.cfi_endproc
 435              	.LFE7:
 436              		.size	CySysClkWriteSysclkDiv, .-CySysClkWriteSysclkDiv
 437              		.section	.text.CySysClkWriteImoFreq,"ax",%progbits
 438              		.align	2
 439              		.global	CySysClkWriteImoFreq
 440              		.code	16
 441              		.thumb_func
ARM GAS  C:\Users\Toshiba\AppData\Local\Temp\ccDzK1Zy.s 			page 19


 442              		.type	CySysClkWriteImoFreq, %function
 443              	CySysClkWriteImoFreq:
 444              	.LFB8:
 578:Generated_Source\PSoC4/CyLib.c **** 
 579:Generated_Source\PSoC4/CyLib.c **** 
 580:Generated_Source\PSoC4/CyLib.c **** /*******************************************************************************
 581:Generated_Source\PSoC4/CyLib.c **** * Function Name: CySysClkWriteImoFreq
 582:Generated_Source\PSoC4/CyLib.c **** ****************************************************************************//**
 583:Generated_Source\PSoC4/CyLib.c **** *
 584:Generated_Source\PSoC4/CyLib.c **** * Sets the frequency of the IMO.
 585:Generated_Source\PSoC4/CyLib.c **** *
 586:Generated_Source\PSoC4/CyLib.c **** * PSoC 4000: The SYSCLK has the speed of 16 MHz, so HFCLK and SYSCLK dividers
 587:Generated_Source\PSoC4/CyLib.c **** * should be selected in a way, not to exceed 16 MHz for SYSCLK.
 588:Generated_Source\PSoC4/CyLib.c **** *
 589:Generated_Source\PSoC4/CyLib.c **** * PSoC 4100 \ PSoC 4100 BLE \ PSoC 4100M: The SYSCLK has the speed of 24 MHz,
 590:Generated_Source\PSoC4/CyLib.c **** * so HFCLK and SYSCLK dividers should be selected in a way, not to exceed 24 MHz
 591:Generated_Source\PSoC4/CyLib.c **** * for SYSCLK.
 592:Generated_Source\PSoC4/CyLib.c **** *
 593:Generated_Source\PSoC4/CyLib.c **** * For PSoC 4200M and PSoC 4200L device families, if WCO lock feature is enabled
 594:Generated_Source\PSoC4/CyLib.c **** * then this API will disable the lock, write the new IMO frequency and then
 595:Generated_Source\PSoC4/CyLib.c **** * re-enable the lock.
 596:Generated_Source\PSoC4/CyLib.c **** *
 597:Generated_Source\PSoC4/CyLib.c **** * For PSoC 4200L device families, this function enables the USB lock when 24 or
 598:Generated_Source\PSoC4/CyLib.c **** * 48 MHz passed as a parameter if the USB lock option is enabled in Design Wide
 599:Generated_Source\PSoC4/CyLib.c **** * Resources tab or CySysClkImoEnableUsbLock() was called before. Note the USB
 600:Generated_Source\PSoC4/CyLib.c **** * lock is disabled during IMO frequency change.
 601:Generated_Source\PSoC4/CyLib.c **** *
 602:Generated_Source\PSoC4/CyLib.c **** * The CPU is halted if new frequency is invalid and project is compiled
 603:Generated_Source\PSoC4/CyLib.c **** * in debug mode.
 604:Generated_Source\PSoC4/CyLib.c **** *
 605:Generated_Source\PSoC4/CyLib.c **** * If the SYSCLK clock frequency increases during the device operation, call
 606:Generated_Source\PSoC4/CyLib.c **** * \ref CySysFlashSetWaitCycles() with the appropriate parameter to adjust the
 607:Generated_Source\PSoC4/CyLib.c **** * number of clock cycles the cache will wait before sampling data comes back
 608:Generated_Source\PSoC4/CyLib.c **** * from Flash. If the SYSCLK clock frequency decreases, you can call
 609:Generated_Source\PSoC4/CyLib.c **** * \ref CySysFlashSetWaitCycles() to improve the CPU performance. See
 610:Generated_Source\PSoC4/CyLib.c **** * \ref CySysFlashSetWaitCycles() description for more information.
 611:Generated_Source\PSoC4/CyLib.c **** *
 612:Generated_Source\PSoC4/CyLib.c **** * PSoC 4000: The System Clock (SYSCLK) has maximum speed of 16 MHz, so HFCLK
 613:Generated_Source\PSoC4/CyLib.c **** * and SYSCLK dividers should be selected in a way, to not to exceed 16 MHz for
 614:Generated_Source\PSoC4/CyLib.c **** * the System clock.
 615:Generated_Source\PSoC4/CyLib.c **** *
 616:Generated_Source\PSoC4/CyLib.c **** * \param freq All PSoC 4 families excluding the following: Valid range [3-48]
 617:Generated_Source\PSoC4/CyLib.c **** * with step size equals 1. PSoC 4000: Valid values are 24, 32, and 48.
 618:Generated_Source\PSoC4/CyLib.c **** * PSoC 4000S / PSoC 4100S / PSoC 4400: Valid range [24-48] with step size equals
 619:Generated_Source\PSoC4/CyLib.c **** * 4.
 620:Generated_Source\PSoC4/CyLib.c **** *
 621:Generated_Source\PSoC4/CyLib.c **** *******************************************************************************/
 622:Generated_Source\PSoC4/CyLib.c **** #if(CY_IP_SRSSV2)
 623:Generated_Source\PSoC4/CyLib.c ****     void CySysClkWriteImoFreq(uint32 freq)
 624:Generated_Source\PSoC4/CyLib.c ****     {
 445              		.loc 1 624 0
 446              		.cfi_startproc
 447              		@ args = 0, pretend = 0, frame = 40
 448              		@ frame_needed = 1, uses_anonymous_args = 0
 449 0000 90B5     		push	{r4, r7, lr}
 450              		.cfi_def_cfa_offset 12
 451              		.cfi_offset 4, -12
ARM GAS  C:\Users\Toshiba\AppData\Local\Temp\ccDzK1Zy.s 			page 20


 452              		.cfi_offset 7, -8
 453              		.cfi_offset 14, -4
 454 0002 8BB0     		sub	sp, sp, #44
 455              		.cfi_def_cfa_offset 56
 456 0004 00AF     		add	r7, sp, #0
 457              		.cfi_def_cfa_register 7
 458 0006 7860     		str	r0, [r7, #4]
 625:Generated_Source\PSoC4/CyLib.c ****         #if (CY_IP_FMLT)
 626:Generated_Source\PSoC4/CyLib.c ****             volatile uint32   parameters[2u];
 627:Generated_Source\PSoC4/CyLib.c ****             volatile uint32   regValues[4u];
 628:Generated_Source\PSoC4/CyLib.c ****         #else
 629:Generated_Source\PSoC4/CyLib.c ****             uint8  bgTrim4;
 630:Generated_Source\PSoC4/CyLib.c ****             uint8  bgTrim5;
 631:Generated_Source\PSoC4/CyLib.c ****             uint8  newImoTrim2Value;
 632:Generated_Source\PSoC4/CyLib.c ****             uint8  currentImoTrim2Value;
 633:Generated_Source\PSoC4/CyLib.c ****             uint8  imoTrim1Value;
 634:Generated_Source\PSoC4/CyLib.c ****         #endif /* (CY_IP_FM) */
 635:Generated_Source\PSoC4/CyLib.c **** 
 636:Generated_Source\PSoC4/CyLib.c ****         #if (CY_IP_IMO_TRIMMABLE_BY_WCO)
 637:Generated_Source\PSoC4/CyLib.c ****             uint32 wcoLock = 0u;
 638:Generated_Source\PSoC4/CyLib.c ****         #endif  /* (CY_IP_IMO_TRIMMABLE_BY_WCO) */
 639:Generated_Source\PSoC4/CyLib.c **** 
 640:Generated_Source\PSoC4/CyLib.c ****         #if (CY_IP_IMO_TRIMMABLE_BY_USB)
 641:Generated_Source\PSoC4/CyLib.c ****             uint32 usbLock = 0u;
 642:Generated_Source\PSoC4/CyLib.c ****         #endif  /* (CY_IP_IMO_TRIMMABLE_BY_USB) */
 643:Generated_Source\PSoC4/CyLib.c **** 
 644:Generated_Source\PSoC4/CyLib.c ****         uint8  interruptState;
 645:Generated_Source\PSoC4/CyLib.c **** 
 646:Generated_Source\PSoC4/CyLib.c **** 
 647:Generated_Source\PSoC4/CyLib.c ****         interruptState = CyEnterCriticalSection();
 459              		.loc 1 647 0
 460 0008 2723     		movs	r3, #39
 461 000a FC18     		adds	r4, r7, r3
 462 000c FFF7FEFF 		bl	CyEnterCriticalSection
 463 0010 0300     		movs	r3, r0
 464 0012 2370     		strb	r3, [r4]
 648:Generated_Source\PSoC4/CyLib.c **** 
 649:Generated_Source\PSoC4/CyLib.c ****         #if (CY_IP_IMO_TRIMMABLE_BY_WCO)
 650:Generated_Source\PSoC4/CyLib.c ****             if(0u != CySysClkImoGetWcoLock())
 651:Generated_Source\PSoC4/CyLib.c ****             {
 652:Generated_Source\PSoC4/CyLib.c ****                 wcoLock = 1u;
 653:Generated_Source\PSoC4/CyLib.c ****                 CySysClkImoDisableWcoLock();
 654:Generated_Source\PSoC4/CyLib.c ****             }
 655:Generated_Source\PSoC4/CyLib.c ****         #endif  /* (CY_IP_IMO_TRIMMABLE_BY_WCO) */
 656:Generated_Source\PSoC4/CyLib.c **** 
 657:Generated_Source\PSoC4/CyLib.c **** 
 658:Generated_Source\PSoC4/CyLib.c ****         #if (CY_IP_IMO_TRIMMABLE_BY_USB)
 659:Generated_Source\PSoC4/CyLib.c **** 
 660:Generated_Source\PSoC4/CyLib.c ****             #if (CYDEV_IMO_TRIMMED_BY_USB == 0u)
 661:Generated_Source\PSoC4/CyLib.c ****                 if(0u != CySysClkImoGetUsbLock())
 662:Generated_Source\PSoC4/CyLib.c ****                 {
 663:Generated_Source\PSoC4/CyLib.c ****             #endif  /* (CYDEV_IMO_TRIMMED_BY_USB == 0u) */
 664:Generated_Source\PSoC4/CyLib.c **** 
 665:Generated_Source\PSoC4/CyLib.c ****                 if ((24u == freq) || (48u == freq))
 666:Generated_Source\PSoC4/CyLib.c ****                 {
 667:Generated_Source\PSoC4/CyLib.c ****                     usbLock = 1u;
 668:Generated_Source\PSoC4/CyLib.c ****                     CySysClkImoDisableUsbLock();
ARM GAS  C:\Users\Toshiba\AppData\Local\Temp\ccDzK1Zy.s 			page 21


 669:Generated_Source\PSoC4/CyLib.c ****                 }
 670:Generated_Source\PSoC4/CyLib.c **** 
 671:Generated_Source\PSoC4/CyLib.c ****             #if (CYDEV_IMO_TRIMMED_BY_USB == 0u)
 672:Generated_Source\PSoC4/CyLib.c ****                 }
 673:Generated_Source\PSoC4/CyLib.c ****             #endif  /* (CYDEV_IMO_TRIMMED_BY_USB == 0u) */
 674:Generated_Source\PSoC4/CyLib.c **** 
 675:Generated_Source\PSoC4/CyLib.c ****         #endif  /* (CYDEV_IMO_TRIMMED_BY_USB == 0u) */
 676:Generated_Source\PSoC4/CyLib.c **** 
 677:Generated_Source\PSoC4/CyLib.c **** 
 678:Generated_Source\PSoC4/CyLib.c ****         #if (CY_IP_FMLT)
 679:Generated_Source\PSoC4/CyLib.c **** 
 680:Generated_Source\PSoC4/CyLib.c ****             /* FM-Lite Clock Restore */
 681:Generated_Source\PSoC4/CyLib.c ****             regValues[0u] = CY_SYS_CLK_IMO_CONFIG_REG;
 465              		.loc 1 681 0
 466 0014 194B     		ldr	r3, .L24
 467 0016 1A68     		ldr	r2, [r3]
 468 0018 0C23     		movs	r3, #12
 469 001a FB18     		adds	r3, r7, r3
 470 001c 1A60     		str	r2, [r3]
 682:Generated_Source\PSoC4/CyLib.c ****             regValues[1u] = CY_SYS_CLK_SELECT_REG;
 471              		.loc 1 682 0
 472 001e 184B     		ldr	r3, .L24+4
 473 0020 1A68     		ldr	r2, [r3]
 474 0022 0C23     		movs	r3, #12
 475 0024 FB18     		adds	r3, r7, r3
 476 0026 5A60     		str	r2, [r3, #4]
 683:Generated_Source\PSoC4/CyLib.c ****             regValues[2u] = cyImoFreqMhz2Reg[freq - CY_SYS_CLK_IMO_FREQ_TABLE_OFFSET];
 477              		.loc 1 683 0
 478 0028 7B68     		ldr	r3, [r7, #4]
 479 002a 033B     		subs	r3, r3, #3
 480 002c 154A     		ldr	r2, .L24+8
 481 002e D35C     		ldrb	r3, [r2, r3]
 482 0030 1A00     		movs	r2, r3
 483 0032 0C23     		movs	r3, #12
 484 0034 FB18     		adds	r3, r7, r3
 485 0036 9A60     		str	r2, [r3, #8]
 684:Generated_Source\PSoC4/CyLib.c ****             regValues[3u] = CY_FLASH_CTL_REG;
 486              		.loc 1 684 0
 487 0038 134B     		ldr	r3, .L24+12
 488 003a 1A68     		ldr	r2, [r3]
 489 003c 0C23     		movs	r3, #12
 490 003e FB18     		adds	r3, r7, r3
 491 0040 DA60     		str	r2, [r3, #12]
 685:Generated_Source\PSoC4/CyLib.c **** 
 686:Generated_Source\PSoC4/CyLib.c ****             parameters[0u] =
 492              		.loc 1 686 0
 493 0042 1C23     		movs	r3, #28
 494 0044 FB18     		adds	r3, r7, r3
 495 0046 114A     		ldr	r2, .L24+16
 496 0048 1A60     		str	r2, [r3]
 687:Generated_Source\PSoC4/CyLib.c ****                 (uint32) ((CY_FLASH_KEY_TWO(CY_FLASH_API_OPCODE_CLK_RESTORE) <<  CY_FLASH_PARAM_KEY
 688:Generated_Source\PSoC4/CyLib.c ****                             CY_FLASH_KEY_ONE);
 689:Generated_Source\PSoC4/CyLib.c ****             parameters[1u] = (uint32) &regValues[0u];
 497              		.loc 1 689 0
 498 004a 0C23     		movs	r3, #12
 499 004c FA18     		adds	r2, r7, r3
 500 004e 1C23     		movs	r3, #28
ARM GAS  C:\Users\Toshiba\AppData\Local\Temp\ccDzK1Zy.s 			page 22


 501 0050 FB18     		adds	r3, r7, r3
 502 0052 5A60     		str	r2, [r3, #4]
 690:Generated_Source\PSoC4/CyLib.c **** 
 691:Generated_Source\PSoC4/CyLib.c ****             CY_FLASH_CPUSS_SYSARG_REG = (uint32) &parameters[0u];
 503              		.loc 1 691 0
 504 0054 0E4B     		ldr	r3, .L24+20
 505 0056 1C22     		movs	r2, #28
 506 0058 BA18     		adds	r2, r7, r2
 507 005a 1A60     		str	r2, [r3]
 692:Generated_Source\PSoC4/CyLib.c ****             CY_FLASH_CPUSS_SYSREQ_REG = CY_FLASH_CPUSS_REQ_START | CY_FLASH_API_OPCODE_CLK_RESTORE;
 508              		.loc 1 692 0
 509 005c 0D4B     		ldr	r3, .L24+24
 510 005e 0E4A     		ldr	r2, .L24+28
 511 0060 1A60     		str	r2, [r3]
 693:Generated_Source\PSoC4/CyLib.c ****             (void) CY_FLASH_CPUSS_SYSARG_REG;
 512              		.loc 1 693 0
 513 0062 0B4B     		ldr	r3, .L24+20
 514 0064 1B68     		ldr	r3, [r3]
 694:Generated_Source\PSoC4/CyLib.c **** 
 695:Generated_Source\PSoC4/CyLib.c ****         #else /* (CY_IP_FM) */
 696:Generated_Source\PSoC4/CyLib.c **** 
 697:Generated_Source\PSoC4/CyLib.c ****         if ((freq >= CY_SYS_CLK_IMO_MIN_FREQ_MHZ) && (freq <= CY_SYS_CLK_IMO_MAX_FREQ_MHZ))
 698:Generated_Source\PSoC4/CyLib.c ****         {
 699:Generated_Source\PSoC4/CyLib.c ****             if(freq <= CY_SFLASH_IMO_MAXF0_REG)
 700:Generated_Source\PSoC4/CyLib.c ****             {
 701:Generated_Source\PSoC4/CyLib.c ****                 bgTrim4 = CY_SFLASH_IMO_ABS0_REG;
 702:Generated_Source\PSoC4/CyLib.c ****                 bgTrim5 = CY_SFLASH_IMO_TMPCO0_REG;
 703:Generated_Source\PSoC4/CyLib.c ****             }
 704:Generated_Source\PSoC4/CyLib.c ****             else if(freq <= CY_SFLASH_IMO_MAXF1_REG)
 705:Generated_Source\PSoC4/CyLib.c ****             {
 706:Generated_Source\PSoC4/CyLib.c ****                 bgTrim4 = CY_SFLASH_IMO_ABS1_REG;
 707:Generated_Source\PSoC4/CyLib.c ****                 bgTrim5 = CY_SFLASH_IMO_TMPCO1_REG;
 708:Generated_Source\PSoC4/CyLib.c ****             }
 709:Generated_Source\PSoC4/CyLib.c ****             else if(freq <= CY_SFLASH_IMO_MAXF2_REG)
 710:Generated_Source\PSoC4/CyLib.c ****             {
 711:Generated_Source\PSoC4/CyLib.c ****                 bgTrim4 = CY_SFLASH_IMO_ABS2_REG;
 712:Generated_Source\PSoC4/CyLib.c ****                 bgTrim5 = CY_SFLASH_IMO_TMPCO2_REG;
 713:Generated_Source\PSoC4/CyLib.c ****             }
 714:Generated_Source\PSoC4/CyLib.c ****             else if(freq <= CY_SFLASH_IMO_MAXF3_REG)
 715:Generated_Source\PSoC4/CyLib.c ****             {
 716:Generated_Source\PSoC4/CyLib.c ****                 bgTrim4 = CY_SFLASH_IMO_ABS3_REG;
 717:Generated_Source\PSoC4/CyLib.c ****                 bgTrim5 = CY_SFLASH_IMO_TMPCO3_REG;
 718:Generated_Source\PSoC4/CyLib.c ****             }
 719:Generated_Source\PSoC4/CyLib.c ****             else
 720:Generated_Source\PSoC4/CyLib.c ****             {
 721:Generated_Source\PSoC4/CyLib.c ****                 bgTrim4 = CY_SFLASH_IMO_ABS4_REG;
 722:Generated_Source\PSoC4/CyLib.c ****                 bgTrim5 = CY_SFLASH_IMO_TMPCO4_REG;
 723:Generated_Source\PSoC4/CyLib.c ****             }
 724:Generated_Source\PSoC4/CyLib.c **** 
 725:Generated_Source\PSoC4/CyLib.c ****             /* Get IMO_TRIM2 value for the new frequency */
 726:Generated_Source\PSoC4/CyLib.c ****             newImoTrim2Value = cyImoFreqMhz2Reg[freq - CY_SYS_CLK_IMO_FREQ_TABLE_OFFSET];
 727:Generated_Source\PSoC4/CyLib.c **** 
 728:Generated_Source\PSoC4/CyLib.c **** 
 729:Generated_Source\PSoC4/CyLib.c ****             /****************************************************************************
 730:Generated_Source\PSoC4/CyLib.c ****             * The IMO can have a different trim per frequency. To avoid possible corner
 731:Generated_Source\PSoC4/CyLib.c ****             * cases where a trim change can exceed the maximum frequency, the trim must
 732:Generated_Source\PSoC4/CyLib.c ****             * be applied at a frequency that is low enough.
ARM GAS  C:\Users\Toshiba\AppData\Local\Temp\ccDzK1Zy.s 			page 23


 733:Generated_Source\PSoC4/CyLib.c ****             *
 734:Generated_Source\PSoC4/CyLib.c ****             * Comparing IMO_TRIM2 values for the current and new frequencies, since
 735:Generated_Source\PSoC4/CyLib.c ****             * IMO_TRIM2 value as a function of IMO frequency is a strictly increasing
 736:Generated_Source\PSoC4/CyLib.c ****             * function and is time-invariant.
 737:Generated_Source\PSoC4/CyLib.c ****             ***************************************************************************/
 738:Generated_Source\PSoC4/CyLib.c ****             if ((newImoTrim2Value >= CY_SYS_CLK_IMO_BOUNDARY_FREQ_TRIM2) && (freq >= CY_SYS_CLK_IMO
 739:Generated_Source\PSoC4/CyLib.c ****             {
 740:Generated_Source\PSoC4/CyLib.c ****                 /* Set boundary IMO frequency: safe for IMO above 48 MHZ trimming */
 741:Generated_Source\PSoC4/CyLib.c ****                 CY_SYS_CLK_IMO_TRIM2_REG = (uint32) cyImoFreqMhz2Reg[CY_SYS_CLK_IMO_TEMP_FREQ_MHZ -
 742:Generated_Source\PSoC4/CyLib.c ****                                                                      CY_SYS_CLK_IMO_FREQ_TABLE_OFFS
 743:Generated_Source\PSoC4/CyLib.c **** 
 744:Generated_Source\PSoC4/CyLib.c ****                 CyDelayCycles(CY_SYS_CLK_IMO_FREQ_TIMEOUT_CYCLES);
 745:Generated_Source\PSoC4/CyLib.c **** 
 746:Generated_Source\PSoC4/CyLib.c ****                 currentImoTrim2Value = CY_SYS_CLK_IMO_TEMP_FREQ_TRIM2;
 747:Generated_Source\PSoC4/CyLib.c ****             }
 748:Generated_Source\PSoC4/CyLib.c ****             else
 749:Generated_Source\PSoC4/CyLib.c ****             {
 750:Generated_Source\PSoC4/CyLib.c ****                 currentImoTrim2Value = (uint8) (CY_SYS_CLK_IMO_TRIM2_REG & CY_SYS_CLK_IMO_FREQ_BITS
 751:Generated_Source\PSoC4/CyLib.c ****             }
 752:Generated_Source\PSoC4/CyLib.c **** 
 753:Generated_Source\PSoC4/CyLib.c **** 
 754:Generated_Source\PSoC4/CyLib.c ****             /***************************************************************************
 755:Generated_Source\PSoC4/CyLib.c ****             * A trim change needs to be allowed to settle (within 5us) before the Freq
 756:Generated_Source\PSoC4/CyLib.c ****             * can be changed to a new frequency.
 757:Generated_Source\PSoC4/CyLib.c ****             *
 758:Generated_Source\PSoC4/CyLib.c ****             * Comparing IMO_TRIM2 values for the current and new frequencies, since
 759:Generated_Source\PSoC4/CyLib.c ****             * IMO_TRIM2 value as a function of IMO frequency is a strictly increasing
 760:Generated_Source\PSoC4/CyLib.c ****             * function and is time-invariant.
 761:Generated_Source\PSoC4/CyLib.c ****             ***************************************************************************/
 762:Generated_Source\PSoC4/CyLib.c ****             if (newImoTrim2Value < currentImoTrim2Value)
 763:Generated_Source\PSoC4/CyLib.c ****             {
 764:Generated_Source\PSoC4/CyLib.c ****                 /* Set new IMO frequency */
 765:Generated_Source\PSoC4/CyLib.c ****                 CY_SYS_CLK_IMO_TRIM2_REG = cyImoFreqMhz2Reg[freq - CY_SYS_CLK_IMO_FREQ_TABLE_OFFSET
 766:Generated_Source\PSoC4/CyLib.c ****                 CyDelayCycles(CY_SYS_CLK_IMO_FREQ_TIMEOUT_CYCLES);
 767:Generated_Source\PSoC4/CyLib.c ****             }
 768:Generated_Source\PSoC4/CyLib.c **** 
 769:Generated_Source\PSoC4/CyLib.c ****             /* Set trims for the new IMO frequency */
 770:Generated_Source\PSoC4/CyLib.c **** 
 771:Generated_Source\PSoC4/CyLib.c ****             #if (CY_IP_IMO_TRIMMABLE_BY_USB)
 772:Generated_Source\PSoC4/CyLib.c ****                 if ((1u == usbLock) && (48u == freq))
 773:Generated_Source\PSoC4/CyLib.c ****                 {
 774:Generated_Source\PSoC4/CyLib.c ****                     imoTrim1Value = CY_SFLASH_IMO_TRIM_USBMODE_48_REG;
 775:Generated_Source\PSoC4/CyLib.c ****                 }
 776:Generated_Source\PSoC4/CyLib.c ****                 else if ((1u == usbLock) && (24u == freq))
 777:Generated_Source\PSoC4/CyLib.c ****                 {
 778:Generated_Source\PSoC4/CyLib.c ****                     imoTrim1Value = CY_SFLASH_IMO_TRIM_USBMODE_24_REG;
 779:Generated_Source\PSoC4/CyLib.c ****                 }
 780:Generated_Source\PSoC4/CyLib.c ****                 else
 781:Generated_Source\PSoC4/CyLib.c ****                 {
 782:Generated_Source\PSoC4/CyLib.c ****                     imoTrim1Value = (uint8) CY_SFLASH_IMO_TRIM_REG(freq - CY_SYS_CLK_IMO_FREQ_TABLE
 783:Generated_Source\PSoC4/CyLib.c ****                 }
 784:Generated_Source\PSoC4/CyLib.c ****             #else
 785:Generated_Source\PSoC4/CyLib.c ****                 imoTrim1Value = (uint8) CY_SFLASH_IMO_TRIM_REG(freq - CY_SYS_CLK_IMO_FREQ_TABLE_OFF
 786:Generated_Source\PSoC4/CyLib.c ****             #endif  /* (CY_IP_IMO_TRIMMABLE_BY_USB) */
 787:Generated_Source\PSoC4/CyLib.c **** 
 788:Generated_Source\PSoC4/CyLib.c **** 
 789:Generated_Source\PSoC4/CyLib.c ****             CY_SYS_CLK_IMO_TRIM1_REG = (uint32) imoTrim1Value;
ARM GAS  C:\Users\Toshiba\AppData\Local\Temp\ccDzK1Zy.s 			page 24


 790:Generated_Source\PSoC4/CyLib.c ****             CY_PWR_BG_TRIM4_REG  = bgTrim4;
 791:Generated_Source\PSoC4/CyLib.c ****             CY_PWR_BG_TRIM5_REG  = bgTrim5;
 792:Generated_Source\PSoC4/CyLib.c ****             CyDelayUs(CY_SYS_CLK_IMO_TRIM_TIMEOUT_US);
 793:Generated_Source\PSoC4/CyLib.c **** 
 794:Generated_Source\PSoC4/CyLib.c ****             if (newImoTrim2Value > currentImoTrim2Value)
 795:Generated_Source\PSoC4/CyLib.c ****             {
 796:Generated_Source\PSoC4/CyLib.c ****                 /* Set new IMO frequency */
 797:Generated_Source\PSoC4/CyLib.c ****                 CY_SYS_CLK_IMO_TRIM2_REG = cyImoFreqMhz2Reg[freq - CY_SYS_CLK_IMO_FREQ_TABLE_OFFSET
 798:Generated_Source\PSoC4/CyLib.c ****                 CyDelayCycles(CY_SYS_CLK_IMO_FREQ_TIMEOUT_CYCLES);
 799:Generated_Source\PSoC4/CyLib.c ****             }
 800:Generated_Source\PSoC4/CyLib.c ****         }
 801:Generated_Source\PSoC4/CyLib.c ****         else
 802:Generated_Source\PSoC4/CyLib.c ****         {
 803:Generated_Source\PSoC4/CyLib.c ****             /* Halt CPU in debug mode if new frequency is invalid */
 804:Generated_Source\PSoC4/CyLib.c ****             CYASSERT(0u != 0u);
 805:Generated_Source\PSoC4/CyLib.c ****         }
 806:Generated_Source\PSoC4/CyLib.c **** 
 807:Generated_Source\PSoC4/CyLib.c ****         #endif /* (CY_IP_FMLT) */
 808:Generated_Source\PSoC4/CyLib.c **** 
 809:Generated_Source\PSoC4/CyLib.c ****         #if (CY_IP_IMO_TRIMMABLE_BY_WCO)
 810:Generated_Source\PSoC4/CyLib.c ****             if (1u == wcoLock)
 811:Generated_Source\PSoC4/CyLib.c ****             {
 812:Generated_Source\PSoC4/CyLib.c ****                 CySysClkImoEnableWcoLock();
 813:Generated_Source\PSoC4/CyLib.c ****             }
 814:Generated_Source\PSoC4/CyLib.c ****         #endif  /* (CY_IP_IMO_TRIMMABLE_BY_WCO) */
 815:Generated_Source\PSoC4/CyLib.c **** 
 816:Generated_Source\PSoC4/CyLib.c ****         #if (CY_IP_IMO_TRIMMABLE_BY_USB)
 817:Generated_Source\PSoC4/CyLib.c ****             if (1u == usbLock)
 818:Generated_Source\PSoC4/CyLib.c ****             {
 819:Generated_Source\PSoC4/CyLib.c ****                 CySysClkImoEnableUsbLock();
 820:Generated_Source\PSoC4/CyLib.c ****             }
 821:Generated_Source\PSoC4/CyLib.c ****         #endif  /* (CY_IP_IMO_TRIMMABLE_BY_USB) */
 822:Generated_Source\PSoC4/CyLib.c **** 
 823:Generated_Source\PSoC4/CyLib.c ****         CyExitCriticalSection(interruptState);
 515              		.loc 1 823 0
 516 0066 2723     		movs	r3, #39
 517 0068 FB18     		adds	r3, r7, r3
 518 006a 1B78     		ldrb	r3, [r3]
 519 006c 1800     		movs	r0, r3
 520 006e FFF7FEFF 		bl	CyExitCriticalSection
 824:Generated_Source\PSoC4/CyLib.c ****     }
 521              		.loc 1 824 0
 522 0072 C046     		nop
 523 0074 BD46     		mov	sp, r7
 524 0076 0BB0     		add	sp, sp, #44
 525              		@ sp needed
 526 0078 90BD     		pop	{r4, r7, pc}
 527              	.L25:
 528 007a C046     		.align	2
 529              	.L24:
 530 007c 08010B40 		.word	1074462984
 531 0080 00010B40 		.word	1074462976
 532 0084 00000000 		.word	cyImoFreqMhz2Reg
 533 0088 30001040 		.word	1074790448
 534 008c B6EA0000 		.word	60086
 535 0090 08001040 		.word	1074790408
 536 0094 04001040 		.word	1074790404
ARM GAS  C:\Users\Toshiba\AppData\Local\Temp\ccDzK1Zy.s 			page 25


 537 0098 17000080 		.word	-2147483625
 538              		.cfi_endproc
 539              	.LFE8:
 540              		.size	CySysClkWriteImoFreq, .-CySysClkWriteImoFreq
 541              		.section	.text.CySysClkEcoStart,"ax",%progbits
 542              		.align	2
 543              		.global	CySysClkEcoStart
 544              		.code	16
 545              		.thumb_func
 546              		.type	CySysClkEcoStart, %function
 547              	CySysClkEcoStart:
 548              	.LFB9:
 825:Generated_Source\PSoC4/CyLib.c **** 
 826:Generated_Source\PSoC4/CyLib.c **** #else
 827:Generated_Source\PSoC4/CyLib.c **** 
 828:Generated_Source\PSoC4/CyLib.c ****     void CySysClkWriteImoFreq(uint32 freq)
 829:Generated_Source\PSoC4/CyLib.c ****     {
 830:Generated_Source\PSoC4/CyLib.c ****         uint8  interruptState;
 831:Generated_Source\PSoC4/CyLib.c ****         uint8  imoTrim1Value;
 832:Generated_Source\PSoC4/CyLib.c **** 
 833:Generated_Source\PSoC4/CyLib.c ****         #if (CY_IP_IMO_TRIMMABLE_BY_WCO)
 834:Generated_Source\PSoC4/CyLib.c ****             uint32 wcoLock = 0u;
 835:Generated_Source\PSoC4/CyLib.c ****         #endif  /* (CY_IP_IMO_TRIMMABLE_BY_WCO) */        
 836:Generated_Source\PSoC4/CyLib.c ****         
 837:Generated_Source\PSoC4/CyLib.c ****         #if (CY_IP_IMO_TRIMMABLE_BY_USB)
 838:Generated_Source\PSoC4/CyLib.c ****             uint32 usbLock = 0u;
 839:Generated_Source\PSoC4/CyLib.c ****         #endif  /* (CY_IP_IMO_TRIMMABLE_BY_USB) */
 840:Generated_Source\PSoC4/CyLib.c **** 
 841:Generated_Source\PSoC4/CyLib.c ****         #if (CY_PSOC4_4000)
 842:Generated_Source\PSoC4/CyLib.c ****             if ((freq == 24u) || (freq == 32u) || (freq == 48u))
 843:Generated_Source\PSoC4/CyLib.c ****         #elif (CY_CCG3)
 844:Generated_Source\PSoC4/CyLib.c ****             if ((freq == 24u) || (freq == 36u) || (freq == 48u))
 845:Generated_Source\PSoC4/CyLib.c ****         #else
 846:Generated_Source\PSoC4/CyLib.c ****             if ((freq == 24u) || (freq == 28u) || (freq == 32u) ||
 847:Generated_Source\PSoC4/CyLib.c ****                 (freq == 36u) || (freq == 40u) || (freq == 44u) ||
 848:Generated_Source\PSoC4/CyLib.c ****                 (freq == 48u))
 849:Generated_Source\PSoC4/CyLib.c ****         #endif /* (CY_PSOC4_4000) */
 850:Generated_Source\PSoC4/CyLib.c ****         {
 851:Generated_Source\PSoC4/CyLib.c ****             interruptState = CyEnterCriticalSection();
 852:Generated_Source\PSoC4/CyLib.c **** 
 853:Generated_Source\PSoC4/CyLib.c ****             #if (CY_IP_IMO_TRIMMABLE_BY_WCO)
 854:Generated_Source\PSoC4/CyLib.c ****                 if(0u != CySysClkImoGetWcoLock())
 855:Generated_Source\PSoC4/CyLib.c ****                 {
 856:Generated_Source\PSoC4/CyLib.c ****                     wcoLock = 1u;
 857:Generated_Source\PSoC4/CyLib.c ****                     CySysClkImoDisableWcoLock();
 858:Generated_Source\PSoC4/CyLib.c ****                 }
 859:Generated_Source\PSoC4/CyLib.c ****             #endif  /* (CY_IP_IMO_TRIMMABLE_BY_WCO) */
 860:Generated_Source\PSoC4/CyLib.c **** 
 861:Generated_Source\PSoC4/CyLib.c ****             #if (CY_IP_IMO_TRIMMABLE_BY_USB)
 862:Generated_Source\PSoC4/CyLib.c **** 
 863:Generated_Source\PSoC4/CyLib.c ****                 #if (CYDEV_IMO_TRIMMED_BY_USB == 0u)
 864:Generated_Source\PSoC4/CyLib.c ****                     if(0u != CySysClkImoGetUsbLock())
 865:Generated_Source\PSoC4/CyLib.c ****                     {
 866:Generated_Source\PSoC4/CyLib.c ****                 #endif  /* (CYDEV_IMO_TRIMMED_BY_USB == 0u) */
 867:Generated_Source\PSoC4/CyLib.c **** 
 868:Generated_Source\PSoC4/CyLib.c ****                     if (48u == freq)
 869:Generated_Source\PSoC4/CyLib.c ****                     {
ARM GAS  C:\Users\Toshiba\AppData\Local\Temp\ccDzK1Zy.s 			page 26


 870:Generated_Source\PSoC4/CyLib.c ****                         usbLock = 1u;
 871:Generated_Source\PSoC4/CyLib.c ****                         CySysClkImoDisableUsbLock();
 872:Generated_Source\PSoC4/CyLib.c ****                     }
 873:Generated_Source\PSoC4/CyLib.c **** 
 874:Generated_Source\PSoC4/CyLib.c ****                 #if (CYDEV_IMO_TRIMMED_BY_USB == 0u)
 875:Generated_Source\PSoC4/CyLib.c ****                     }
 876:Generated_Source\PSoC4/CyLib.c ****                 #endif  /* (CYDEV_IMO_TRIMMED_BY_USB == 0u) */
 877:Generated_Source\PSoC4/CyLib.c **** 
 878:Generated_Source\PSoC4/CyLib.c ****             #endif  /* (CYDEV_IMO_TRIMMED_BY_USB == 0u) */
 879:Generated_Source\PSoC4/CyLib.c **** 
 880:Generated_Source\PSoC4/CyLib.c **** 
 881:Generated_Source\PSoC4/CyLib.c ****             /* Set IMO to 24 MHz - CLK_IMO_SELECT.FREQ = 0 */
 882:Generated_Source\PSoC4/CyLib.c ****             CY_SYS_CLK_IMO_SELECT_REG &= ((uint32) ~CY_SYS_CLK_IMO_SELECT_FREQ_MASK);
 883:Generated_Source\PSoC4/CyLib.c **** 
 884:Generated_Source\PSoC4/CyLib.c **** 
 885:Generated_Source\PSoC4/CyLib.c ****             /* Apply coarse trim */
 886:Generated_Source\PSoC4/CyLib.c ****             #if (CY_IP_IMO_TRIMMABLE_BY_USB)
 887:Generated_Source\PSoC4/CyLib.c ****                 if ((1u == usbLock) && (48u == freq))
 888:Generated_Source\PSoC4/CyLib.c ****                 {
 889:Generated_Source\PSoC4/CyLib.c ****                     imoTrim1Value = CY_SFLASH_IMO_TRIM_USBMODE_48_REG;
 890:Generated_Source\PSoC4/CyLib.c ****                 }
 891:Generated_Source\PSoC4/CyLib.c ****                 else if ((1u == usbLock) && (24u == freq))
 892:Generated_Source\PSoC4/CyLib.c ****                 {
 893:Generated_Source\PSoC4/CyLib.c ****                     imoTrim1Value = CY_SFLASH_IMO_TRIM_USBMODE_24_REG;
 894:Generated_Source\PSoC4/CyLib.c ****                 }
 895:Generated_Source\PSoC4/CyLib.c ****                 else
 896:Generated_Source\PSoC4/CyLib.c ****                 {
 897:Generated_Source\PSoC4/CyLib.c ****                     imoTrim1Value = (uint8) CY_SFLASH_IMO_TRIM_REG(freq - CY_SYS_CLK_IMO_MIN_FREQ_M
 898:Generated_Source\PSoC4/CyLib.c ****                 }
 899:Generated_Source\PSoC4/CyLib.c ****             #else
 900:Generated_Source\PSoC4/CyLib.c ****                 imoTrim1Value = (uint8) CY_SFLASH_IMO_TRIM_REG(freq - CY_SYS_CLK_IMO_MIN_FREQ_MHZ);
 901:Generated_Source\PSoC4/CyLib.c ****             #endif  /* (CY_IP_IMO_TRIMMABLE_BY_USB) */
 902:Generated_Source\PSoC4/CyLib.c ****             CY_SYS_CLK_IMO_TRIM1_REG = (uint32) imoTrim1Value;
 903:Generated_Source\PSoC4/CyLib.c **** 
 904:Generated_Source\PSoC4/CyLib.c ****             /* Zero out fine trim */
 905:Generated_Source\PSoC4/CyLib.c ****             CY_SYS_CLK_IMO_TRIM2_REG = CY_SYS_CLK_IMO_TRIM2_REG & ((uint32) ~CY_SYS_CLK_IMO_TRIM2_F
 906:Generated_Source\PSoC4/CyLib.c **** 
 907:Generated_Source\PSoC4/CyLib.c ****             /* Apply TC trim */
 908:Generated_Source\PSoC4/CyLib.c ****             CY_SYS_CLK_IMO_TRIM3_REG = (CY_SYS_CLK_IMO_TRIM3_REG & ((uint32) ~CY_SYS_CLK_IMO_TRIM3_
 909:Generated_Source\PSoC4/CyLib.c ****                 (CY_SFLASH_IMO_TCTRIM_REG(freq - CY_SYS_CLK_IMO_MIN_FREQ_MHZ) & CY_SYS_CLK_IMO_TRIM
 910:Generated_Source\PSoC4/CyLib.c **** 
 911:Generated_Source\PSoC4/CyLib.c ****             CyDelayCycles(CY_SYS_CLK_IMO_TRIM_DELAY_CYCLES);
 912:Generated_Source\PSoC4/CyLib.c **** 
 913:Generated_Source\PSoC4/CyLib.c ****             if (freq > CY_SYS_CLK_IMO_MIN_FREQ_MHZ)
 914:Generated_Source\PSoC4/CyLib.c ****             {
 915:Generated_Source\PSoC4/CyLib.c ****                 /* Select nearby intermediate frequency */
 916:Generated_Source\PSoC4/CyLib.c ****                 CY_SYS_CLK_IMO_SELECT_REG = (CY_SYS_CLK_IMO_SELECT_REG & ((uint32) ~CY_SYS_CLK_IMO_
 917:Generated_Source\PSoC4/CyLib.c ****                     (((freq - 4u - CY_SYS_CLK_IMO_MIN_FREQ_MHZ) >> 2u) & CY_SYS_CLK_IMO_SELECT_FREQ
 918:Generated_Source\PSoC4/CyLib.c **** 
 919:Generated_Source\PSoC4/CyLib.c ****                 CyDelayCycles(CY_SYS_CLK_IMO_TRIM_DELAY_CYCLES);
 920:Generated_Source\PSoC4/CyLib.c **** 
 921:Generated_Source\PSoC4/CyLib.c ****                 /* Make small step to final frequency */
 922:Generated_Source\PSoC4/CyLib.c ****                 /* Select nearby intermediate frequency */
 923:Generated_Source\PSoC4/CyLib.c ****                 CY_SYS_CLK_IMO_SELECT_REG = (CY_SYS_CLK_IMO_SELECT_REG & ((uint32) ~CY_SYS_CLK_IMO_
 924:Generated_Source\PSoC4/CyLib.c ****                     (((freq - CY_SYS_CLK_IMO_MIN_FREQ_MHZ) >> 2u) & CY_SYS_CLK_IMO_SELECT_FREQ_MASK
 925:Generated_Source\PSoC4/CyLib.c ****             }
 926:Generated_Source\PSoC4/CyLib.c **** 
ARM GAS  C:\Users\Toshiba\AppData\Local\Temp\ccDzK1Zy.s 			page 27


 927:Generated_Source\PSoC4/CyLib.c ****             #if (CY_IP_IMO_TRIMMABLE_BY_WCO)
 928:Generated_Source\PSoC4/CyLib.c ****                 if (1u == wcoLock)
 929:Generated_Source\PSoC4/CyLib.c ****                 {
 930:Generated_Source\PSoC4/CyLib.c ****                     CySysClkImoEnableWcoLock();
 931:Generated_Source\PSoC4/CyLib.c ****                 }
 932:Generated_Source\PSoC4/CyLib.c ****             #endif  /* (CY_IP_IMO_TRIMMABLE_BY_WCO) */
 933:Generated_Source\PSoC4/CyLib.c ****         
 934:Generated_Source\PSoC4/CyLib.c ****         
 935:Generated_Source\PSoC4/CyLib.c ****             #if (CY_IP_IMO_TRIMMABLE_BY_USB)
 936:Generated_Source\PSoC4/CyLib.c ****                 if (1u == usbLock)
 937:Generated_Source\PSoC4/CyLib.c ****                 {
 938:Generated_Source\PSoC4/CyLib.c ****                     CySysClkImoEnableUsbLock();
 939:Generated_Source\PSoC4/CyLib.c ****                 }
 940:Generated_Source\PSoC4/CyLib.c ****             #endif  /* (CY_IP_IMO_TRIMMABLE_BY_USB) */
 941:Generated_Source\PSoC4/CyLib.c **** 
 942:Generated_Source\PSoC4/CyLib.c ****             CyExitCriticalSection(interruptState);
 943:Generated_Source\PSoC4/CyLib.c ****         }
 944:Generated_Source\PSoC4/CyLib.c ****         else
 945:Generated_Source\PSoC4/CyLib.c ****         {
 946:Generated_Source\PSoC4/CyLib.c ****             /* Halt CPU in debug mode if new frequency is invalid */
 947:Generated_Source\PSoC4/CyLib.c ****             CYASSERT(0u != 0u);
 948:Generated_Source\PSoC4/CyLib.c ****         }
 949:Generated_Source\PSoC4/CyLib.c ****     }
 950:Generated_Source\PSoC4/CyLib.c **** 
 951:Generated_Source\PSoC4/CyLib.c **** #endif /* (CY_IP_SRSSV2) */
 952:Generated_Source\PSoC4/CyLib.c **** 
 953:Generated_Source\PSoC4/CyLib.c **** 
 954:Generated_Source\PSoC4/CyLib.c **** #if(CY_IP_SRSSLT)
 955:Generated_Source\PSoC4/CyLib.c ****     /*******************************************************************************
 956:Generated_Source\PSoC4/CyLib.c ****     * Function Name: CySysClkWriteHfclkDiv
 957:Generated_Source\PSoC4/CyLib.c ****     ****************************************************************************//**
 958:Generated_Source\PSoC4/CyLib.c ****     *
 959:Generated_Source\PSoC4/CyLib.c ****     * Selects the pre-scaler divider value for HFCLK from IMO.
 960:Generated_Source\PSoC4/CyLib.c ****     *
 961:Generated_Source\PSoC4/CyLib.c ****     * The HFCLK predivider allows the device to divide the HFCLK selection mux
 962:Generated_Source\PSoC4/CyLib.c ****     * input before use as HFCLK. The predivider is capable of dividing the HFCLK by
 963:Generated_Source\PSoC4/CyLib.c ****     * powers of 2 between 1 and 8.
 964:Generated_Source\PSoC4/CyLib.c ****     *
 965:Generated_Source\PSoC4/CyLib.c ****     * PSoC 4000: The SYSCLK has the speed of 16 MHz, so HFCLK and SYSCLK dividers
 966:Generated_Source\PSoC4/CyLib.c ****     * should be selected in a way, not to exceed 16 MHz for SYSCLK.
 967:Generated_Source\PSoC4/CyLib.c ****     *
 968:Generated_Source\PSoC4/CyLib.c ****     * If the SYSCLK clock frequency increases during the device operation, call
 969:Generated_Source\PSoC4/CyLib.c ****     * \ref CySysFlashSetWaitCycles() with the appropriate parameter to adjust the
 970:Generated_Source\PSoC4/CyLib.c ****     * number of clock cycles the cache will wait before sampling data comes back
 971:Generated_Source\PSoC4/CyLib.c ****     * from Flash. If the SYSCLK clock frequency decreases, you can call
 972:Generated_Source\PSoC4/CyLib.c ****     * \ref CySysFlashSetWaitCycles() to improve the CPU performance. See
 973:Generated_Source\PSoC4/CyLib.c ****     * \ref CySysFlashSetWaitCycles() description for more information.
 974:Generated_Source\PSoC4/CyLib.c ****     *
 975:Generated_Source\PSoC4/CyLib.c ****     * \param \ref CY_SYS_CLK_HFCLK_DIV_NODIV    Transparent mode (w/o dividing)
 976:Generated_Source\PSoC4/CyLib.c ****     * \param \ref CY_SYS_CLK_HFCLK_DIV_2        Divide selected clock source by 2
 977:Generated_Source\PSoC4/CyLib.c ****     * \param \ref CY_SYS_CLK_HFCLK_DIV_4        Divide selected clock source by 4
 978:Generated_Source\PSoC4/CyLib.c ****     * \param \ref CY_SYS_CLK_HFCLK_DIV_8        Divide selected clock source by 8
 979:Generated_Source\PSoC4/CyLib.c ****     *
 980:Generated_Source\PSoC4/CyLib.c ****     *******************************************************************************/
 981:Generated_Source\PSoC4/CyLib.c ****     void CySysClkWriteHfclkDiv(uint32 divider)
 982:Generated_Source\PSoC4/CyLib.c ****     {
 983:Generated_Source\PSoC4/CyLib.c ****         uint8  interruptState;
ARM GAS  C:\Users\Toshiba\AppData\Local\Temp\ccDzK1Zy.s 			page 28


 984:Generated_Source\PSoC4/CyLib.c **** 
 985:Generated_Source\PSoC4/CyLib.c ****         interruptState = CyEnterCriticalSection();
 986:Generated_Source\PSoC4/CyLib.c **** 
 987:Generated_Source\PSoC4/CyLib.c ****         CY_SYS_CLK_SELECT_REG = ((CY_SYS_CLK_SELECT_REG & ((uint32) (~(CY_SYS_CLK_SELECT_HFCLK_DIV_
 988:Generated_Source\PSoC4/CyLib.c ****                                         CY_SYS_CLK_SELECT_HFCLK_DIV_SHIFT)))) |
 989:Generated_Source\PSoC4/CyLib.c ****                     ((uint32)((divider & CY_SYS_CLK_SELECT_HFCLK_DIV_MASK) << CY_SYS_CLK_SELECT_HFC
 990:Generated_Source\PSoC4/CyLib.c **** 
 991:Generated_Source\PSoC4/CyLib.c ****         CyExitCriticalSection(interruptState);
 992:Generated_Source\PSoC4/CyLib.c ****     }
 993:Generated_Source\PSoC4/CyLib.c **** #endif /* (CY_IP_SRSSLT) */
 994:Generated_Source\PSoC4/CyLib.c **** 
 995:Generated_Source\PSoC4/CyLib.c **** 
 996:Generated_Source\PSoC4/CyLib.c **** #if (CY_IP_ECO)
 997:Generated_Source\PSoC4/CyLib.c **** 
 998:Generated_Source\PSoC4/CyLib.c ****     /*******************************************************************************
 999:Generated_Source\PSoC4/CyLib.c ****     * Function Name: CySysClkEcoStart
1000:Generated_Source\PSoC4/CyLib.c ****     ****************************************************************************//**
1001:Generated_Source\PSoC4/CyLib.c ****     *
1002:Generated_Source\PSoC4/CyLib.c ****     * Starts the External Crystal Oscillator (ECO). Refer to the device datasheet
1003:Generated_Source\PSoC4/CyLib.c ****     * for the ECO startup time.
1004:Generated_Source\PSoC4/CyLib.c ****     *
1005:Generated_Source\PSoC4/CyLib.c ****     * The timeout interval is measured based on the system frequency defined by
1006:Generated_Source\PSoC4/CyLib.c ****     * PSoC Creator at build time. If System clock frequency is changed in
1007:Generated_Source\PSoC4/CyLib.c ****     * runtime, the \ref CyDelayFreq() with the appropriate parameter should be
1008:Generated_Source\PSoC4/CyLib.c ****     * called.
1009:Generated_Source\PSoC4/CyLib.c ****     *
1010:Generated_Source\PSoC4/CyLib.c ****     * PSoC 4100 BLE / PSoC 4200 BLE: The WCO must be enabled prior to enabling ECO.
1011:Generated_Source\PSoC4/CyLib.c ****     *
1012:Generated_Source\PSoC4/CyLib.c ****     * \param timeoutUs Timeout in microseconds.
1013:Generated_Source\PSoC4/CyLib.c ****     *
1014:Generated_Source\PSoC4/CyLib.c ****     * If zero is specified, the function does not wait for timeout and returns
1015:Generated_Source\PSoC4/CyLib.c ****     * CYRET_SUCCESS. If non-zero is specified, the function waits for the timeout.
1016:Generated_Source\PSoC4/CyLib.c ****     *
1017:Generated_Source\PSoC4/CyLib.c ****     * \return \ref CYRET_SUCCESS Completed successfully. The ECO is oscillating and
1018:Generated_Source\PSoC4/CyLib.c ****     * amplitude reached 60% and it does not mean 24 MHz crystal is within 50 ppm.
1019:Generated_Source\PSoC4/CyLib.c ****     *
1020:Generated_Source\PSoC4/CyLib.c ****     * \return \ref CYRET_TIMEOUT Timeout occurred. If the crystal is not oscillating
1021:Generated_Source\PSoC4/CyLib.c ****     * or amplitude didn't reach 60% after specified amount of time, CYRET_TIMEOUT
1022:Generated_Source\PSoC4/CyLib.c ****     * is returned.
1023:Generated_Source\PSoC4/CyLib.c ****     *
1024:Generated_Source\PSoC4/CyLib.c ****     * \return \ref CYRET_BAD_PARAM One or more invalid parameters.
1025:Generated_Source\PSoC4/CyLib.c ****     *
1026:Generated_Source\PSoC4/CyLib.c ****     *******************************************************************************/
1027:Generated_Source\PSoC4/CyLib.c ****     cystatus CySysClkEcoStart(uint32 timeoutUs)
1028:Generated_Source\PSoC4/CyLib.c ****     {
 549              		.loc 1 1028 0
 550              		.cfi_startproc
 551              		@ args = 0, pretend = 0, frame = 16
 552              		@ frame_needed = 1, uses_anonymous_args = 0
 553 0000 80B5     		push	{r7, lr}
 554              		.cfi_def_cfa_offset 8
 555              		.cfi_offset 7, -8
 556              		.cfi_offset 14, -4
 557 0002 84B0     		sub	sp, sp, #16
 558              		.cfi_def_cfa_offset 24
 559 0004 00AF     		add	r7, sp, #0
 560              		.cfi_def_cfa_register 7
ARM GAS  C:\Users\Toshiba\AppData\Local\Temp\ccDzK1Zy.s 			page 29


 561 0006 7860     		str	r0, [r7, #4]
1029:Generated_Source\PSoC4/CyLib.c ****         cystatus returnStatus = CYRET_SUCCESS;
 562              		.loc 1 1029 0
 563 0008 0023     		movs	r3, #0
 564 000a FB60     		str	r3, [r7, #12]
1030:Generated_Source\PSoC4/CyLib.c **** 
1031:Generated_Source\PSoC4/CyLib.c ****         #if (CY_IP_ECO_BLESS)
1032:Generated_Source\PSoC4/CyLib.c ****             /* Enable the RF oscillator band gap */
1033:Generated_Source\PSoC4/CyLib.c ****             CY_SYS_XTAL_BLESS_RF_CONFIG_REG |= CY_SYS_XTAL_BLESS_RF_CONFIG_RF_ENABLE;
 565              		.loc 1 1033 0
 566 000c 154B     		ldr	r3, .L32
 567 000e 154A     		ldr	r2, .L32
 568 0010 1268     		ldr	r2, [r2]
 569 0012 0121     		movs	r1, #1
 570 0014 0A43     		orrs	r2, r1
 571 0016 1A60     		str	r2, [r3]
1034:Generated_Source\PSoC4/CyLib.c **** 
1035:Generated_Source\PSoC4/CyLib.c ****             /* Update trimming register */
1036:Generated_Source\PSoC4/CyLib.c ****             CY_SYS_XTAL_BLERD_BB_XO_REG = CY_SYS_XTAL_BLERD_BB_XO_TRIM;
 572              		.loc 1 1036 0
 573 0018 134B     		ldr	r3, .L32+4
 574 001a 144A     		ldr	r2, .L32+8
 575 001c 1A60     		str	r2, [r3]
1037:Generated_Source\PSoC4/CyLib.c **** 
1038:Generated_Source\PSoC4/CyLib.c ****             /* Enable the Crystal */
1039:Generated_Source\PSoC4/CyLib.c ****             CY_SYS_XTAL_BLERD_DBUS_REG |= CY_SYS_XTAL_BLERD_DBUS_XTAL_ENABLE;
 576              		.loc 1 1039 0
 577 001e 144B     		ldr	r3, .L32+12
 578 0020 134A     		ldr	r2, .L32+12
 579 0022 1268     		ldr	r2, [r2]
 580 0024 8021     		movs	r1, #128
 581 0026 0902     		lsls	r1, r1, #8
 582 0028 0A43     		orrs	r2, r1
 583 002a 1A60     		str	r2, [r3]
1040:Generated_Source\PSoC4/CyLib.c ****         
1041:Generated_Source\PSoC4/CyLib.c ****         #elif (CY_IP_ECO_BLESSV3)
1042:Generated_Source\PSoC4/CyLib.c ****             uint32 regConfig;
1043:Generated_Source\PSoC4/CyLib.c ****             uint32 intrRegMaskStore = 0u;
1044:Generated_Source\PSoC4/CyLib.c ****             
1045:Generated_Source\PSoC4/CyLib.c ****             if (0u != (CY_SYS_BLESS_MT_CFG_REG & (CY_SYS_BLESS_MT_CFG_ENABLE_BLERD <<  CYFLD_BLE_BL
1046:Generated_Source\PSoC4/CyLib.c ****             {
1047:Generated_Source\PSoC4/CyLib.c ****                 CY_SYS_BLESS_MT_CFG_REG |= (CY_SYS_BLESS_MT_CFG_DPSLP_ECO_ON  <<  CYFLD_BLE_BLESS_D
1048:Generated_Source\PSoC4/CyLib.c ****             }
1049:Generated_Source\PSoC4/CyLib.c ****             else
1050:Generated_Source\PSoC4/CyLib.c ****             {
1051:Generated_Source\PSoC4/CyLib.c ****                 /* Init BLE core */
1052:Generated_Source\PSoC4/CyLib.c ****                 CY_SYS_BLESS_MT_DELAY_CFG_REG = CY_SYS_BLESS_MT_DELAY_CFG_INIT;
1053:Generated_Source\PSoC4/CyLib.c ****                 CY_SYS_BLESS_MT_DELAY_CFG2_REG = CY_SYS_BLESS_MT_DELAY_CFG2_INIT;
1054:Generated_Source\PSoC4/CyLib.c ****                 CY_SYS_BLESS_MT_DELAY_CFG3_REG = CY_SYS_BLESS_MT_DELAY_CFG3_INIT;
1055:Generated_Source\PSoC4/CyLib.c ****             
1056:Generated_Source\PSoC4/CyLib.c ****                 /* RCB init */
1057:Generated_Source\PSoC4/CyLib.c ****                 regConfig = CY_SYS_RCB_CTRL_REG;
1058:Generated_Source\PSoC4/CyLib.c ****                 regConfig &= CY_SYS_RCB_CTRL_CLEAR;
1059:Generated_Source\PSoC4/CyLib.c ****                 regConfig |= CY_SYS_RCB_CTRL_INIT;
1060:Generated_Source\PSoC4/CyLib.c ****                 CY_SYS_RCB_CTRL_REG = regConfig;
1061:Generated_Source\PSoC4/CyLib.c ****                 
1062:Generated_Source\PSoC4/CyLib.c ****                 intrRegMaskStore = CY_SYS_BLESS_INTR_MASK_REG;
ARM GAS  C:\Users\Toshiba\AppData\Local\Temp\ccDzK1Zy.s 			page 30


1063:Generated_Source\PSoC4/CyLib.c ****                 if(0u != (CY_SYS_BLESS_BLERD_ACTIVE_INTR_MASK & intrRegMaskStore))
1064:Generated_Source\PSoC4/CyLib.c ****                 {
1065:Generated_Source\PSoC4/CyLib.c ****                     CY_SYS_BLESS_INTR_MASK_REG &= ~CY_SYS_BLESS_BLERD_ACTIVE_INTR_MASK;
1066:Generated_Source\PSoC4/CyLib.c ****                 }
1067:Generated_Source\PSoC4/CyLib.c ****                 
1068:Generated_Source\PSoC4/CyLib.c ****                 /* Enable BLE core */
1069:Generated_Source\PSoC4/CyLib.c ****                 regConfig = CY_SYS_BLESS_MT_CFG_REG;
1070:Generated_Source\PSoC4/CyLib.c ****                 regConfig &= CY_SYS_BLESS_MT_CFG_CLEAR;
1071:Generated_Source\PSoC4/CyLib.c ****                 regConfig |= CY_SYS_BLESS_MT_CFG_INIT;
1072:Generated_Source\PSoC4/CyLib.c ****                 CY_SYS_BLESS_MT_CFG_REG = regConfig;
1073:Generated_Source\PSoC4/CyLib.c **** 
1074:Generated_Source\PSoC4/CyLib.c ****                 while(0u == ((CY_SYS_BLESS_BLERD_ACTIVE_INTR_STAT & CY_SYS_BLESS_INTR_STAT_REG)))
1075:Generated_Source\PSoC4/CyLib.c ****                 {
1076:Generated_Source\PSoC4/CyLib.c ****                     /* Wait until BLERD55 moves to active state */
1077:Generated_Source\PSoC4/CyLib.c ****                 }
1078:Generated_Source\PSoC4/CyLib.c **** 
1079:Generated_Source\PSoC4/CyLib.c ****                 if(0u != (CY_SYS_BLESS_BLERD_ACTIVE_INTR_MASK & intrRegMaskStore))
1080:Generated_Source\PSoC4/CyLib.c ****                 {
1081:Generated_Source\PSoC4/CyLib.c ****                     CY_SYS_BLESS_INTR_MASK_REG |= CY_SYS_BLESS_BLERD_ACTIVE_INTR_MASK;
1082:Generated_Source\PSoC4/CyLib.c ****                 }
1083:Generated_Source\PSoC4/CyLib.c ****                 
1084:Generated_Source\PSoC4/CyLib.c ****                 /* Send write commands to RBUS */
1085:Generated_Source\PSoC4/CyLib.c ****                 CY_SYS_RCB_TX_FIFO_WR_REG = CY_SYS_RCB_RBUS_FREQ_NRST_SET;
1086:Generated_Source\PSoC4/CyLib.c ****                 CY_SYS_RCB_TX_FIFO_WR_REG = CY_SYS_RCB_RBUS_DIG_CLK_SET;
1087:Generated_Source\PSoC4/CyLib.c ****                 
1088:Generated_Source\PSoC4/CyLib.c ****                 #if (CY_SYS_BLE_CLK_ECO_FREQ_32MHZ == CYDEV_ECO_CLK_MHZ)
1089:Generated_Source\PSoC4/CyLib.c ****                     CY_SYS_RCB_TX_FIFO_WR_REG = CY_SYS_RCB_RBUS_FREQ_XTAL_DIV_SET;
1090:Generated_Source\PSoC4/CyLib.c ****                     CY_SYS_RCB_TX_FIFO_WR_REG = (CY_SYS_RCB_RBUS_RF_DCXO_CFG_SET | CY_SYS_RCB_RBUS_
1091:Generated_Source\PSoC4/CyLib.c ****                 #else
1092:Generated_Source\PSoC4/CyLib.c ****                     CY_SYS_RCB_TX_FIFO_WR_REG = CY_SYS_RCB_RBUS_FREQ_XTAL_NODIV_SET;
1093:Generated_Source\PSoC4/CyLib.c ****                 #endif
1094:Generated_Source\PSoC4/CyLib.c ****                 
1095:Generated_Source\PSoC4/CyLib.c ****                 intrRegMaskStore = CY_SYS_BLESS_INTR_MASK_REG;
1096:Generated_Source\PSoC4/CyLib.c ****                 if(0u != (CY_SYS_RCB_INTR_RCB_DONE & intrRegMaskStore))
1097:Generated_Source\PSoC4/CyLib.c ****                 {
1098:Generated_Source\PSoC4/CyLib.c ****                     CY_SYS_BLESS_INTR_MASK_REG &= ~(CY_SYS_RCB_INTR_RCB_DONE | CY_SYS_RCB_INTR_RCB_
1099:Generated_Source\PSoC4/CyLib.c ****                 }
1100:Generated_Source\PSoC4/CyLib.c ****                 
1101:Generated_Source\PSoC4/CyLib.c ****                 /* Send read commands to RBUS */
1102:Generated_Source\PSoC4/CyLib.c ****                 CY_SYS_RCB_TX_FIFO_WR_REG = (CY_SYS_RCB_RBUS_RD_CMD | 
1103:Generated_Source\PSoC4/CyLib.c ****                                             (CY_SYS_RCB_RBUS_RF_DCXO_CFG_SET & ~CY_SYS_RCB_RBUS_VAL
1104:Generated_Source\PSoC4/CyLib.c ****                                             
1105:Generated_Source\PSoC4/CyLib.c ****                 while (0u == (CY_SYS_RCB_INTR_RCB_RX_FIFO_NOT_EMPTY & CY_SYS_RCB_INTR_REG))
1106:Generated_Source\PSoC4/CyLib.c ****                 {
1107:Generated_Source\PSoC4/CyLib.c ****                     /* Wait until RX_FIFO_NOT_EMPTY state */
1108:Generated_Source\PSoC4/CyLib.c ****                 }
1109:Generated_Source\PSoC4/CyLib.c **** 
1110:Generated_Source\PSoC4/CyLib.c ****                 CY_SYS_RCB_INTR_REG |= CY_SYS_RCB_INTR_RCB_DONE;
1111:Generated_Source\PSoC4/CyLib.c ****                 
1112:Generated_Source\PSoC4/CyLib.c ****                 regConfig = CY_SYS_RCB_RX_FIFO_RD_REG & CY_SYS_RCB_RBUS_TRIM_MASK;
1113:Generated_Source\PSoC4/CyLib.c ****                 
1114:Generated_Source\PSoC4/CyLib.c ****                 /* Send write commands to RBUS */
1115:Generated_Source\PSoC4/CyLib.c ****                 CY_SYS_RCB_TX_FIFO_WR_REG = (CY_SYS_RCB_RBUS_RF_DCXO_CFG_SET | regConfig | CY_SYS_R
1116:Generated_Source\PSoC4/CyLib.c ****                 
1117:Generated_Source\PSoC4/CyLib.c ****                 while (0u == (CY_SYS_RCB_INTR_RCB_DONE & CY_SYS_RCB_INTR_REG))
1118:Generated_Source\PSoC4/CyLib.c ****                 {
1119:Generated_Source\PSoC4/CyLib.c ****                     /* Wait until RCB_DONE state */
ARM GAS  C:\Users\Toshiba\AppData\Local\Temp\ccDzK1Zy.s 			page 31


1120:Generated_Source\PSoC4/CyLib.c ****                 }
1121:Generated_Source\PSoC4/CyLib.c ****                 
1122:Generated_Source\PSoC4/CyLib.c ****                 /* Clear Interrupt */
1123:Generated_Source\PSoC4/CyLib.c ****                 CY_SYS_RCB_INTR_REG = CY_SYS_RCB_INTR_CLEAR;
1124:Generated_Source\PSoC4/CyLib.c ****                 
1125:Generated_Source\PSoC4/CyLib.c ****                 if(0u != ((CY_SYS_RCB_INTR_RCB_DONE | CY_SYS_RCB_INTR_RCB_RX_FIFO_NOT_EMPTY) & intr
1126:Generated_Source\PSoC4/CyLib.c ****                 {
1127:Generated_Source\PSoC4/CyLib.c ****                     CY_SYS_BLESS_INTR_MASK_REG |= intrRegMaskStore;
1128:Generated_Source\PSoC4/CyLib.c ****                 }
1129:Generated_Source\PSoC4/CyLib.c ****                 
1130:Generated_Source\PSoC4/CyLib.c ****             }
1131:Generated_Source\PSoC4/CyLib.c ****         #else /* CY_IP_ECO_SRSSV2 */
1132:Generated_Source\PSoC4/CyLib.c ****             CY_SYS_CLK_ECO_CONFIG_REG |= CY_SYS_CLK_ECO_CONFIG_ENABLE;
1133:Generated_Source\PSoC4/CyLib.c ****             CyDelayUs(CY_SYS_CLK_ECO_CONFIG_CLK_EN_TIMEOUT_US);
1134:Generated_Source\PSoC4/CyLib.c ****             CY_SYS_CLK_ECO_CONFIG_REG |= CY_SYS_CLK_ECO_CONFIG_CLK_EN;
1135:Generated_Source\PSoC4/CyLib.c ****         #endif /* (CY_IP_ECO_BLESS) */
1136:Generated_Source\PSoC4/CyLib.c **** 
1137:Generated_Source\PSoC4/CyLib.c ****         if(timeoutUs > 0u)
 584              		.loc 1 1137 0
 585 002c 7B68     		ldr	r3, [r7, #4]
 586 002e 002B     		cmp	r3, #0
 587 0030 12D0     		beq	.L27
1138:Generated_Source\PSoC4/CyLib.c ****         {
1139:Generated_Source\PSoC4/CyLib.c ****             returnStatus = CYRET_TIMEOUT;
 588              		.loc 1 1139 0
 589 0032 1023     		movs	r3, #16
 590 0034 FB60     		str	r3, [r7, #12]
1140:Generated_Source\PSoC4/CyLib.c **** 
1141:Generated_Source\PSoC4/CyLib.c ****             for( ; timeoutUs > 0u; timeoutUs--)
 591              		.loc 1 1141 0
 592 0036 0CE0     		b	.L28
 593              	.L30:
1142:Generated_Source\PSoC4/CyLib.c ****             {
1143:Generated_Source\PSoC4/CyLib.c ****                 CyDelayUs(1u);
 594              		.loc 1 1143 0
 595 0038 0120     		movs	r0, #1
 596 003a FFF7FEFF 		bl	CyDelayUs
1144:Generated_Source\PSoC4/CyLib.c **** 
1145:Generated_Source\PSoC4/CyLib.c ****                 if(0u != CySysClkEcoReadStatus())
 597              		.loc 1 1145 0
 598 003e FFF7FEFF 		bl	CySysClkEcoReadStatus
 599 0042 031E     		subs	r3, r0, #0
 600 0044 02D0     		beq	.L29
1146:Generated_Source\PSoC4/CyLib.c ****                 {
1147:Generated_Source\PSoC4/CyLib.c ****                     returnStatus = CYRET_SUCCESS;
 601              		.loc 1 1147 0
 602 0046 0023     		movs	r3, #0
 603 0048 FB60     		str	r3, [r7, #12]
1148:Generated_Source\PSoC4/CyLib.c ****                     break;
 604              		.loc 1 1148 0
 605 004a 05E0     		b	.L27
 606              	.L29:
1141:Generated_Source\PSoC4/CyLib.c ****             {
 607              		.loc 1 1141 0
 608 004c 7B68     		ldr	r3, [r7, #4]
 609 004e 013B     		subs	r3, r3, #1
 610 0050 7B60     		str	r3, [r7, #4]
ARM GAS  C:\Users\Toshiba\AppData\Local\Temp\ccDzK1Zy.s 			page 32


 611              	.L28:
1141:Generated_Source\PSoC4/CyLib.c ****             {
 612              		.loc 1 1141 0 is_stmt 0 discriminator 1
 613 0052 7B68     		ldr	r3, [r7, #4]
 614 0054 002B     		cmp	r3, #0
 615 0056 EFD1     		bne	.L30
 616              	.L27:
1149:Generated_Source\PSoC4/CyLib.c ****                 }
1150:Generated_Source\PSoC4/CyLib.c ****             }
1151:Generated_Source\PSoC4/CyLib.c **** 
1152:Generated_Source\PSoC4/CyLib.c ****         }
1153:Generated_Source\PSoC4/CyLib.c **** 
1154:Generated_Source\PSoC4/CyLib.c ****         return(returnStatus);
 617              		.loc 1 1154 0 is_stmt 1
 618 0058 FB68     		ldr	r3, [r7, #12]
1155:Generated_Source\PSoC4/CyLib.c ****     }
 619              		.loc 1 1155 0
 620 005a 1800     		movs	r0, r3
 621 005c BD46     		mov	sp, r7
 622 005e 04B0     		add	sp, sp, #16
 623              		@ sp needed
 624 0060 80BD     		pop	{r7, pc}
 625              	.L33:
 626 0062 C046     		.align	2
 627              	.L32:
 628 0064 60F02E40 		.word	1076818016
 629 0068 78002E40 		.word	1076756600
 630 006c 02200000 		.word	8194
 631 0070 10002E40 		.word	1076756496
 632              		.cfi_endproc
 633              	.LFE9:
 634              		.size	CySysClkEcoStart, .-CySysClkEcoStart
 635              		.section	.text.CySysClkEcoStop,"ax",%progbits
 636              		.align	2
 637              		.global	CySysClkEcoStop
 638              		.code	16
 639              		.thumb_func
 640              		.type	CySysClkEcoStop, %function
 641              	CySysClkEcoStop:
 642              	.LFB10:
1156:Generated_Source\PSoC4/CyLib.c **** 
1157:Generated_Source\PSoC4/CyLib.c **** 
1158:Generated_Source\PSoC4/CyLib.c ****     /*******************************************************************************
1159:Generated_Source\PSoC4/CyLib.c ****     * Function Name: CySysClkEcoStop
1160:Generated_Source\PSoC4/CyLib.c ****     ****************************************************************************//**
1161:Generated_Source\PSoC4/CyLib.c ****     *
1162:Generated_Source\PSoC4/CyLib.c ****     * Stops the megahertz crystal.
1163:Generated_Source\PSoC4/CyLib.c ****     *
1164:Generated_Source\PSoC4/CyLib.c ****     * If ECO is disabled when it is sourcing HFCLK, the CPU will halt. In addition,
1165:Generated_Source\PSoC4/CyLib.c ****     * for PSoC 4100 BLE / PSoC 4200 BLE devices, the BLE sub-system will stop
1166:Generated_Source\PSoC4/CyLib.c ****     * functioning.
1167:Generated_Source\PSoC4/CyLib.c ****     *
1168:Generated_Source\PSoC4/CyLib.c ****     *******************************************************************************/
1169:Generated_Source\PSoC4/CyLib.c ****     void CySysClkEcoStop(void)
1170:Generated_Source\PSoC4/CyLib.c ****     {
 643              		.loc 1 1170 0
 644              		.cfi_startproc
ARM GAS  C:\Users\Toshiba\AppData\Local\Temp\ccDzK1Zy.s 			page 33


 645              		@ args = 0, pretend = 0, frame = 0
 646              		@ frame_needed = 1, uses_anonymous_args = 0
 647 0000 80B5     		push	{r7, lr}
 648              		.cfi_def_cfa_offset 8
 649              		.cfi_offset 7, -8
 650              		.cfi_offset 14, -4
 651 0002 00AF     		add	r7, sp, #0
 652              		.cfi_def_cfa_register 7
1171:Generated_Source\PSoC4/CyLib.c ****         #if (CY_IP_WCO_BLESS)
1172:Generated_Source\PSoC4/CyLib.c ****             /* Disable the RF oscillator band gap */
1173:Generated_Source\PSoC4/CyLib.c ****             CY_SYS_XTAL_BLESS_RF_CONFIG_REG &= (uint32) ~CY_SYS_XTAL_BLESS_RF_CONFIG_RF_ENABLE;
 653              		.loc 1 1173 0
 654 0004 074B     		ldr	r3, .L35
 655 0006 074A     		ldr	r2, .L35
 656 0008 1268     		ldr	r2, [r2]
 657 000a 0121     		movs	r1, #1
 658 000c 8A43     		bics	r2, r1
 659 000e 1A60     		str	r2, [r3]
1174:Generated_Source\PSoC4/CyLib.c **** 
1175:Generated_Source\PSoC4/CyLib.c ****             /* Disable the Crystal */
1176:Generated_Source\PSoC4/CyLib.c ****             CY_SYS_XTAL_BLERD_DBUS_REG &= (uint32) ~CY_SYS_XTAL_BLERD_DBUS_XTAL_ENABLE;
 660              		.loc 1 1176 0
 661 0010 054B     		ldr	r3, .L35+4
 662 0012 054A     		ldr	r2, .L35+4
 663 0014 1268     		ldr	r2, [r2]
 664 0016 0549     		ldr	r1, .L35+8
 665 0018 0A40     		ands	r2, r1
 666 001a 1A60     		str	r2, [r3]
1177:Generated_Source\PSoC4/CyLib.c ****         #elif (CY_IP_ECO_BLESSV3)
1178:Generated_Source\PSoC4/CyLib.c ****             CY_SYS_BLESS_MT_CFG_REG &= ~(CY_SYS_BLESS_MT_CFG_DPSLP_ECO_ON  <<  CYFLD_BLE_BLESS_DPSL
1179:Generated_Source\PSoC4/CyLib.c ****         #else
1180:Generated_Source\PSoC4/CyLib.c ****             CY_SYS_CLK_ECO_CONFIG_REG &= (uint32) ~(CY_SYS_CLK_ECO_CONFIG_ENABLE | CY_SYS_CLK_ECO_C
1181:Generated_Source\PSoC4/CyLib.c ****         #endif /* (CY_IP_WCO_BLESS) */
1182:Generated_Source\PSoC4/CyLib.c ****     }
 667              		.loc 1 1182 0
 668 001c C046     		nop
 669 001e BD46     		mov	sp, r7
 670              		@ sp needed
 671 0020 80BD     		pop	{r7, pc}
 672              	.L36:
 673 0022 C046     		.align	2
 674              	.L35:
 675 0024 60F02E40 		.word	1076818016
 676 0028 10002E40 		.word	1076756496
 677 002c FF7FFFFF 		.word	-32769
 678              		.cfi_endproc
 679              	.LFE10:
 680              		.size	CySysClkEcoStop, .-CySysClkEcoStop
 681              		.section	.text.CySysClkEcoReadStatus,"ax",%progbits
 682              		.align	2
 683              		.global	CySysClkEcoReadStatus
 684              		.code	16
 685              		.thumb_func
 686              		.type	CySysClkEcoReadStatus, %function
 687              	CySysClkEcoReadStatus:
 688              	.LFB11:
1183:Generated_Source\PSoC4/CyLib.c **** 
ARM GAS  C:\Users\Toshiba\AppData\Local\Temp\ccDzK1Zy.s 			page 34


1184:Generated_Source\PSoC4/CyLib.c **** 
1185:Generated_Source\PSoC4/CyLib.c ****     /*******************************************************************************
1186:Generated_Source\PSoC4/CyLib.c ****     * Function Name: CySysClkEcoReadStatus
1187:Generated_Source\PSoC4/CyLib.c ****     ****************************************************************************//**
1188:Generated_Source\PSoC4/CyLib.c ****     *
1189:Generated_Source\PSoC4/CyLib.c ****     * Reads the status bit for the megahertz crystal.
1190:Generated_Source\PSoC4/CyLib.c ****     *
1191:Generated_Source\PSoC4/CyLib.c ****     * For PSoC 4100 BLE / PSoC 4200 BLE devices, the status bit is the
1192:Generated_Source\PSoC4/CyLib.c ****     * XO_AMP_DETECT bit in FSM register.
1193:Generated_Source\PSoC4/CyLib.c ****     *
1194:Generated_Source\PSoC4/CyLib.c ****     * For PSoC 4200L devices, the error status bit is the WATCHDOG_ERROR bit in
1195:Generated_Source\PSoC4/CyLib.c ****     * ECO_STATUS register.
1196:Generated_Source\PSoC4/CyLib.c ****     *
1197:Generated_Source\PSoC4/CyLib.c ****     * \return PSoC 4100 BLE/PSoC 4200 BLE: Non-zero indicates that ECO output
1198:Generated_Source\PSoC4/CyLib.c ****     * reached 50 ppm and is oscillating in valid range.
1199:Generated_Source\PSoC4/CyLib.c ****     *
1200:Generated_Source\PSoC4/CyLib.c ****     * \return PSoC 4200L: Non-zero indicates that ECO is running.
1201:Generated_Source\PSoC4/CyLib.c ****     *
1202:Generated_Source\PSoC4/CyLib.c ****     *******************************************************************************/
1203:Generated_Source\PSoC4/CyLib.c ****     uint32 CySysClkEcoReadStatus(void)
1204:Generated_Source\PSoC4/CyLib.c ****     {
 689              		.loc 1 1204 0
 690              		.cfi_startproc
 691              		@ args = 0, pretend = 0, frame = 8
 692              		@ frame_needed = 1, uses_anonymous_args = 0
 693 0000 80B5     		push	{r7, lr}
 694              		.cfi_def_cfa_offset 8
 695              		.cfi_offset 7, -8
 696              		.cfi_offset 14, -4
 697 0002 82B0     		sub	sp, sp, #8
 698              		.cfi_def_cfa_offset 16
 699 0004 00AF     		add	r7, sp, #0
 700              		.cfi_def_cfa_register 7
1205:Generated_Source\PSoC4/CyLib.c ****         uint32 returnValue;
1206:Generated_Source\PSoC4/CyLib.c **** 
1207:Generated_Source\PSoC4/CyLib.c ****         #if (CY_IP_WCO_BLESS)
1208:Generated_Source\PSoC4/CyLib.c ****             returnValue = CY_SYS_XTAL_BLERD_FSM_REG & CY_SYS_XTAL_BLERD_FSM_XO_AMP_DETECT;
 701              		.loc 1 1208 0
 702 0006 054B     		ldr	r3, .L39
 703 0008 1B68     		ldr	r3, [r3]
 704 000a 0122     		movs	r2, #1
 705 000c 1340     		ands	r3, r2
 706 000e 7B60     		str	r3, [r7, #4]
1209:Generated_Source\PSoC4/CyLib.c ****         #elif (CY_IP_ECO_BLESSV3)
1210:Generated_Source\PSoC4/CyLib.c ****             returnValue = (CY_SYS_BLESS_MT_STATUS_REG & CY_SYS_BLESS_MT_STATUS_CURR_STATE_MASK) >> 
1211:Generated_Source\PSoC4/CyLib.c **** 
1212:Generated_Source\PSoC4/CyLib.c ****             returnValue =  ((CY_SYS_BLESS_MT_STATUS_BLERD_IDLE == returnValue) || 
1213:Generated_Source\PSoC4/CyLib.c ****                             (CY_SYS_BLESS_MT_STATUS_SWITCH_EN  == returnValue) ||
1214:Generated_Source\PSoC4/CyLib.c ****                             (CY_SYS_BLESS_MT_STATUS_ACTIVE  ==  returnValue) ||
1215:Generated_Source\PSoC4/CyLib.c ****                             (CY_SYS_BLESS_MT_STATUS_ISOLATE == returnValue));
1216:Generated_Source\PSoC4/CyLib.c ****         #else
1217:Generated_Source\PSoC4/CyLib.c ****             returnValue = (0u != (CY_SYS_CLK_ECO_STATUS_REG & CY_SYS_CLK_ECO_STATUS_WATCHDOG_ERROR)
1218:Generated_Source\PSoC4/CyLib.c ****         #endif /* (CY_IP_WCO_BLESS) */
1219:Generated_Source\PSoC4/CyLib.c **** 
1220:Generated_Source\PSoC4/CyLib.c ****         return (returnValue);
 707              		.loc 1 1220 0
 708 0010 7B68     		ldr	r3, [r7, #4]
ARM GAS  C:\Users\Toshiba\AppData\Local\Temp\ccDzK1Zy.s 			page 35


1221:Generated_Source\PSoC4/CyLib.c ****     }
 709              		.loc 1 1221 0
 710 0012 1800     		movs	r0, r3
 711 0014 BD46     		mov	sp, r7
 712 0016 02B0     		add	sp, sp, #8
 713              		@ sp needed
 714 0018 80BD     		pop	{r7, pc}
 715              	.L40:
 716 001a C046     		.align	2
 717              	.L39:
 718 001c 0C002E40 		.word	1076756492
 719              		.cfi_endproc
 720              	.LFE11:
 721              		.size	CySysClkEcoReadStatus, .-CySysClkEcoReadStatus
 722              		.section	.text.CySysClkWriteEcoDiv,"ax",%progbits
 723              		.align	2
 724              		.global	CySysClkWriteEcoDiv
 725              		.code	16
 726              		.thumb_func
 727              		.type	CySysClkWriteEcoDiv, %function
 728              	CySysClkWriteEcoDiv:
 729              	.LFB12:
1222:Generated_Source\PSoC4/CyLib.c **** 
1223:Generated_Source\PSoC4/CyLib.c ****     #if (CY_IP_ECO_BLESS || CY_IP_ECO_BLESSV3)
1224:Generated_Source\PSoC4/CyLib.c ****         /*******************************************************************************
1225:Generated_Source\PSoC4/CyLib.c ****         * Function Name: CySysClkWriteEcoDiv
1226:Generated_Source\PSoC4/CyLib.c ****         ****************************************************************************//**
1227:Generated_Source\PSoC4/CyLib.c ****         *
1228:Generated_Source\PSoC4/CyLib.c ****         * Selects value for the ECO divider.
1229:Generated_Source\PSoC4/CyLib.c ****         *
1230:Generated_Source\PSoC4/CyLib.c ****         * The ECO must not be the HFCLK clock source when this function is called.
1231:Generated_Source\PSoC4/CyLib.c ****         * The HFCLK source can be changed to the other clock source by call to the
1232:Generated_Source\PSoC4/CyLib.c ****         * CySysClkWriteHfclkDirect() function. If the ECO sources the HFCLK this
1233:Generated_Source\PSoC4/CyLib.c ****         * function will not have any effect if compiler in release mode, and halt the
1234:Generated_Source\PSoC4/CyLib.c ****         * CPU when compiler in debug mode.
1235:Generated_Source\PSoC4/CyLib.c ****         *
1236:Generated_Source\PSoC4/CyLib.c ****         * If the SYSCLK clock frequency increases during the device operation, call
1237:Generated_Source\PSoC4/CyLib.c ****         * CySysFlashSetWaitCycles() with the appropriate parameter to adjust the number
1238:Generated_Source\PSoC4/CyLib.c ****         * of clock cycles the cache will wait before sampling data comes back from
1239:Generated_Source\PSoC4/CyLib.c ****         * Flash. If the SYSCLK clock frequency decreases, you can call
1240:Generated_Source\PSoC4/CyLib.c ****         * CySysFlashSetWaitCycles() to improve the CPU performance. See
1241:Generated_Source\PSoC4/CyLib.c ****         * CySysFlashSetWaitCycles() description for more information.
1242:Generated_Source\PSoC4/CyLib.c ****         *
1243:Generated_Source\PSoC4/CyLib.c ****         * \param divider Power of 2 divider selection.
1244:Generated_Source\PSoC4/CyLib.c ****         * - \ref CY_SYS_CLK_ECO_DIV1
1245:Generated_Source\PSoC4/CyLib.c ****         * - \ref CY_SYS_CLK_ECO_DIV2
1246:Generated_Source\PSoC4/CyLib.c ****         * - \ref CY_SYS_CLK_ECO_DIV4
1247:Generated_Source\PSoC4/CyLib.c ****         * - \ref CY_SYS_CLK_ECO_DIV8
1248:Generated_Source\PSoC4/CyLib.c ****         *
1249:Generated_Source\PSoC4/CyLib.c ****         *******************************************************************************/
1250:Generated_Source\PSoC4/CyLib.c ****         void CySysClkWriteEcoDiv(uint32 divider)
1251:Generated_Source\PSoC4/CyLib.c ****         {
 730              		.loc 1 1251 0
 731              		.cfi_startproc
 732              		@ args = 0, pretend = 0, frame = 16
 733              		@ frame_needed = 1, uses_anonymous_args = 0
 734 0000 90B5     		push	{r4, r7, lr}
ARM GAS  C:\Users\Toshiba\AppData\Local\Temp\ccDzK1Zy.s 			page 36


 735              		.cfi_def_cfa_offset 12
 736              		.cfi_offset 4, -12
 737              		.cfi_offset 7, -8
 738              		.cfi_offset 14, -4
 739 0002 85B0     		sub	sp, sp, #20
 740              		.cfi_def_cfa_offset 32
 741 0004 00AF     		add	r7, sp, #0
 742              		.cfi_def_cfa_register 7
 743 0006 7860     		str	r0, [r7, #4]
1252:Generated_Source\PSoC4/CyLib.c ****             uint8  interruptState;
1253:Generated_Source\PSoC4/CyLib.c **** 
1254:Generated_Source\PSoC4/CyLib.c ****             if (CY_SYS_CLK_HFCLK_ECO != (CY_SYS_CLK_SELECT_REG & CY_SYS_CLK_SELECT_DIRECT_SEL_MASK)
 744              		.loc 1 1254 0
 745 0008 114B     		ldr	r3, .L45
 746 000a 1B68     		ldr	r3, [r3]
 747 000c 0722     		movs	r2, #7
 748 000e 1340     		ands	r3, r2
 749 0010 022B     		cmp	r3, #2
 750 0012 16D0     		beq	.L42
1255:Generated_Source\PSoC4/CyLib.c ****             {
1256:Generated_Source\PSoC4/CyLib.c ****                 interruptState = CyEnterCriticalSection();
 751              		.loc 1 1256 0
 752 0014 0F23     		movs	r3, #15
 753 0016 FC18     		adds	r4, r7, r3
 754 0018 FFF7FEFF 		bl	CyEnterCriticalSection
 755 001c 0300     		movs	r3, r0
 756 001e 2370     		strb	r3, [r4]
1257:Generated_Source\PSoC4/CyLib.c **** 
1258:Generated_Source\PSoC4/CyLib.c ****                 CY_SYS_CLK_XTAL_CLK_DIV_CONFIG_REG =  (divider & CY_SYS_CLK_XTAL_CLK_DIV_MASK) |
 757              		.loc 1 1258 0
 758 0020 0C4B     		ldr	r3, .L45+4
 759 0022 7A68     		ldr	r2, [r7, #4]
 760 0024 0321     		movs	r1, #3
 761 0026 1140     		ands	r1, r2
1259:Generated_Source\PSoC4/CyLib.c ****                                                       (CY_SYS_CLK_XTAL_CLK_DIV_CONFIG_REG & ((uint3
 762              		.loc 1 1259 0
 763 0028 0A4A     		ldr	r2, .L45+4
 764 002a 1268     		ldr	r2, [r2]
 765 002c 0320     		movs	r0, #3
 766 002e 8243     		bics	r2, r0
1258:Generated_Source\PSoC4/CyLib.c ****                                                       (CY_SYS_CLK_XTAL_CLK_DIV_CONFIG_REG & ((uint3
 767              		.loc 1 1258 0
 768 0030 0A43     		orrs	r2, r1
 769 0032 1A60     		str	r2, [r3]
1260:Generated_Source\PSoC4/CyLib.c **** 
1261:Generated_Source\PSoC4/CyLib.c ****                 CyExitCriticalSection(interruptState);
 770              		.loc 1 1261 0
 771 0034 0F23     		movs	r3, #15
 772 0036 FB18     		adds	r3, r7, r3
 773 0038 1B78     		ldrb	r3, [r3]
 774 003a 1800     		movs	r0, r3
 775 003c FFF7FEFF 		bl	CyExitCriticalSection
1262:Generated_Source\PSoC4/CyLib.c ****             }
1263:Generated_Source\PSoC4/CyLib.c ****             else
1264:Generated_Source\PSoC4/CyLib.c ****             {
1265:Generated_Source\PSoC4/CyLib.c ****                 /* Halt CPU in debug mode if ECO sources HFCLK */
1266:Generated_Source\PSoC4/CyLib.c ****                 CYASSERT(0u != 0u);
ARM GAS  C:\Users\Toshiba\AppData\Local\Temp\ccDzK1Zy.s 			page 37


1267:Generated_Source\PSoC4/CyLib.c ****             }
1268:Generated_Source\PSoC4/CyLib.c ****         }
 776              		.loc 1 1268 0
 777 0040 02E0     		b	.L44
 778              	.L42:
1266:Generated_Source\PSoC4/CyLib.c ****             }
 779              		.loc 1 1266 0 discriminator 1
 780 0042 0020     		movs	r0, #0
 781 0044 FFF7FEFF 		bl	CyHalt
 782              	.L44:
 783              		.loc 1 1268 0
 784 0048 C046     		nop
 785 004a BD46     		mov	sp, r7
 786 004c 05B0     		add	sp, sp, #20
 787              		@ sp needed
 788 004e 90BD     		pop	{r4, r7, pc}
 789              	.L46:
 790              		.align	2
 791              	.L45:
 792 0050 00010B40 		.word	1074462976
 793 0054 64F02E40 		.word	1076818020
 794              		.cfi_endproc
 795              	.LFE12:
 796              		.size	CySysClkWriteEcoDiv, .-CySysClkWriteEcoDiv
 797              		.section	.text.CySysLvdEnable,"ax",%progbits
 798              		.align	2
 799              		.global	CySysLvdEnable
 800              		.code	16
 801              		.thumb_func
 802              		.type	CySysLvdEnable, %function
 803              	CySysLvdEnable:
 804              	.LFB13:
1269:Generated_Source\PSoC4/CyLib.c **** 
1270:Generated_Source\PSoC4/CyLib.c ****     #else
1271:Generated_Source\PSoC4/CyLib.c **** 
1272:Generated_Source\PSoC4/CyLib.c ****         /*******************************************************************************
1273:Generated_Source\PSoC4/CyLib.c ****         * Function Name: CySysClkConfigureEcoTrim
1274:Generated_Source\PSoC4/CyLib.c ****         ****************************************************************************//**
1275:Generated_Source\PSoC4/CyLib.c ****         *
1276:Generated_Source\PSoC4/CyLib.c ****         * Selects trim setting values for ECO. This API is available only for PSoC
1277:Generated_Source\PSoC4/CyLib.c ****         * 4200L devices only.
1278:Generated_Source\PSoC4/CyLib.c ****         *
1279:Generated_Source\PSoC4/CyLib.c ****         * The following parameters can be trimmed for ECO. The affected registers are
1280:Generated_Source\PSoC4/CyLib.c ****         * ECO_TRIM0 and ECO_TRIM1.
1281:Generated_Source\PSoC4/CyLib.c ****         *
1282:Generated_Source\PSoC4/CyLib.c ****         * Watchdog trim - This bit field sets the error threshold below the steady
1283:Generated_Source\PSoC4/CyLib.c ****         * state amplitude level.
1284:Generated_Source\PSoC4/CyLib.c ****         *
1285:Generated_Source\PSoC4/CyLib.c ****         * Amplitude trim - This bit field is to set the crystal drive level when
1286:Generated_Source\PSoC4/CyLib.c ****         * ECO_CONFIG.AGC_EN = 1. WARNING: use care when setting this field because
1287:Generated_Source\PSoC4/CyLib.c ****         * driving a crystal beyond its rated limit can permanently damage the crystal.
1288:Generated_Source\PSoC4/CyLib.c ****         *
1289:Generated_Source\PSoC4/CyLib.c ****         * Filter frequency trim - This bit field sets LPF frequency trim and affects
1290:Generated_Source\PSoC4/CyLib.c ****         * the 3rd harmonic content.
1291:Generated_Source\PSoC4/CyLib.c ****         *
1292:Generated_Source\PSoC4/CyLib.c ****         * Feedback resistor trim - This bit field sets the feedback resistor trim and
1293:Generated_Source\PSoC4/CyLib.c ****         * impacts the oscillation amplitude.
ARM GAS  C:\Users\Toshiba\AppData\Local\Temp\ccDzK1Zy.s 			page 38


1294:Generated_Source\PSoC4/CyLib.c ****         *
1295:Generated_Source\PSoC4/CyLib.c ****         * Amplifier gain trim - This bit field sets the amplifier gain trim and affects
1296:Generated_Source\PSoC4/CyLib.c ****         * the startup time of the crystal.
1297:Generated_Source\PSoC4/CyLib.c ****         *
1298:Generated_Source\PSoC4/CyLib.c ****         * Use care when setting the amplitude trim field because driving a crystal
1299:Generated_Source\PSoC4/CyLib.c ****         * beyond its rated limit can permanently damage the crystal.
1300:Generated_Source\PSoC4/CyLib.c ****         *
1301:Generated_Source\PSoC4/CyLib.c ****         * \param wDTrim: Watchdog trim
1302:Generated_Source\PSoC4/CyLib.c ****         * - \ref CY_SYS_CLK_ECO_WDTRIM0      Error threshold is 0.05 V
1303:Generated_Source\PSoC4/CyLib.c ****         * - \ref CY_SYS_CLK_ECO_WDTRIM1      Error threshold is 0.10 V
1304:Generated_Source\PSoC4/CyLib.c ****         * - \ref CY_SYS_CLK_ECO_WDTRIM2      Error threshold is 0.15 V
1305:Generated_Source\PSoC4/CyLib.c ****         * - \ref CY_SYS_CLK_ECO_WDTRIM3      Error threshold is 0.20 V
1306:Generated_Source\PSoC4/CyLib.c ****         *
1307:Generated_Source\PSoC4/CyLib.c ****         * \param aTrim: Amplitude trim
1308:Generated_Source\PSoC4/CyLib.c ****         * - \ref CY_SYS_CLK_ECO_ATRIM0       Amplitude is 0.3 Vpp
1309:Generated_Source\PSoC4/CyLib.c ****         * - \ref CY_SYS_CLK_ECO_ATRIM1       Amplitude is 0.4 Vpp
1310:Generated_Source\PSoC4/CyLib.c ****         * - \ref CY_SYS_CLK_ECO_ATRIM2       Amplitude is 0.5 Vpp
1311:Generated_Source\PSoC4/CyLib.c ****         * - \ref CY_SYS_CLK_ECO_ATRIM3       Amplitude is 0.6 Vpp
1312:Generated_Source\PSoC4/CyLib.c ****         * - \ref CY_SYS_CLK_ECO_ATRIM4       Amplitude is 0.7 Vpp
1313:Generated_Source\PSoC4/CyLib.c ****         * - \ref CY_SYS_CLK_ECO_ATRIM5       Amplitude is 0.8 Vpp
1314:Generated_Source\PSoC4/CyLib.c ****         * - \ref CY_SYS_CLK_ECO_ATRIM6       Amplitude is 0.9 Vpp
1315:Generated_Source\PSoC4/CyLib.c ****         * - \ref CY_SYS_CLK_ECO_ATRIM7       Amplitude is 1.0 Vpp
1316:Generated_Source\PSoC4/CyLib.c ****         *
1317:Generated_Source\PSoC4/CyLib.c ****         * \param fTrim: Filter frequency trim
1318:Generated_Source\PSoC4/CyLib.c ****         * - \ref CY_SYS_CLK_ECO_FTRIM0       Crystal frequency > 30 MHz
1319:Generated_Source\PSoC4/CyLib.c ****         * - \ref CY_SYS_CLK_ECO_FTRIM1       24 MHz < Crystal frequency <= 30 MHz
1320:Generated_Source\PSoC4/CyLib.c ****         * - \ref CY_SYS_CLK_ECO_FTRIM2       17 MHz < Crystal frequency <= 24 MHz
1321:Generated_Source\PSoC4/CyLib.c ****         * - \ref CY_SYS_CLK_ECO_FTRIM3       Crystal frequency <= 17 MHz
1322:Generated_Source\PSoC4/CyLib.c ****         *
1323:Generated_Source\PSoC4/CyLib.c ****         * \param rTrim: Feedback resistor trim
1324:Generated_Source\PSoC4/CyLib.c ****         * - \ref CY_SYS_CLK_ECO_RTRIM0       Crystal frequency > 30 MHz
1325:Generated_Source\PSoC4/CyLib.c ****         * - \ref CY_SYS_CLK_ECO_RTRIM1       24 MHz < Crystal frequency <= 30 MHz
1326:Generated_Source\PSoC4/CyLib.c ****         * - \ref CY_SYS_CLK_ECO_RTRIM2       17 MHz < Crystal frequency <= 24 MHz
1327:Generated_Source\PSoC4/CyLib.c ****         * - \ref CY_SYS_CLK_ECO_RTRIM3       Crystal frequency <= 17 MHz
1328:Generated_Source\PSoC4/CyLib.c ****         *
1329:Generated_Source\PSoC4/CyLib.c ****         * \param gTrim: Amplifier gain trim. Calculate the minimum required gm
1330:Generated_Source\PSoC4/CyLib.c ****         * (trans-conductance value). Divide the calculated gm value by 4.5 to
1331:Generated_Source\PSoC4/CyLib.c ****         * obtain an integer value 'result'. For more information please refer
1332:Generated_Source\PSoC4/CyLib.c ****         * to the device TRM.
1333:Generated_Source\PSoC4/CyLib.c ****         * - \ref CY_SYS_CLK_ECO_GTRIM0       If result = 1
1334:Generated_Source\PSoC4/CyLib.c ****         * - \ref CY_SYS_CLK_ECO_GTRIM1       If result = 0
1335:Generated_Source\PSoC4/CyLib.c ****         * - \ref CY_SYS_CLK_ECO_GTRIM2       If result = 2
1336:Generated_Source\PSoC4/CyLib.c ****         * - \ref CY_SYS_CLK_ECO_GTRIM2       If result = 3
1337:Generated_Source\PSoC4/CyLib.c ****         *
1338:Generated_Source\PSoC4/CyLib.c ****         *******************************************************************************/
1339:Generated_Source\PSoC4/CyLib.c ****         void CySysClkConfigureEcoTrim(uint32 wDTrim, uint32 aTrim, uint32 fTrim, uint32 rTrim, uint
1340:Generated_Source\PSoC4/CyLib.c ****         {
1341:Generated_Source\PSoC4/CyLib.c ****             uint8  interruptState;
1342:Generated_Source\PSoC4/CyLib.c ****             uint32 regTmp;
1343:Generated_Source\PSoC4/CyLib.c **** 
1344:Generated_Source\PSoC4/CyLib.c ****             interruptState = CyEnterCriticalSection();
1345:Generated_Source\PSoC4/CyLib.c **** 
1346:Generated_Source\PSoC4/CyLib.c ****             regTmp  = CY_SYS_CLK_ECO_TRIM0_REG & ~(CY_SYS_CLK_ECO_TRIM0_WDTRIM_MASK | CY_SYS_CLK_EC
1347:Generated_Source\PSoC4/CyLib.c ****             regTmp |= ((uint32) (wDTrim << CY_SYS_CLK_ECO_TRIM0_WDTRIM_SHIFT) & CY_SYS_CLK_ECO_TRIM
1348:Generated_Source\PSoC4/CyLib.c ****             regTmp |= ((uint32) (aTrim << CY_SYS_CLK_ECO_TRIM0_ATRIM_SHIFT) & CY_SYS_CLK_ECO_TRIM0_
1349:Generated_Source\PSoC4/CyLib.c ****             CY_SYS_CLK_ECO_TRIM0_REG = regTmp;
1350:Generated_Source\PSoC4/CyLib.c **** 
ARM GAS  C:\Users\Toshiba\AppData\Local\Temp\ccDzK1Zy.s 			page 39


1351:Generated_Source\PSoC4/CyLib.c ****             regTmp  = CY_SYS_CLK_ECO_TRIM1_REG & ~(CY_SYS_CLK_ECO_TRIM1_FTRIM_MASK |
1352:Generated_Source\PSoC4/CyLib.c ****                                                    CY_SYS_CLK_ECO_TRIM1_RTRIM_MASK |
1353:Generated_Source\PSoC4/CyLib.c ****                                                    CY_SYS_CLK_ECO_TRIM1_GTRIM_MASK);
1354:Generated_Source\PSoC4/CyLib.c ****             regTmp |= ((uint32) (fTrim << CY_SYS_CLK_ECO_TRIM1_FTRIM_SHIFT) & CY_SYS_CLK_ECO_TRIM1_
1355:Generated_Source\PSoC4/CyLib.c ****             regTmp |= ((uint32) (rTrim << CY_SYS_CLK_ECO_TRIM1_RTRIM_SHIFT) & CY_SYS_CLK_ECO_TRIM1_
1356:Generated_Source\PSoC4/CyLib.c ****             regTmp |= ((uint32) (gTrim << CY_SYS_CLK_ECO_TRIM1_GTRIM_SHIFT) & CY_SYS_CLK_ECO_TRIM1_
1357:Generated_Source\PSoC4/CyLib.c **** 
1358:Generated_Source\PSoC4/CyLib.c ****             CY_SYS_CLK_ECO_TRIM1_REG = regTmp;
1359:Generated_Source\PSoC4/CyLib.c **** 
1360:Generated_Source\PSoC4/CyLib.c ****             CyExitCriticalSection(interruptState);
1361:Generated_Source\PSoC4/CyLib.c ****         }
1362:Generated_Source\PSoC4/CyLib.c **** 
1363:Generated_Source\PSoC4/CyLib.c **** 
1364:Generated_Source\PSoC4/CyLib.c ****         /*******************************************************************************
1365:Generated_Source\PSoC4/CyLib.c ****         * Function Name: CySysClkConfigureEcoDrive
1366:Generated_Source\PSoC4/CyLib.c ****         ****************************************************************************//**
1367:Generated_Source\PSoC4/CyLib.c ****         *
1368:Generated_Source\PSoC4/CyLib.c ****         * Selects trim setting values for ECO based on crystal parameters. Use care
1369:Generated_Source\PSoC4/CyLib.c ****         * when setting the driveLevel parameter because driving a crystal beyond its
1370:Generated_Source\PSoC4/CyLib.c ****         * rated limit can permanently damage the crystal.
1371:Generated_Source\PSoC4/CyLib.c ****         *
1372:Generated_Source\PSoC4/CyLib.c ****         * This API is available only for PSoC 4200L devices only.
1373:Generated_Source\PSoC4/CyLib.c ****         *
1374:Generated_Source\PSoC4/CyLib.c ****         * \param freq Frequency of the crystal in kHz.
1375:Generated_Source\PSoC4/CyLib.c ****         * \param cLoad Crystal load capacitance in pF.
1376:Generated_Source\PSoC4/CyLib.c ****         * \param esr Equivalent series resistance of the crystal in ohm.
1377:Generated_Source\PSoC4/CyLib.c ****         *  maxAmplitude: maximum amplitude level in mV. Calculate as
1378:Generated_Source\PSoC4/CyLib.c ****         *  ((sqrt(driveLevel in uW / 2 / esr))/(3.14 * freq * cLoad)) * 10^9.
1379:Generated_Source\PSoC4/CyLib.c ****         *
1380:Generated_Source\PSoC4/CyLib.c ****         *  The Automatic Gain Control (AGC) is disabled when the specified maximum
1381:Generated_Source\PSoC4/CyLib.c ****         *  amplitude level equals or above 2. In this case the amplitude is not
1382:Generated_Source\PSoC4/CyLib.c ****         *  explicitly controlled and will grow until it saturates to the supply rail
1383:Generated_Source\PSoC4/CyLib.c ****         *  (1.8V nom). WARNING: use care when disabling AGC because driving a crystal
1384:Generated_Source\PSoC4/CyLib.c ****         *  beyond its rated limit can permanently damage the crystal.
1385:Generated_Source\PSoC4/CyLib.c ****         *
1386:Generated_Source\PSoC4/CyLib.c ****         * \return \ref CYRET_SUCCESS ECO configuration completed successfully.
1387:Generated_Source\PSoC4/CyLib.c ****         * \return \ref CYRET_BAD_PARAM One or more invalid parameters.
1388:Generated_Source\PSoC4/CyLib.c ****         *
1389:Generated_Source\PSoC4/CyLib.c ****         *******************************************************************************/
1390:Generated_Source\PSoC4/CyLib.c ****         cystatus CySysClkConfigureEcoDrive(uint32 freq, uint32 cLoad, uint32 esr, uint32 maxAmplitu
1391:Generated_Source\PSoC4/CyLib.c ****         {
1392:Generated_Source\PSoC4/CyLib.c ****             cystatus returnStatus = CYRET_SUCCESS;
1393:Generated_Source\PSoC4/CyLib.c **** 
1394:Generated_Source\PSoC4/CyLib.c ****             uint32 wDTrim;
1395:Generated_Source\PSoC4/CyLib.c ****             uint32 aTrim;
1396:Generated_Source\PSoC4/CyLib.c ****             uint32 fTrim;
1397:Generated_Source\PSoC4/CyLib.c ****             uint32 rTrim;
1398:Generated_Source\PSoC4/CyLib.c ****             uint32 gTrim;
1399:Generated_Source\PSoC4/CyLib.c **** 
1400:Generated_Source\PSoC4/CyLib.c ****             uint32 gmMin;
1401:Generated_Source\PSoC4/CyLib.c **** 
1402:Generated_Source\PSoC4/CyLib.c **** 
1403:Generated_Source\PSoC4/CyLib.c ****             if ((maxAmplitude < CY_SYS_CLK_ECO_MAX_AMPL_MIN_mV) ||
1404:Generated_Source\PSoC4/CyLib.c ****                 (freq < CY_SYS_CLK_ECO_FREQ_KHZ_MIN) || (freq > CY_SYS_CLK_ECO_FREQ_KHZ_MAX))
1405:Generated_Source\PSoC4/CyLib.c ****             {
1406:Generated_Source\PSoC4/CyLib.c ****                 returnStatus = CYRET_BAD_PARAM;
1407:Generated_Source\PSoC4/CyLib.c ****             }
ARM GAS  C:\Users\Toshiba\AppData\Local\Temp\ccDzK1Zy.s 			page 40


1408:Generated_Source\PSoC4/CyLib.c ****             else
1409:Generated_Source\PSoC4/CyLib.c ****             {
1410:Generated_Source\PSoC4/CyLib.c ****                 /* Calculate amplitude trim */
1411:Generated_Source\PSoC4/CyLib.c ****                 aTrim = (maxAmplitude < CY_SYS_CLK_ECO_TRIM_BOUNDARY) ? ((maxAmplitude/100u) - 4u) 
1412:Generated_Source\PSoC4/CyLib.c **** 
1413:Generated_Source\PSoC4/CyLib.c ****                 if (maxAmplitude < CY_SYS_CLK_ECO_AMPL_FOR_ATRIM0)
1414:Generated_Source\PSoC4/CyLib.c ****                 {
1415:Generated_Source\PSoC4/CyLib.c ****                     aTrim = CY_SYS_CLK_ECO_ATRIM0;
1416:Generated_Source\PSoC4/CyLib.c ****                 }
1417:Generated_Source\PSoC4/CyLib.c ****                 else if (maxAmplitude < CY_SYS_CLK_ECO_AMPL_FOR_ATRIM1)
1418:Generated_Source\PSoC4/CyLib.c ****                 {
1419:Generated_Source\PSoC4/CyLib.c ****                     aTrim = CY_SYS_CLK_ECO_ATRIM1;
1420:Generated_Source\PSoC4/CyLib.c ****                 }
1421:Generated_Source\PSoC4/CyLib.c ****                 else if (maxAmplitude < CY_SYS_CLK_ECO_AMPL_FOR_ATRIM2)
1422:Generated_Source\PSoC4/CyLib.c ****                 {
1423:Generated_Source\PSoC4/CyLib.c ****                     aTrim = CY_SYS_CLK_ECO_ATRIM2;
1424:Generated_Source\PSoC4/CyLib.c ****                 }
1425:Generated_Source\PSoC4/CyLib.c ****                 else if (maxAmplitude < CY_SYS_CLK_ECO_AMPL_FOR_ATRIM3)
1426:Generated_Source\PSoC4/CyLib.c ****                 {
1427:Generated_Source\PSoC4/CyLib.c ****                     aTrim = CY_SYS_CLK_ECO_ATRIM3;
1428:Generated_Source\PSoC4/CyLib.c ****                 }
1429:Generated_Source\PSoC4/CyLib.c ****                 else if (maxAmplitude < CY_SYS_CLK_ECO_AMPL_FOR_ATRIM4)
1430:Generated_Source\PSoC4/CyLib.c ****                 {
1431:Generated_Source\PSoC4/CyLib.c ****                     aTrim = CY_SYS_CLK_ECO_ATRIM4;
1432:Generated_Source\PSoC4/CyLib.c ****                 }
1433:Generated_Source\PSoC4/CyLib.c ****                 else if (maxAmplitude < CY_SYS_CLK_ECO_AMPL_FOR_ATRIM5)
1434:Generated_Source\PSoC4/CyLib.c ****                 {
1435:Generated_Source\PSoC4/CyLib.c ****                     aTrim = CY_SYS_CLK_ECO_ATRIM5;
1436:Generated_Source\PSoC4/CyLib.c ****                 }
1437:Generated_Source\PSoC4/CyLib.c ****                 else if (maxAmplitude < CY_SYS_CLK_ECO_AMPL_FOR_ATRIM6)
1438:Generated_Source\PSoC4/CyLib.c ****                 {
1439:Generated_Source\PSoC4/CyLib.c ****                     aTrim = CY_SYS_CLK_ECO_ATRIM6;
1440:Generated_Source\PSoC4/CyLib.c ****                 }
1441:Generated_Source\PSoC4/CyLib.c ****                 else
1442:Generated_Source\PSoC4/CyLib.c ****                 {
1443:Generated_Source\PSoC4/CyLib.c ****                     aTrim = CY_SYS_CLK_ECO_ATRIM7;
1444:Generated_Source\PSoC4/CyLib.c ****                 }
1445:Generated_Source\PSoC4/CyLib.c **** 
1446:Generated_Source\PSoC4/CyLib.c ****                 /* Calculate Watchdog trim. */
1447:Generated_Source\PSoC4/CyLib.c ****                 wDTrim = (maxAmplitude < CY_SYS_CLK_ECO_TRIM_BOUNDARY) ? ((maxAmplitude/200u) - 2u)
1448:Generated_Source\PSoC4/CyLib.c **** 
1449:Generated_Source\PSoC4/CyLib.c ****                 /* Calculate amplifier gain trim. */
1450:Generated_Source\PSoC4/CyLib.c ****                 gmMin = (uint32) (((((CY_SYS_CLK_ECO_GMMIN_COEFFICIENT * freq * cLoad) / 1000) * ((
1451:Generated_Source\PSoC4/CyLib.c ****                 if (gmMin > 3u)
1452:Generated_Source\PSoC4/CyLib.c ****                 {
1453:Generated_Source\PSoC4/CyLib.c ****                     returnStatus = CYRET_BAD_PARAM;
1454:Generated_Source\PSoC4/CyLib.c ****                     gTrim = 0u;
1455:Generated_Source\PSoC4/CyLib.c ****                 }
1456:Generated_Source\PSoC4/CyLib.c ****                 else if (gmMin > 1u)
1457:Generated_Source\PSoC4/CyLib.c ****                 {
1458:Generated_Source\PSoC4/CyLib.c ****                     gTrim = gmMin;
1459:Generated_Source\PSoC4/CyLib.c ****                 }
1460:Generated_Source\PSoC4/CyLib.c ****                 else
1461:Generated_Source\PSoC4/CyLib.c ****                 {
1462:Generated_Source\PSoC4/CyLib.c ****                     gTrim = (gmMin == 1u) ? 0u : 1u;
1463:Generated_Source\PSoC4/CyLib.c ****                 }
1464:Generated_Source\PSoC4/CyLib.c **** 
ARM GAS  C:\Users\Toshiba\AppData\Local\Temp\ccDzK1Zy.s 			page 41


1465:Generated_Source\PSoC4/CyLib.c ****                 /* Calculate feedback resistor trim */
1466:Generated_Source\PSoC4/CyLib.c ****                 if (freq > CY_SYS_CLK_ECO_FREQ_FOR_FTRIM0)
1467:Generated_Source\PSoC4/CyLib.c ****                 {
1468:Generated_Source\PSoC4/CyLib.c ****                     rTrim = CY_SYS_CLK_ECO_FTRIM0;
1469:Generated_Source\PSoC4/CyLib.c ****                 }
1470:Generated_Source\PSoC4/CyLib.c ****                 else if (freq > CY_SYS_CLK_ECO_FREQ_FOR_FTRIM1)
1471:Generated_Source\PSoC4/CyLib.c ****                 {
1472:Generated_Source\PSoC4/CyLib.c ****                     rTrim = CY_SYS_CLK_ECO_FTRIM1;
1473:Generated_Source\PSoC4/CyLib.c ****                 }
1474:Generated_Source\PSoC4/CyLib.c ****                 else if (freq > CY_SYS_CLK_ECO_FREQ_FOR_FTRIM2)
1475:Generated_Source\PSoC4/CyLib.c ****                 {
1476:Generated_Source\PSoC4/CyLib.c ****                     rTrim = CY_SYS_CLK_ECO_FTRIM2;
1477:Generated_Source\PSoC4/CyLib.c ****                 }
1478:Generated_Source\PSoC4/CyLib.c ****                 else
1479:Generated_Source\PSoC4/CyLib.c ****                 {
1480:Generated_Source\PSoC4/CyLib.c ****                     rTrim = CY_SYS_CLK_ECO_FTRIM3;
1481:Generated_Source\PSoC4/CyLib.c ****                 }
1482:Generated_Source\PSoC4/CyLib.c **** 
1483:Generated_Source\PSoC4/CyLib.c ****                 /* Calculate filter frequency trim */
1484:Generated_Source\PSoC4/CyLib.c ****                 fTrim = rTrim;
1485:Generated_Source\PSoC4/CyLib.c **** 
1486:Generated_Source\PSoC4/CyLib.c ****                 CySysClkConfigureEcoTrim(wDTrim, aTrim, fTrim, rTrim, gTrim);
1487:Generated_Source\PSoC4/CyLib.c **** 
1488:Generated_Source\PSoC4/CyLib.c ****                 /* Automatic Gain Control (AGC) enable */
1489:Generated_Source\PSoC4/CyLib.c ****                 if (maxAmplitude < 2u)
1490:Generated_Source\PSoC4/CyLib.c ****                 {
1491:Generated_Source\PSoC4/CyLib.c ****                     /* The oscillation amplitude is controlled to the level selected by amplitude t
1492:Generated_Source\PSoC4/CyLib.c ****                     CY_SYS_CLK_ECO_CONFIG_REG |= CY_SYS_CLK_ECO_CONFIG_AGC_EN;
1493:Generated_Source\PSoC4/CyLib.c ****                 }
1494:Generated_Source\PSoC4/CyLib.c ****                 else
1495:Generated_Source\PSoC4/CyLib.c ****                 {
1496:Generated_Source\PSoC4/CyLib.c ****                     /* The amplitude is not explicitly controlled and will grow until it saturates 
1497:Generated_Source\PSoC4/CyLib.c ****                     * supply rail (1.8V nom).
1498:Generated_Source\PSoC4/CyLib.c ****                     */
1499:Generated_Source\PSoC4/CyLib.c ****                     CY_SYS_CLK_ECO_CONFIG_REG &= (uint32) ~CY_SYS_CLK_ECO_CONFIG_AGC_EN;
1500:Generated_Source\PSoC4/CyLib.c ****                 }
1501:Generated_Source\PSoC4/CyLib.c ****             }
1502:Generated_Source\PSoC4/CyLib.c **** 
1503:Generated_Source\PSoC4/CyLib.c ****             return (returnStatus);
1504:Generated_Source\PSoC4/CyLib.c ****         }
1505:Generated_Source\PSoC4/CyLib.c **** 
1506:Generated_Source\PSoC4/CyLib.c ****     #endif /* CY_IP_ECO_BLESS */
1507:Generated_Source\PSoC4/CyLib.c **** 
1508:Generated_Source\PSoC4/CyLib.c **** #endif /* (CY_IP_ECO) */
1509:Generated_Source\PSoC4/CyLib.c **** 
1510:Generated_Source\PSoC4/CyLib.c **** 
1511:Generated_Source\PSoC4/CyLib.c **** #if (CY_IP_SRSSV2 && CY_IP_PLL)
1512:Generated_Source\PSoC4/CyLib.c ****     /*******************************************************************************
1513:Generated_Source\PSoC4/CyLib.c ****     * Function Name: CySysClkPllStart
1514:Generated_Source\PSoC4/CyLib.c ****     ****************************************************************************//**
1515:Generated_Source\PSoC4/CyLib.c ****     *
1516:Generated_Source\PSoC4/CyLib.c ****     * Enables the PLL. Optionally waits for it to become stable. Waits at least
1517:Generated_Source\PSoC4/CyLib.c ****     * 250 us or until it is detected that the PLL is stable.
1518:Generated_Source\PSoC4/CyLib.c ****     *
1519:Generated_Source\PSoC4/CyLib.c ****     * Clears the unlock occurred status bit by calling CySysClkPllGetUnlockStatus(),
1520:Generated_Source\PSoC4/CyLib.c ****     * once the PLL is locked if the wait parameter is 1).
1521:Generated_Source\PSoC4/CyLib.c ****     *
ARM GAS  C:\Users\Toshiba\AppData\Local\Temp\ccDzK1Zy.s 			page 42


1522:Generated_Source\PSoC4/CyLib.c ****     * This API is available only for PSoC 4200L devices.
1523:Generated_Source\PSoC4/CyLib.c ****     *
1524:Generated_Source\PSoC4/CyLib.c ****     * \param PLL:
1525:Generated_Source\PSoC4/CyLib.c ****     * 0   PLL#0
1526:Generated_Source\PSoC4/CyLib.c ****     * 1   PLL#1
1527:Generated_Source\PSoC4/CyLib.c ****     *
1528:Generated_Source\PSoC4/CyLib.c ****     * \param wait:
1529:Generated_Source\PSoC4/CyLib.c ****     * 0 - Return immediately after configuration.
1530:Generated_Source\PSoC4/CyLib.c ****     * 1 - Wait for PLL lock or timeout. This API shall use the CyDelayUs() to
1531:Generated_Source\PSoC4/CyLib.c ****     * implement the timeout feature.
1532:Generated_Source\PSoC4/CyLib.c ****     *
1533:Generated_Source\PSoC4/CyLib.c ****     * \return CYRET_SUCCESS Completed successfully.
1534:Generated_Source\PSoC4/CyLib.c ****     * \return CYRET_TIMEOUT The timeout occurred without detecting a stable clock.
1535:Generated_Source\PSoC4/CyLib.c ****     * If the input source of the clock is jittery, then the lock indication may
1536:Generated_Source\PSoC4/CyLib.c ****     * not occur. However, after the timeout has expired, the generated PLL clock can
1537:Generated_Source\PSoC4/CyLib.c ****     * still be used.
1538:Generated_Source\PSoC4/CyLib.c ****     * \return CYRET_BAD_PARAM - Either the PLL or wait parameter is invalid.
1539:Generated_Source\PSoC4/CyLib.c ****     *
1540:Generated_Source\PSoC4/CyLib.c ****     *******************************************************************************/
1541:Generated_Source\PSoC4/CyLib.c ****     cystatus CySysClkPllStart(uint32 pll, uint32 wait)
1542:Generated_Source\PSoC4/CyLib.c ****     {
1543:Generated_Source\PSoC4/CyLib.c ****         uint32 counts = CY_SYS_CLK_PLL_MAX_STARTUP_US;
1544:Generated_Source\PSoC4/CyLib.c ****         uint8  interruptState;
1545:Generated_Source\PSoC4/CyLib.c ****         cystatus returnStatus = CYRET_SUCCESS;
1546:Generated_Source\PSoC4/CyLib.c **** 
1547:Generated_Source\PSoC4/CyLib.c ****         if((pll < CY_IP_PLL_NR) && (wait <= 1u))
1548:Generated_Source\PSoC4/CyLib.c ****         {
1549:Generated_Source\PSoC4/CyLib.c ****             interruptState = CyEnterCriticalSection();
1550:Generated_Source\PSoC4/CyLib.c **** 
1551:Generated_Source\PSoC4/CyLib.c ****             /* Isolate PLL outputs */
1552:Generated_Source\PSoC4/CyLib.c ****             CY_SYS_CLK_PLL_BASE.pll[pll].config &= (uint32) ~CY_SYS_CLK_PLL_CONFIG_ISOLATE;
1553:Generated_Source\PSoC4/CyLib.c **** 
1554:Generated_Source\PSoC4/CyLib.c ****             /* Enable PLL */
1555:Generated_Source\PSoC4/CyLib.c ****             CY_SYS_CLK_PLL_BASE.pll[pll].config |= CY_SYS_CLK_PLL_CONFIG_ENABLE;
1556:Generated_Source\PSoC4/CyLib.c **** 
1557:Generated_Source\PSoC4/CyLib.c ****             CyExitCriticalSection(interruptState);
1558:Generated_Source\PSoC4/CyLib.c **** 
1559:Generated_Source\PSoC4/CyLib.c ****             /* De-isolate >= CY_SYS_CLK_PLL_MIN_STARTUP_US after PLL enabled */
1560:Generated_Source\PSoC4/CyLib.c ****             CyDelayUs(CY_SYS_CLK_PLL_MIN_STARTUP_US);
1561:Generated_Source\PSoC4/CyLib.c ****             interruptState = CyEnterCriticalSection();
1562:Generated_Source\PSoC4/CyLib.c ****             CY_SYS_CLK_PLL_BASE.pll[pll].config |= CY_SYS_CLK_PLL_CONFIG_ISOLATE;
1563:Generated_Source\PSoC4/CyLib.c ****             CyExitCriticalSection(interruptState);
1564:Generated_Source\PSoC4/CyLib.c **** 
1565:Generated_Source\PSoC4/CyLib.c ****             if(wait != 0u)
1566:Generated_Source\PSoC4/CyLib.c ****             {
1567:Generated_Source\PSoC4/CyLib.c ****                 returnStatus = CYRET_TIMEOUT;
1568:Generated_Source\PSoC4/CyLib.c **** 
1569:Generated_Source\PSoC4/CyLib.c ****                 while(0u != counts)
1570:Generated_Source\PSoC4/CyLib.c ****                 {
1571:Generated_Source\PSoC4/CyLib.c **** 
1572:Generated_Source\PSoC4/CyLib.c ****                     if(0u != CySysClkPllGetLockStatus(pll))
1573:Generated_Source\PSoC4/CyLib.c ****                     {
1574:Generated_Source\PSoC4/CyLib.c ****                         returnStatus = CYRET_SUCCESS;
1575:Generated_Source\PSoC4/CyLib.c ****                         (void) CySysClkPllGetUnlockStatus(pll);
1576:Generated_Source\PSoC4/CyLib.c ****                         break;
1577:Generated_Source\PSoC4/CyLib.c ****                     }
1578:Generated_Source\PSoC4/CyLib.c **** 
ARM GAS  C:\Users\Toshiba\AppData\Local\Temp\ccDzK1Zy.s 			page 43


1579:Generated_Source\PSoC4/CyLib.c ****                     CyDelayUs(1u);
1580:Generated_Source\PSoC4/CyLib.c ****                     counts--;
1581:Generated_Source\PSoC4/CyLib.c ****                 }
1582:Generated_Source\PSoC4/CyLib.c ****             }
1583:Generated_Source\PSoC4/CyLib.c ****         }
1584:Generated_Source\PSoC4/CyLib.c ****         else
1585:Generated_Source\PSoC4/CyLib.c ****         {
1586:Generated_Source\PSoC4/CyLib.c ****             returnStatus = CYRET_BAD_PARAM;
1587:Generated_Source\PSoC4/CyLib.c ****         }
1588:Generated_Source\PSoC4/CyLib.c **** 
1589:Generated_Source\PSoC4/CyLib.c ****         return (returnStatus);
1590:Generated_Source\PSoC4/CyLib.c ****     }
1591:Generated_Source\PSoC4/CyLib.c **** 
1592:Generated_Source\PSoC4/CyLib.c **** 
1593:Generated_Source\PSoC4/CyLib.c ****     /*******************************************************************************
1594:Generated_Source\PSoC4/CyLib.c ****     * Function Name: CySysClkPllGetLockStatus
1595:Generated_Source\PSoC4/CyLib.c ****     ****************************************************************************//**
1596:Generated_Source\PSoC4/CyLib.c ****     *
1597:Generated_Source\PSoC4/CyLib.c ****     * Returns non-zero if the output of the specified PLL output is locked.
1598:Generated_Source\PSoC4/CyLib.c ****     *
1599:Generated_Source\PSoC4/CyLib.c ****     * This API is available only for PSoC 4200L devices.
1600:Generated_Source\PSoC4/CyLib.c ****     *
1601:Generated_Source\PSoC4/CyLib.c ****     * PLL:
1602:Generated_Source\PSoC4/CyLib.c ****     *  0   PLL#0
1603:Generated_Source\PSoC4/CyLib.c ****     *  1   PLL#1
1604:Generated_Source\PSoC4/CyLib.c ****     *
1605:Generated_Source\PSoC4/CyLib.c ****     * \return A non-zero value when the specified PLL is locked.
1606:Generated_Source\PSoC4/CyLib.c ****     *
1607:Generated_Source\PSoC4/CyLib.c ****     *******************************************************************************/
1608:Generated_Source\PSoC4/CyLib.c ****     uint32 CySysClkPllGetLockStatus(uint32 pll)
1609:Generated_Source\PSoC4/CyLib.c ****     {
1610:Generated_Source\PSoC4/CyLib.c ****         uint8  interruptState;
1611:Generated_Source\PSoC4/CyLib.c ****         uint32 returnStatus;
1612:Generated_Source\PSoC4/CyLib.c **** 
1613:Generated_Source\PSoC4/CyLib.c ****         CYASSERT(pll < CY_IP_PLL_NR);
1614:Generated_Source\PSoC4/CyLib.c **** 
1615:Generated_Source\PSoC4/CyLib.c ****         interruptState = CyEnterCriticalSection();
1616:Generated_Source\PSoC4/CyLib.c **** 
1617:Generated_Source\PSoC4/CyLib.c ****         /* PLL is locked if reported so for two consecutive read. */
1618:Generated_Source\PSoC4/CyLib.c ****         returnStatus = CY_SYS_CLK_PLL_BASE.pll[pll].status & CY_SYS_CLK_PLL_STATUS_LOCKED;
1619:Generated_Source\PSoC4/CyLib.c ****         if(0u != returnStatus)
1620:Generated_Source\PSoC4/CyLib.c ****         {
1621:Generated_Source\PSoC4/CyLib.c ****             returnStatus = CY_SYS_CLK_PLL_BASE.pll[pll].status & CY_SYS_CLK_PLL_STATUS_LOCKED;
1622:Generated_Source\PSoC4/CyLib.c ****         }
1623:Generated_Source\PSoC4/CyLib.c **** 
1624:Generated_Source\PSoC4/CyLib.c ****         CyExitCriticalSection(interruptState);
1625:Generated_Source\PSoC4/CyLib.c **** 
1626:Generated_Source\PSoC4/CyLib.c ****         return (returnStatus);
1627:Generated_Source\PSoC4/CyLib.c ****     }
1628:Generated_Source\PSoC4/CyLib.c **** 
1629:Generated_Source\PSoC4/CyLib.c ****     /*******************************************************************************
1630:Generated_Source\PSoC4/CyLib.c ****     * Function Name: CySysClkPllStop
1631:Generated_Source\PSoC4/CyLib.c ****     ****************************************************************************//**
1632:Generated_Source\PSoC4/CyLib.c ****     *
1633:Generated_Source\PSoC4/CyLib.c ****     * Disables the PLL.
1634:Generated_Source\PSoC4/CyLib.c ****     *
1635:Generated_Source\PSoC4/CyLib.c ****     * Ensures that either PLL is not the source of HFCLK before it is disabled,
ARM GAS  C:\Users\Toshiba\AppData\Local\Temp\ccDzK1Zy.s 			page 44


1636:Generated_Source\PSoC4/CyLib.c ****     * otherwise, the CPU will halt.
1637:Generated_Source\PSoC4/CyLib.c ****     *
1638:Generated_Source\PSoC4/CyLib.c ****     * This API is available only for PSoC 4200L devices.
1639:Generated_Source\PSoC4/CyLib.c ****     *
1640:Generated_Source\PSoC4/CyLib.c ****     * PLL:
1641:Generated_Source\PSoC4/CyLib.c ****     *  0   PLL#0
1642:Generated_Source\PSoC4/CyLib.c ****     *  1   PLL#1
1643:Generated_Source\PSoC4/CyLib.c ****     *
1644:Generated_Source\PSoC4/CyLib.c ****     *******************************************************************************/
1645:Generated_Source\PSoC4/CyLib.c ****     void CySysClkPllStop(uint32 pll)
1646:Generated_Source\PSoC4/CyLib.c ****     {
1647:Generated_Source\PSoC4/CyLib.c ****         uint8  interruptState;
1648:Generated_Source\PSoC4/CyLib.c **** 
1649:Generated_Source\PSoC4/CyLib.c ****         if (pll < CY_IP_PLL_NR)
1650:Generated_Source\PSoC4/CyLib.c ****         {
1651:Generated_Source\PSoC4/CyLib.c ****             interruptState = CyEnterCriticalSection();
1652:Generated_Source\PSoC4/CyLib.c ****             CY_SYS_CLK_PLL_BASE.pll[pll].config &= (uint32) ~(CY_SYS_CLK_PLL_CONFIG_ISOLATE | CY_SY
1653:Generated_Source\PSoC4/CyLib.c ****             CyExitCriticalSection(interruptState);
1654:Generated_Source\PSoC4/CyLib.c ****         }
1655:Generated_Source\PSoC4/CyLib.c ****     }
1656:Generated_Source\PSoC4/CyLib.c **** 
1657:Generated_Source\PSoC4/CyLib.c **** 
1658:Generated_Source\PSoC4/CyLib.c ****     /*******************************************************************************
1659:Generated_Source\PSoC4/CyLib.c ****     * Function Name: CySysClkPllSetPQ
1660:Generated_Source\PSoC4/CyLib.c ****     ****************************************************************************//**
1661:Generated_Source\PSoC4/CyLib.c ****     *
1662:Generated_Source\PSoC4/CyLib.c ****     * Sets feedback (P) and reference the (Q) divider value. This API also sets the
1663:Generated_Source\PSoC4/CyLib.c ****     * programmable charge pump current value. Note that the PLL has to be disabled
1664:Generated_Source\PSoC4/CyLib.c ****     * before calling this API. If this function is called while any PLL is sourcing,
1665:Generated_Source\PSoC4/CyLib.c ****     * the SYSCLK will return an error.
1666:Generated_Source\PSoC4/CyLib.c ****     *
1667:Generated_Source\PSoC4/CyLib.c ****     * The PLL must not be the system clock source when calling this function. The
1668:Generated_Source\PSoC4/CyLib.c ****     * PLL output will glitch during this function call.
1669:Generated_Source\PSoC4/CyLib.c ****     *
1670:Generated_Source\PSoC4/CyLib.c ****     * This API is available only for PSoC 4200L devices.
1671:Generated_Source\PSoC4/CyLib.c ****     *
1672:Generated_Source\PSoC4/CyLib.c ****     * \param PLL:
1673:Generated_Source\PSoC4/CyLib.c ****     *  0   PLL#0
1674:Generated_Source\PSoC4/CyLib.c ****     *  1   PLL#1
1675:Generated_Source\PSoC4/CyLib.c ****     *
1676:Generated_Source\PSoC4/CyLib.c ****     * \param feedback The P divider. Range 4 - 259. Control bits for the feedback
1677:Generated_Source\PSoC4/CyLib.c ****     * divider.
1678:Generated_Source\PSoC4/CyLib.c ****     *
1679:Generated_Source\PSoC4/CyLib.c ****     * \param reference The Q divider. Range 1 - 64. Divide by the reference.
1680:Generated_Source\PSoC4/CyLib.c ****     *
1681:Generated_Source\PSoC4/CyLib.c ****     * \param current Charge the pump current in uA. The 2 uA for output frequencies
1682:Generated_Source\PSoC4/CyLib.c ****     * of 67 MHz or less, and 3 uA for higher output frequencies. The default
1683:Generated_Source\PSoC4/CyLib.c ****     * value is 2 uA.
1684:Generated_Source\PSoC4/CyLib.c ****     *
1685:Generated_Source\PSoC4/CyLib.c ****     * \return CYRET_SUCCESS Completed successfully.
1686:Generated_Source\PSoC4/CyLib.c ****     * \return CYRET_BAD_PARAM The parameters are out of range or the specified PLL
1687:Generated_Source\PSoC4/CyLib.c ****     * sources the system clock.
1688:Generated_Source\PSoC4/CyLib.c ****     *
1689:Generated_Source\PSoC4/CyLib.c ****     *******************************************************************************/
1690:Generated_Source\PSoC4/CyLib.c ****     cystatus CySysClkPllSetPQ(uint32 pll, uint32 feedback, uint32 reference, uint32 current)
1691:Generated_Source\PSoC4/CyLib.c ****     {
1692:Generated_Source\PSoC4/CyLib.c ****         uint32   regTmp;
ARM GAS  C:\Users\Toshiba\AppData\Local\Temp\ccDzK1Zy.s 			page 45


1693:Generated_Source\PSoC4/CyLib.c ****         cystatus tmp;
1694:Generated_Source\PSoC4/CyLib.c ****         uint8    interruptState;
1695:Generated_Source\PSoC4/CyLib.c ****         cystatus returnStatus = CYRET_BAD_PARAM;
1696:Generated_Source\PSoC4/CyLib.c **** 
1697:Generated_Source\PSoC4/CyLib.c ****         interruptState = CyEnterCriticalSection();
1698:Generated_Source\PSoC4/CyLib.c **** 
1699:Generated_Source\PSoC4/CyLib.c ****         tmp = CySysClkPllConfigChangeAllowed(pll);
1700:Generated_Source\PSoC4/CyLib.c **** 
1701:Generated_Source\PSoC4/CyLib.c ****         if ((pll < CY_IP_PLL_NR) &&
1702:Generated_Source\PSoC4/CyLib.c ****             (feedback  >= CY_SYS_CLK_PLL_CONFIG_FEEDBACK_DIV_MIN)  && (feedback  <= CY_SYS_CLK_PLL_
1703:Generated_Source\PSoC4/CyLib.c ****             (reference >= CY_SYS_CLK_PLL_CONFIG_REFERENCE_DIV_MIN) && (reference <= CY_SYS_CLK_PLL_
1704:Generated_Source\PSoC4/CyLib.c ****             (current   >= CY_SYS_CLK_PLL_CONFIG_ICP_SEL_MIN )      && (current   <= CY_SYS_CLK_PLL_
1705:Generated_Source\PSoC4/CyLib.c ****             (CYRET_SUCCESS == tmp))
1706:Generated_Source\PSoC4/CyLib.c ****         {
1707:Generated_Source\PSoC4/CyLib.c ****             /* Set new feedback, reference and current values */
1708:Generated_Source\PSoC4/CyLib.c ****             regTmp  = CY_SYS_CLK_PLL_BASE.pll[pll].config & (uint32) ~(CY_SYS_CLK_PLL_CONFIG_FEEDBA
1709:Generated_Source\PSoC4/CyLib.c ****                                                                        CY_SYS_CLK_PLL_CONFIG_REFERE
1710:Generated_Source\PSoC4/CyLib.c ****                                                                        CY_SYS_CLK_PLL_CONFIG_ICP_SE
1711:Generated_Source\PSoC4/CyLib.c **** 
1712:Generated_Source\PSoC4/CyLib.c ****             regTmp |= ((feedback << CY_SYS_CLK_PLL_CONFIG_FEEDBACK_DIV_SHIFT) & CY_SYS_CLK_PLL_CONF
1713:Generated_Source\PSoC4/CyLib.c ****             regTmp |= (((reference - 1u) << CY_SYS_CLK_PLL_CONFIG_REFERENCE_DIV_SHIFT) & CY_SYS_CLK
1714:Generated_Source\PSoC4/CyLib.c ****             regTmp |= ((current << CY_SYS_CLK_PLL_CONFIG_ICP_SEL_SHIFT) & CY_SYS_CLK_PLL_CONFIG_ICP
1715:Generated_Source\PSoC4/CyLib.c **** 
1716:Generated_Source\PSoC4/CyLib.c ****             CY_SYS_CLK_PLL_BASE.pll[pll].config = regTmp;
1717:Generated_Source\PSoC4/CyLib.c **** 
1718:Generated_Source\PSoC4/CyLib.c ****             returnStatus = CYRET_SUCCESS;
1719:Generated_Source\PSoC4/CyLib.c ****         }
1720:Generated_Source\PSoC4/CyLib.c **** 
1721:Generated_Source\PSoC4/CyLib.c ****         CyExitCriticalSection(interruptState);
1722:Generated_Source\PSoC4/CyLib.c **** 
1723:Generated_Source\PSoC4/CyLib.c ****         return (returnStatus);
1724:Generated_Source\PSoC4/CyLib.c ****     }
1725:Generated_Source\PSoC4/CyLib.c **** 
1726:Generated_Source\PSoC4/CyLib.c **** 
1727:Generated_Source\PSoC4/CyLib.c ****     /*******************************************************************************
1728:Generated_Source\PSoC4/CyLib.c ****     * Function Name: CySysClkPllSetBypassMode
1729:Generated_Source\PSoC4/CyLib.c ****     ****************************************************************************//**
1730:Generated_Source\PSoC4/CyLib.c ****     *
1731:Generated_Source\PSoC4/CyLib.c ****     * Sets the bypass mode for the specified PLL.
1732:Generated_Source\PSoC4/CyLib.c ****     *
1733:Generated_Source\PSoC4/CyLib.c ****     * The PLL must not be the system clock source when calling this function.
1734:Generated_Source\PSoC4/CyLib.c ****     * The PLL output will glitch during this function call.
1735:Generated_Source\PSoC4/CyLib.c ****     *
1736:Generated_Source\PSoC4/CyLib.c ****     * When the PLL's reference input is higher than HFCLK frequency the device may 
1737:Generated_Source\PSoC4/CyLib.c ****     * lock due to incorrect flash wait cycle configuration and bypass switches from 
1738:Generated_Source\PSoC4/CyLib.c ****     * PLL output to the reference input. See description of 
1739:Generated_Source\PSoC4/CyLib.c ****     * CySysFlashSetWaitCycles() for more information.
1740:Generated_Source\PSoC4/CyLib.c ****     *
1741:Generated_Source\PSoC4/CyLib.c ****     * This API is available only for PSoC 4200L devices.
1742:Generated_Source\PSoC4/CyLib.c ****     *
1743:Generated_Source\PSoC4/CyLib.c ****     * \param PLL:
1744:Generated_Source\PSoC4/CyLib.c ****     *  0   PLL#0
1745:Generated_Source\PSoC4/CyLib.c ****     *  1   PLL#1
1746:Generated_Source\PSoC4/CyLib.c ****     *
1747:Generated_Source\PSoC4/CyLib.c ****     * \param bypass: The bypass mode.
1748:Generated_Source\PSoC4/CyLib.c ****     * CY_SYS_PLL_BYPASS_AUTO - Automatic usage of the lock indicator. When unlocked,
1749:Generated_Source\PSoC4/CyLib.c ****     * automatically selects PLL the reference input (bypass mode). When locked,
ARM GAS  C:\Users\Toshiba\AppData\Local\Temp\ccDzK1Zy.s 			page 46


1750:Generated_Source\PSoC4/CyLib.c ****     * automatically selects the PLL output.
1751:Generated_Source\PSoC4/CyLib.c ****     *
1752:Generated_Source\PSoC4/CyLib.c ****     * CY_SYS_PLL_BYPASS_PLL_REF - Selects the PLL reference input (bypass mode).
1753:Generated_Source\PSoC4/CyLib.c ****     * Ignores the lock indicator.
1754:Generated_Source\PSoC4/CyLib.c ****     *
1755:Generated_Source\PSoC4/CyLib.c ****     * CY_SYS_PLL_BYPASS_PLL_OUT - Selects the PLL output.  Ignores the lock indicator.
1756:Generated_Source\PSoC4/CyLib.c ****     *
1757:Generated_Source\PSoC4/CyLib.c ****     *******************************************************************************/
1758:Generated_Source\PSoC4/CyLib.c ****     void CySysClkPllSetBypassMode(uint32 pll, uint32 bypass)
1759:Generated_Source\PSoC4/CyLib.c ****     {
1760:Generated_Source\PSoC4/CyLib.c ****         uint32 regTmp;
1761:Generated_Source\PSoC4/CyLib.c ****         uint8  interruptState;
1762:Generated_Source\PSoC4/CyLib.c **** 
1763:Generated_Source\PSoC4/CyLib.c ****         interruptState = CyEnterCriticalSection();
1764:Generated_Source\PSoC4/CyLib.c **** 
1765:Generated_Source\PSoC4/CyLib.c ****         if ((pll < CY_IP_PLL_NR) && (bypass <= CY_SYS_PLL_BYPASS_PLL_OUT))
1766:Generated_Source\PSoC4/CyLib.c ****         {
1767:Generated_Source\PSoC4/CyLib.c ****             regTmp  = CY_SYS_CLK_PLL_BASE.pll[pll].config & (uint32) ~CY_SYS_CLK_PLL_CONFIG_BYPASS_
1768:Generated_Source\PSoC4/CyLib.c ****             regTmp |=  (uint32)(bypass << CY_SYS_CLK_PLL_CONFIG_BYPASS_SEL_SHIFT);
1769:Generated_Source\PSoC4/CyLib.c ****             CY_SYS_CLK_PLL_BASE.pll[pll].config = regTmp;
1770:Generated_Source\PSoC4/CyLib.c ****         }
1771:Generated_Source\PSoC4/CyLib.c **** 
1772:Generated_Source\PSoC4/CyLib.c ****         CyExitCriticalSection(interruptState);
1773:Generated_Source\PSoC4/CyLib.c ****     }
1774:Generated_Source\PSoC4/CyLib.c **** 
1775:Generated_Source\PSoC4/CyLib.c **** 
1776:Generated_Source\PSoC4/CyLib.c ****     /*******************************************************************************
1777:Generated_Source\PSoC4/CyLib.c ****     * Function Name: CySysClkPllGetBypassMode
1778:Generated_Source\PSoC4/CyLib.c ****     ****************************************************************************//**
1779:Generated_Source\PSoC4/CyLib.c ****     *
1780:Generated_Source\PSoC4/CyLib.c ****     *  Gets the bypass mode for the specified PLL.
1781:Generated_Source\PSoC4/CyLib.c ****     *  This API is available only for PSoC 4200L devices.
1782:Generated_Source\PSoC4/CyLib.c ****     *
1783:Generated_Source\PSoC4/CyLib.c ****     *  \param PLL:
1784:Generated_Source\PSoC4/CyLib.c ****     *   0   PLL#0
1785:Generated_Source\PSoC4/CyLib.c ****     *   1   PLL#1
1786:Generated_Source\PSoC4/CyLib.c ****     *
1787:Generated_Source\PSoC4/CyLib.c ****     *  \param bypass: Bypass mode.
1788:Generated_Source\PSoC4/CyLib.c ****     *   The same as the parameter of the CySysClkPllSetBypassMode().
1789:Generated_Source\PSoC4/CyLib.c ****     *
1790:Generated_Source\PSoC4/CyLib.c ****     *******************************************************************************/
1791:Generated_Source\PSoC4/CyLib.c ****     static uint32 CySysClkPllGetBypassMode(uint32 pll)
1792:Generated_Source\PSoC4/CyLib.c ****     {
1793:Generated_Source\PSoC4/CyLib.c ****         uint32 returnValue;
1794:Generated_Source\PSoC4/CyLib.c ****         uint8  interruptState;
1795:Generated_Source\PSoC4/CyLib.c **** 
1796:Generated_Source\PSoC4/CyLib.c ****         CYASSERT(pll < CY_IP_PLL_NR);
1797:Generated_Source\PSoC4/CyLib.c **** 
1798:Generated_Source\PSoC4/CyLib.c ****         interruptState = CyEnterCriticalSection();
1799:Generated_Source\PSoC4/CyLib.c **** 
1800:Generated_Source\PSoC4/CyLib.c ****         returnValue = CY_SYS_CLK_PLL_BASE.pll[pll].config & CY_SYS_CLK_PLL_CONFIG_BYPASS_SEL_MASK;
1801:Generated_Source\PSoC4/CyLib.c ****         returnValue =  returnValue >> CY_SYS_CLK_PLL_CONFIG_BYPASS_SEL_SHIFT;
1802:Generated_Source\PSoC4/CyLib.c **** 
1803:Generated_Source\PSoC4/CyLib.c ****         CyExitCriticalSection(interruptState);
1804:Generated_Source\PSoC4/CyLib.c **** 
1805:Generated_Source\PSoC4/CyLib.c ****         return (returnValue);
1806:Generated_Source\PSoC4/CyLib.c ****     }
ARM GAS  C:\Users\Toshiba\AppData\Local\Temp\ccDzK1Zy.s 			page 47


1807:Generated_Source\PSoC4/CyLib.c **** 
1808:Generated_Source\PSoC4/CyLib.c **** 
1809:Generated_Source\PSoC4/CyLib.c ****     /*******************************************************************************
1810:Generated_Source\PSoC4/CyLib.c ****     * Function Name: CySysClkPllConfigChangeAllowed
1811:Generated_Source\PSoC4/CyLib.c ****     ****************************************************************************//**
1812:Generated_Source\PSoC4/CyLib.c ****     *
1813:Generated_Source\PSoC4/CyLib.c ****     *  The function returns non-zero value if the specified PLL sources the System
1814:Generated_Source\PSoC4/CyLib.c ****     *  clock and the PLL is not in the bypass mode.
1815:Generated_Source\PSoC4/CyLib.c ****     *
1816:Generated_Source\PSoC4/CyLib.c ****     *  This API is available only for PSoC 4200L devices.
1817:Generated_Source\PSoC4/CyLib.c ****     *
1818:Generated_Source\PSoC4/CyLib.c ****     *  \param PLL:
1819:Generated_Source\PSoC4/CyLib.c ****     *   0   PLL#0
1820:Generated_Source\PSoC4/CyLib.c ****     *   1   PLL#1
1821:Generated_Source\PSoC4/CyLib.c ****     *
1822:Generated_Source\PSoC4/CyLib.c ****     * \return Non-zero value when the specified PLL sources the System clock and
1823:Generated_Source\PSoC4/CyLib.c ****     * the PLL is not in the bypass mode.
1824:Generated_Source\PSoC4/CyLib.c ****     *
1825:Generated_Source\PSoC4/CyLib.c ****     *******************************************************************************/
1826:Generated_Source\PSoC4/CyLib.c ****     static cystatus CySysClkPllConfigChangeAllowed(uint32 pll)
1827:Generated_Source\PSoC4/CyLib.c ****     {
1828:Generated_Source\PSoC4/CyLib.c ****         uint32   pllBypassMode;
1829:Generated_Source\PSoC4/CyLib.c ****         uint32   sysclkSource;
1830:Generated_Source\PSoC4/CyLib.c ****         cystatus returnValue = CYRET_LOCKED;
1831:Generated_Source\PSoC4/CyLib.c **** 
1832:Generated_Source\PSoC4/CyLib.c ****         sysclkSource  = CySysClkGetSysclkSource();
1833:Generated_Source\PSoC4/CyLib.c ****         pllBypassMode = CySysClkPllGetBypassMode(pll);
1834:Generated_Source\PSoC4/CyLib.c **** 
1835:Generated_Source\PSoC4/CyLib.c ****         if ((CY_SYS_PLL_BYPASS_PLL_REF == pllBypassMode)             ||
1836:Generated_Source\PSoC4/CyLib.c ****             ((CY_SYS_CLK_HFCLK_PLL0 != sysclkSource) && (0u == pll)) ||
1837:Generated_Source\PSoC4/CyLib.c ****             ((CY_SYS_CLK_HFCLK_PLL1 != sysclkSource) && (1u == pll)))
1838:Generated_Source\PSoC4/CyLib.c ****         {
1839:Generated_Source\PSoC4/CyLib.c ****             returnValue = CYRET_SUCCESS;
1840:Generated_Source\PSoC4/CyLib.c ****         }
1841:Generated_Source\PSoC4/CyLib.c **** 
1842:Generated_Source\PSoC4/CyLib.c ****         return (returnValue);
1843:Generated_Source\PSoC4/CyLib.c ****     }
1844:Generated_Source\PSoC4/CyLib.c **** 
1845:Generated_Source\PSoC4/CyLib.c **** 
1846:Generated_Source\PSoC4/CyLib.c ****     /*******************************************************************************
1847:Generated_Source\PSoC4/CyLib.c ****     * Function Name: CySysClkPllGetUnlockStatus
1848:Generated_Source\PSoC4/CyLib.c ****     ****************************************************************************//**
1849:Generated_Source\PSoC4/CyLib.c ****     *
1850:Generated_Source\PSoC4/CyLib.c ****     *  Returns a non-zero value if the specified PLL output was unlocked.
1851:Generated_Source\PSoC4/CyLib.c ****     *  The unlock status is an indicator that the PLL has lost a lock at least once
1852:Generated_Source\PSoC4/CyLib.c ****     *  during its operation. The unlock status is cleared once it is read using
1853:Generated_Source\PSoC4/CyLib.c ****     *  this API.
1854:Generated_Source\PSoC4/CyLib.c ****     *
1855:Generated_Source\PSoC4/CyLib.c ****     *  This API is available only for PSoC 4200L devices.
1856:Generated_Source\PSoC4/CyLib.c ****     *
1857:Generated_Source\PSoC4/CyLib.c ****     *  \param PLL:
1858:Generated_Source\PSoC4/CyLib.c ****     *   0   PLL#0
1859:Generated_Source\PSoC4/CyLib.c ****     *   1   PLL#1
1860:Generated_Source\PSoC4/CyLib.c ****     *
1861:Generated_Source\PSoC4/CyLib.c ****     * \return Non-zero value when the specified PLL was unlocked.
1862:Generated_Source\PSoC4/CyLib.c ****     *
1863:Generated_Source\PSoC4/CyLib.c ****     *******************************************************************************/
ARM GAS  C:\Users\Toshiba\AppData\Local\Temp\ccDzK1Zy.s 			page 48


1864:Generated_Source\PSoC4/CyLib.c ****     uint32 CySysClkPllGetUnlockStatus(uint32 pll)
1865:Generated_Source\PSoC4/CyLib.c ****     {
1866:Generated_Source\PSoC4/CyLib.c ****         uint32 returnStatus = 0u;
1867:Generated_Source\PSoC4/CyLib.c ****         uint8  interruptState;
1868:Generated_Source\PSoC4/CyLib.c **** 
1869:Generated_Source\PSoC4/CyLib.c ****         interruptState = CyEnterCriticalSection();
1870:Generated_Source\PSoC4/CyLib.c **** 
1871:Generated_Source\PSoC4/CyLib.c ****         returnStatus = CY_SYS_CLK_PLL_BASE.pll[pll].test & CY_SYS_CLK_PLL_TEST_UNLOCK_OCCURRED_MASK
1872:Generated_Source\PSoC4/CyLib.c ****         CY_SYS_CLK_PLL_BASE.pll[pll].test |= CY_SYS_CLK_PLL_TEST_UNLOCK_OCCURRED_MASK;
1873:Generated_Source\PSoC4/CyLib.c **** 
1874:Generated_Source\PSoC4/CyLib.c ****         CyExitCriticalSection(interruptState);
1875:Generated_Source\PSoC4/CyLib.c **** 
1876:Generated_Source\PSoC4/CyLib.c ****         return (returnStatus);
1877:Generated_Source\PSoC4/CyLib.c ****     }
1878:Generated_Source\PSoC4/CyLib.c **** 
1879:Generated_Source\PSoC4/CyLib.c **** 
1880:Generated_Source\PSoC4/CyLib.c ****     /*******************************************************************************
1881:Generated_Source\PSoC4/CyLib.c ****     * Function Name: CySysClkPllSetFrequency
1882:Generated_Source\PSoC4/CyLib.c ****     ****************************************************************************//**
1883:Generated_Source\PSoC4/CyLib.c ****     *
1884:Generated_Source\PSoC4/CyLib.c ****     * Configures either PLL#0 or PLL#1 for the requested input/output frequencies.
1885:Generated_Source\PSoC4/CyLib.c ****     * The input frequency is the frequency of the source to the PLL. The source is
1886:Generated_Source\PSoC4/CyLib.c ****     * set using the CySysClkPllSetSource() function.
1887:Generated_Source\PSoC4/CyLib.c ****     *
1888:Generated_Source\PSoC4/CyLib.c ****     * The PLL must not be the system clock source when calling this function. The
1889:Generated_Source\PSoC4/CyLib.c ****     * PLL output will glitch during this function call.
1890:Generated_Source\PSoC4/CyLib.c ****     *
1891:Generated_Source\PSoC4/CyLib.c ****     * This API is available only for PSoC 4200L devices.
1892:Generated_Source\PSoC4/CyLib.c ****     *
1893:Generated_Source\PSoC4/CyLib.c ****     * \param pll:
1894:Generated_Source\PSoC4/CyLib.c ****     *  0   PLL#0
1895:Generated_Source\PSoC4/CyLib.c ****     *  1   PLL#1
1896:Generated_Source\PSoC4/CyLib.c ****     *
1897:Generated_Source\PSoC4/CyLib.c ****     * \param inputFreq The reference frequency in KHz. The valid range is from 1000 to 49152 KHz.
1898:Generated_Source\PSoC4/CyLib.c ****     *
1899:Generated_Source\PSoC4/CyLib.c ****     * \param pllFreq The target frequency in KHz. The valid range is from 22500 to 49152 KHz.
1900:Generated_Source\PSoC4/CyLib.c ****     *
1901:Generated_Source\PSoC4/CyLib.c ****     * \param divider The output clock divider for the PLL:
1902:Generated_Source\PSoC4/CyLib.c ****     * CY_SYS_PLL_OUTPUT_DIVPASS    Pass Through
1903:Generated_Source\PSoC4/CyLib.c ****     * CY_SYS_PLL_OUTPUT_DIV2       Divide by 2
1904:Generated_Source\PSoC4/CyLib.c ****     * CY_SYS_PLL_OUTPUT_DIV4       Divide by 4
1905:Generated_Source\PSoC4/CyLib.c ****     * CY_SYS_PLL_OUTPUT_DIV8       Divide by 8
1906:Generated_Source\PSoC4/CyLib.c ****     *
1907:Generated_Source\PSoC4/CyLib.c ****     * \param freqTol The tolerance in ppm, 10 ppm is equal to 0.001%.
1908:Generated_Source\PSoC4/CyLib.c ****     *
1909:Generated_Source\PSoC4/CyLib.c ****     * \return CYRET_SUCCESS The PLL was successfully configured for the requested
1910:Generated_Source\PSoC4/CyLib.c ****     * frequency.
1911:Generated_Source\PSoC4/CyLib.c ****     *
1912:Generated_Source\PSoC4/CyLib.c ****     * \return CYRET_BAD_PARAM The PLL was not able to successfully configure for the
1913:Generated_Source\PSoC4/CyLib.c ****     * requested frequency.
1914:Generated_Source\PSoC4/CyLib.c ****     *
1915:Generated_Source\PSoC4/CyLib.c ****     *******************************************************************************/
1916:Generated_Source\PSoC4/CyLib.c ****     cystatus CySysClkPllSetFrequency(uint32 pll, uint32 inputFreq, uint32 pllFreq, uint32 divider, 
1917:Generated_Source\PSoC4/CyLib.c ****     {
1918:Generated_Source\PSoC4/CyLib.c ****         uint32 qMin;
1919:Generated_Source\PSoC4/CyLib.c ****         uint32 qMax;
1920:Generated_Source\PSoC4/CyLib.c **** 
ARM GAS  C:\Users\Toshiba\AppData\Local\Temp\ccDzK1Zy.s 			page 49


1921:Generated_Source\PSoC4/CyLib.c ****         uint32 qVal = CY_SYS_CLK_PLL_INVALID;
1922:Generated_Source\PSoC4/CyLib.c ****         uint32 pVal = CY_SYS_CLK_PLL_INVALID;
1923:Generated_Source\PSoC4/CyLib.c **** 
1924:Generated_Source\PSoC4/CyLib.c ****         uint32 q;
1925:Generated_Source\PSoC4/CyLib.c ****         uint32 p;
1926:Generated_Source\PSoC4/CyLib.c **** 
1927:Generated_Source\PSoC4/CyLib.c ****         uint32 fvco;
1928:Generated_Source\PSoC4/CyLib.c ****         int32 ferr;
1929:Generated_Source\PSoC4/CyLib.c **** 
1930:Generated_Source\PSoC4/CyLib.c ****         cystatus tmp;
1931:Generated_Source\PSoC4/CyLib.c ****         cystatus returnStatus = CYRET_BAD_PARAM;
1932:Generated_Source\PSoC4/CyLib.c **** 
1933:Generated_Source\PSoC4/CyLib.c **** 
1934:Generated_Source\PSoC4/CyLib.c ****         tmp = CySysClkPllConfigChangeAllowed(pll);
1935:Generated_Source\PSoC4/CyLib.c **** 
1936:Generated_Source\PSoC4/CyLib.c ****         if ((pll < CY_IP_PLL_NR) &&
1937:Generated_Source\PSoC4/CyLib.c ****             (inputFreq  >= CY_SYS_CLK_PLL_INPUT_FREQ_MIN )  && (inputFreq  <= CY_SYS_CLK_PLL_INPUT_
1938:Generated_Source\PSoC4/CyLib.c ****             (pllFreq >= CY_SYS_CLK_PLL_OUTPUT_FREQ_MIN ) && (pllFreq <= CY_SYS_CLK_PLL_OUTPUT_FREQ_
1939:Generated_Source\PSoC4/CyLib.c ****             (divider <= CY_SYS_PLL_OUTPUT_DIV8) &&
1940:Generated_Source\PSoC4/CyLib.c ****             (CYRET_SUCCESS == tmp))
1941:Generated_Source\PSoC4/CyLib.c ****         {
1942:Generated_Source\PSoC4/CyLib.c **** 
1943:Generated_Source\PSoC4/CyLib.c ****             /* Minimum feed forward loop divisor */
1944:Generated_Source\PSoC4/CyLib.c ****             qMin = (inputFreq + (CY_SYS_CLK_PLL_FPFDMAX - 1u)) / CY_SYS_CLK_PLL_FPFDMAX;
1945:Generated_Source\PSoC4/CyLib.c ****             qMin = (qMin < CY_SYS_CLK_PLL_QMINIP) ? CY_SYS_CLK_PLL_QMINIP : qMin;
1946:Generated_Source\PSoC4/CyLib.c **** 
1947:Generated_Source\PSoC4/CyLib.c ****             /* Maximum feed forward loop divisor */
1948:Generated_Source\PSoC4/CyLib.c ****             qMax = inputFreq / CY_SYS_CLK_PLL_FPFDMIN;
1949:Generated_Source\PSoC4/CyLib.c ****             qMax = (qMax > CY_SYS_CLK_PLL_QMAXIP) ? CY_SYS_CLK_PLL_QMAXIP : qMax;
1950:Generated_Source\PSoC4/CyLib.c **** 
1951:Generated_Source\PSoC4/CyLib.c ****             if (qMin <= qMax)
1952:Generated_Source\PSoC4/CyLib.c ****             {
1953:Generated_Source\PSoC4/CyLib.c ****                 for(q = qMin; q <= qMax; q++)
1954:Generated_Source\PSoC4/CyLib.c ****                 {
1955:Generated_Source\PSoC4/CyLib.c ****                     /* Solve for the feedback divisor value */
1956:Generated_Source\PSoC4/CyLib.c **** 
1957:Generated_Source\PSoC4/CyLib.c ****                     /* INT((pllFreq * q ) / inputFreq), where INT is normal rounding  */
1958:Generated_Source\PSoC4/CyLib.c ****                     p = ((pllFreq * q) + (inputFreq / 2u)) / inputFreq;
1959:Generated_Source\PSoC4/CyLib.c **** 
1960:Generated_Source\PSoC4/CyLib.c ****                     /* Calculate the actual VCO frequency (FVCO) */
1961:Generated_Source\PSoC4/CyLib.c ****                     fvco = ((inputFreq * p) / q);
1962:Generated_Source\PSoC4/CyLib.c **** 
1963:Generated_Source\PSoC4/CyLib.c ****                     /* Calculate the frequency error (FERR) */
1964:Generated_Source\PSoC4/CyLib.c ****                     ferr = ((1000000 * ((int32) fvco - (int32) pllFreq))/ (int32) pllFreq);
1965:Generated_Source\PSoC4/CyLib.c **** 
1966:Generated_Source\PSoC4/CyLib.c ****                     /* Bound check the frequency error and decide next action */
1967:Generated_Source\PSoC4/CyLib.c ****                     if ((( -1 * (int32) freqTol) <= ferr) && (ferr <= (int32) freqTol))
1968:Generated_Source\PSoC4/CyLib.c ****                     {
1969:Generated_Source\PSoC4/CyLib.c ****                         qVal = q;
1970:Generated_Source\PSoC4/CyLib.c ****                         pVal = p;
1971:Generated_Source\PSoC4/CyLib.c ****                         break;
1972:Generated_Source\PSoC4/CyLib.c ****                     }
1973:Generated_Source\PSoC4/CyLib.c ****                 }
1974:Generated_Source\PSoC4/CyLib.c **** 
1975:Generated_Source\PSoC4/CyLib.c **** 
1976:Generated_Source\PSoC4/CyLib.c ****                 if ((pVal != CY_SYS_CLK_PLL_INVALID) && (qVal != CY_SYS_CLK_PLL_INVALID))
1977:Generated_Source\PSoC4/CyLib.c ****                 {
ARM GAS  C:\Users\Toshiba\AppData\Local\Temp\ccDzK1Zy.s 			page 50


1978:Generated_Source\PSoC4/CyLib.c ****                     if (CySysClkPllSetPQ(pll, pVal, qVal, CY_SYS_CLK_PLL_CURRENT_DEFAULT) == CYRET_
1979:Generated_Source\PSoC4/CyLib.c ****                     {
1980:Generated_Source\PSoC4/CyLib.c ****                         returnStatus = CySysClkPllSetOutputDivider(pll, divider);
1981:Generated_Source\PSoC4/CyLib.c ****                     }
1982:Generated_Source\PSoC4/CyLib.c ****                 }
1983:Generated_Source\PSoC4/CyLib.c ****             }
1984:Generated_Source\PSoC4/CyLib.c **** 
1985:Generated_Source\PSoC4/CyLib.c ****         }
1986:Generated_Source\PSoC4/CyLib.c **** 
1987:Generated_Source\PSoC4/CyLib.c ****         return (returnStatus);
1988:Generated_Source\PSoC4/CyLib.c ****     }
1989:Generated_Source\PSoC4/CyLib.c **** 
1990:Generated_Source\PSoC4/CyLib.c **** 
1991:Generated_Source\PSoC4/CyLib.c ****     /*******************************************************************************
1992:Generated_Source\PSoC4/CyLib.c ****     * Function Name: CySysClkPllSetSource
1993:Generated_Source\PSoC4/CyLib.c ****     ****************************************************************************//**
1994:Generated_Source\PSoC4/CyLib.c ****     *
1995:Generated_Source\PSoC4/CyLib.c ****     *  Sets the input clock source to the PLL. The PLL must be disabled before
1996:Generated_Source\PSoC4/CyLib.c ****     *  calling this function.
1997:Generated_Source\PSoC4/CyLib.c ****     *
1998:Generated_Source\PSoC4/CyLib.c ****     *  This API is available only for PSoC 4200L devices.
1999:Generated_Source\PSoC4/CyLib.c ****     *
2000:Generated_Source\PSoC4/CyLib.c ****     *  \param PLL:
2001:Generated_Source\PSoC4/CyLib.c ****     *  0   PLL#0
2002:Generated_Source\PSoC4/CyLib.c ****     *  1   PLL#1
2003:Generated_Source\PSoC4/CyLib.c ****     *
2004:Generated_Source\PSoC4/CyLib.c ****     * \param source:
2005:Generated_Source\PSoC4/CyLib.c ****     *  CY_SYS_PLL_SOURCE_IMO        IMO
2006:Generated_Source\PSoC4/CyLib.c ****     *  CY_SYS_PLL_SOURCE_EXTCLK     External Clock
2007:Generated_Source\PSoC4/CyLib.c ****     *  CY_SYS_PLL_SOURCE_ECO        ECO
2008:Generated_Source\PSoC4/CyLib.c ****     *  CY_SYS_PLL_SOURCE_DSI0       DSI_OUT[0]
2009:Generated_Source\PSoC4/CyLib.c ****     *  CY_SYS_PLL_SOURCE_DSI1       DSI_OUT[1]
2010:Generated_Source\PSoC4/CyLib.c ****     *  CY_SYS_PLL_SOURCE_DSI2       DSI_OUT[2]
2011:Generated_Source\PSoC4/CyLib.c ****     *  CY_SYS_PLL_SOURCE_DSI3       DSI_OUT[3]
2012:Generated_Source\PSoC4/CyLib.c ****     *
2013:Generated_Source\PSoC4/CyLib.c ****     *******************************************************************************/
2014:Generated_Source\PSoC4/CyLib.c ****     void CySysClkPllSetSource(uint32 pll, uint32 source)
2015:Generated_Source\PSoC4/CyLib.c ****     {
2016:Generated_Source\PSoC4/CyLib.c ****         uint32 regTmp;
2017:Generated_Source\PSoC4/CyLib.c ****         uint8  interruptState;
2018:Generated_Source\PSoC4/CyLib.c **** 
2019:Generated_Source\PSoC4/CyLib.c ****         interruptState = CyEnterCriticalSection();
2020:Generated_Source\PSoC4/CyLib.c **** 
2021:Generated_Source\PSoC4/CyLib.c ****         if (pll < CY_IP_PLL_NR)
2022:Generated_Source\PSoC4/CyLib.c ****         {
2023:Generated_Source\PSoC4/CyLib.c ****             regTmp = CY_SYS_CLK_SELECT_REG & (uint32) ~CY_SYS_CLK_SELECT_PLL_MASK(pll);
2024:Generated_Source\PSoC4/CyLib.c ****             regTmp |= ((source << CY_SYS_CLK_SELECT_PLL_SHIFT(pll)) & CY_SYS_CLK_SELECT_PLL_MASK(pl
2025:Generated_Source\PSoC4/CyLib.c ****             CY_SYS_CLK_SELECT_REG = regTmp;
2026:Generated_Source\PSoC4/CyLib.c ****         }
2027:Generated_Source\PSoC4/CyLib.c **** 
2028:Generated_Source\PSoC4/CyLib.c ****         CyExitCriticalSection(interruptState);
2029:Generated_Source\PSoC4/CyLib.c ****     }
2030:Generated_Source\PSoC4/CyLib.c **** 
2031:Generated_Source\PSoC4/CyLib.c **** 
2032:Generated_Source\PSoC4/CyLib.c ****     /*******************************************************************************
2033:Generated_Source\PSoC4/CyLib.c ****     * Function Name: CySysClkPllSetOutputDivider
2034:Generated_Source\PSoC4/CyLib.c ****     ****************************************************************************//**
ARM GAS  C:\Users\Toshiba\AppData\Local\Temp\ccDzK1Zy.s 			page 51


2035:Generated_Source\PSoC4/CyLib.c ****     *
2036:Generated_Source\PSoC4/CyLib.c ****     *  Sets the output clock divider for the PLL.
2037:Generated_Source\PSoC4/CyLib.c ****     *
2038:Generated_Source\PSoC4/CyLib.c ****     *  The PLL must not be the System Clock source when calling this function. The
2039:Generated_Source\PSoC4/CyLib.c ****     *  PLL output will glitch during this function call.
2040:Generated_Source\PSoC4/CyLib.c ****     *
2041:Generated_Source\PSoC4/CyLib.c ****     *  This API is available only for PSoC 4200L devices.
2042:Generated_Source\PSoC4/CyLib.c ****     *
2043:Generated_Source\PSoC4/CyLib.c ****     *  \param PLL:
2044:Generated_Source\PSoC4/CyLib.c ****     *   0   PLL#0
2045:Generated_Source\PSoC4/CyLib.c ****     *   1   PLL#1
2046:Generated_Source\PSoC4/CyLib.c ****     *
2047:Generated_Source\PSoC4/CyLib.c ****     * \param divider:
2048:Generated_Source\PSoC4/CyLib.c ****     *  CY_SYS_PLL_OUTPUT_DIVPASS    Pass through
2049:Generated_Source\PSoC4/CyLib.c ****     *  CY_SYS_PLL_OUTPUT_DIV2       Divide by 2
2050:Generated_Source\PSoC4/CyLib.c ****     *  CY_SYS_PLL_OUTPUT_DIV4       Divide by 4
2051:Generated_Source\PSoC4/CyLib.c ****     *  CY_SYS_PLL_OUTPUT_DIV8       Divide by 8
2052:Generated_Source\PSoC4/CyLib.c ****     *
2053:Generated_Source\PSoC4/CyLib.c ****     * \return \ref CYRET_SUCCESS    Completed successfully.
2054:Generated_Source\PSoC4/CyLib.c ****     * \return \ref CYRET_BAD_PARAM  The parameters are out of range or the
2055:Generated_Source\PSoC4/CyLib.c ****     * specified PLL sources the System clock.
2056:Generated_Source\PSoC4/CyLib.c ****     *
2057:Generated_Source\PSoC4/CyLib.c ****     *******************************************************************************/
2058:Generated_Source\PSoC4/CyLib.c ****     cystatus CySysClkPllSetOutputDivider(uint32 pll, uint32 divider)
2059:Generated_Source\PSoC4/CyLib.c ****     {
2060:Generated_Source\PSoC4/CyLib.c ****         uint32   tmpReg;
2061:Generated_Source\PSoC4/CyLib.c ****         uint8    interruptState;
2062:Generated_Source\PSoC4/CyLib.c ****         cystatus returnStatus = CYRET_BAD_PARAM;
2063:Generated_Source\PSoC4/CyLib.c ****         cystatus tmp;
2064:Generated_Source\PSoC4/CyLib.c **** 
2065:Generated_Source\PSoC4/CyLib.c **** 
2066:Generated_Source\PSoC4/CyLib.c ****         interruptState = CyEnterCriticalSection();
2067:Generated_Source\PSoC4/CyLib.c **** 
2068:Generated_Source\PSoC4/CyLib.c ****         tmp = CySysClkPllConfigChangeAllowed(pll);
2069:Generated_Source\PSoC4/CyLib.c **** 
2070:Generated_Source\PSoC4/CyLib.c ****         if ((pll < CY_IP_PLL_NR) && (CYRET_SUCCESS == tmp) && (divider <= CY_SYS_PLL_OUTPUT_DIV8))
2071:Generated_Source\PSoC4/CyLib.c ****         {
2072:Generated_Source\PSoC4/CyLib.c ****             tmpReg  = CY_SYS_CLK_PLL_BASE.pll[pll].config & (uint32) ~(CY_SYS_CLK_PLL_CONFIG_OUTPUT
2073:Generated_Source\PSoC4/CyLib.c ****             tmpReg |= ((divider << CY_SYS_CLK_PLL_CONFIG_OUTPUT_DIV_SHIFT) & CY_SYS_CLK_PLL_CONFIG_
2074:Generated_Source\PSoC4/CyLib.c **** 
2075:Generated_Source\PSoC4/CyLib.c ****             CY_SYS_CLK_PLL_BASE.pll[pll].config = tmpReg;
2076:Generated_Source\PSoC4/CyLib.c **** 
2077:Generated_Source\PSoC4/CyLib.c ****             returnStatus = CYRET_SUCCESS;
2078:Generated_Source\PSoC4/CyLib.c ****         }
2079:Generated_Source\PSoC4/CyLib.c **** 
2080:Generated_Source\PSoC4/CyLib.c ****         CyExitCriticalSection(interruptState);
2081:Generated_Source\PSoC4/CyLib.c **** 
2082:Generated_Source\PSoC4/CyLib.c ****         return (returnStatus);
2083:Generated_Source\PSoC4/CyLib.c ****     }
2084:Generated_Source\PSoC4/CyLib.c **** #endif /* (CY_IP_SRSSV2 && CY_IP_PLL) */
2085:Generated_Source\PSoC4/CyLib.c **** 
2086:Generated_Source\PSoC4/CyLib.c **** 
2087:Generated_Source\PSoC4/CyLib.c **** #if(CY_IP_SRSSV2)
2088:Generated_Source\PSoC4/CyLib.c **** 
2089:Generated_Source\PSoC4/CyLib.c ****     /*******************************************************************************
2090:Generated_Source\PSoC4/CyLib.c ****     * Function Name: CySysLvdEnable
2091:Generated_Source\PSoC4/CyLib.c ****     ****************************************************************************//**
ARM GAS  C:\Users\Toshiba\AppData\Local\Temp\ccDzK1Zy.s 			page 52


2092:Generated_Source\PSoC4/CyLib.c ****     *
2093:Generated_Source\PSoC4/CyLib.c ****     *  Enables the output of the low-voltage monitor when Vddd is at or below the
2094:Generated_Source\PSoC4/CyLib.c ****     *  trip point, configures the device to generate an interrupt, and sets the
2095:Generated_Source\PSoC4/CyLib.c ****     *  voltage trip level.
2096:Generated_Source\PSoC4/CyLib.c ****     *
2097:Generated_Source\PSoC4/CyLib.c ****     *  \param threshold: Threshold selection for Low Voltage Detect circuit.
2098:Generated_Source\PSoC4/CyLib.c ****     *  Threshold variation is +/- 2.5% from these typical voltage choices.
2099:Generated_Source\PSoC4/CyLib.c ****     *         Define                     Voltage threshold
2100:Generated_Source\PSoC4/CyLib.c ****     *    CY_LVD_THRESHOLD_1_75_V       1.7500 V
2101:Generated_Source\PSoC4/CyLib.c ****     *    CY_LVD_THRESHOLD_1_80_V       1.8000 V
2102:Generated_Source\PSoC4/CyLib.c ****     *    CY_LVD_THRESHOLD_1_90_V       1.9000 V
2103:Generated_Source\PSoC4/CyLib.c ****     *    CY_LVD_THRESHOLD_2_00_V       2.0000 V
2104:Generated_Source\PSoC4/CyLib.c ****     *    CY_LVD_THRESHOLD_2_10_V       2.1000 V
2105:Generated_Source\PSoC4/CyLib.c ****     *    CY_LVD_THRESHOLD_2_20_V       2.2000 V
2106:Generated_Source\PSoC4/CyLib.c ****     *    CY_LVD_THRESHOLD_2_30_V       2.3000 V
2107:Generated_Source\PSoC4/CyLib.c ****     *    CY_LVD_THRESHOLD_2_40_V       2.4000 V
2108:Generated_Source\PSoC4/CyLib.c ****     *    CY_LVD_THRESHOLD_2_50_V       2.5000 V
2109:Generated_Source\PSoC4/CyLib.c ****     *    CY_LVD_THRESHOLD_2_60_V       2.6000 V
2110:Generated_Source\PSoC4/CyLib.c ****     *    CY_LVD_THRESHOLD_2_70_V       2.7000 V
2111:Generated_Source\PSoC4/CyLib.c ****     *    CY_LVD_THRESHOLD_2_80_V       2.8000 V
2112:Generated_Source\PSoC4/CyLib.c ****     *    CY_LVD_THRESHOLD_2_90_V       2.9000 V
2113:Generated_Source\PSoC4/CyLib.c ****     *    CY_LVD_THRESHOLD_3_00_V       3.0000 V
2114:Generated_Source\PSoC4/CyLib.c ****     *    CY_LVD_THRESHOLD_3_20_V       3.2000 V
2115:Generated_Source\PSoC4/CyLib.c ****     *    CY_LVD_THRESHOLD_4_50_V       4.5000 V
2116:Generated_Source\PSoC4/CyLib.c ****     *
2117:Generated_Source\PSoC4/CyLib.c ****     *******************************************************************************/
2118:Generated_Source\PSoC4/CyLib.c ****     void CySysLvdEnable(uint32 threshold)
2119:Generated_Source\PSoC4/CyLib.c ****     {
 805              		.loc 1 2119 0
 806              		.cfi_startproc
 807              		@ args = 0, pretend = 0, frame = 8
 808              		@ frame_needed = 1, uses_anonymous_args = 0
 809 0000 80B5     		push	{r7, lr}
 810              		.cfi_def_cfa_offset 8
 811              		.cfi_offset 7, -8
 812              		.cfi_offset 14, -4
 813 0002 82B0     		sub	sp, sp, #8
 814              		.cfi_def_cfa_offset 16
 815 0004 00AF     		add	r7, sp, #0
 816              		.cfi_def_cfa_register 7
 817 0006 7860     		str	r0, [r7, #4]
2120:Generated_Source\PSoC4/CyLib.c ****         /* Prevent propagating a false interrupt */
2121:Generated_Source\PSoC4/CyLib.c ****         CY_LVD_PWR_INTR_MASK_REG   &= (uint32) ~CY_LVD_PROPAGATE_INT_TO_CPU;
 818              		.loc 1 2121 0
 819 0008 144B     		ldr	r3, .L48
 820 000a 144A     		ldr	r2, .L48
 821 000c 1268     		ldr	r2, [r2]
 822 000e 0221     		movs	r1, #2
 823 0010 8A43     		bics	r2, r1
 824 0012 1A60     		str	r2, [r3]
2122:Generated_Source\PSoC4/CyLib.c **** 
2123:Generated_Source\PSoC4/CyLib.c ****         /* Set specified threshold */
2124:Generated_Source\PSoC4/CyLib.c ****         CY_LVD_PWR_VMON_CONFIG_REG = (CY_LVD_PWR_VMON_CONFIG_REG & ~CY_LVD_PWR_VMON_CONFIG_LVD_SEL_
 825              		.loc 1 2124 0
 826 0014 124B     		ldr	r3, .L48+4
 827 0016 124A     		ldr	r2, .L48+4
 828 0018 1268     		ldr	r2, [r2]
ARM GAS  C:\Users\Toshiba\AppData\Local\Temp\ccDzK1Zy.s 			page 53


 829 001a 1E21     		movs	r1, #30
 830 001c 8A43     		bics	r2, r1
 831 001e 1100     		movs	r1, r2
2125:Generated_Source\PSoC4/CyLib.c ****                 ((threshold << CY_LVD_PWR_VMON_CONFIG_LVD_SEL_SHIFT) & CY_LVD_PWR_VMON_CONFIG_LVD_S
 832              		.loc 1 2125 0
 833 0020 7A68     		ldr	r2, [r7, #4]
 834 0022 5200     		lsls	r2, r2, #1
 835 0024 1E20     		movs	r0, #30
 836 0026 0240     		ands	r2, r0
2124:Generated_Source\PSoC4/CyLib.c ****                 ((threshold << CY_LVD_PWR_VMON_CONFIG_LVD_SEL_SHIFT) & CY_LVD_PWR_VMON_CONFIG_LVD_S
 837              		.loc 1 2124 0
 838 0028 0A43     		orrs	r2, r1
 839 002a 1A60     		str	r2, [r3]
2126:Generated_Source\PSoC4/CyLib.c **** 
2127:Generated_Source\PSoC4/CyLib.c ****         /* Enable the LVD. This may cause a false LVD event. */
2128:Generated_Source\PSoC4/CyLib.c ****         CY_LVD_PWR_VMON_CONFIG_REG |= CY_LVD_PWR_VMON_CONFIG_LVD_EN;
 840              		.loc 1 2128 0
 841 002c 0C4B     		ldr	r3, .L48+4
 842 002e 0C4A     		ldr	r2, .L48+4
 843 0030 1268     		ldr	r2, [r2]
 844 0032 0121     		movs	r1, #1
 845 0034 0A43     		orrs	r2, r1
 846 0036 1A60     		str	r2, [r3]
2129:Generated_Source\PSoC4/CyLib.c **** 
2130:Generated_Source\PSoC4/CyLib.c ****         /* Wait for the circuit to stabilize */
2131:Generated_Source\PSoC4/CyLib.c ****         CyDelayUs(CY_LVD_STABILIZE_TIMEOUT_US);
 847              		.loc 1 2131 0
 848 0038 FA23     		movs	r3, #250
 849 003a 9B00     		lsls	r3, r3, #2
 850 003c 1800     		movs	r0, r3
 851 003e FFF7FEFF 		bl	CyDelayUs
2132:Generated_Source\PSoC4/CyLib.c **** 
2133:Generated_Source\PSoC4/CyLib.c ****         /* Clear the false event */
2134:Generated_Source\PSoC4/CyLib.c ****         CySysLvdClearInterrupt();
 852              		.loc 1 2134 0
 853 0042 FFF7FEFF 		bl	CySysLvdClearInterrupt
2135:Generated_Source\PSoC4/CyLib.c **** 
2136:Generated_Source\PSoC4/CyLib.c ****         /* Unmask the interrupt */
2137:Generated_Source\PSoC4/CyLib.c ****         CY_LVD_PWR_INTR_MASK_REG   |= CY_LVD_PROPAGATE_INT_TO_CPU;
 854              		.loc 1 2137 0
 855 0046 054B     		ldr	r3, .L48
 856 0048 044A     		ldr	r2, .L48
 857 004a 1268     		ldr	r2, [r2]
 858 004c 0221     		movs	r1, #2
 859 004e 0A43     		orrs	r2, r1
 860 0050 1A60     		str	r2, [r3]
2138:Generated_Source\PSoC4/CyLib.c ****     }
 861              		.loc 1 2138 0
 862 0052 C046     		nop
 863 0054 BD46     		mov	sp, r7
 864 0056 02B0     		add	sp, sp, #8
 865              		@ sp needed
 866 0058 80BD     		pop	{r7, pc}
 867              	.L49:
 868 005a C046     		.align	2
 869              	.L48:
 870 005c 08000B40 		.word	1074462728
ARM GAS  C:\Users\Toshiba\AppData\Local\Temp\ccDzK1Zy.s 			page 54


 871 0060 18000B40 		.word	1074462744
 872              		.cfi_endproc
 873              	.LFE13:
 874              		.size	CySysLvdEnable, .-CySysLvdEnable
 875              		.section	.text.CySysLvdDisable,"ax",%progbits
 876              		.align	2
 877              		.global	CySysLvdDisable
 878              		.code	16
 879              		.thumb_func
 880              		.type	CySysLvdDisable, %function
 881              	CySysLvdDisable:
 882              	.LFB14:
2139:Generated_Source\PSoC4/CyLib.c **** 
2140:Generated_Source\PSoC4/CyLib.c **** 
2141:Generated_Source\PSoC4/CyLib.c ****     /*******************************************************************************
2142:Generated_Source\PSoC4/CyLib.c ****     * Function Name: CySysLvdDisable
2143:Generated_Source\PSoC4/CyLib.c ****     ****************************************************************************//**
2144:Generated_Source\PSoC4/CyLib.c ****     *
2145:Generated_Source\PSoC4/CyLib.c ****     *  Disables the low voltage detection. A low voltage interrupt is disabled.
2146:Generated_Source\PSoC4/CyLib.c ****     *
2147:Generated_Source\PSoC4/CyLib.c ****     *******************************************************************************/
2148:Generated_Source\PSoC4/CyLib.c ****     void CySysLvdDisable(void)
2149:Generated_Source\PSoC4/CyLib.c ****     {
 883              		.loc 1 2149 0
 884              		.cfi_startproc
 885              		@ args = 0, pretend = 0, frame = 0
 886              		@ frame_needed = 1, uses_anonymous_args = 0
 887 0000 80B5     		push	{r7, lr}
 888              		.cfi_def_cfa_offset 8
 889              		.cfi_offset 7, -8
 890              		.cfi_offset 14, -4
 891 0002 00AF     		add	r7, sp, #0
 892              		.cfi_def_cfa_register 7
2150:Generated_Source\PSoC4/CyLib.c ****         CY_LVD_PWR_INTR_MASK_REG   &= ~CY_LVD_PROPAGATE_INT_TO_CPU;
 893              		.loc 1 2150 0
 894 0004 074B     		ldr	r3, .L51
 895 0006 074A     		ldr	r2, .L51
 896 0008 1268     		ldr	r2, [r2]
 897 000a 0221     		movs	r1, #2
 898 000c 8A43     		bics	r2, r1
 899 000e 1A60     		str	r2, [r3]
2151:Generated_Source\PSoC4/CyLib.c ****         CY_LVD_PWR_VMON_CONFIG_REG &= ~CY_LVD_PWR_VMON_CONFIG_LVD_EN;
 900              		.loc 1 2151 0
 901 0010 054B     		ldr	r3, .L51+4
 902 0012 054A     		ldr	r2, .L51+4
 903 0014 1268     		ldr	r2, [r2]
 904 0016 0121     		movs	r1, #1
 905 0018 8A43     		bics	r2, r1
 906 001a 1A60     		str	r2, [r3]
2152:Generated_Source\PSoC4/CyLib.c ****     }
 907              		.loc 1 2152 0
 908 001c C046     		nop
 909 001e BD46     		mov	sp, r7
 910              		@ sp needed
 911 0020 80BD     		pop	{r7, pc}
 912              	.L52:
 913 0022 C046     		.align	2
ARM GAS  C:\Users\Toshiba\AppData\Local\Temp\ccDzK1Zy.s 			page 55


 914              	.L51:
 915 0024 08000B40 		.word	1074462728
 916 0028 18000B40 		.word	1074462744
 917              		.cfi_endproc
 918              	.LFE14:
 919              		.size	CySysLvdDisable, .-CySysLvdDisable
 920              		.section	.text.CySysLvdGetInterruptSource,"ax",%progbits
 921              		.align	2
 922              		.global	CySysLvdGetInterruptSource
 923              		.code	16
 924              		.thumb_func
 925              		.type	CySysLvdGetInterruptSource, %function
 926              	CySysLvdGetInterruptSource:
 927              	.LFB15:
2153:Generated_Source\PSoC4/CyLib.c **** 
2154:Generated_Source\PSoC4/CyLib.c **** 
2155:Generated_Source\PSoC4/CyLib.c ****     /*******************************************************************************
2156:Generated_Source\PSoC4/CyLib.c ****     * Function Name: CySysLvdGetInterruptSource
2157:Generated_Source\PSoC4/CyLib.c ****     ****************************************************************************//**
2158:Generated_Source\PSoC4/CyLib.c ****     *
2159:Generated_Source\PSoC4/CyLib.c ****     *  Gets the low voltage detection interrupt status (without clearing).
2160:Generated_Source\PSoC4/CyLib.c ****     *
2161:Generated_Source\PSoC4/CyLib.c ****     * \return
2162:Generated_Source\PSoC4/CyLib.c ****     *  Interrupt request value:
2163:Generated_Source\PSoC4/CyLib.c ****     *    CY_SYS_LVD_INT - Indicates an Low Voltage Detect interrupt
2164:Generated_Source\PSoC4/CyLib.c ****     *
2165:Generated_Source\PSoC4/CyLib.c ****     *******************************************************************************/
2166:Generated_Source\PSoC4/CyLib.c ****     uint32 CySysLvdGetInterruptSource(void)
2167:Generated_Source\PSoC4/CyLib.c ****     {
 928              		.loc 1 2167 0
 929              		.cfi_startproc
 930              		@ args = 0, pretend = 0, frame = 0
 931              		@ frame_needed = 1, uses_anonymous_args = 0
 932 0000 80B5     		push	{r7, lr}
 933              		.cfi_def_cfa_offset 8
 934              		.cfi_offset 7, -8
 935              		.cfi_offset 14, -4
 936 0002 00AF     		add	r7, sp, #0
 937              		.cfi_def_cfa_register 7
2168:Generated_Source\PSoC4/CyLib.c ****         return (CY_LVD_PWR_INTR_REG & CY_SYS_LVD_INT);
 938              		.loc 1 2168 0
 939 0004 034B     		ldr	r3, .L55
 940 0006 1B68     		ldr	r3, [r3]
 941 0008 0222     		movs	r2, #2
 942 000a 1340     		ands	r3, r2
2169:Generated_Source\PSoC4/CyLib.c ****     }
 943              		.loc 1 2169 0
 944 000c 1800     		movs	r0, r3
 945 000e BD46     		mov	sp, r7
 946              		@ sp needed
 947 0010 80BD     		pop	{r7, pc}
 948              	.L56:
 949 0012 C046     		.align	2
 950              	.L55:
 951 0014 04000B40 		.word	1074462724
 952              		.cfi_endproc
 953              	.LFE15:
ARM GAS  C:\Users\Toshiba\AppData\Local\Temp\ccDzK1Zy.s 			page 56


 954              		.size	CySysLvdGetInterruptSource, .-CySysLvdGetInterruptSource
 955              		.section	.text.CySysLvdClearInterrupt,"ax",%progbits
 956              		.align	2
 957              		.global	CySysLvdClearInterrupt
 958              		.code	16
 959              		.thumb_func
 960              		.type	CySysLvdClearInterrupt, %function
 961              	CySysLvdClearInterrupt:
 962              	.LFB16:
2170:Generated_Source\PSoC4/CyLib.c **** 
2171:Generated_Source\PSoC4/CyLib.c **** 
2172:Generated_Source\PSoC4/CyLib.c ****     /*******************************************************************************
2173:Generated_Source\PSoC4/CyLib.c ****     * Function Name: CySysLvdClearInterrupt
2174:Generated_Source\PSoC4/CyLib.c ****     ****************************************************************************//**
2175:Generated_Source\PSoC4/CyLib.c ****     *
2176:Generated_Source\PSoC4/CyLib.c ****     *  Clears the low voltage detection interrupt status.
2177:Generated_Source\PSoC4/CyLib.c ****     *
2178:Generated_Source\PSoC4/CyLib.c ****     * \return
2179:Generated_Source\PSoC4/CyLib.c ****     *  None
2180:Generated_Source\PSoC4/CyLib.c ****     *
2181:Generated_Source\PSoC4/CyLib.c ****     *******************************************************************************/
2182:Generated_Source\PSoC4/CyLib.c ****     void CySysLvdClearInterrupt(void)
2183:Generated_Source\PSoC4/CyLib.c ****     {
 963              		.loc 1 2183 0
 964              		.cfi_startproc
 965              		@ args = 0, pretend = 0, frame = 0
 966              		@ frame_needed = 1, uses_anonymous_args = 0
 967 0000 80B5     		push	{r7, lr}
 968              		.cfi_def_cfa_offset 8
 969              		.cfi_offset 7, -8
 970              		.cfi_offset 14, -4
 971 0002 00AF     		add	r7, sp, #0
 972              		.cfi_def_cfa_register 7
2184:Generated_Source\PSoC4/CyLib.c ****         CY_LVD_PWR_INTR_REG = CY_SYS_LVD_INT;
 973              		.loc 1 2184 0
 974 0004 024B     		ldr	r3, .L58
 975 0006 0222     		movs	r2, #2
 976 0008 1A60     		str	r2, [r3]
2185:Generated_Source\PSoC4/CyLib.c ****     }
 977              		.loc 1 2185 0
 978 000a C046     		nop
 979 000c BD46     		mov	sp, r7
 980              		@ sp needed
 981 000e 80BD     		pop	{r7, pc}
 982              	.L59:
 983              		.align	2
 984              	.L58:
 985 0010 04000B40 		.word	1074462724
 986              		.cfi_endproc
 987              	.LFE16:
 988              		.size	CySysLvdClearInterrupt, .-CySysLvdClearInterrupt
 989              		.section	.text.CySysGetResetReason,"ax",%progbits
 990              		.align	2
 991              		.global	CySysGetResetReason
 992              		.code	16
 993              		.thumb_func
 994              		.type	CySysGetResetReason, %function
ARM GAS  C:\Users\Toshiba\AppData\Local\Temp\ccDzK1Zy.s 			page 57


 995              	CySysGetResetReason:
 996              	.LFB17:
2186:Generated_Source\PSoC4/CyLib.c **** 
2187:Generated_Source\PSoC4/CyLib.c **** #endif /* (CY_IP_SRSSV2) */
2188:Generated_Source\PSoC4/CyLib.c **** 
2189:Generated_Source\PSoC4/CyLib.c **** 
2190:Generated_Source\PSoC4/CyLib.c **** /*******************************************************************************
2191:Generated_Source\PSoC4/CyLib.c **** * Function Name: CySysGetResetReason
2192:Generated_Source\PSoC4/CyLib.c **** ****************************************************************************//**
2193:Generated_Source\PSoC4/CyLib.c **** *
2194:Generated_Source\PSoC4/CyLib.c **** *  Reports the cause for the latest reset(s) that occurred in the system. All
2195:Generated_Source\PSoC4/CyLib.c **** *  the bits in the RES_CAUSE register assert when the corresponding reset cause
2196:Generated_Source\PSoC4/CyLib.c **** *  occurs and must be cleared by the firmware. These bits are cleared by the
2197:Generated_Source\PSoC4/CyLib.c **** *  hardware only during XRES, POR, or a detected brown-out.
2198:Generated_Source\PSoC4/CyLib.c **** *
2199:Generated_Source\PSoC4/CyLib.c **** *  \param reason: bits in the RES_CAUSE register to clear.
2200:Generated_Source\PSoC4/CyLib.c **** *   CY_SYS_RESET_WDT       - WDT caused a reset
2201:Generated_Source\PSoC4/CyLib.c **** *   CY_SYS_RESET_PROTFAULT - Occured protection violation that requires reset
2202:Generated_Source\PSoC4/CyLib.c **** *   CY_SYS_RESET_SW        - Cortex-M0 requested a system reset.
2203:Generated_Source\PSoC4/CyLib.c **** *
2204:Generated_Source\PSoC4/CyLib.c **** * \return
2205:Generated_Source\PSoC4/CyLib.c **** *  Status. Same enumerated bit values as used for the reason parameter.
2206:Generated_Source\PSoC4/CyLib.c **** *
2207:Generated_Source\PSoC4/CyLib.c **** *******************************************************************************/
2208:Generated_Source\PSoC4/CyLib.c **** uint32 CySysGetResetReason(uint32 reason)
2209:Generated_Source\PSoC4/CyLib.c **** {
 997              		.loc 1 2209 0
 998              		.cfi_startproc
 999              		@ args = 0, pretend = 0, frame = 16
 1000              		@ frame_needed = 1, uses_anonymous_args = 0
 1001 0000 80B5     		push	{r7, lr}
 1002              		.cfi_def_cfa_offset 8
 1003              		.cfi_offset 7, -8
 1004              		.cfi_offset 14, -4
 1005 0002 84B0     		sub	sp, sp, #16
 1006              		.cfi_def_cfa_offset 24
 1007 0004 00AF     		add	r7, sp, #0
 1008              		.cfi_def_cfa_register 7
 1009 0006 7860     		str	r0, [r7, #4]
2210:Generated_Source\PSoC4/CyLib.c ****     uint32 returnStatus;
2211:Generated_Source\PSoC4/CyLib.c **** 
2212:Generated_Source\PSoC4/CyLib.c ****     reason &= (CY_SYS_RESET_WDT | CY_SYS_RESET_PROTFAULT | CY_SYS_RESET_SW);
 1010              		.loc 1 2212 0
 1011 0008 7B68     		ldr	r3, [r7, #4]
 1012 000a 1922     		movs	r2, #25
 1013 000c 1340     		ands	r3, r2
 1014 000e 7B60     		str	r3, [r7, #4]
2213:Generated_Source\PSoC4/CyLib.c ****     returnStatus = CY_SYS_RES_CAUSE_REG &
 1015              		.loc 1 2213 0
 1016 0010 064B     		ldr	r3, .L62
 1017 0012 1B68     		ldr	r3, [r3]
 1018 0014 1922     		movs	r2, #25
 1019 0016 1340     		ands	r3, r2
 1020 0018 FB60     		str	r3, [r7, #12]
2214:Generated_Source\PSoC4/CyLib.c ****                   (CY_SYS_RESET_WDT | CY_SYS_RESET_PROTFAULT | CY_SYS_RESET_SW);
2215:Generated_Source\PSoC4/CyLib.c ****     CY_SYS_RES_CAUSE_REG = reason;
 1021              		.loc 1 2215 0
ARM GAS  C:\Users\Toshiba\AppData\Local\Temp\ccDzK1Zy.s 			page 58


 1022 001a 044B     		ldr	r3, .L62
 1023 001c 7A68     		ldr	r2, [r7, #4]
 1024 001e 1A60     		str	r2, [r3]
2216:Generated_Source\PSoC4/CyLib.c **** 
2217:Generated_Source\PSoC4/CyLib.c ****     return (returnStatus);
 1025              		.loc 1 2217 0
 1026 0020 FB68     		ldr	r3, [r7, #12]
2218:Generated_Source\PSoC4/CyLib.c **** }
 1027              		.loc 1 2218 0
 1028 0022 1800     		movs	r0, r3
 1029 0024 BD46     		mov	sp, r7
 1030 0026 04B0     		add	sp, sp, #16
 1031              		@ sp needed
 1032 0028 80BD     		pop	{r7, pc}
 1033              	.L63:
 1034 002a C046     		.align	2
 1035              	.L62:
 1036 002c 00030B40 		.word	1074463488
 1037              		.cfi_endproc
 1038              	.LFE17:
 1039              		.size	CySysGetResetReason, .-CySysGetResetReason
 1040              		.section	.text.CyDisableInts,"ax",%progbits
 1041              		.align	2
 1042              		.global	CyDisableInts
 1043              		.code	16
 1044              		.thumb_func
 1045              		.type	CyDisableInts, %function
 1046              	CyDisableInts:
 1047              	.LFB18:
2219:Generated_Source\PSoC4/CyLib.c **** 
2220:Generated_Source\PSoC4/CyLib.c **** 
2221:Generated_Source\PSoC4/CyLib.c **** /*******************************************************************************
2222:Generated_Source\PSoC4/CyLib.c **** * Function Name: CyDisableInts
2223:Generated_Source\PSoC4/CyLib.c **** ****************************************************************************//**
2224:Generated_Source\PSoC4/CyLib.c **** *
2225:Generated_Source\PSoC4/CyLib.c **** *  Disables all interrupts.
2226:Generated_Source\PSoC4/CyLib.c **** *
2227:Generated_Source\PSoC4/CyLib.c **** * \return
2228:Generated_Source\PSoC4/CyLib.c **** *  32 bit mask of previously enabled interrupts.
2229:Generated_Source\PSoC4/CyLib.c **** *
2230:Generated_Source\PSoC4/CyLib.c **** *******************************************************************************/
2231:Generated_Source\PSoC4/CyLib.c **** uint32 CyDisableInts(void)
2232:Generated_Source\PSoC4/CyLib.c **** {
 1048              		.loc 1 2232 0
 1049              		.cfi_startproc
 1050              		@ args = 0, pretend = 0, frame = 8
 1051              		@ frame_needed = 1, uses_anonymous_args = 0
 1052 0000 80B5     		push	{r7, lr}
 1053              		.cfi_def_cfa_offset 8
 1054              		.cfi_offset 7, -8
 1055              		.cfi_offset 14, -4
 1056 0002 82B0     		sub	sp, sp, #8
 1057              		.cfi_def_cfa_offset 16
 1058 0004 00AF     		add	r7, sp, #0
 1059              		.cfi_def_cfa_register 7
2233:Generated_Source\PSoC4/CyLib.c ****     uint32 intState;
2234:Generated_Source\PSoC4/CyLib.c **** 
ARM GAS  C:\Users\Toshiba\AppData\Local\Temp\ccDzK1Zy.s 			page 59


2235:Generated_Source\PSoC4/CyLib.c ****     /* Get current interrupt state. */
2236:Generated_Source\PSoC4/CyLib.c ****     intState = CY_INT_CLEAR_REG;
 1060              		.loc 1 2236 0
 1061 0006 064B     		ldr	r3, .L66
 1062 0008 1B68     		ldr	r3, [r3]
 1063 000a 7B60     		str	r3, [r7, #4]
2237:Generated_Source\PSoC4/CyLib.c **** 
2238:Generated_Source\PSoC4/CyLib.c ****     /* Disable all interrupts. */
2239:Generated_Source\PSoC4/CyLib.c ****     CY_INT_CLEAR_REG = CY_INT_CLEAR_DISABLE_ALL;
 1064              		.loc 1 2239 0
 1065 000c 044B     		ldr	r3, .L66
 1066 000e 0122     		movs	r2, #1
 1067 0010 5242     		rsbs	r2, r2, #0
 1068 0012 1A60     		str	r2, [r3]
2240:Generated_Source\PSoC4/CyLib.c **** 
2241:Generated_Source\PSoC4/CyLib.c ****     return (intState);
 1069              		.loc 1 2241 0
 1070 0014 7B68     		ldr	r3, [r7, #4]
2242:Generated_Source\PSoC4/CyLib.c **** }
 1071              		.loc 1 2242 0
 1072 0016 1800     		movs	r0, r3
 1073 0018 BD46     		mov	sp, r7
 1074 001a 02B0     		add	sp, sp, #8
 1075              		@ sp needed
 1076 001c 80BD     		pop	{r7, pc}
 1077              	.L67:
 1078 001e C046     		.align	2
 1079              	.L66:
 1080 0020 80E100E0 		.word	-536813184
 1081              		.cfi_endproc
 1082              	.LFE18:
 1083              		.size	CyDisableInts, .-CyDisableInts
 1084              		.section	.text.CyEnableInts,"ax",%progbits
 1085              		.align	2
 1086              		.global	CyEnableInts
 1087              		.code	16
 1088              		.thumb_func
 1089              		.type	CyEnableInts, %function
 1090              	CyEnableInts:
 1091              	.LFB19:
2243:Generated_Source\PSoC4/CyLib.c **** 
2244:Generated_Source\PSoC4/CyLib.c **** 
2245:Generated_Source\PSoC4/CyLib.c **** /*******************************************************************************
2246:Generated_Source\PSoC4/CyLib.c **** * Function Name: CyEnableInts
2247:Generated_Source\PSoC4/CyLib.c **** ****************************************************************************//**
2248:Generated_Source\PSoC4/CyLib.c **** *
2249:Generated_Source\PSoC4/CyLib.c **** *  Enables interrupts to a given state.
2250:Generated_Source\PSoC4/CyLib.c **** *
2251:Generated_Source\PSoC4/CyLib.c **** *  \param mask The 32 bit mask of interrupts to enable.
2252:Generated_Source\PSoC4/CyLib.c **** *
2253:Generated_Source\PSoC4/CyLib.c **** *******************************************************************************/
2254:Generated_Source\PSoC4/CyLib.c **** void CyEnableInts(uint32 mask)
2255:Generated_Source\PSoC4/CyLib.c **** {
 1092              		.loc 1 2255 0
 1093              		.cfi_startproc
 1094              		@ args = 0, pretend = 0, frame = 8
 1095              		@ frame_needed = 1, uses_anonymous_args = 0
ARM GAS  C:\Users\Toshiba\AppData\Local\Temp\ccDzK1Zy.s 			page 60


 1096 0000 80B5     		push	{r7, lr}
 1097              		.cfi_def_cfa_offset 8
 1098              		.cfi_offset 7, -8
 1099              		.cfi_offset 14, -4
 1100 0002 82B0     		sub	sp, sp, #8
 1101              		.cfi_def_cfa_offset 16
 1102 0004 00AF     		add	r7, sp, #0
 1103              		.cfi_def_cfa_register 7
 1104 0006 7860     		str	r0, [r7, #4]
2256:Generated_Source\PSoC4/CyLib.c ****     CY_INT_ENABLE_REG = mask;
 1105              		.loc 1 2256 0
 1106 0008 034B     		ldr	r3, .L69
 1107 000a 7A68     		ldr	r2, [r7, #4]
 1108 000c 1A60     		str	r2, [r3]
2257:Generated_Source\PSoC4/CyLib.c **** }
 1109              		.loc 1 2257 0
 1110 000e C046     		nop
 1111 0010 BD46     		mov	sp, r7
 1112 0012 02B0     		add	sp, sp, #8
 1113              		@ sp needed
 1114 0014 80BD     		pop	{r7, pc}
 1115              	.L70:
 1116 0016 C046     		.align	2
 1117              	.L69:
 1118 0018 00E100E0 		.word	-536813312
 1119              		.cfi_endproc
 1120              	.LFE19:
 1121              		.size	CyEnableInts, .-CyEnableInts
 1122              		.section	.text.CyIntSetSysVector,"ax",%progbits
 1123              		.align	2
 1124              		.global	CyIntSetSysVector
 1125              		.code	16
 1126              		.thumb_func
 1127              		.type	CyIntSetSysVector, %function
 1128              	CyIntSetSysVector:
 1129              	.LFB20:
2258:Generated_Source\PSoC4/CyLib.c **** 
2259:Generated_Source\PSoC4/CyLib.c **** 
2260:Generated_Source\PSoC4/CyLib.c **** /*******************************************************************************
2261:Generated_Source\PSoC4/CyLib.c **** * Function Name: CyIntSetSysVector
2262:Generated_Source\PSoC4/CyLib.c **** ****************************************************************************//**
2263:Generated_Source\PSoC4/CyLib.c **** *
2264:Generated_Source\PSoC4/CyLib.c **** *  Sets the interrupt vector of the specified system interrupt number. These
2265:Generated_Source\PSoC4/CyLib.c **** *  interrupts are for SysTick, PendSV and others.
2266:Generated_Source\PSoC4/CyLib.c **** *
2267:Generated_Source\PSoC4/CyLib.c **** *  \param number: System interrupt number:
2268:Generated_Source\PSoC4/CyLib.c **** *    CY_INT_NMI_IRQN        - Non Maskable Interrupt
2269:Generated_Source\PSoC4/CyLib.c **** *    CY_INT_HARD_FAULT_IRQN - Hard Fault Interrupt
2270:Generated_Source\PSoC4/CyLib.c **** *    CY_INT_SVCALL_IRQN     - SV Call Interrupt
2271:Generated_Source\PSoC4/CyLib.c **** *    CY_INT_PEND_SV_IRQN    - Pend SV Interrupt
2272:Generated_Source\PSoC4/CyLib.c **** *    CY_INT_SYSTICK_IRQN    - System Tick Interrupt
2273:Generated_Source\PSoC4/CyLib.c **** *
2274:Generated_Source\PSoC4/CyLib.c **** *  \param address Pointer to an interrupt service routine.
2275:Generated_Source\PSoC4/CyLib.c **** *
2276:Generated_Source\PSoC4/CyLib.c **** * \return The old ISR vector at this location.
2277:Generated_Source\PSoC4/CyLib.c **** *
2278:Generated_Source\PSoC4/CyLib.c **** *******************************************************************************/
ARM GAS  C:\Users\Toshiba\AppData\Local\Temp\ccDzK1Zy.s 			page 61


2279:Generated_Source\PSoC4/CyLib.c **** cyisraddress CyIntSetSysVector(uint8 number, cyisraddress address)
2280:Generated_Source\PSoC4/CyLib.c **** {
 1130              		.loc 1 2280 0
 1131              		.cfi_startproc
 1132              		@ args = 0, pretend = 0, frame = 16
 1133              		@ frame_needed = 1, uses_anonymous_args = 0
 1134 0000 80B5     		push	{r7, lr}
 1135              		.cfi_def_cfa_offset 8
 1136              		.cfi_offset 7, -8
 1137              		.cfi_offset 14, -4
 1138 0002 84B0     		sub	sp, sp, #16
 1139              		.cfi_def_cfa_offset 24
 1140 0004 00AF     		add	r7, sp, #0
 1141              		.cfi_def_cfa_register 7
 1142 0006 0200     		movs	r2, r0
 1143 0008 3960     		str	r1, [r7]
 1144 000a FB1D     		adds	r3, r7, #7
 1145 000c 1A70     		strb	r2, [r3]
2281:Generated_Source\PSoC4/CyLib.c ****     cyisraddress oldIsr;
2282:Generated_Source\PSoC4/CyLib.c ****     cyisraddress *ramVectorTable = (cyisraddress *) CY_INT_VECT_TABLE;
 1146              		.loc 1 2282 0
 1147 000e 8023     		movs	r3, #128
 1148 0010 9B05     		lsls	r3, r3, #22
 1149 0012 FB60     		str	r3, [r7, #12]
2283:Generated_Source\PSoC4/CyLib.c **** 
2284:Generated_Source\PSoC4/CyLib.c ****     CYASSERT(number < CY_INT_IRQ_BASE);
 1150              		.loc 1 2284 0
 1151 0014 FB1D     		adds	r3, r7, #7
 1152 0016 1B78     		ldrb	r3, [r3]
 1153 0018 0F2B     		cmp	r3, #15
 1154 001a 02D9     		bls	.L72
 1155              		.loc 1 2284 0 is_stmt 0 discriminator 1
 1156 001c 0020     		movs	r0, #0
 1157 001e FFF7FEFF 		bl	CyHalt
 1158              	.L72:
2285:Generated_Source\PSoC4/CyLib.c **** 
2286:Generated_Source\PSoC4/CyLib.c ****     /* Save old Interrupt service routine. */
2287:Generated_Source\PSoC4/CyLib.c ****     oldIsr = ramVectorTable[number];
 1159              		.loc 1 2287 0 is_stmt 1
 1160 0022 FB1D     		adds	r3, r7, #7
 1161 0024 1B78     		ldrb	r3, [r3]
 1162 0026 9B00     		lsls	r3, r3, #2
 1163 0028 FA68     		ldr	r2, [r7, #12]
 1164 002a D318     		adds	r3, r2, r3
 1165 002c 1B68     		ldr	r3, [r3]
 1166 002e BB60     		str	r3, [r7, #8]
2288:Generated_Source\PSoC4/CyLib.c **** 
2289:Generated_Source\PSoC4/CyLib.c ****     /* Set new Interrupt service routine. */
2290:Generated_Source\PSoC4/CyLib.c ****     ramVectorTable[number] = address;
 1167              		.loc 1 2290 0
 1168 0030 FB1D     		adds	r3, r7, #7
 1169 0032 1B78     		ldrb	r3, [r3]
 1170 0034 9B00     		lsls	r3, r3, #2
 1171 0036 FA68     		ldr	r2, [r7, #12]
 1172 0038 D318     		adds	r3, r2, r3
 1173 003a 3A68     		ldr	r2, [r7]
 1174 003c 1A60     		str	r2, [r3]
ARM GAS  C:\Users\Toshiba\AppData\Local\Temp\ccDzK1Zy.s 			page 62


2291:Generated_Source\PSoC4/CyLib.c **** 
2292:Generated_Source\PSoC4/CyLib.c ****     return(oldIsr);
 1175              		.loc 1 2292 0
 1176 003e BB68     		ldr	r3, [r7, #8]
2293:Generated_Source\PSoC4/CyLib.c **** }
 1177              		.loc 1 2293 0
 1178 0040 1800     		movs	r0, r3
 1179 0042 BD46     		mov	sp, r7
 1180 0044 04B0     		add	sp, sp, #16
 1181              		@ sp needed
 1182 0046 80BD     		pop	{r7, pc}
 1183              		.cfi_endproc
 1184              	.LFE20:
 1185              		.size	CyIntSetSysVector, .-CyIntSetSysVector
 1186              		.section	.text.CyIntGetSysVector,"ax",%progbits
 1187              		.align	2
 1188              		.global	CyIntGetSysVector
 1189              		.code	16
 1190              		.thumb_func
 1191              		.type	CyIntGetSysVector, %function
 1192              	CyIntGetSysVector:
 1193              	.LFB21:
2294:Generated_Source\PSoC4/CyLib.c **** 
2295:Generated_Source\PSoC4/CyLib.c **** 
2296:Generated_Source\PSoC4/CyLib.c **** /*******************************************************************************
2297:Generated_Source\PSoC4/CyLib.c **** * Function Name: CyIntGetSysVector
2298:Generated_Source\PSoC4/CyLib.c **** ****************************************************************************//**
2299:Generated_Source\PSoC4/CyLib.c **** *
2300:Generated_Source\PSoC4/CyLib.c **** *   Gets the interrupt vector of the specified system interrupt number. These
2301:Generated_Source\PSoC4/CyLib.c **** *   interrupts are for SysTick, PendSV and others.
2302:Generated_Source\PSoC4/CyLib.c **** *
2303:Generated_Source\PSoC4/CyLib.c **** *  \param number: System interrupt number:
2304:Generated_Source\PSoC4/CyLib.c **** *    CY_INT_NMI_IRQN        - Non Maskable Interrupt
2305:Generated_Source\PSoC4/CyLib.c **** *    CY_INT_HARD_FAULT_IRQN - Hard Fault Interrupt
2306:Generated_Source\PSoC4/CyLib.c **** *    CY_INT_SVCALL_IRQN     - SV Call Interrupt
2307:Generated_Source\PSoC4/CyLib.c **** *    CY_INT_PEND_SV_IRQN    - Pend SV Interrupt
2308:Generated_Source\PSoC4/CyLib.c **** *    CY_INT_SYSTICK_IRQN    - System Tick Interrupt
2309:Generated_Source\PSoC4/CyLib.c **** *
2310:Generated_Source\PSoC4/CyLib.c **** * \return Address of the ISR in the interrupt vector table.
2311:Generated_Source\PSoC4/CyLib.c **** *
2312:Generated_Source\PSoC4/CyLib.c **** *******************************************************************************/
2313:Generated_Source\PSoC4/CyLib.c **** cyisraddress CyIntGetSysVector(uint8 number)
2314:Generated_Source\PSoC4/CyLib.c **** {
 1194              		.loc 1 2314 0
 1195              		.cfi_startproc
 1196              		@ args = 0, pretend = 0, frame = 16
 1197              		@ frame_needed = 1, uses_anonymous_args = 0
 1198 0000 80B5     		push	{r7, lr}
 1199              		.cfi_def_cfa_offset 8
 1200              		.cfi_offset 7, -8
 1201              		.cfi_offset 14, -4
 1202 0002 84B0     		sub	sp, sp, #16
 1203              		.cfi_def_cfa_offset 24
 1204 0004 00AF     		add	r7, sp, #0
 1205              		.cfi_def_cfa_register 7
 1206 0006 0200     		movs	r2, r0
 1207 0008 FB1D     		adds	r3, r7, #7
ARM GAS  C:\Users\Toshiba\AppData\Local\Temp\ccDzK1Zy.s 			page 63


 1208 000a 1A70     		strb	r2, [r3]
2315:Generated_Source\PSoC4/CyLib.c ****     cyisraddress *ramVectorTable = (cyisraddress *) CY_INT_VECT_TABLE;
 1209              		.loc 1 2315 0
 1210 000c 8023     		movs	r3, #128
 1211 000e 9B05     		lsls	r3, r3, #22
 1212 0010 FB60     		str	r3, [r7, #12]
2316:Generated_Source\PSoC4/CyLib.c **** 
2317:Generated_Source\PSoC4/CyLib.c ****     CYASSERT(number < CY_INT_IRQ_BASE);
 1213              		.loc 1 2317 0
 1214 0012 FB1D     		adds	r3, r7, #7
 1215 0014 1B78     		ldrb	r3, [r3]
 1216 0016 0F2B     		cmp	r3, #15
 1217 0018 02D9     		bls	.L75
 1218              		.loc 1 2317 0 is_stmt 0 discriminator 1
 1219 001a 0020     		movs	r0, #0
 1220 001c FFF7FEFF 		bl	CyHalt
 1221              	.L75:
2318:Generated_Source\PSoC4/CyLib.c **** 
2319:Generated_Source\PSoC4/CyLib.c ****     return(ramVectorTable[number]);
 1222              		.loc 1 2319 0 is_stmt 1
 1223 0020 FB1D     		adds	r3, r7, #7
 1224 0022 1B78     		ldrb	r3, [r3]
 1225 0024 9B00     		lsls	r3, r3, #2
 1226 0026 FA68     		ldr	r2, [r7, #12]
 1227 0028 D318     		adds	r3, r2, r3
 1228 002a 1B68     		ldr	r3, [r3]
2320:Generated_Source\PSoC4/CyLib.c **** }
 1229              		.loc 1 2320 0
 1230 002c 1800     		movs	r0, r3
 1231 002e BD46     		mov	sp, r7
 1232 0030 04B0     		add	sp, sp, #16
 1233              		@ sp needed
 1234 0032 80BD     		pop	{r7, pc}
 1235              		.cfi_endproc
 1236              	.LFE21:
 1237              		.size	CyIntGetSysVector, .-CyIntGetSysVector
 1238              		.section	.text.CyIntSetVector,"ax",%progbits
 1239              		.align	2
 1240              		.global	CyIntSetVector
 1241              		.code	16
 1242              		.thumb_func
 1243              		.type	CyIntSetVector, %function
 1244              	CyIntSetVector:
 1245              	.LFB22:
2321:Generated_Source\PSoC4/CyLib.c **** 
2322:Generated_Source\PSoC4/CyLib.c **** 
2323:Generated_Source\PSoC4/CyLib.c **** /*******************************************************************************
2324:Generated_Source\PSoC4/CyLib.c **** * Function Name: CyIntSetVector
2325:Generated_Source\PSoC4/CyLib.c **** ****************************************************************************//**
2326:Generated_Source\PSoC4/CyLib.c **** *
2327:Generated_Source\PSoC4/CyLib.c **** *  Sets the interrupt vector of the specified interrupt number.
2328:Generated_Source\PSoC4/CyLib.c **** *
2329:Generated_Source\PSoC4/CyLib.c **** *  \param number Valid range [0-31].  Interrupt number
2330:Generated_Source\PSoC4/CyLib.c **** *  \param address Pointer to an interrupt service routine
2331:Generated_Source\PSoC4/CyLib.c **** *
2332:Generated_Source\PSoC4/CyLib.c **** * \return Previous interrupt vector value.
2333:Generated_Source\PSoC4/CyLib.c **** *
ARM GAS  C:\Users\Toshiba\AppData\Local\Temp\ccDzK1Zy.s 			page 64


2334:Generated_Source\PSoC4/CyLib.c **** *******************************************************************************/
2335:Generated_Source\PSoC4/CyLib.c **** cyisraddress CyIntSetVector(uint8 number, cyisraddress address)
2336:Generated_Source\PSoC4/CyLib.c **** {
 1246              		.loc 1 2336 0
 1247              		.cfi_startproc
 1248              		@ args = 0, pretend = 0, frame = 16
 1249              		@ frame_needed = 1, uses_anonymous_args = 0
 1250 0000 80B5     		push	{r7, lr}
 1251              		.cfi_def_cfa_offset 8
 1252              		.cfi_offset 7, -8
 1253              		.cfi_offset 14, -4
 1254 0002 84B0     		sub	sp, sp, #16
 1255              		.cfi_def_cfa_offset 24
 1256 0004 00AF     		add	r7, sp, #0
 1257              		.cfi_def_cfa_register 7
 1258 0006 0200     		movs	r2, r0
 1259 0008 3960     		str	r1, [r7]
 1260 000a FB1D     		adds	r3, r7, #7
 1261 000c 1A70     		strb	r2, [r3]
2337:Generated_Source\PSoC4/CyLib.c ****     cyisraddress oldIsr;
2338:Generated_Source\PSoC4/CyLib.c ****     cyisraddress *ramVectorTable = (cyisraddress *) CY_INT_VECT_TABLE;
 1262              		.loc 1 2338 0
 1263 000e 8023     		movs	r3, #128
 1264 0010 9B05     		lsls	r3, r3, #22
 1265 0012 FB60     		str	r3, [r7, #12]
2339:Generated_Source\PSoC4/CyLib.c **** 
2340:Generated_Source\PSoC4/CyLib.c ****     CYASSERT(number < CY_NUM_INTERRUPTS);
 1266              		.loc 1 2340 0
 1267 0014 FB1D     		adds	r3, r7, #7
 1268 0016 1B78     		ldrb	r3, [r3]
 1269 0018 1F2B     		cmp	r3, #31
 1270 001a 02D9     		bls	.L78
 1271              		.loc 1 2340 0 is_stmt 0 discriminator 1
 1272 001c 0020     		movs	r0, #0
 1273 001e FFF7FEFF 		bl	CyHalt
 1274              	.L78:
2341:Generated_Source\PSoC4/CyLib.c **** 
2342:Generated_Source\PSoC4/CyLib.c ****     /* Save old Interrupt service routine. */
2343:Generated_Source\PSoC4/CyLib.c ****     oldIsr = ramVectorTable[CY_INT_IRQ_BASE + number];
 1275              		.loc 1 2343 0 is_stmt 1
 1276 0022 FB1D     		adds	r3, r7, #7
 1277 0024 1B78     		ldrb	r3, [r3]
 1278 0026 1033     		adds	r3, r3, #16
 1279 0028 9B00     		lsls	r3, r3, #2
 1280 002a FA68     		ldr	r2, [r7, #12]
 1281 002c D318     		adds	r3, r2, r3
 1282 002e 1B68     		ldr	r3, [r3]
 1283 0030 BB60     		str	r3, [r7, #8]
2344:Generated_Source\PSoC4/CyLib.c **** 
2345:Generated_Source\PSoC4/CyLib.c ****     /* Set new Interrupt service routine. */
2346:Generated_Source\PSoC4/CyLib.c ****     ramVectorTable[CY_INT_IRQ_BASE + number] = address;
 1284              		.loc 1 2346 0
 1285 0032 FB1D     		adds	r3, r7, #7
 1286 0034 1B78     		ldrb	r3, [r3]
 1287 0036 1033     		adds	r3, r3, #16
 1288 0038 9B00     		lsls	r3, r3, #2
 1289 003a FA68     		ldr	r2, [r7, #12]
ARM GAS  C:\Users\Toshiba\AppData\Local\Temp\ccDzK1Zy.s 			page 65


 1290 003c D318     		adds	r3, r2, r3
 1291 003e 3A68     		ldr	r2, [r7]
 1292 0040 1A60     		str	r2, [r3]
2347:Generated_Source\PSoC4/CyLib.c **** 
2348:Generated_Source\PSoC4/CyLib.c ****     return(oldIsr);
 1293              		.loc 1 2348 0
 1294 0042 BB68     		ldr	r3, [r7, #8]
2349:Generated_Source\PSoC4/CyLib.c **** }
 1295              		.loc 1 2349 0
 1296 0044 1800     		movs	r0, r3
 1297 0046 BD46     		mov	sp, r7
 1298 0048 04B0     		add	sp, sp, #16
 1299              		@ sp needed
 1300 004a 80BD     		pop	{r7, pc}
 1301              		.cfi_endproc
 1302              	.LFE22:
 1303              		.size	CyIntSetVector, .-CyIntSetVector
 1304              		.section	.text.CyIntGetVector,"ax",%progbits
 1305              		.align	2
 1306              		.global	CyIntGetVector
 1307              		.code	16
 1308              		.thumb_func
 1309              		.type	CyIntGetVector, %function
 1310              	CyIntGetVector:
 1311              	.LFB23:
2350:Generated_Source\PSoC4/CyLib.c **** 
2351:Generated_Source\PSoC4/CyLib.c **** 
2352:Generated_Source\PSoC4/CyLib.c **** /*******************************************************************************
2353:Generated_Source\PSoC4/CyLib.c **** * Function Name: CyIntGetVector
2354:Generated_Source\PSoC4/CyLib.c **** ****************************************************************************//**
2355:Generated_Source\PSoC4/CyLib.c **** *
2356:Generated_Source\PSoC4/CyLib.c **** *  Gets the interrupt vector of the specified interrupt number.
2357:Generated_Source\PSoC4/CyLib.c **** *
2358:Generated_Source\PSoC4/CyLib.c **** *  \param number: Valid range [0-31].  Interrupt number
2359:Generated_Source\PSoC4/CyLib.c **** *
2360:Generated_Source\PSoC4/CyLib.c **** * \return Address of the ISR in the interrupt vector table.
2361:Generated_Source\PSoC4/CyLib.c **** *
2362:Generated_Source\PSoC4/CyLib.c **** *******************************************************************************/
2363:Generated_Source\PSoC4/CyLib.c **** cyisraddress CyIntGetVector(uint8 number)
2364:Generated_Source\PSoC4/CyLib.c **** {
 1312              		.loc 1 2364 0
 1313              		.cfi_startproc
 1314              		@ args = 0, pretend = 0, frame = 16
 1315              		@ frame_needed = 1, uses_anonymous_args = 0
 1316 0000 80B5     		push	{r7, lr}
 1317              		.cfi_def_cfa_offset 8
 1318              		.cfi_offset 7, -8
 1319              		.cfi_offset 14, -4
 1320 0002 84B0     		sub	sp, sp, #16
 1321              		.cfi_def_cfa_offset 24
 1322 0004 00AF     		add	r7, sp, #0
 1323              		.cfi_def_cfa_register 7
 1324 0006 0200     		movs	r2, r0
 1325 0008 FB1D     		adds	r3, r7, #7
 1326 000a 1A70     		strb	r2, [r3]
2365:Generated_Source\PSoC4/CyLib.c ****     cyisraddress *ramVectorTable = (cyisraddress *) CY_INT_VECT_TABLE;
 1327              		.loc 1 2365 0
ARM GAS  C:\Users\Toshiba\AppData\Local\Temp\ccDzK1Zy.s 			page 66


 1328 000c 8023     		movs	r3, #128
 1329 000e 9B05     		lsls	r3, r3, #22
 1330 0010 FB60     		str	r3, [r7, #12]
2366:Generated_Source\PSoC4/CyLib.c **** 
2367:Generated_Source\PSoC4/CyLib.c ****     CYASSERT(number < CY_NUM_INTERRUPTS);
 1331              		.loc 1 2367 0
 1332 0012 FB1D     		adds	r3, r7, #7
 1333 0014 1B78     		ldrb	r3, [r3]
 1334 0016 1F2B     		cmp	r3, #31
 1335 0018 02D9     		bls	.L81
 1336              		.loc 1 2367 0 is_stmt 0 discriminator 1
 1337 001a 0020     		movs	r0, #0
 1338 001c FFF7FEFF 		bl	CyHalt
 1339              	.L81:
2368:Generated_Source\PSoC4/CyLib.c **** 
2369:Generated_Source\PSoC4/CyLib.c ****     return (ramVectorTable[CY_INT_IRQ_BASE + number]);
 1340              		.loc 1 2369 0 is_stmt 1
 1341 0020 FB1D     		adds	r3, r7, #7
 1342 0022 1B78     		ldrb	r3, [r3]
 1343 0024 1033     		adds	r3, r3, #16
 1344 0026 9B00     		lsls	r3, r3, #2
 1345 0028 FA68     		ldr	r2, [r7, #12]
 1346 002a D318     		adds	r3, r2, r3
 1347 002c 1B68     		ldr	r3, [r3]
2370:Generated_Source\PSoC4/CyLib.c **** }
 1348              		.loc 1 2370 0
 1349 002e 1800     		movs	r0, r3
 1350 0030 BD46     		mov	sp, r7
 1351 0032 04B0     		add	sp, sp, #16
 1352              		@ sp needed
 1353 0034 80BD     		pop	{r7, pc}
 1354              		.cfi_endproc
 1355              	.LFE23:
 1356              		.size	CyIntGetVector, .-CyIntGetVector
 1357 0036 C046     		.section	.text.CyIntSetPriority,"ax",%progbits
 1358              		.align	2
 1359              		.global	CyIntSetPriority
 1360              		.code	16
 1361              		.thumb_func
 1362              		.type	CyIntSetPriority, %function
 1363              	CyIntSetPriority:
 1364              	.LFB24:
2371:Generated_Source\PSoC4/CyLib.c **** 
2372:Generated_Source\PSoC4/CyLib.c **** /*******************************************************************************
2373:Generated_Source\PSoC4/CyLib.c **** * Function Name: CyIntSetPriority
2374:Generated_Source\PSoC4/CyLib.c **** ****************************************************************************//**
2375:Generated_Source\PSoC4/CyLib.c **** *
2376:Generated_Source\PSoC4/CyLib.c **** *  Sets the priority of the interrupt.
2377:Generated_Source\PSoC4/CyLib.c **** *
2378:Generated_Source\PSoC4/CyLib.c **** *  \param priority: Priority of the interrupt. 0 - 3, 0 being the highest.
2379:Generated_Source\PSoC4/CyLib.c **** *  \param number: The number of the interrupt, 0 - 31.
2380:Generated_Source\PSoC4/CyLib.c **** *
2381:Generated_Source\PSoC4/CyLib.c **** *******************************************************************************/
2382:Generated_Source\PSoC4/CyLib.c **** void CyIntSetPriority(uint8 number, uint8 priority)
2383:Generated_Source\PSoC4/CyLib.c **** {
 1365              		.loc 1 2383 0
 1366              		.cfi_startproc
ARM GAS  C:\Users\Toshiba\AppData\Local\Temp\ccDzK1Zy.s 			page 67


 1367              		@ args = 0, pretend = 0, frame = 24
 1368              		@ frame_needed = 1, uses_anonymous_args = 0
 1369 0000 90B5     		push	{r4, r7, lr}
 1370              		.cfi_def_cfa_offset 12
 1371              		.cfi_offset 4, -12
 1372              		.cfi_offset 7, -8
 1373              		.cfi_offset 14, -4
 1374 0002 87B0     		sub	sp, sp, #28
 1375              		.cfi_def_cfa_offset 40
 1376 0004 00AF     		add	r7, sp, #0
 1377              		.cfi_def_cfa_register 7
 1378 0006 0200     		movs	r2, r0
 1379 0008 FB1D     		adds	r3, r7, #7
 1380 000a 1A70     		strb	r2, [r3]
 1381 000c BB1D     		adds	r3, r7, #6
 1382 000e 0A1C     		adds	r2, r1, #0
 1383 0010 1A70     		strb	r2, [r3]
2384:Generated_Source\PSoC4/CyLib.c ****     uint8 interruptState;
2385:Generated_Source\PSoC4/CyLib.c ****     uint32 shift;
2386:Generated_Source\PSoC4/CyLib.c ****     uint32 value;
