ARM GAS  C:\Users\Toshiba\AppData\Local\Temp\ccZ215zU.s 			page 1


   1              		.syntax unified
   2              		.cpu cortex-m0
   3              		.fpu softvfp
   4              		.eabi_attribute 20, 1
   5              		.eabi_attribute 21, 1
   6              		.eabi_attribute 23, 3
   7              		.eabi_attribute 24, 1
   8              		.eabi_attribute 25, 1
   9              		.eabi_attribute 26, 1
  10              		.eabi_attribute 30, 6
  11              		.eabi_attribute 34, 0
  12              		.eabi_attribute 18, 4
  13              		.thumb
  14              		.syntax unified
  15              		.file	"main.c"
  16              		.text
  17              	.Ltext0:
  18              		.cfi_sections	.debug_frame
  19              		.section	.text.main,"ax",%progbits
  20              		.align	2
  21              		.global	main
  22              		.code	16
  23              		.thumb_func
  24              		.type	main, %function
  25              	main:
  26              	.LFB35:
  27              		.file 1 "main.c"
   1:main.c        **** /* ========================================
   2:main.c        ****  * Air Quality Beacon, part of the hackAIR project.
   3:main.c        ****  * Freely available under CC BY 4.0
   4:main.c        ****  *
   5:main.c        ****  *
   6:main.c        ****  * Author: George Doxastakis gdoxastakis.ee@gmail.com
   7:main.c        ****  * Technology Transfer & Smart Solutions
   8:main.c        ****  * TEI of Athens
   9:main.c        ****  * http://research.ee.teiath.gr/ttss/
  10:main.c        ****  *
  11:main.c        ****  * http://www.hackair.eu/
  12:main.c        **** */
  13:main.c        **** #include <project.h>
  14:main.c        **** #include <math.h>
  15:main.c        **** /* Function prototypes */  
  16:main.c        **** void StackEventHandler(uint32 event, void* eventParam);
  17:main.c        **** int16 readParticles();
  18:main.c        **** 
  19:main.c        **** /* ADV payload dta structure */  
  20:main.c        **** extern CYBLE_GAPP_DISC_MODE_INFO_T cyBle_discoveryModeInfo;
  21:main.c        **** #define advPayload   (cyBle_discoveryModeInfo.advData->advData) 
  22:main.c        **** 
  23:main.c        **** 
  24:main.c        **** int main()
  25:main.c        **** {
  28              		.loc 1 25 0
  29              		.cfi_startproc
  30              		@ args = 0, pretend = 0, frame = 8
  31              		@ frame_needed = 1, uses_anonymous_args = 0
  32 0000 90B5     		push	{r4, r7, lr}
ARM GAS  C:\Users\Toshiba\AppData\Local\Temp\ccZ215zU.s 			page 2


  33              		.cfi_def_cfa_offset 12
  34              		.cfi_offset 4, -12
  35              		.cfi_offset 7, -8
  36              		.cfi_offset 14, -4
  37 0002 83B0     		sub	sp, sp, #12
  38              		.cfi_def_cfa_offset 24
  39 0004 00AF     		add	r7, sp, #0
  40              		.cfi_def_cfa_register 7
  26:main.c        ****     CyGlobalIntEnable; /* Enable global interrupts. */
  41              		.loc 1 26 0
  42              		.syntax divided
  43              	@ 26 "main.c" 1
  44 0006 62B6     		CPSIE   i
  45              	@ 0 "" 2
  27:main.c        **** 
  28:main.c        ****     /* Start CYBLE component and register the generic event handler */
  29:main.c        ****     CyBle_Start(StackEventHandler);
  46              		.loc 1 29 0
  47              		.thumb
  48              		.syntax unified
  49 0008 1B4B     		ldr	r3, .L3
  50 000a 1800     		movs	r0, r3
  51 000c FFF7FEFF 		bl	CyBle_Start
  52              	.L2:
  53              	.LBB2:
  30:main.c        ****     for(;;)
  31:main.c        ****     {
  32:main.c        ****         STATUS_Write(1);CyDelay(300);STATUS_Write(0);
  54              		.loc 1 32 0 discriminator 1
  55 0010 0120     		movs	r0, #1
  56 0012 FFF7FEFF 		bl	STATUS_Write
  57 0016 9623     		movs	r3, #150
  58 0018 5B00     		lsls	r3, r3, #1
  59 001a 1800     		movs	r0, r3
  60 001c FFF7FEFF 		bl	CyDelay
  61 0020 0020     		movs	r0, #0
  62 0022 FFF7FEFF 		bl	STATUS_Write
  33:main.c        ****         int16 val=readParticles(); //Perform sensor measurement
  63              		.loc 1 33 0 discriminator 1
  64 0026 BC1D     		adds	r4, r7, #6
  65 0028 FFF7FEFF 		bl	readParticles
  66 002c 0300     		movs	r3, r0
  67 002e 2380     		strh	r3, [r4]
  34:main.c        ****         
  35:main.c        ****         /* Dynamic payload will be continuously updated */
  36:main.c        ****         advPayload[19] =  0x05; //Sensor ID: 0x05 for PPD42
  68              		.loc 1 36 0 discriminator 1
  69 0030 124B     		ldr	r3, .L3+4
  70 0032 9B68     		ldr	r3, [r3, #8]
  71 0034 0522     		movs	r2, #5
  72 0036 DA74     		strb	r2, [r3, #19]
  37:main.c        ****         advPayload[25] =  val>>8; //High byte of sensor measurement
  73              		.loc 1 37 0 discriminator 1
  74 0038 104B     		ldr	r3, .L3+4
  75 003a 9B68     		ldr	r3, [r3, #8]
  76 003c BA1D     		adds	r2, r7, #6
  77 003e 0021     		movs	r1, #0
ARM GAS  C:\Users\Toshiba\AppData\Local\Temp\ccZ215zU.s 			page 3


  78 0040 525E     		ldrsh	r2, [r2, r1]
  79 0042 1212     		asrs	r2, r2, #8
  80 0044 12B2     		sxth	r2, r2
  81 0046 D2B2     		uxtb	r2, r2
  82 0048 5A76     		strb	r2, [r3, #25]
  38:main.c        ****         advPayload[26] =  val&0xFF; //Low byte of sensor measurement
  83              		.loc 1 38 0 discriminator 1
  84 004a 0C4B     		ldr	r3, .L3+4
  85 004c 9B68     		ldr	r3, [r3, #8]
  86 004e BA1D     		adds	r2, r7, #6
  87 0050 1288     		ldrh	r2, [r2]
  88 0052 D2B2     		uxtb	r2, r2
  89 0054 9A76     		strb	r2, [r3, #26]
  39:main.c        ****         CyBle_GapUpdateAdvData(cyBle_discoveryModeInfo.advData, cyBle_discoveryModeInfo.scanRspData
  90              		.loc 1 39 0 discriminator 1
  91 0056 094B     		ldr	r3, .L3+4
  92 0058 9A68     		ldr	r2, [r3, #8]
  93 005a 084B     		ldr	r3, .L3+4
  94 005c DB68     		ldr	r3, [r3, #12]
  95 005e 1900     		movs	r1, r3
  96 0060 1000     		movs	r0, r2
  97 0062 FFF7FEFF 		bl	CyBle_GapUpdateAdvData
  40:main.c        ****         
  41:main.c        ****         CyBle_ProcessEvents(); 
  98              		.loc 1 41 0 discriminator 1
  99 0066 FFF7FEFF 		bl	CyBle_ProcessEvents
  42:main.c        ****         
  43:main.c        ****         CyDelay(500); //Measurement delay 
 100              		.loc 1 43 0 discriminator 1
 101 006a FA23     		movs	r3, #250
 102 006c 5B00     		lsls	r3, r3, #1
 103 006e 1800     		movs	r0, r3
 104 0070 FFF7FEFF 		bl	CyDelay
 105              	.LBE2:
  44:main.c        ****     }
 106              		.loc 1 44 0 discriminator 1
 107 0074 CCE7     		b	.L2
 108              	.L4:
 109 0076 C046     		.align	2
 110              	.L3:
 111 0078 00000000 		.word	StackEventHandler
 112 007c 00000000 		.word	cyBle_discoveryModeInfo
 113              		.cfi_endproc
 114              	.LFE35:
 115              		.size	main, .-main
 116              		.section	.text.StackEventHandler,"ax",%progbits
 117              		.align	2
 118              		.global	StackEventHandler
 119              		.code	16
 120              		.thumb_func
 121              		.type	StackEventHandler, %function
 122              	StackEventHandler:
 123              	.LFB36:
  45:main.c        **** }
  46:main.c        **** 
  47:main.c        **** void StackEventHandler(uint32 event, void *eventParam)
  48:main.c        **** {
ARM GAS  C:\Users\Toshiba\AppData\Local\Temp\ccZ215zU.s 			page 4


 124              		.loc 1 48 0
 125              		.cfi_startproc
 126              		@ args = 0, pretend = 0, frame = 8
 127              		@ frame_needed = 1, uses_anonymous_args = 0
 128 0000 80B5     		push	{r7, lr}
 129              		.cfi_def_cfa_offset 8
 130              		.cfi_offset 7, -8
 131              		.cfi_offset 14, -4
 132 0002 82B0     		sub	sp, sp, #8
 133              		.cfi_def_cfa_offset 16
 134 0004 00AF     		add	r7, sp, #0
 135              		.cfi_def_cfa_register 7
 136 0006 7860     		str	r0, [r7, #4]
 137 0008 3960     		str	r1, [r7]
  49:main.c        ****     switch(event)
 138              		.loc 1 49 0
 139 000a 7B68     		ldr	r3, [r7, #4]
 140 000c 012B     		cmp	r3, #1
 141 000e 00D0     		beq	.L7
  50:main.c        ****     {
  51:main.c        ****         
  52:main.c        **** 		case CYBLE_EVT_STACK_ON:
  53:main.c        **** 			/* BLE stack is on. Start BLE advertisement */   
  54:main.c        **** 			CyBle_GappStartAdvertisement(CYBLE_ADVERTISING_FAST);
  55:main.c        **** 		    break;
  56:main.c        **** 		
  57:main.c        ****         default:
  58:main.c        ****             break;
 142              		.loc 1 58 0
 143 0010 03E0     		b	.L8
 144              	.L7:
  54:main.c        **** 		    break;
 145              		.loc 1 54 0
 146 0012 0020     		movs	r0, #0
 147 0014 FFF7FEFF 		bl	CyBle_GappStartAdvertisement
  55:main.c        **** 		
 148              		.loc 1 55 0
 149 0018 C046     		nop
 150              	.L8:
  59:main.c        ****     }   	
  60:main.c        **** 
  61:main.c        **** }
 151              		.loc 1 61 0
 152 001a C046     		nop
 153 001c BD46     		mov	sp, r7
 154 001e 02B0     		add	sp, sp, #8
 155              		@ sp needed
 156 0020 80BD     		pop	{r7, pc}
 157              		.cfi_endproc
 158              	.LFE36:
 159              		.size	StackEventHandler, .-StackEventHandler
 160              		.global	__aeabi_idiv
 161              		.global	__aeabi_i2d
 162              		.global	__aeabi_dmul
 163              		.global	__aeabi_dsub
 164              		.global	__aeabi_dadd
 165              		.global	__aeabi_d2uiz
ARM GAS  C:\Users\Toshiba\AppData\Local\Temp\ccZ215zU.s 			page 5


 166 0022 C046     		.section	.text.readParticles,"ax",%progbits
 167              		.align	2
 168              		.global	readParticles
 169              		.code	16
 170              		.thumb_func
 171              		.type	readParticles, %function
 172              	readParticles:
 173              	.LFB37:
  62:main.c        **** 
  63:main.c        **** /*******************************************************************
  64:main.c        **** * NAME :            int16 readParticles()
  65:main.c        **** *
  66:main.c        **** * DESCRIPTION :     Read sensor measurement
  67:main.c        **** * OUTPUTS :
  68:main.c        **** *       int16 Dust concentration in pcs/0.01cf
  69:main.c        **** */
  70:main.c        **** int16 readParticles(){
 174              		.loc 1 70 0
 175              		.cfi_startproc
 176              		@ args = 0, pretend = 0, frame = 16
 177              		@ frame_needed = 1, uses_anonymous_args = 0
 178 0000 F0B5     		push	{r4, r5, r6, r7, lr}
 179              		.cfi_def_cfa_offset 20
 180              		.cfi_offset 4, -20
 181              		.cfi_offset 5, -16
 182              		.cfi_offset 6, -12
 183              		.cfi_offset 7, -8
 184              		.cfi_offset 14, -4
 185 0002 85B0     		sub	sp, sp, #20
 186              		.cfi_def_cfa_offset 40
 187 0004 00AF     		add	r7, sp, #0
 188              		.cfi_def_cfa_register 7
  71:main.c        ****     int i; 
  72:main.c        ****     int dur=0;
 189              		.loc 1 72 0
 190 0006 0023     		movs	r3, #0
 191 0008 BB60     		str	r3, [r7, #8]
  73:main.c        ****     
  74:main.c        ****     for(i=0;i<2000000;i++){
 192              		.loc 1 74 0
 193 000a 0023     		movs	r3, #0
 194 000c FB60     		str	r3, [r7, #12]
 195 000e 0FE0     		b	.L10
 196              	.L11:
  75:main.c        ****       CyDelayUs(1);
 197              		.loc 1 75 0 discriminator 3
 198 0010 0120     		movs	r0, #1
 199 0012 FFF7FEFF 		bl	CyDelayUs
  76:main.c        ****       dur+=!PWM_IN_Read();//Count low pulse Duration
 200              		.loc 1 76 0 discriminator 3
 201 0016 FFF7FEFF 		bl	PWM_IN_Read
 202 001a 0300     		movs	r3, r0
 203 001c 5A42     		rsbs	r2, r3, #0
 204 001e 5341     		adcs	r3, r3, r2
 205 0020 DBB2     		uxtb	r3, r3
 206 0022 1A00     		movs	r2, r3
 207 0024 BB68     		ldr	r3, [r7, #8]
ARM GAS  C:\Users\Toshiba\AppData\Local\Temp\ccZ215zU.s 			page 6


 208 0026 9B18     		adds	r3, r3, r2
 209 0028 BB60     		str	r3, [r7, #8]
  74:main.c        ****       CyDelayUs(1);
 210              		.loc 1 74 0 discriminator 3
 211 002a FB68     		ldr	r3, [r7, #12]
 212 002c 0133     		adds	r3, r3, #1
 213 002e FB60     		str	r3, [r7, #12]
 214              	.L10:
  74:main.c        ****       CyDelayUs(1);
 215              		.loc 1 74 0 is_stmt 0 discriminator 1
 216 0030 FB68     		ldr	r3, [r7, #12]
 217 0032 2E4A     		ldr	r2, .L13
 218 0034 9342     		cmp	r3, r2
 219 0036 EBDD     		ble	.L11
  77:main.c        ****     }
  78:main.c        ****     int ratio = dur/20000;
 220              		.loc 1 78 0 is_stmt 1
 221 0038 BB68     		ldr	r3, [r7, #8]
 222 003a 2D49     		ldr	r1, .L13+4
 223 003c 1800     		movs	r0, r3
 224 003e FFF7FEFF 		bl	__aeabi_idiv
 225 0042 0300     		movs	r3, r0
 226 0044 7B60     		str	r3, [r7, #4]
  79:main.c        ****     uint16 senDat = (uint16)(1.1 * pow(ratio, 3.0) - 3.8 * pow(ratio, 2.0) + 520 * ratio + 0.62); /
 227              		.loc 1 79 0
 228 0046 7868     		ldr	r0, [r7, #4]
 229 0048 FFF7FEFF 		bl	__aeabi_i2d
 230 004c 0023     		movs	r3, #0
 231 004e 294C     		ldr	r4, .L13+8
 232 0050 1A00     		movs	r2, r3
 233 0052 2300     		movs	r3, r4
 234 0054 FFF7FEFF 		bl	pow
 235 0058 274A     		ldr	r2, .L13+12
 236 005a 284B     		ldr	r3, .L13+16
 237 005c FFF7FEFF 		bl	__aeabi_dmul
 238 0060 0300     		movs	r3, r0
 239 0062 0C00     		movs	r4, r1
 240 0064 1D00     		movs	r5, r3
 241 0066 2600     		movs	r6, r4
 242 0068 7868     		ldr	r0, [r7, #4]
 243 006a FFF7FEFF 		bl	__aeabi_i2d
 244 006e 0023     		movs	r3, #0
 245 0070 8024     		movs	r4, #128
 246 0072 E405     		lsls	r4, r4, #23
 247 0074 1A00     		movs	r2, r3
 248 0076 2300     		movs	r3, r4
 249 0078 FFF7FEFF 		bl	pow
 250 007c 204A     		ldr	r2, .L13+20
 251 007e 214B     		ldr	r3, .L13+24
 252 0080 FFF7FEFF 		bl	__aeabi_dmul
 253 0084 0300     		movs	r3, r0
 254 0086 0C00     		movs	r4, r1
 255 0088 1A00     		movs	r2, r3
 256 008a 2300     		movs	r3, r4
 257 008c 2800     		movs	r0, r5
 258 008e 3100     		movs	r1, r6
 259 0090 FFF7FEFF 		bl	__aeabi_dsub
ARM GAS  C:\Users\Toshiba\AppData\Local\Temp\ccZ215zU.s 			page 7


 260 0094 0300     		movs	r3, r0
 261 0096 0C00     		movs	r4, r1
 262 0098 2500     		movs	r5, r4
 263 009a 1C00     		movs	r4, r3
 264 009c 7A68     		ldr	r2, [r7, #4]
 265 009e 1300     		movs	r3, r2
 266 00a0 9B01     		lsls	r3, r3, #6
 267 00a2 9B18     		adds	r3, r3, r2
 268 00a4 DB00     		lsls	r3, r3, #3
 269 00a6 1800     		movs	r0, r3
 270 00a8 FFF7FEFF 		bl	__aeabi_i2d
 271 00ac 0200     		movs	r2, r0
 272 00ae 0B00     		movs	r3, r1
 273 00b0 2000     		movs	r0, r4
 274 00b2 2900     		movs	r1, r5
 275 00b4 FFF7FEFF 		bl	__aeabi_dadd
 276 00b8 0300     		movs	r3, r0
 277 00ba 0C00     		movs	r4, r1
 278 00bc 1800     		movs	r0, r3
 279 00be 2100     		movs	r1, r4
 280 00c0 114A     		ldr	r2, .L13+28
 281 00c2 124B     		ldr	r3, .L13+32
 282 00c4 FFF7FEFF 		bl	__aeabi_dadd
 283 00c8 0300     		movs	r3, r0
 284 00ca 0C00     		movs	r4, r1
 285 00cc 1A00     		movs	r2, r3
 286 00ce 2300     		movs	r3, r4
 287 00d0 BC1C     		adds	r4, r7, #2
 288 00d2 1000     		movs	r0, r2
 289 00d4 1900     		movs	r1, r3
 290 00d6 FFF7FEFF 		bl	__aeabi_d2uiz
 291 00da 0300     		movs	r3, r0
 292 00dc 2380     		strh	r3, [r4]
  80:main.c        ****     
  81:main.c        ****     return senDat;
 293              		.loc 1 81 0
 294 00de BB1C     		adds	r3, r7, #2
 295 00e0 0022     		movs	r2, #0
 296 00e2 9B5E     		ldrsh	r3, [r3, r2]
  82:main.c        **** }
 297              		.loc 1 82 0
 298 00e4 1800     		movs	r0, r3
 299 00e6 BD46     		mov	sp, r7
 300 00e8 05B0     		add	sp, sp, #20
 301              		@ sp needed
 302 00ea F0BD     		pop	{r4, r5, r6, r7, pc}
 303              	.L14:
 304              		.align	2
 305              	.L13:
 306 00ec 7F841E00 		.word	1999999
 307 00f0 204E0000 		.word	20000
 308 00f4 00000840 		.word	1074266112
 309 00f8 9A999999 		.word	-1717986918
 310 00fc 9999F13F 		.word	1072798105
 311 0100 66666666 		.word	1717986918
 312 0104 66660E40 		.word	1074685542
 313 0108 D7A3703D 		.word	1030792151
ARM GAS  C:\Users\Toshiba\AppData\Local\Temp\ccZ215zU.s 			page 8


 314 010c 0AD7E33F 		.word	1071896330
 315              		.cfi_endproc
 316              	.LFE37:
 317              		.size	readParticles, .-readParticles
 318              		.text
 319              	.Letext0:
 320              		.file 2 "Generated_Source\\PSoC4/cytypes.h"
 321              		.file 3 "Generated_Source\\PSoC4/BLE_Stack.h"
 322              		.file 4 "Generated_Source\\PSoC4/BLE_StackGap.h"