ARM GAS  C:\Users\TTSS\AppData\Local\Temp\ccIJVLm2.s 			page 1


   1              		.cpu cortex-m0
   2              		.fpu softvfp
   3              		.eabi_attribute 20, 1
   4              		.eabi_attribute 21, 1
   5              		.eabi_attribute 23, 3
   6              		.eabi_attribute 24, 1
   7              		.eabi_attribute 25, 1
   8              		.eabi_attribute 26, 1
   9              		.eabi_attribute 30, 6
  10              		.eabi_attribute 34, 0
  11              		.eabi_attribute 18, 4
  12              		.code	16
  13              		.file	"BLE.c"
  14              		.text
  15              	.Ltext0:
  16              		.cfi_sections	.debug_frame
  17              		.global	cyBle_initVar
  18              		.bss
  19              		.type	cyBle_initVar, %object
  20              		.size	cyBle_initVar, 1
  21              	cyBle_initVar:
  22 0000 00       		.space	1
  23              		.comm	cyBle_stackMemoryRam,2656,8
  24              		.global	cyBle_discoveryParam
  25              		.data
  26              		.align	2
  27              		.type	cyBle_discoveryParam, %object
  28              		.size	cyBle_discoveryParam, 16
  29              	cyBle_discoveryParam:
  30 0000 4006     		.short	1600
  31 0002 4006     		.short	1600
  32 0004 03       		.byte	3
  33 0005 00       		.byte	0
  34 0006 00       		.byte	0
  35 0007 00       		.byte	0
  36 0008 00       		.byte	0
  37 0009 00       		.byte	0
  38 000a 50       		.byte	80
  39 000b A0       		.byte	-96
  40 000c 00       		.byte	0
  41 000d 07       		.byte	7
  42 000e 00       		.byte	0
  43 000f 00       		.space	1
  44              		.global	cyBle_discoveryData
  45              		.align	2
  46              		.type	cyBle_discoveryData, %object
  47              		.size	cyBle_discoveryData, 32
  48              	cyBle_discoveryData:
  49 0010 02       		.byte	2
  50 0011 01       		.byte	1
  51 0012 04       		.byte	4
  52 0013 0B       		.byte	11
  53 0014 09       		.byte	9
  54 0015 41       		.byte	65
  55 0016 69       		.byte	105
  56 0017 72       		.byte	114
  57 0018 20       		.byte	32
ARM GAS  C:\Users\TTSS\AppData\Local\Temp\ccIJVLm2.s 			page 2


  58 0019 42       		.byte	66
  59 001a 65       		.byte	101
  60 001b 61       		.byte	97
  61 001c 63       		.byte	99
  62 001d 6F       		.byte	111
  63 001e 6E       		.byte	110
  64 001f 0B       		.byte	11
  65 0020 FF       		.byte	-1
  66 0021 31       		.byte	49
  67 0022 01       		.byte	1
  68 0023 00       		.byte	0
  69 0024 00       		.byte	0
  70 0025 00       		.byte	0
  71 0026 00       		.byte	0
  72 0027 00       		.byte	0
  73 0028 00       		.byte	0
  74 0029 00       		.byte	0
  75 002a 00       		.byte	0
  76 002b 00       		.byte	0
  77 002c 00       		.byte	0
  78 002d 00       		.byte	0
  79 002e 00       		.byte	0
  80 002f 1B       		.byte	27
  81              		.global	cyBle_scanRspData
  82              		.bss
  83 0001 000000   		.align	2
  84              		.type	cyBle_scanRspData, %object
  85              		.size	cyBle_scanRspData, 32
  86              	cyBle_scanRspData:
  87 0004 00000000 		.space	32
  87      00000000 
  87      00000000 
  87      00000000 
  87      00000000 
  88              		.global	cyBle_discoveryModeInfo
  89              		.data
  90              		.align	2
  91              		.type	cyBle_discoveryModeInfo, %object
  92              		.size	cyBle_discoveryModeInfo, 20
  93              	cyBle_discoveryModeInfo:
  94 0030 00       		.byte	0
  95 0031 000000   		.space	3
  96 0034 00000000 		.word	cyBle_discoveryParam
  97 0038 00000000 		.word	cyBle_discoveryData
  98 003c 00000000 		.word	cyBle_scanRspData
  99 0040 0000     		.short	0
 100 0042 0000     		.space	2
 101              		.comm	CyBle_ApplCallback,4,4
 102              		.global	cyBle_deviceAddress
 103              		.align	2
 104              		.type	cyBle_deviceAddress, %object
 105              		.size	cyBle_deviceAddress, 7
 106              	cyBle_deviceAddress:
 107 0044 00       		.byte	0
 108 0045 00       		.byte	0
 109 0046 00       		.byte	0
 110 0047 50       		.byte	80
ARM GAS  C:\Users\TTSS\AppData\Local\Temp\ccIJVLm2.s 			page 3


 111 0048 A0       		.byte	-96
 112 0049 00       		.byte	0
 113 004a 00       		.byte	0
 114              		.global	cyBle_sflashDeviceAddress
 115 004b 00       		.align	2
 116              		.type	cyBle_sflashDeviceAddress, %object
 117              		.size	cyBle_sflashDeviceAddress, 4
 118              	cyBle_sflashDeviceAddress:
 119 004c 00F2FF0F 		.word	268431872
 120              		.section	.text.CyBle_Init,"ax",%progbits
 121              		.align	2
 122              		.global	CyBle_Init
 123              		.code	16
 124              		.thumb_func
 125              		.type	CyBle_Init, %function
 126              	CyBle_Init:
 127              	.LFB2:
 128              		.file 1 "Generated_Source\\PSoC4\\BLE.c"
   1:Generated_Source\PSoC4/BLE.c **** /*******************************************************************************
   2:Generated_Source\PSoC4/BLE.c **** File Name: CYBLE.c
   3:Generated_Source\PSoC4/BLE.c **** Version 2.0
   4:Generated_Source\PSoC4/BLE.c **** 
   5:Generated_Source\PSoC4/BLE.c **** Description:
   6:Generated_Source\PSoC4/BLE.c ****  This file contains the source code for the Common APIs of the BLE Component.
   7:Generated_Source\PSoC4/BLE.c **** 
   8:Generated_Source\PSoC4/BLE.c **** ********************************************************************************
   9:Generated_Source\PSoC4/BLE.c **** Copyright 2014-2015, Cypress Semiconductor Corporation.  All rights reserved.
  10:Generated_Source\PSoC4/BLE.c **** You may use this file only in accordance with the license, terms, conditions,
  11:Generated_Source\PSoC4/BLE.c **** disclaimers, and limitations in the end user license agreement accompanying
  12:Generated_Source\PSoC4/BLE.c **** the software package with which this file was provided.
  13:Generated_Source\PSoC4/BLE.c **** *******************************************************************************/
  14:Generated_Source\PSoC4/BLE.c **** 
  15:Generated_Source\PSoC4/BLE.c **** #include "BLE_eventHandler.h"
  16:Generated_Source\PSoC4/BLE.c **** #include "BLE_HAL_PVT.h"
  17:Generated_Source\PSoC4/BLE.c **** 
  18:Generated_Source\PSoC4/BLE.c **** 
  19:Generated_Source\PSoC4/BLE.c **** /***************************************
  20:Generated_Source\PSoC4/BLE.c **** ##Function Prototypes
  21:Generated_Source\PSoC4/BLE.c **** ***************************************/
  22:Generated_Source\PSoC4/BLE.c **** 
  23:Generated_Source\PSoC4/BLE.c **** #if(CYBLE_GATT_ROLE_SERVER)
  24:Generated_Source\PSoC4/BLE.c ****     #if(CYBLE_GAP_ROLE_PERIPHERAL)
  25:Generated_Source\PSoC4/BLE.c ****         static void CyBle_ChangeAdLocalName(const char8 name[], uint8 dest);
  26:Generated_Source\PSoC4/BLE.c ****     #endif /* (CYBLE_GAP_ROLE_PERIPHERAL) */
  27:Generated_Source\PSoC4/BLE.c **** #endif /* (CYBLE_GATT_ROLE_SERVER) */
  28:Generated_Source\PSoC4/BLE.c ****     
  29:Generated_Source\PSoC4/BLE.c **** 
  30:Generated_Source\PSoC4/BLE.c **** /***************************************
  31:Generated_Source\PSoC4/BLE.c **** ##Global Variables
  32:Generated_Source\PSoC4/BLE.c **** ***************************************/
  33:Generated_Source\PSoC4/BLE.c **** 
  34:Generated_Source\PSoC4/BLE.c **** /* Indicates whether the BLE has been initialized. The variable is initialized to
  35:Generated_Source\PSoC4/BLE.c ****    0 and set to 1 the first time CyBle_Start() is called. This allows the component
  36:Generated_Source\PSoC4/BLE.c ****    to restart without reinitialization after the first call to the CyBle_Start() 
  37:Generated_Source\PSoC4/BLE.c ****    routine. If reinitialization of the component is required, the variable should 
  38:Generated_Source\PSoC4/BLE.c ****    be set to 0 before the CyBle_Start() routine is called. Alternatively, the BLE
  39:Generated_Source\PSoC4/BLE.c ****    can be reinitialized by calling the CyBle_Init() function.
ARM GAS  C:\Users\TTSS\AppData\Local\Temp\ccIJVLm2.s 			page 4


  40:Generated_Source\PSoC4/BLE.c **** */
  41:Generated_Source\PSoC4/BLE.c **** uint8  cyBle_initVar = 0u;
  42:Generated_Source\PSoC4/BLE.c **** 
  43:Generated_Source\PSoC4/BLE.c **** /* Allocate RAM memory for stack. This buffer could be reused by application when 
  44:Generated_Source\PSoC4/BLE.c ****    BLE component is stopped. 
  45:Generated_Source\PSoC4/BLE.c **** */
  46:Generated_Source\PSoC4/BLE.c **** CYBLE_CYALIGNED_BEGIN uint8 cyBle_stackMemoryRam[CYBLE_STACK_RAM_SIZE] CYBLE_CYALIGNED_END;
  47:Generated_Source\PSoC4/BLE.c **** 
  48:Generated_Source\PSoC4/BLE.c **** #if(CYBLE_GAP_ROLE_PERIPHERAL || CYBLE_GAP_ROLE_BROADCASTER)
  49:Generated_Source\PSoC4/BLE.c **** 
  50:Generated_Source\PSoC4/BLE.c **** CYBLE_GAPP_DISC_PARAM_T cyBle_discoveryParam =
  51:Generated_Source\PSoC4/BLE.c **** {
  52:Generated_Source\PSoC4/BLE.c ****     0x0640u,    /* uint16 advertising_interval_min */
  53:Generated_Source\PSoC4/BLE.c ****     0x0640u,    /* uint16 advertising_interval_max */
  54:Generated_Source\PSoC4/BLE.c ****     CYBLE_GAPP_NON_CONNECTABLE_UNDIRECTED_ADV, /* uint8 advertising_type */
  55:Generated_Source\PSoC4/BLE.c ****     0x00u,      /* uint8 own_addr_type */
  56:Generated_Source\PSoC4/BLE.c ****     0x00u,      /* uint8 direct_addr_type */
  57:Generated_Source\PSoC4/BLE.c ****     {0x00u, 0x00u, 0x00u, 0x50u, 0xA0u, 0x00u}, /* uint8* direct_addr */
  58:Generated_Source\PSoC4/BLE.c ****     0x07u,      /* uint8 advertising_channel_map */
  59:Generated_Source\PSoC4/BLE.c ****     0x00u,      /* uint8 advertising_filter_policy */
  60:Generated_Source\PSoC4/BLE.c **** };
  61:Generated_Source\PSoC4/BLE.c **** 
  62:Generated_Source\PSoC4/BLE.c **** CYBLE_GAPP_DISC_DATA_T cyBle_discoveryData =
  63:Generated_Source\PSoC4/BLE.c **** {
  64:Generated_Source\PSoC4/BLE.c ****     { 0x02u, 0x01u, 0x04u, 0x0Bu, 0x09u, 0x41u, 0x69u,
  65:Generated_Source\PSoC4/BLE.c ****     0x72u, 0x20u, 0x42u, 0x65u, 0x61u, 0x63u, 0x6Fu, 0x6Eu,
  66:Generated_Source\PSoC4/BLE.c ****     0x0Bu, 0xFFu, 0x31u, 0x01u, 0x00u, 0x00u, 0x00u, 0x00u,
  67:Generated_Source\PSoC4/BLE.c ****     0x00u, 0x00u, 0x00u, 0x00u, 0x00u, 0x00u, 0x00u, 0x00u }, /* uint8 advertising_data[CYBLE_MAX_A
  68:Generated_Source\PSoC4/BLE.c ****     0x1Bu,      /* uint8 adv_data_length */
  69:Generated_Source\PSoC4/BLE.c **** };
  70:Generated_Source\PSoC4/BLE.c **** 
  71:Generated_Source\PSoC4/BLE.c **** CYBLE_GAPP_SCAN_RSP_DATA_T cyBle_scanRspData =
  72:Generated_Source\PSoC4/BLE.c **** {
  73:Generated_Source\PSoC4/BLE.c ****     { 0x00u, 0x00u, 0x00u, 0x00u, 0x00u, 0x00u, 0x00u,
  74:Generated_Source\PSoC4/BLE.c ****     0x00u, 0x00u, 0x00u, 0x00u, 0x00u, 0x00u, 0x00u, 0x00u,
  75:Generated_Source\PSoC4/BLE.c ****     0x00u, 0x00u, 0x00u, 0x00u, 0x00u, 0x00u, 0x00u, 0x00u,
  76:Generated_Source\PSoC4/BLE.c ****     0x00u, 0x00u, 0x00u, 0x00u, 0x00u, 0x00u, 0x00u, 0x00u }, /* uint8 scan_rsp_data[CYBLE_MAX_SCAN
  77:Generated_Source\PSoC4/BLE.c ****     0x00u,      /* uint8 scan_rsp_data_length */
  78:Generated_Source\PSoC4/BLE.c **** };
  79:Generated_Source\PSoC4/BLE.c **** 
  80:Generated_Source\PSoC4/BLE.c **** /* This variable of type CYBLE_GAPP_DISC_MODE_INFO_T is present only when 
  81:Generated_Source\PSoC4/BLE.c ****    the BLE component is configured for Peripheral GAP role or Central and 
  82:Generated_Source\PSoC4/BLE.c ****    Peripheral GAP role. It contains the Advertisement settings and also the 
  83:Generated_Source\PSoC4/BLE.c ****    Advertisement and Scan response data parameters entered in the customizer.
  84:Generated_Source\PSoC4/BLE.c ****    This variable can be used by advanced users to change Advertisement settings,
  85:Generated_Source\PSoC4/BLE.c ****    Advertisement or Scan response data in runtime. 
  86:Generated_Source\PSoC4/BLE.c **** */
  87:Generated_Source\PSoC4/BLE.c **** CYBLE_GAPP_DISC_MODE_INFO_T cyBle_discoveryModeInfo =
  88:Generated_Source\PSoC4/BLE.c **** {
  89:Generated_Source\PSoC4/BLE.c ****     0x00u,      /* uint8 discMode */
  90:Generated_Source\PSoC4/BLE.c ****     &cyBle_discoveryParam,
  91:Generated_Source\PSoC4/BLE.c ****     &cyBle_discoveryData,
  92:Generated_Source\PSoC4/BLE.c ****     &cyBle_scanRspData,
  93:Generated_Source\PSoC4/BLE.c ****     0x0000u,    /* uint16 advTo */
  94:Generated_Source\PSoC4/BLE.c **** };
  95:Generated_Source\PSoC4/BLE.c **** 
  96:Generated_Source\PSoC4/BLE.c **** 
ARM GAS  C:\Users\TTSS\AppData\Local\Temp\ccIJVLm2.s 			page 5


  97:Generated_Source\PSoC4/BLE.c **** #endif /* CYBLE_GAP_ROLE_PERIPHERAL || CYBLE_GAP_ROLE_BROADCASTER */
  98:Generated_Source\PSoC4/BLE.c **** 
  99:Generated_Source\PSoC4/BLE.c **** #if(CYBLE_GAP_ROLE_CENTRAL)
 100:Generated_Source\PSoC4/BLE.c ****     
 101:Generated_Source\PSoC4/BLE.c **** CYBLE_GAPC_CONN_PARAM_T cyBle_connectionParameters;
 102:Generated_Source\PSoC4/BLE.c **** 
 103:Generated_Source\PSoC4/BLE.c **** /* Connecting timeout is set to 30 seconds in CyBle_Init function. 
 104:Generated_Source\PSoC4/BLE.c ****    Not zero value starts timer in CyBle_GapcConnectDevice API.
 105:Generated_Source\PSoC4/BLE.c **** */
 106:Generated_Source\PSoC4/BLE.c **** uint16 cyBle_connectingTimeout;
 107:Generated_Source\PSoC4/BLE.c ****     
 108:Generated_Source\PSoC4/BLE.c **** #endif /* CYBLE_GAP_ROLE_CENTRAL */
 109:Generated_Source\PSoC4/BLE.c **** 
 110:Generated_Source\PSoC4/BLE.c **** #if(CYBLE_GAP_ROLE_CENTRAL || CYBLE_GAP_ROLE_OBSERVER)
 111:Generated_Source\PSoC4/BLE.c ****     
 112:Generated_Source\PSoC4/BLE.c **** 
 113:Generated_Source\PSoC4/BLE.c ****     
 114:Generated_Source\PSoC4/BLE.c **** #endif /* CYBLE_GAP_ROLE_CENTRAL || CYBLE_GAP_ROLE_OBSERVER */
 115:Generated_Source\PSoC4/BLE.c **** 
 116:Generated_Source\PSoC4/BLE.c **** #if((CYBLE_GAP_ROLE_PERIPHERAL || CYBLE_GAP_ROLE_CENTRAL) && (CYBLE_BONDING_REQUIREMENT == CYBLE_BO
 117:Generated_Source\PSoC4/BLE.c **** 
 118:Generated_Source\PSoC4/BLE.c **** uint8 cyBle_pendingFlashWrite;
 119:Generated_Source\PSoC4/BLE.c ****     
 120:Generated_Source\PSoC4/BLE.c **** #endif  /* (CYBLE_BONDING_REQUIREMENT == CYBLE_BONDING_YES) */
 121:Generated_Source\PSoC4/BLE.c **** 
 122:Generated_Source\PSoC4/BLE.c **** CYBLE_CALLBACK_T CyBle_ApplCallback;
 123:Generated_Source\PSoC4/BLE.c **** CYBLE_GAP_BD_ADDR_T cyBle_deviceAddress = {{0x00u, 0x00u, 0x00u, 0x50u, 0xA0u, 0x00u}, 0x00u };
 124:Generated_Source\PSoC4/BLE.c **** CYBLE_GAP_BD_ADDR_T * cyBle_sflashDeviceAddress = CYBLE_SFLASH_DEVICE_ADDRESS_PTR;
 125:Generated_Source\PSoC4/BLE.c **** 
 126:Generated_Source\PSoC4/BLE.c **** 
 127:Generated_Source\PSoC4/BLE.c **** /******************************************************************************
 128:Generated_Source\PSoC4/BLE.c **** ##Function Name: CyBle_Init
 129:Generated_Source\PSoC4/BLE.c **** *******************************************************************************
 130:Generated_Source\PSoC4/BLE.c ****  Summary:
 131:Generated_Source\PSoC4/BLE.c ****   Initializes the component with the parameters set in the customizer.
 132:Generated_Source\PSoC4/BLE.c **** 
 133:Generated_Source\PSoC4/BLE.c ****  Parameters:
 134:Generated_Source\PSoC4/BLE.c ****   None
 135:Generated_Source\PSoC4/BLE.c **** 
 136:Generated_Source\PSoC4/BLE.c ****  Return:
 137:Generated_Source\PSoC4/BLE.c ****   None
 138:Generated_Source\PSoC4/BLE.c **** 
 139:Generated_Source\PSoC4/BLE.c **** ******************************************************************************/
 140:Generated_Source\PSoC4/BLE.c **** void CyBle_Init(void)
 141:Generated_Source\PSoC4/BLE.c **** {
 129              		.loc 1 141 0
 130              		.cfi_startproc
 131 0000 80B5     		push	{r7, lr}
 132              		.cfi_def_cfa_offset 8
 133              		.cfi_offset 7, -8
 134              		.cfi_offset 14, -4
 135 0002 00AF     		add	r7, sp, #0
 136              		.cfi_def_cfa_register 7
 142:Generated_Source\PSoC4/BLE.c ****     cyBle_eventHandlerFlag = 0u;
 137              		.loc 1 142 0
 138 0004 064B     		ldr	r3, .L2
 139 0006 0022     		mov	r2, #0
ARM GAS  C:\Users\TTSS\AppData\Local\Temp\ccIJVLm2.s 			page 6


 140 0008 1A70     		strb	r2, [r3]
 143:Generated_Source\PSoC4/BLE.c ****     cyBle_busyStatus = CYBLE_STACK_STATE_FREE;
 141              		.loc 1 143 0
 142 000a 064B     		ldr	r3, .L2+4
 143 000c 0022     		mov	r2, #0
 144 000e 1A70     		strb	r2, [r3]
 144:Generated_Source\PSoC4/BLE.c ****     
 145:Generated_Source\PSoC4/BLE.c ****     #if(CYBLE_GAP_ROLE_PERIPHERAL || CYBLE_GAP_ROLE_BROADCASTER) 
 146:Generated_Source\PSoC4/BLE.c ****         cyBle_advertisingIntervalType = CYBLE_ADVERTISING_FAST; 
 145              		.loc 1 146 0
 146 0010 054B     		ldr	r3, .L2+8
 147 0012 0022     		mov	r2, #0
 148 0014 1A70     		strb	r2, [r3]
 147:Generated_Source\PSoC4/BLE.c ****     #endif /* (CYBLE_GAP_ROLE_PERIPHERAL || CYBLE_GAP_ROLE_BROADCASTER)  */
 148:Generated_Source\PSoC4/BLE.c ****     #if(CYBLE_GAP_ROLE_CENTRAL || CYBLE_GAP_ROLE_OBSERVER)
 149:Generated_Source\PSoC4/BLE.c ****         cyBle_scanningIntervalType = CYBLE_SCANNING_FAST; 
 150:Generated_Source\PSoC4/BLE.c ****     #endif /* (CYBLE_GAP_ROLE_CENTRAL || CYBLE_GAP_ROLE_OBSERVER) */
 151:Generated_Source\PSoC4/BLE.c ****         
 152:Generated_Source\PSoC4/BLE.c ****     /* Init default connection parameters. 
 153:Generated_Source\PSoC4/BLE.c ****        Application may change it before initiating a connection */
 154:Generated_Source\PSoC4/BLE.c ****     #if(CYBLE_GAP_ROLE_CENTRAL)
 155:Generated_Source\PSoC4/BLE.c ****         cyBle_connectionParameters.scanIntv = cyBle_discoveryInfo.scanIntv;
 156:Generated_Source\PSoC4/BLE.c ****         cyBle_connectionParameters.scanWindow = cyBle_discoveryInfo.scanWindow;
 157:Generated_Source\PSoC4/BLE.c ****         cyBle_connectionParameters.ownAddrType = cyBle_discoveryInfo.ownAddrType;
 158:Generated_Source\PSoC4/BLE.c ****         cyBle_connectionParameters.initiatorFilterPolicy = cyBle_discoveryInfo.scanFilterPolicy;
 159:Generated_Source\PSoC4/BLE.c ****         cyBle_connectionParameters.connIntvMin = CYBLE_GAPC_CONNECTION_INTERVAL_MIN;
 160:Generated_Source\PSoC4/BLE.c ****         cyBle_connectionParameters.connIntvMax = CYBLE_GAPC_CONNECTION_INTERVAL_MAX;
 161:Generated_Source\PSoC4/BLE.c ****         cyBle_connectionParameters.connLatency = CYBLE_GAPC_CONNECTION_SLAVE_LATENCY;
 162:Generated_Source\PSoC4/BLE.c ****         cyBle_connectionParameters.supervisionTO = CYBLE_GAPC_CONNECTION_TIME_OUT;
 163:Generated_Source\PSoC4/BLE.c ****         cyBle_connectionParameters.minCeLength = 0x0000u;
 164:Generated_Source\PSoC4/BLE.c ****         cyBle_connectionParameters.maxCeLength = 0xFFFFu;
 165:Generated_Source\PSoC4/BLE.c ****         
 166:Generated_Source\PSoC4/BLE.c ****         cyBle_connectingTimeout = CYBLE_GAPC_CONNECTING_TIMEOUT;
 167:Generated_Source\PSoC4/BLE.c ****     #endif /* CYBLE_GAP_ROLE_CENTRAL */
 168:Generated_Source\PSoC4/BLE.c **** 
 169:Generated_Source\PSoC4/BLE.c ****     CyBle_ServiceInit();
 149              		.loc 1 169 0
 150 0016 FFF7FEFF 		bl	CyBle_ServiceInit
 170:Generated_Source\PSoC4/BLE.c **** 
 171:Generated_Source\PSoC4/BLE.c **** #if((CYBLE_GAP_ROLE_PERIPHERAL || CYBLE_GAP_ROLE_CENTRAL) && (CYBLE_BONDING_REQUIREMENT == CYBLE_BO
 172:Generated_Source\PSoC4/BLE.c ****     cyBle_pendingFlashWrite = 0u;
 173:Generated_Source\PSoC4/BLE.c **** #endif  /* (CYBLE_BONDING_REQUIREMENT == CYBLE_BONDING_YES) */
 174:Generated_Source\PSoC4/BLE.c **** 
 175:Generated_Source\PSoC4/BLE.c **** }
 151              		.loc 1 175 0
 152 001a BD46     		mov	sp, r7
 153              		@ sp needed
 154 001c 80BD     		pop	{r7, pc}
 155              	.L3:
 156 001e C046     		.align	2
 157              	.L2:
 158 0020 00000000 		.word	cyBle_eventHandlerFlag
 159 0024 00000000 		.word	cyBle_busyStatus
 160 0028 00000000 		.word	cyBle_advertisingIntervalType
 161              		.cfi_endproc
 162              	.LFE2:
 163              		.size	CyBle_Init, .-CyBle_Init
ARM GAS  C:\Users\TTSS\AppData\Local\Temp\ccIJVLm2.s 			page 7


 164              		.section	.text.CyBle_ServiceInit,"ax",%progbits
 165              		.align	2
 166              		.global	CyBle_ServiceInit
 167              		.code	16
 168              		.thumb_func
 169              		.type	CyBle_ServiceInit, %function
 170              	CyBle_ServiceInit:
 171              	.LFB3:
 176:Generated_Source\PSoC4/BLE.c **** 
 177:Generated_Source\PSoC4/BLE.c **** 
 178:Generated_Source\PSoC4/BLE.c **** /******************************************************************************
 179:Generated_Source\PSoC4/BLE.c **** ##Function Name: CyBle_ServiceInit
 180:Generated_Source\PSoC4/BLE.c **** *******************************************************************************
 181:Generated_Source\PSoC4/BLE.c **** 
 182:Generated_Source\PSoC4/BLE.c **** Summary:
 183:Generated_Source\PSoC4/BLE.c ****  Initializes all included services.
 184:Generated_Source\PSoC4/BLE.c **** 
 185:Generated_Source\PSoC4/BLE.c **** Parameters:
 186:Generated_Source\PSoC4/BLE.c ****  None
 187:Generated_Source\PSoC4/BLE.c **** 
 188:Generated_Source\PSoC4/BLE.c **** Return:
 189:Generated_Source\PSoC4/BLE.c ****  None
 190:Generated_Source\PSoC4/BLE.c **** 
 191:Generated_Source\PSoC4/BLE.c **** ******************************************************************************/
 192:Generated_Source\PSoC4/BLE.c **** void CyBle_ServiceInit(void)
 193:Generated_Source\PSoC4/BLE.c **** {
 172              		.loc 1 193 0
 173              		.cfi_startproc
 174 0000 80B5     		push	{r7, lr}
 175              		.cfi_def_cfa_offset 8
 176              		.cfi_offset 7, -8
 177              		.cfi_offset 14, -4
 178 0002 00AF     		add	r7, sp, #0
 179              		.cfi_def_cfa_register 7
 194:Generated_Source\PSoC4/BLE.c ****     #if(CYBLE_GATT_ROLE_CLIENT)
 195:Generated_Source\PSoC4/BLE.c ****         (void)memset(&cyBle_gapc, 0, sizeof(cyBle_gapc));
 196:Generated_Source\PSoC4/BLE.c ****         (void)memset(&cyBle_gattc, 0, sizeof(cyBle_gattc));
 197:Generated_Source\PSoC4/BLE.c ****     #endif /* CYBLE_GATT_ROLE_CLIENT */
 198:Generated_Source\PSoC4/BLE.c ****     
 199:Generated_Source\PSoC4/BLE.c ****     #ifdef CYBLE_ANS
 200:Generated_Source\PSoC4/BLE.c ****         CyBle_AnsInit();
 201:Generated_Source\PSoC4/BLE.c ****     #endif /* CYBLE_ANS */
 202:Generated_Source\PSoC4/BLE.c ****     
 203:Generated_Source\PSoC4/BLE.c ****     #ifdef CYBLE_BAS
 204:Generated_Source\PSoC4/BLE.c ****         CyBle_BasInit();
 205:Generated_Source\PSoC4/BLE.c ****     #endif /* CYBLE_BAS */
 206:Generated_Source\PSoC4/BLE.c ****     
 207:Generated_Source\PSoC4/BLE.c ****     #ifdef CYBLE_BLS
 208:Generated_Source\PSoC4/BLE.c ****         CyBle_BlsInit();
 209:Generated_Source\PSoC4/BLE.c ****     #endif /* CYBLE_BLS */
 210:Generated_Source\PSoC4/BLE.c ****     
 211:Generated_Source\PSoC4/BLE.c ****     #ifdef CYBLE_BMS
 212:Generated_Source\PSoC4/BLE.c ****         CyBle_BmsInit();
 213:Generated_Source\PSoC4/BLE.c ****     #endif /* CYBLE_BMS */
 214:Generated_Source\PSoC4/BLE.c ****     
 215:Generated_Source\PSoC4/BLE.c ****     #ifdef CYBLE_CGMS
 216:Generated_Source\PSoC4/BLE.c ****         CyBle_CgmsInit();
ARM GAS  C:\Users\TTSS\AppData\Local\Temp\ccIJVLm2.s 			page 8


 217:Generated_Source\PSoC4/BLE.c ****     #endif /* CYBLE_CGMS */
 218:Generated_Source\PSoC4/BLE.c **** 
 219:Generated_Source\PSoC4/BLE.c ****     #ifdef CYBLE_CPS
 220:Generated_Source\PSoC4/BLE.c ****         CyBle_CpsInit();
 221:Generated_Source\PSoC4/BLE.c ****     #endif /* CYBLE_CPS */
 222:Generated_Source\PSoC4/BLE.c **** 
 223:Generated_Source\PSoC4/BLE.c ****     #ifdef CYBLE_CSCS
 224:Generated_Source\PSoC4/BLE.c ****         CyBle_CscsInit();
 225:Generated_Source\PSoC4/BLE.c ****     #endif /* CYBLE_CSCS */
 226:Generated_Source\PSoC4/BLE.c ****     
 227:Generated_Source\PSoC4/BLE.c ****     #ifdef CYBLE_CTS
 228:Generated_Source\PSoC4/BLE.c ****         CyBle_CtsInit();
 229:Generated_Source\PSoC4/BLE.c ****     #endif /* CYBLE_CTS */
 230:Generated_Source\PSoC4/BLE.c **** 
 231:Generated_Source\PSoC4/BLE.c ****     #ifdef CYBLE_DIS
 232:Generated_Source\PSoC4/BLE.c ****         CyBle_DisInit();
 233:Generated_Source\PSoC4/BLE.c ****     #endif /* CYBLE_DIS */
 234:Generated_Source\PSoC4/BLE.c **** 
 235:Generated_Source\PSoC4/BLE.c ****     #ifdef CYBLE_ESS
 236:Generated_Source\PSoC4/BLE.c ****         CyBle_EssInit();
 237:Generated_Source\PSoC4/BLE.c ****     #endif /* CYBLE_ESS */
 238:Generated_Source\PSoC4/BLE.c ****     
 239:Generated_Source\PSoC4/BLE.c ****     #ifdef CYBLE_GLS
 240:Generated_Source\PSoC4/BLE.c ****         CyBle_GlsInit();
 241:Generated_Source\PSoC4/BLE.c ****     #endif /* CYBLE_GLS */
 242:Generated_Source\PSoC4/BLE.c ****     
 243:Generated_Source\PSoC4/BLE.c ****     #ifdef CYBLE_CUSTOM
 244:Generated_Source\PSoC4/BLE.c ****         CyBle_CustomInit();
 180              		.loc 1 244 0
 181 0004 FFF7FEFF 		bl	CyBle_CustomInit
 245:Generated_Source\PSoC4/BLE.c ****     #endif /* CYBLE_CUSTOM */
 246:Generated_Source\PSoC4/BLE.c **** 
 247:Generated_Source\PSoC4/BLE.c ****     #ifdef CYBLE_HIDS
 248:Generated_Source\PSoC4/BLE.c ****         CyBle_HidsInit();
 249:Generated_Source\PSoC4/BLE.c ****     #endif /* CYBLE_HIDS */
 250:Generated_Source\PSoC4/BLE.c **** 
 251:Generated_Source\PSoC4/BLE.c ****     #ifdef CYBLE_HRS
 252:Generated_Source\PSoC4/BLE.c ****         CyBle_HrsInit();
 253:Generated_Source\PSoC4/BLE.c ****     #endif /* CYBLE_HRS */
 254:Generated_Source\PSoC4/BLE.c ****     
 255:Generated_Source\PSoC4/BLE.c ****     #ifdef CYBLE_HTS
 256:Generated_Source\PSoC4/BLE.c ****         CyBle_HtsInit();
 257:Generated_Source\PSoC4/BLE.c ****     #endif /* CYBLE_RSCS */
 258:Generated_Source\PSoC4/BLE.c **** 
 259:Generated_Source\PSoC4/BLE.c ****     #ifdef CYBLE_IAS
 260:Generated_Source\PSoC4/BLE.c ****         CyBle_IasInit();
 261:Generated_Source\PSoC4/BLE.c ****     #endif /* CYBLE_IAS */
 262:Generated_Source\PSoC4/BLE.c **** 
 263:Generated_Source\PSoC4/BLE.c ****     #ifdef CYBLE_LLS
 264:Generated_Source\PSoC4/BLE.c ****         CyBle_LlsInit();
 265:Generated_Source\PSoC4/BLE.c ****     #endif /* CYBLE_LLS */
 266:Generated_Source\PSoC4/BLE.c **** 
 267:Generated_Source\PSoC4/BLE.c ****     #ifdef CYBLE_RTUS
 268:Generated_Source\PSoC4/BLE.c ****         CyBle_RtusInit();
 269:Generated_Source\PSoC4/BLE.c ****     #endif /* CYBLE_RTUS */
 270:Generated_Source\PSoC4/BLE.c **** 
 271:Generated_Source\PSoC4/BLE.c ****     #ifdef CYBLE_LNS
ARM GAS  C:\Users\TTSS\AppData\Local\Temp\ccIJVLm2.s 			page 9


 272:Generated_Source\PSoC4/BLE.c ****         CyBle_LnsInit();
 273:Generated_Source\PSoC4/BLE.c ****     #endif /* CYBLE_LNS */
 274:Generated_Source\PSoC4/BLE.c ****     
 275:Generated_Source\PSoC4/BLE.c ****     #ifdef CYBLE_PASS
 276:Generated_Source\PSoC4/BLE.c ****         CyBle_PassInit();
 277:Generated_Source\PSoC4/BLE.c ****     #endif /* CYBLE_PASS */
 278:Generated_Source\PSoC4/BLE.c ****     
 279:Generated_Source\PSoC4/BLE.c ****     #ifdef CYBLE_RSCS
 280:Generated_Source\PSoC4/BLE.c ****         CyBle_RscsInit();
 281:Generated_Source\PSoC4/BLE.c ****     #endif /* CYBLE_RSCS */
 282:Generated_Source\PSoC4/BLE.c **** 
 283:Generated_Source\PSoC4/BLE.c ****     #ifdef CYBLE_SCPS
 284:Generated_Source\PSoC4/BLE.c ****         CyBle_ScpsInit();
 285:Generated_Source\PSoC4/BLE.c ****     #endif /* CYBLE_SCPS */
 286:Generated_Source\PSoC4/BLE.c ****     
 287:Generated_Source\PSoC4/BLE.c ****     #ifdef CYBLE_TPS
 288:Generated_Source\PSoC4/BLE.c ****         CyBle_TpsInit();
 289:Generated_Source\PSoC4/BLE.c ****     #endif /* CYBLE_TPS */
 290:Generated_Source\PSoC4/BLE.c ****     
 291:Generated_Source\PSoC4/BLE.c ****     #ifdef CYBLE_UDS
 292:Generated_Source\PSoC4/BLE.c ****         CyBle_UdsInit();
 293:Generated_Source\PSoC4/BLE.c ****     #endif /* CYBLE_UDS */
 294:Generated_Source\PSoC4/BLE.c **** 
 295:Generated_Source\PSoC4/BLE.c ****     #ifdef CYBLE_WSS
 296:Generated_Source\PSoC4/BLE.c ****         CyBle_WssInit();
 297:Generated_Source\PSoC4/BLE.c ****     #endif /* CYBLE_WSS */
 298:Generated_Source\PSoC4/BLE.c **** }
 182              		.loc 1 298 0
 183 0008 BD46     		mov	sp, r7
 184              		@ sp needed
 185 000a 80BD     		pop	{r7, pc}
 186              		.cfi_endproc
 187              	.LFE3:
 188              		.size	CyBle_ServiceInit, .-CyBle_ServiceInit
 189              		.section	.rodata
 190              		.align	2
 191              	.LC0:
 192 0000 1B00     		.short	27
 193 0002 02       		.byte	2
 194 0003 00       		.space	1
 195 0004 0A00     		.short	10
 196 0006 01       		.byte	1
 197 0007 00       		.space	1
 198 0008 2800     		.short	40
 199 000a 01       		.byte	1
 200 000b 00       		.space	1
 201 000c 4000     		.short	64
 202 000e 01       		.byte	1
 203 000f 00       		.space	1
 204 0010 1700     		.short	23
 205 0012 01       		.byte	1
 206 0013 00       		.space	1
 207 0014 1700     		.short	23
 208 0016 01       		.byte	1
 209 0017 00       		.space	1
 210              		.section	.text.CyBle_Start,"ax",%progbits
 211              		.align	2
ARM GAS  C:\Users\TTSS\AppData\Local\Temp\ccIJVLm2.s 			page 10


 212              		.global	CyBle_Start
 213              		.code	16
 214              		.thumb_func
 215              		.type	CyBle_Start, %function
 216              	CyBle_Start:
 217              	.LFB4:
 299:Generated_Source\PSoC4/BLE.c **** 
 300:Generated_Source\PSoC4/BLE.c **** 
 301:Generated_Source\PSoC4/BLE.c **** /******************************************************************************
 302:Generated_Source\PSoC4/BLE.c **** ##Function Name: CyBle_Start
 303:Generated_Source\PSoC4/BLE.c **** *******************************************************************************
 304:Generated_Source\PSoC4/BLE.c **** 
 305:Generated_Source\PSoC4/BLE.c **** Summary:
 306:Generated_Source\PSoC4/BLE.c ****  This function initializes the BLE Stack, which consists of the BLE Stack 
 307:Generated_Source\PSoC4/BLE.c ****  Manager, BLE Controller, and BLE Host modules. It takes care of initializing
 308:Generated_Source\PSoC4/BLE.c ****  the Profile layer, schedulers, Timer and other platform related
 309:Generated_Source\PSoC4/BLE.c ****  resources required for the BLE component. It also registers the callback 
 310:Generated_Source\PSoC4/BLE.c ****  function for BLE events that will be registered in the BLE stack.
 311:Generated_Source\PSoC4/BLE.c **** 
 312:Generated_Source\PSoC4/BLE.c ****  Note that this function does not reset the BLE Stack.
 313:Generated_Source\PSoC4/BLE.c **** 
 314:Generated_Source\PSoC4/BLE.c ****  For HCI-Mode of operation, this function will not initialize the BLE Host 
 315:Generated_Source\PSoC4/BLE.c ****  module.
 316:Generated_Source\PSoC4/BLE.c **** 
 317:Generated_Source\PSoC4/BLE.c ****  Calling this function results in the generation of CYBLE_EVT_STACK_ON event
 318:Generated_Source\PSoC4/BLE.c ****  on successful initialization of the BLE Stack.
 319:Generated_Source\PSoC4/BLE.c **** 
 320:Generated_Source\PSoC4/BLE.c **** Parameters:
 321:Generated_Source\PSoC4/BLE.c ****  callbackFunc: Event callback function to receive events from BLE stack.
 322:Generated_Source\PSoC4/BLE.c ****   CYBLE_CALLBACK_T is a function pointer type.
 323:Generated_Source\PSoC4/BLE.c **** 
 324:Generated_Source\PSoC4/BLE.c **** Return:
 325:Generated_Source\PSoC4/BLE.c ****  CYBLE_API_RESULT_T : Return value indicates if the function succeeded or 
 326:Generated_Source\PSoC4/BLE.c ****  failed. Following are the possible error codes.
 327:Generated_Source\PSoC4/BLE.c ****  <table>
 328:Generated_Source\PSoC4/BLE.c ****   Errors codes                        Description
 329:Generated_Source\PSoC4/BLE.c ****   ------------                        -----------------
 330:Generated_Source\PSoC4/BLE.c ****   CYBLE_ERROR_OK                      On successful operation.
 331:Generated_Source\PSoC4/BLE.c ****   CYBLE_ERROR_INVALID_PARAMETER       On passing a NULL pointer to the 
 332:Generated_Source\PSoC4/BLE.c ****                                        function when the BLE stack is not 
 333:Generated_Source\PSoC4/BLE.c ****                                        built in HCI mode.
 334:Generated_Source\PSoC4/BLE.c ****                                        CYBLE_ERROR_INVALID_PARAMETER
 335:Generated_Source\PSoC4/BLE.c ****                                        is never returned in HCI mode.
 336:Generated_Source\PSoC4/BLE.c ****   CYBLE_ERROR_REPEATED_ATTEMPTS       On invoking this function more
 337:Generated_Source\PSoC4/BLE.c ****                                        than once without calling
 338:Generated_Source\PSoC4/BLE.c ****                                        CyBle_Shutdown() function 
 339:Generated_Source\PSoC4/BLE.c ****                                        between calls to this function.
 340:Generated_Source\PSoC4/BLE.c ****  </table>
 341:Generated_Source\PSoC4/BLE.c **** 
 342:Generated_Source\PSoC4/BLE.c ****  Global variables:
 343:Generated_Source\PSoC4/BLE.c ****   The BLE_intiVar variable is used to indicate initial
 344:Generated_Source\PSoC4/BLE.c ****   configuration of this component. The variable is initialized to zero (0u)
 345:Generated_Source\PSoC4/BLE.c ****   and set to one (1u) the first time BLE_Start() is called. This
 346:Generated_Source\PSoC4/BLE.c ****   allows for component initialization without re-initialization in all
 347:Generated_Source\PSoC4/BLE.c ****   subsequent calls to the BLE_Start() routine.
 348:Generated_Source\PSoC4/BLE.c **** 
 349:Generated_Source\PSoC4/BLE.c **** ******************************************************************************/
ARM GAS  C:\Users\TTSS\AppData\Local\Temp\ccIJVLm2.s 			page 11


 350:Generated_Source\PSoC4/BLE.c **** CYBLE_API_RESULT_T CyBle_Start(CYBLE_CALLBACK_T callbackFunc)
 351:Generated_Source\PSoC4/BLE.c **** {
 218              		.loc 1 351 0
 219              		.cfi_startproc
 220 0000 B0B5     		push	{r4, r5, r7, lr}
 221              		.cfi_def_cfa_offset 16
 222              		.cfi_offset 4, -16
 223              		.cfi_offset 5, -12
 224              		.cfi_offset 7, -8
 225              		.cfi_offset 14, -4
 226 0002 8CB0     		sub	sp, sp, #48
 227              		.cfi_def_cfa_offset 64
 228 0004 02AF     		add	r7, sp, #8
 229              		.cfi_def_cfa 7, 56
 230 0006 7860     		str	r0, [r7, #4]
 352:Generated_Source\PSoC4/BLE.c ****     CYBLE_API_RESULT_T apiResult = CYBLE_ERROR_INVALID_PARAMETER;
 231              		.loc 1 352 0
 232 0008 2623     		mov	r3, #38
 233 000a FB18     		add	r3, r7, r3
 234 000c 0122     		mov	r2, #1
 235 000e 1A80     		strh	r2, [r3]
 353:Generated_Source\PSoC4/BLE.c ****     
 354:Generated_Source\PSoC4/BLE.c ****     /* If not initialized then initialize all the required hardware and software */
 355:Generated_Source\PSoC4/BLE.c ****     if(cyBle_initVar == 0u)
 236              		.loc 1 355 0
 237 0010 204B     		ldr	r3, .L10
 238 0012 1B78     		ldrb	r3, [r3]
 239 0014 002B     		cmp	r3, #0
 240 0016 04D1     		bne	.L6
 356:Generated_Source\PSoC4/BLE.c ****     {
 357:Generated_Source\PSoC4/BLE.c ****         CyBle_Init();
 241              		.loc 1 357 0
 242 0018 FFF7FEFF 		bl	CyBle_Init
 358:Generated_Source\PSoC4/BLE.c ****         cyBle_initVar = 1u;
 243              		.loc 1 358 0
 244 001c 1D4B     		ldr	r3, .L10
 245 001e 0122     		mov	r2, #1
 246 0020 1A70     		strb	r2, [r3]
 247              	.L6:
 359:Generated_Source\PSoC4/BLE.c ****     }
 360:Generated_Source\PSoC4/BLE.c ****     
 361:Generated_Source\PSoC4/BLE.c ****     if(callbackFunc != NULL)
 248              		.loc 1 361 0
 249 0022 7B68     		ldr	r3, [r7, #4]
 250 0024 002B     		cmp	r3, #0
 251 0026 2ED0     		beq	.L7
 252              	.LBB2:
 362:Generated_Source\PSoC4/BLE.c ****     {
 363:Generated_Source\PSoC4/BLE.c ****     #if(CYBLE_MODE_PROFILE)
 364:Generated_Source\PSoC4/BLE.c ****         CYBLE_STK_APP_DATA_BUFF_T dataBuff[CYBLE_STACK_BUF_COUNT] = 
 253              		.loc 1 364 0
 254 0028 0C23     		mov	r3, #12
 255 002a FA18     		add	r2, r7, r3
 256 002c 1A4B     		ldr	r3, .L10+4
 257 002e 111C     		mov	r1, r2
 258 0030 1A1C     		mov	r2, r3
 259 0032 1823     		mov	r3, #24
ARM GAS  C:\Users\TTSS\AppData\Local\Temp\ccIJVLm2.s 			page 12


 260 0034 081C     		mov	r0, r1
 261 0036 111C     		mov	r1, r2
 262 0038 1A1C     		mov	r2, r3
 263 003a FFF7FEFF 		bl	memcpy
 365:Generated_Source\PSoC4/BLE.c ****         {
 366:Generated_Source\PSoC4/BLE.c ****             {CYBLE_GATT_MTU_PLUS_L2CAP_HEADER, CYBLE_GATT_MTU_BUF_COUNT},
 367:Generated_Source\PSoC4/BLE.c ****             {CYBLE_GATT_MAX_ATTR_LEN, 1u},
 368:Generated_Source\PSoC4/BLE.c ****             {CYBLE_L2CAP_PSM_SIZE, CYBLE_L2CAP_PSM_COUNT},
 369:Generated_Source\PSoC4/BLE.c ****             {CYBLE_L2CAP_CBFC_CHANNEL_SIZE, CYBLE_L2CAP_LOGICAL_CHANNEL_COUNT},
 370:Generated_Source\PSoC4/BLE.c ****             {CYBLE_L2CAP_MTU, CYBLE_L2CAP_LOGICAL_CHANNEL_COUNT},
 371:Generated_Source\PSoC4/BLE.c ****             {CYBLE_L2CAP_MPS, CYBLE_L2CAP_LOGICAL_CHANNEL_COUNT * (CYBLE_L2CAP_MTU/CYBLE_L2CAP_MPS)
 372:Generated_Source\PSoC4/BLE.c ****         }; 
 373:Generated_Source\PSoC4/BLE.c ****     
 374:Generated_Source\PSoC4/BLE.c ****         apiResult = CyBle_StackInit(&CyBle_EventHandler, cyBle_stackMemoryRam, CYBLE_STACK_RAM_SIZE
 264              		.loc 1 374 0
 265 003e 2623     		mov	r3, #38
 266 0040 FC18     		add	r4, r7, r3
 267 0042 1648     		ldr	r0, .L10+8
 268 0044 1649     		ldr	r1, .L10+12
 269 0046 A623     		mov	r3, #166
 270 0048 1A01     		lsl	r2, r3, #4
 271 004a 0C23     		mov	r3, #12
 272 004c FD18     		add	r5, r7, r3
 273 004e 0623     		mov	r3, #6
 274 0050 0093     		str	r3, [sp]
 275 0052 2B1C     		mov	r3, r5
 276 0054 FFF7FEFF 		bl	CyBle_StackInit
 277 0058 031C     		mov	r3, r0
 278 005a 2380     		strh	r3, [r4]
 375:Generated_Source\PSoC4/BLE.c ****             dataBuff, CYBLE_STACK_BUF_COUNT);
 376:Generated_Source\PSoC4/BLE.c ****     #else
 377:Generated_Source\PSoC4/BLE.c ****         apiResult = CyBle_StackInit(&CyBle_EventHandler, cyBle_stackMemoryRam, CYBLE_STACK_RAM_SIZE
 378:Generated_Source\PSoC4/BLE.c ****     #endif /* CYBLE_MODE_PROFILE */  
 379:Generated_Source\PSoC4/BLE.c **** 
 380:Generated_Source\PSoC4/BLE.c ****         CyBle_ApplCallback = callbackFunc;
 279              		.loc 1 380 0
 280 005c 114B     		ldr	r3, .L10+16
 281 005e 7A68     		ldr	r2, [r7, #4]
 282 0060 1A60     		str	r2, [r3]
 381:Generated_Source\PSoC4/BLE.c ****         
 382:Generated_Source\PSoC4/BLE.c **** 
 383:Generated_Source\PSoC4/BLE.c ****         if(apiResult == CYBLE_ERROR_OK)
 283              		.loc 1 383 0
 284 0062 2623     		mov	r3, #38
 285 0064 FB18     		add	r3, r7, r3
 286 0066 1B88     		ldrh	r3, [r3]
 287 0068 002B     		cmp	r3, #0
 288 006a 0CD1     		bne	.L7
 384:Generated_Source\PSoC4/BLE.c ****         {
 385:Generated_Source\PSoC4/BLE.c ****             CyBle_SetState(CYBLE_STATE_INITIALIZING);
 289              		.loc 1 385 0
 290 006c 0E4B     		ldr	r3, .L10+20
 291 006e 0122     		mov	r2, #1
 292 0070 1A70     		strb	r2, [r3]
 386:Generated_Source\PSoC4/BLE.c ****             
 387:Generated_Source\PSoC4/BLE.c ****         #if (CYBLE_GATT_ROLE_CLIENT)
 388:Generated_Source\PSoC4/BLE.c ****             CyBle_SetClientState(CYBLE_CLIENT_STATE_DISCONNECTED);
ARM GAS  C:\Users\TTSS\AppData\Local\Temp\ccIJVLm2.s 			page 13


 389:Generated_Source\PSoC4/BLE.c ****         #endif /* CYBLE_GATT_ROLE_CLIENT */
 390:Generated_Source\PSoC4/BLE.c ****             
 391:Generated_Source\PSoC4/BLE.c ****         #if(CYBLE_GATT_ROLE_SERVER)
 392:Generated_Source\PSoC4/BLE.c ****             apiResult = CyBle_GattsDbRegister(cyBle_gattDB, CYBLE_GATT_DB_INDEX_COUNT, CYBLE_GATT_D
 293              		.loc 1 392 0
 294 0072 2623     		mov	r3, #38
 295 0074 FC18     		add	r4, r7, r3
 296 0076 0D4B     		ldr	r3, .L10+24
 297 0078 181C     		mov	r0, r3
 298 007a 0D21     		mov	r1, #13
 299 007c 0A22     		mov	r2, #10
 300 007e FFF7FEFF 		bl	CyBle_GattsDbRegister
 301 0082 031C     		mov	r3, r0
 302 0084 2380     		strh	r3, [r4]
 303              	.L7:
 304              	.LBE2:
 393:Generated_Source\PSoC4/BLE.c ****         #endif /* CYBLE_GATT_ROLE_SERVER */
 394:Generated_Source\PSoC4/BLE.c ****         }
 395:Generated_Source\PSoC4/BLE.c ****     }
 396:Generated_Source\PSoC4/BLE.c **** 
 397:Generated_Source\PSoC4/BLE.c ****     return (apiResult);
 305              		.loc 1 397 0
 306 0086 2623     		mov	r3, #38
 307 0088 FB18     		add	r3, r7, r3
 308 008a 1B88     		ldrh	r3, [r3]
 398:Generated_Source\PSoC4/BLE.c **** }
 309              		.loc 1 398 0
 310 008c 181C     		mov	r0, r3
 311 008e BD46     		mov	sp, r7
 312 0090 0AB0     		add	sp, sp, #40
 313              		@ sp needed
 314 0092 B0BD     		pop	{r4, r5, r7, pc}
 315              	.L11:
 316              		.align	2
 317              	.L10:
 318 0094 00000000 		.word	cyBle_initVar
 319 0098 00000000 		.word	.LC0
 320 009c 00000000 		.word	CyBle_EventHandler
 321 00a0 00000000 		.word	cyBle_stackMemoryRam
 322 00a4 00000000 		.word	CyBle_ApplCallback
 323 00a8 00000000 		.word	cyBle_state
 324 00ac 00000000 		.word	cyBle_gattDB
 325              		.cfi_endproc
 326              	.LFE4:
 327              		.size	CyBle_Start, .-CyBle_Start
 328              		.section	.text.CyBle_Stop,"ax",%progbits
 329              		.align	2
 330              		.global	CyBle_Stop
 331              		.code	16
 332              		.thumb_func
 333              		.type	CyBle_Stop, %function
 334              	CyBle_Stop:
 335              	.LFB5:
 399:Generated_Source\PSoC4/BLE.c **** 
 400:Generated_Source\PSoC4/BLE.c **** 
 401:Generated_Source\PSoC4/BLE.c **** /******************************************************************************
 402:Generated_Source\PSoC4/BLE.c **** ##Function Name: CyBle_Stop
ARM GAS  C:\Users\TTSS\AppData\Local\Temp\ccIJVLm2.s 			page 14


 403:Generated_Source\PSoC4/BLE.c **** *******************************************************************************
 404:Generated_Source\PSoC4/BLE.c **** 
 405:Generated_Source\PSoC4/BLE.c **** Summary:
 406:Generated_Source\PSoC4/BLE.c ****  This function stops any ongoing operation in the BLE Stack and forces the 
 407:Generated_Source\PSoC4/BLE.c ****  BLE Stack to shut down. The only function that can be called after calling
 408:Generated_Source\PSoC4/BLE.c ****  this function is CyBle_Start(). 
 409:Generated_Source\PSoC4/BLE.c **** 
 410:Generated_Source\PSoC4/BLE.c **** Parameters:
 411:Generated_Source\PSoC4/BLE.c ****  None
 412:Generated_Source\PSoC4/BLE.c **** 
 413:Generated_Source\PSoC4/BLE.c **** Return:
 414:Generated_Source\PSoC4/BLE.c ****  None
 415:Generated_Source\PSoC4/BLE.c **** 
 416:Generated_Source\PSoC4/BLE.c **** ******************************************************************************/
 417:Generated_Source\PSoC4/BLE.c **** void CyBle_Stop(void)
 418:Generated_Source\PSoC4/BLE.c **** {
 336              		.loc 1 418 0
 337              		.cfi_startproc
 338 0000 80B5     		push	{r7, lr}
 339              		.cfi_def_cfa_offset 8
 340              		.cfi_offset 7, -8
 341              		.cfi_offset 14, -4
 342 0002 00AF     		add	r7, sp, #0
 343              		.cfi_def_cfa_register 7
 419:Generated_Source\PSoC4/BLE.c ****     CyBle_Shutdown();                         /* Stop all ongoing activities */
 344              		.loc 1 419 0
 345 0004 FFF7FEFF 		bl	CyBle_Shutdown
 420:Generated_Source\PSoC4/BLE.c ****     CyBle_SetState(CYBLE_STATE_STOPPED);
 346              		.loc 1 420 0
 347 0008 024B     		ldr	r3, .L13
 348 000a 0022     		mov	r2, #0
 349 000c 1A70     		strb	r2, [r3]
 421:Generated_Source\PSoC4/BLE.c **** }
 350              		.loc 1 421 0
 351 000e BD46     		mov	sp, r7
 352              		@ sp needed
 353 0010 80BD     		pop	{r7, pc}
 354              	.L14:
 355 0012 C046     		.align	2
 356              	.L13:
 357 0014 00000000 		.word	cyBle_state
 358              		.cfi_endproc
 359              	.LFE5:
 360              		.size	CyBle_Stop, .-CyBle_Stop
 361              		.section	.text.CyBle_GappStartAdvertisement,"ax",%progbits
 362              		.align	2
 363              		.global	CyBle_GappStartAdvertisement
 364              		.code	16
 365              		.thumb_func
 366              		.type	CyBle_GappStartAdvertisement, %function
 367              	CyBle_GappStartAdvertisement:
 368              	.LFB6:
 422:Generated_Source\PSoC4/BLE.c **** 
 423:Generated_Source\PSoC4/BLE.c **** 
 424:Generated_Source\PSoC4/BLE.c **** #if((CYBLE_GAP_ROLE_PERIPHERAL || CYBLE_GAP_ROLE_CENTRAL) && (CYBLE_BONDING_REQUIREMENT == CYBLE_BO
 425:Generated_Source\PSoC4/BLE.c **** 
 426:Generated_Source\PSoC4/BLE.c ****     
ARM GAS  C:\Users\TTSS\AppData\Local\Temp\ccIJVLm2.s 			page 15


 427:Generated_Source\PSoC4/BLE.c **** /******************************************************************************
 428:Generated_Source\PSoC4/BLE.c **** ##Function Name: CyBle_StoreBondingData
 429:Generated_Source\PSoC4/BLE.c **** *******************************************************************************
 430:Generated_Source\PSoC4/BLE.c **** 
 431:Generated_Source\PSoC4/BLE.c **** Summary:
 432:Generated_Source\PSoC4/BLE.c ****  This function writes the new bonding data from RAM to the dedicated Flash 
 433:Generated_Source\PSoC4/BLE.c ****  location as defined by the component. It performs data comparing between RAM
 434:Generated_Source\PSoC4/BLE.c ****  and Flash before writing to Flash. If there is no change between RAM and Flash
 435:Generated_Source\PSoC4/BLE.c ****  data, then no write is performed. It writes only one flash row in one call.
 436:Generated_Source\PSoC4/BLE.c ****  Application should keep calling this function till API return CYBLE_ERROR_OK. 
 437:Generated_Source\PSoC4/BLE.c ****  This function is available only when Bonding requirement is selected in
 438:Generated_Source\PSoC4/BLE.c ****  Security settings.    
 439:Generated_Source\PSoC4/BLE.c ****     
 440:Generated_Source\PSoC4/BLE.c **** Parameters:
 441:Generated_Source\PSoC4/BLE.c ****  isForceWrite:  If value is set to 0, then stack will check if flash write 
 442:Generated_Source\PSoC4/BLE.c ****                 is permissible. 
 443:Generated_Source\PSoC4/BLE.c ****  
 444:Generated_Source\PSoC4/BLE.c **** Return:
 445:Generated_Source\PSoC4/BLE.c ****  Return value is of type CYBLE_API_RESULT_T.
 446:Generated_Source\PSoC4/BLE.c ****  * CYBLE_ERROR_OK - On successful operation
 447:Generated_Source\PSoC4/BLE.c ****  * CYBLE_ERROR_FLASH_WRITE_NOT_PERMITED - Flash Write is not complete
 448:Generated_Source\PSoC4/BLE.c ****    
 449:Generated_Source\PSoC4/BLE.c ****  Side Effects:
 450:Generated_Source\PSoC4/BLE.c ****   For BLE devices with 128K of Flash memory this API will automatically 
 451:Generated_Source\PSoC4/BLE.c ****   modify the clock settings for the device.
 452:Generated_Source\PSoC4/BLE.c ****   Writing to flash requires changes to be done to the IMO (set to 48 MHz)
 453:Generated_Source\PSoC4/BLE.c ****   and HFCLK (source set to IMO) settings. The configuration is restored before
 454:Generated_Source\PSoC4/BLE.c ****   returning. This will impact the operation of most of the hardware in the
 455:Generated_Source\PSoC4/BLE.c ****   device.
 456:Generated_Source\PSoC4/BLE.c **** 
 457:Generated_Source\PSoC4/BLE.c ****  Global variables:
 458:Generated_Source\PSoC4/BLE.c ****   The BLE_pendingFlashWrite variable is used to detect status
 459:Generated_Source\PSoC4/BLE.c ****   of pending write to flash operation for stack data and CCCD.
 460:Generated_Source\PSoC4/BLE.c ****   This API automatically clears pending bits after write operation complete.
 461:Generated_Source\PSoC4/BLE.c ****     
 462:Generated_Source\PSoC4/BLE.c **** ******************************************************************************/
 463:Generated_Source\PSoC4/BLE.c **** CYBLE_API_RESULT_T CyBle_StoreBondingData(uint8 isForceWrite)
 464:Generated_Source\PSoC4/BLE.c **** {
 465:Generated_Source\PSoC4/BLE.c ****     CYBLE_API_RESULT_T apiResult = CYBLE_ERROR_OK;
 466:Generated_Source\PSoC4/BLE.c ****     
 467:Generated_Source\PSoC4/BLE.c ****     /* Store Stack data */
 468:Generated_Source\PSoC4/BLE.c ****     if((cyBle_pendingFlashWrite & CYBLE_PENDING_STACK_FLASH_WRITE_BIT) != 0u)
 469:Generated_Source\PSoC4/BLE.c ****     {
 470:Generated_Source\PSoC4/BLE.c ****         apiResult = CyBle_StoreStackData(isForceWrite);
 471:Generated_Source\PSoC4/BLE.c ****         if(apiResult == CYBLE_ERROR_OK)
 472:Generated_Source\PSoC4/BLE.c ****         {
 473:Generated_Source\PSoC4/BLE.c ****             cyBle_pendingFlashWrite &= (uint8)~CYBLE_PENDING_STACK_FLASH_WRITE_BIT;
 474:Generated_Source\PSoC4/BLE.c ****             /* Change apiResult if there are more pending data to store */
 475:Generated_Source\PSoC4/BLE.c ****             if((cyBle_pendingFlashWrite & CYBLE_PENDING_CCCD_FLASH_WRITE_BIT) != 0u)
 476:Generated_Source\PSoC4/BLE.c ****             {
 477:Generated_Source\PSoC4/BLE.c ****                 apiResult = CYBLE_ERROR_FLASH_WRITE_NOT_PERMITED;
 478:Generated_Source\PSoC4/BLE.c ****             }
 479:Generated_Source\PSoC4/BLE.c ****         }
 480:Generated_Source\PSoC4/BLE.c ****     }
 481:Generated_Source\PSoC4/BLE.c **** #if(CYBLE_GATT_DB_CCCD_COUNT != 0u)
 482:Generated_Source\PSoC4/BLE.c ****     /* Store CCCD values */
 483:Generated_Source\PSoC4/BLE.c ****     if( ((apiResult == CYBLE_ERROR_OK) || (isForceWrite != 0u)) && 
ARM GAS  C:\Users\TTSS\AppData\Local\Temp\ccIJVLm2.s 			page 16


 484:Generated_Source\PSoC4/BLE.c ****         ((cyBle_pendingFlashWrite & CYBLE_PENDING_CCCD_FLASH_WRITE_BIT) != 0u) &&
 485:Generated_Source\PSoC4/BLE.c ****         (cyBle_connHandle.bdHandle <= CYBLE_GAP_MAX_BONDED_DEVICE))
 486:Generated_Source\PSoC4/BLE.c ****     {
 487:Generated_Source\PSoC4/BLE.c ****         apiResult = CyBle_StoreAppData(cyBle_attValuesCCCD, cyBle_attValuesCCCDFlashMemory[cyBle_co
 488:Generated_Source\PSoC4/BLE.c ****                                        CYBLE_GATT_DB_CCCD_COUNT, isForceWrite);
 489:Generated_Source\PSoC4/BLE.c ****         if(apiResult == CYBLE_ERROR_OK)
 490:Generated_Source\PSoC4/BLE.c ****         {
 491:Generated_Source\PSoC4/BLE.c ****             cyBle_pendingFlashWrite &= (uint8)~CYBLE_PENDING_CCCD_FLASH_WRITE_BIT;
 492:Generated_Source\PSoC4/BLE.c ****         }
 493:Generated_Source\PSoC4/BLE.c ****     }
 494:Generated_Source\PSoC4/BLE.c **** #endif /* CYBLE_GATT_DB_CCCD_COUNT != 0u */
 495:Generated_Source\PSoC4/BLE.c ****     return(apiResult);
 496:Generated_Source\PSoC4/BLE.c **** }
 497:Generated_Source\PSoC4/BLE.c **** 
 498:Generated_Source\PSoC4/BLE.c **** 
 499:Generated_Source\PSoC4/BLE.c **** #endif /* (CYBLE_GAP_ROLE_PERIPHERAL || CYBLE_GAP_ROLE_CENTRAL) && (CYBLE_BONDING_REQUIREMENT == CY
 500:Generated_Source\PSoC4/BLE.c **** 
 501:Generated_Source\PSoC4/BLE.c **** 
 502:Generated_Source\PSoC4/BLE.c **** #if(CYBLE_GAP_ROLE_PERIPHERAL || CYBLE_GAP_ROLE_BROADCASTER)
 503:Generated_Source\PSoC4/BLE.c **** 
 504:Generated_Source\PSoC4/BLE.c ****     /******************************************************************************
 505:Generated_Source\PSoC4/BLE.c ****     ##Function Name: CyBle_GappStartAdvertisement
 506:Generated_Source\PSoC4/BLE.c ****     *******************************************************************************
 507:Generated_Source\PSoC4/BLE.c ****     
 508:Generated_Source\PSoC4/BLE.c ****     Summary:
 509:Generated_Source\PSoC4/BLE.c ****      This function is used to start the advertisement using the advertisement data 
 510:Generated_Source\PSoC4/BLE.c ****      set in the component customizer's GUI. After invoking this API, the device 
 511:Generated_Source\PSoC4/BLE.c ****      will be available for connection by the devices configured for GAP central 
 512:Generated_Source\PSoC4/BLE.c ****      role. It is only included if the device is configured for GAP Peripheral or 
 513:Generated_Source\PSoC4/BLE.c ****      GAP Peripheral + Central role.
 514:Generated_Source\PSoC4/BLE.c ****      
 515:Generated_Source\PSoC4/BLE.c ****      On start of advertisement, GAP Peripheral receives the
 516:Generated_Source\PSoC4/BLE.c ****      CYBLE_EVT_GAPP_ADVERTISEMENT_START_STOP event. The following events are 
 517:Generated_Source\PSoC4/BLE.c ****      possible on invoking this function:
 518:Generated_Source\PSoC4/BLE.c ****      
 519:Generated_Source\PSoC4/BLE.c ****      * CYBLE_EVT_GAP_DEVICE_CONNECTED: If the device connects to remote GAP 
 520:Generated_Source\PSoC4/BLE.c ****                                          Central device
 521:Generated_Source\PSoC4/BLE.c ****      * CYBLE_EVT_TIMEOUT: If no device in GAP Central mode connects to this 
 522:Generated_Source\PSoC4/BLE.c ****                           device within the specified timeout limit. Stack 
 523:Generated_Source\PSoC4/BLE.c ****                           automatically initiate stop advertising when Slow 
 524:Generated_Source\PSoC4/BLE.c ****                           advertising was initiated, or starts Slow advertising
 525:Generated_Source\PSoC4/BLE.c ****                           after Fast advertising timeout occur.
 526:Generated_Source\PSoC4/BLE.c ****      * CYBLE_EVT_GAPP_ADVERTISEMENT_START_STOP: If device started or stopped
 527:Generated_Source\PSoC4/BLE.c ****                                                   advertising. Use CyBle_GetState()
 528:Generated_Source\PSoC4/BLE.c ****                                                   to determine the state. Sequential 
 529:Generated_Source\PSoC4/BLE.c ****                                                   advertising could be started when
 530:Generated_Source\PSoC4/BLE.c ****                                                   CYBLE_STATE_DISCONNECTED state is
 531:Generated_Source\PSoC4/BLE.c ****                                                   returned.
 532:Generated_Source\PSoC4/BLE.c **** 
 533:Generated_Source\PSoC4/BLE.c ****     Parameters:
 534:Generated_Source\PSoC4/BLE.c ****      uint8 advertisingIntervalType: Fast or slow advertising interval with timings
 535:Generated_Source\PSoC4/BLE.c ****                                     entered in Advertising settings section of the
 536:Generated_Source\PSoC4/BLE.c ****                                     customizer.
 537:Generated_Source\PSoC4/BLE.c ****      * CYBLE_ADVERTISING_FAST   0x00u
 538:Generated_Source\PSoC4/BLE.c ****      * CYBLE_ADVERTISING_SLOW   0x01u
 539:Generated_Source\PSoC4/BLE.c ****      * CYBLE_ADVERTISING_CUSTOM 0x02u
 540:Generated_Source\PSoC4/BLE.c ****     
ARM GAS  C:\Users\TTSS\AppData\Local\Temp\ccIJVLm2.s 			page 17


 541:Generated_Source\PSoC4/BLE.c ****     Return:
 542:Generated_Source\PSoC4/BLE.c ****      CYBLE_API_RESULT_T : Return value indicates if the function succeeded or
 543:Generated_Source\PSoC4/BLE.c ****      failed. Following are the possible error codes.
 544:Generated_Source\PSoC4/BLE.c ****      <table>
 545:Generated_Source\PSoC4/BLE.c ****       Errors codes                        Description
 546:Generated_Source\PSoC4/BLE.c ****       ------------                        -----------
 547:Generated_Source\PSoC4/BLE.c ****       CYBLE_ERROR_OK                      On successful operation.
 548:Generated_Source\PSoC4/BLE.c ****       CYBLE_ERROR_INVALID_PARAMETER       On passing an invalid parameter.
 549:Generated_Source\PSoC4/BLE.c ****       CYBLE_ERROR_INVALID_STATE           On calling this API not in 
 550:Generated_Source\PSoC4/BLE.c ****                                           Disconnected state.
 551:Generated_Source\PSoC4/BLE.c ****      </table>
 552:Generated_Source\PSoC4/BLE.c ****     
 553:Generated_Source\PSoC4/BLE.c ****     ******************************************************************************/
 554:Generated_Source\PSoC4/BLE.c ****     CYBLE_API_RESULT_T CyBle_GappStartAdvertisement(uint8 advertisingIntervalType)
 555:Generated_Source\PSoC4/BLE.c ****     {
 369              		.loc 1 555 0
 370              		.cfi_startproc
 371 0000 90B5     		push	{r4, r7, lr}
 372              		.cfi_def_cfa_offset 12
 373              		.cfi_offset 4, -12
 374              		.cfi_offset 7, -8
 375              		.cfi_offset 14, -4
 376 0002 85B0     		sub	sp, sp, #20
 377              		.cfi_def_cfa_offset 32
 378 0004 00AF     		add	r7, sp, #0
 379              		.cfi_def_cfa_register 7
 380 0006 021C     		mov	r2, r0
 381 0008 FB1D     		add	r3, r7, #7
 382 000a 1A70     		strb	r2, [r3]
 556:Generated_Source\PSoC4/BLE.c ****         CYBLE_API_RESULT_T apiResult;
 557:Generated_Source\PSoC4/BLE.c ****         
 558:Generated_Source\PSoC4/BLE.c ****         if(advertisingIntervalType > CYBLE_ADVERTISING_CUSTOM)
 383              		.loc 1 558 0
 384 000c FB1D     		add	r3, r7, #7
 385 000e 1B78     		ldrb	r3, [r3]
 386 0010 022B     		cmp	r3, #2
 387 0012 04D9     		bls	.L16
 559:Generated_Source\PSoC4/BLE.c ****         {
 560:Generated_Source\PSoC4/BLE.c ****             apiResult = CYBLE_ERROR_INVALID_PARAMETER;
 388              		.loc 1 560 0
 389 0014 0E23     		mov	r3, #14
 390 0016 FB18     		add	r3, r7, r3
 391 0018 0122     		mov	r2, #1
 392 001a 1A80     		strh	r2, [r3]
 393 001c 4DE0     		b	.L17
 394              	.L16:
 561:Generated_Source\PSoC4/BLE.c ****         }
 562:Generated_Source\PSoC4/BLE.c ****         else if((CYBLE_STATE_DISCONNECTED == CyBle_GetState()) && ((cyBle_eventHandlerFlag & CYBLE_
 395              		.loc 1 562 0
 396 001e 2A4B     		ldr	r3, .L23
 397 0020 1B78     		ldrb	r3, [r3]
 398 0022 042B     		cmp	r3, #4
 399 0024 44D1     		bne	.L18
 400              		.loc 1 562 0 is_stmt 0 discriminator 1
 401 0026 294B     		ldr	r3, .L23+4
 402 0028 1B78     		ldrb	r3, [r3]
 403 002a DBB2     		uxtb	r3, r3
ARM GAS  C:\Users\TTSS\AppData\Local\Temp\ccIJVLm2.s 			page 18


 404 002c 1A1C     		mov	r2, r3
 405 002e 0423     		mov	r3, #4
 406 0030 1340     		and	r3, r2
 407 0032 3DD1     		bne	.L18
 563:Generated_Source\PSoC4/BLE.c ****         {   
 564:Generated_Source\PSoC4/BLE.c ****             if(advertisingIntervalType == CYBLE_ADVERTISING_FAST)
 408              		.loc 1 564 0 is_stmt 1
 409 0034 FB1D     		add	r3, r7, #7
 410 0036 1B78     		ldrb	r3, [r3]
 411 0038 002B     		cmp	r3, #0
 412 003a 0DD1     		bne	.L19
 565:Generated_Source\PSoC4/BLE.c ****             {
 566:Generated_Source\PSoC4/BLE.c ****                 cyBle_discoveryModeInfo.advTo = CYBLE_FAST_ADV_TIMEOUT;
 413              		.loc 1 566 0
 414 003c 244B     		ldr	r3, .L23+8
 415 003e 0022     		mov	r2, #0
 416 0040 1A82     		strh	r2, [r3, #16]
 567:Generated_Source\PSoC4/BLE.c ****                 cyBle_discoveryModeInfo.advParam->advIntvMin = CYBLE_FAST_ADV_INT_MIN;
 417              		.loc 1 567 0
 418 0042 234B     		ldr	r3, .L23+8
 419 0044 5B68     		ldr	r3, [r3, #4]
 420 0046 C822     		mov	r2, #200
 421 0048 D200     		lsl	r2, r2, #3
 422 004a 1A80     		strh	r2, [r3]
 568:Generated_Source\PSoC4/BLE.c ****                 cyBle_discoveryModeInfo.advParam->advIntvMax = CYBLE_FAST_ADV_INT_MAX;
 423              		.loc 1 568 0
 424 004c 204B     		ldr	r3, .L23+8
 425 004e 5B68     		ldr	r3, [r3, #4]
 426 0050 C822     		mov	r2, #200
 427 0052 D200     		lsl	r2, r2, #3
 428 0054 5A80     		strh	r2, [r3, #2]
 429 0056 10E0     		b	.L20
 430              	.L19:
 569:Generated_Source\PSoC4/BLE.c ****             }
 570:Generated_Source\PSoC4/BLE.c ****             else if(advertisingIntervalType == CYBLE_ADVERTISING_SLOW)
 431              		.loc 1 570 0
 432 0058 FB1D     		add	r3, r7, #7
 433 005a 1B78     		ldrb	r3, [r3]
 434 005c 012B     		cmp	r3, #1
 435 005e 0CD1     		bne	.L20
 571:Generated_Source\PSoC4/BLE.c ****             {
 572:Generated_Source\PSoC4/BLE.c ****                 cyBle_discoveryModeInfo.advTo = CYBLE_SLOW_ADV_TIMEOUT;
 436              		.loc 1 572 0
 437 0060 1B4B     		ldr	r3, .L23+8
 438 0062 9622     		mov	r2, #150
 439 0064 1A82     		strh	r2, [r3, #16]
 573:Generated_Source\PSoC4/BLE.c ****                 cyBle_discoveryModeInfo.advParam->advIntvMin = CYBLE_SLOW_ADV_INT_MIN;
 440              		.loc 1 573 0
 441 0066 1A4B     		ldr	r3, .L23+8
 442 0068 5B68     		ldr	r3, [r3, #4]
 443 006a C822     		mov	r2, #200
 444 006c D200     		lsl	r2, r2, #3
 445 006e 1A80     		strh	r2, [r3]
 574:Generated_Source\PSoC4/BLE.c ****                 cyBle_discoveryModeInfo.advParam->advIntvMax = CYBLE_SLOW_ADV_INT_MAX;
 446              		.loc 1 574 0
 447 0070 174B     		ldr	r3, .L23+8
 448 0072 5B68     		ldr	r3, [r3, #4]
ARM GAS  C:\Users\TTSS\AppData\Local\Temp\ccIJVLm2.s 			page 19


 449 0074 8022     		mov	r2, #128
 450 0076 D201     		lsl	r2, r2, #7
 451 0078 5A80     		strh	r2, [r3, #2]
 452              	.L20:
 575:Generated_Source\PSoC4/BLE.c ****             }       
 576:Generated_Source\PSoC4/BLE.c ****             else /* Do not update advertising intervals */
 577:Generated_Source\PSoC4/BLE.c ****             {
 578:Generated_Source\PSoC4/BLE.c ****             }
 579:Generated_Source\PSoC4/BLE.c ****             cyBle_advertisingIntervalType = advertisingIntervalType;
 453              		.loc 1 579 0
 454 007a 164B     		ldr	r3, .L23+12
 455 007c FA1D     		add	r2, r7, #7
 456 007e 1278     		ldrb	r2, [r2]
 457 0080 1A70     		strb	r2, [r3]
 580:Generated_Source\PSoC4/BLE.c ****             apiResult = CyBle_GappEnterDiscoveryMode(&cyBle_discoveryModeInfo);
 458              		.loc 1 580 0
 459 0082 0E23     		mov	r3, #14
 460 0084 FC18     		add	r4, r7, r3
 461 0086 124B     		ldr	r3, .L23+8
 462 0088 181C     		mov	r0, r3
 463 008a FFF7FEFF 		bl	CyBle_GappEnterDiscoveryMode
 464 008e 031C     		mov	r3, r0
 465 0090 2380     		strh	r3, [r4]
 581:Generated_Source\PSoC4/BLE.c ****         
 582:Generated_Source\PSoC4/BLE.c ****             if(CYBLE_ERROR_OK == apiResult)
 466              		.loc 1 582 0
 467 0092 0E23     		mov	r3, #14
 468 0094 FB18     		add	r3, r7, r3
 469 0096 1B88     		ldrh	r3, [r3]
 470 0098 002B     		cmp	r3, #0
 471 009a 08D1     		bne	.L21
 583:Generated_Source\PSoC4/BLE.c ****             {
 584:Generated_Source\PSoC4/BLE.c ****                 cyBle_eventHandlerFlag |= CYBLE_START_FLAG;
 472              		.loc 1 584 0
 473 009c 0B4B     		ldr	r3, .L23+4
 474 009e 1B78     		ldrb	r3, [r3]
 475 00a0 DBB2     		uxtb	r3, r3
 476 00a2 0422     		mov	r2, #4
 477 00a4 1343     		orr	r3, r2
 478 00a6 DAB2     		uxtb	r2, r3
 479 00a8 084B     		ldr	r3, .L23+4
 480 00aa 1A70     		strb	r2, [r3]
 582:Generated_Source\PSoC4/BLE.c ****             {
 481              		.loc 1 582 0
 482 00ac 05E0     		b	.L17
 483              	.L21:
 484 00ae 04E0     		b	.L17
 485              	.L18:
 585:Generated_Source\PSoC4/BLE.c ****             }
 586:Generated_Source\PSoC4/BLE.c ****         }
 587:Generated_Source\PSoC4/BLE.c ****         else
 588:Generated_Source\PSoC4/BLE.c ****         {
 589:Generated_Source\PSoC4/BLE.c ****             apiResult = CYBLE_ERROR_INVALID_STATE;
 486              		.loc 1 589 0
 487 00b0 0E23     		mov	r3, #14
 488 00b2 FB18     		add	r3, r7, r3
 489 00b4 0422     		mov	r2, #4
ARM GAS  C:\Users\TTSS\AppData\Local\Temp\ccIJVLm2.s 			page 20


 490 00b6 FF32     		add	r2, r2, #255
 491 00b8 1A80     		strh	r2, [r3]
 492              	.L17:
 590:Generated_Source\PSoC4/BLE.c ****         }
 591:Generated_Source\PSoC4/BLE.c **** 
 592:Generated_Source\PSoC4/BLE.c ****         return (apiResult);
 493              		.loc 1 592 0
 494 00ba 0E23     		mov	r3, #14
 495 00bc FB18     		add	r3, r7, r3
 496 00be 1B88     		ldrh	r3, [r3]
 593:Generated_Source\PSoC4/BLE.c ****     }
 497              		.loc 1 593 0
 498 00c0 181C     		mov	r0, r3
 499 00c2 BD46     		mov	sp, r7
 500 00c4 05B0     		add	sp, sp, #20
 501              		@ sp needed
 502 00c6 90BD     		pop	{r4, r7, pc}
 503              	.L24:
 504              		.align	2
 505              	.L23:
 506 00c8 00000000 		.word	cyBle_state
 507 00cc 00000000 		.word	cyBle_eventHandlerFlag
 508 00d0 00000000 		.word	cyBle_discoveryModeInfo
 509 00d4 00000000 		.word	cyBle_advertisingIntervalType
 510              		.cfi_endproc
 511              	.LFE6:
 512              		.size	CyBle_GappStartAdvertisement, .-CyBle_GappStartAdvertisement
 513              		.section	.text.CyBle_GappStopAdvertisement,"ax",%progbits
 514              		.align	2
 515              		.global	CyBle_GappStopAdvertisement
 516              		.code	16
 517              		.thumb_func
 518              		.type	CyBle_GappStopAdvertisement, %function
 519              	CyBle_GappStopAdvertisement:
 520              	.LFB7:
 594:Generated_Source\PSoC4/BLE.c **** 
 595:Generated_Source\PSoC4/BLE.c ****     
 596:Generated_Source\PSoC4/BLE.c ****     /******************************************************************************
 597:Generated_Source\PSoC4/BLE.c ****     ##Function Name: CyBle_GappStopAdvertisement
 598:Generated_Source\PSoC4/BLE.c ****     *******************************************************************************
 599:Generated_Source\PSoC4/BLE.c ****     
 600:Generated_Source\PSoC4/BLE.c ****      Summary:
 601:Generated_Source\PSoC4/BLE.c ****       This function can be used to exit from discovery mode. After the execution 
 602:Generated_Source\PSoC4/BLE.c ****       of this function, there will no longer be any advertisements. On stopping 
 603:Generated_Source\PSoC4/BLE.c ****       advertising, GAP Peripheral receives CYBLE_EVT_GAPP_ADVERTISEMENT_START_STOP
 604:Generated_Source\PSoC4/BLE.c ****       event. It is expected that the application layer tracks the function call 
 605:Generated_Source\PSoC4/BLE.c ****       performed before occurrence of this event as this event can occur on making 
 606:Generated_Source\PSoC4/BLE.c ****       a call to Cy_BleGappStartAdvertisement(), CyBle_GappEnterDiscoveryMode(), 
 607:Generated_Source\PSoC4/BLE.c ****       or CyBle_GappStartAdvertisement() functions as well.
 608:Generated_Source\PSoC4/BLE.c ****       
 609:Generated_Source\PSoC4/BLE.c ****       The following event occurs on invoking this function:
 610:Generated_Source\PSoC4/BLE.c ****       * CYBLE_EVT_GAPP_ADVERTISEMENT_START_STOP
 611:Generated_Source\PSoC4/BLE.c ****     
 612:Generated_Source\PSoC4/BLE.c ****      Parameters:
 613:Generated_Source\PSoC4/BLE.c ****       None
 614:Generated_Source\PSoC4/BLE.c ****     
 615:Generated_Source\PSoC4/BLE.c ****      Return:
ARM GAS  C:\Users\TTSS\AppData\Local\Temp\ccIJVLm2.s 			page 21


 616:Generated_Source\PSoC4/BLE.c ****       None
 617:Generated_Source\PSoC4/BLE.c ****     
 618:Generated_Source\PSoC4/BLE.c ****     ******************************************************************************/
 619:Generated_Source\PSoC4/BLE.c ****     void CyBle_GappStopAdvertisement(void)
 620:Generated_Source\PSoC4/BLE.c ****     {
 521              		.loc 1 620 0
 522              		.cfi_startproc
 523 0000 80B5     		push	{r7, lr}
 524              		.cfi_def_cfa_offset 8
 525              		.cfi_offset 7, -8
 526              		.cfi_offset 14, -4
 527 0002 00AF     		add	r7, sp, #0
 528              		.cfi_def_cfa_register 7
 621:Generated_Source\PSoC4/BLE.c ****         CyBle_GappExitDiscoveryMode();
 529              		.loc 1 621 0
 530 0004 FFF7FEFF 		bl	CyBle_GappExitDiscoveryMode
 622:Generated_Source\PSoC4/BLE.c ****         cyBle_eventHandlerFlag |= CYBLE_STOP_FLAG;
 531              		.loc 1 622 0
 532 0008 044B     		ldr	r3, .L26
 533 000a 1B78     		ldrb	r3, [r3]
 534 000c DBB2     		uxtb	r3, r3
 535 000e 0822     		mov	r2, #8
 536 0010 1343     		orr	r3, r2
 537 0012 DAB2     		uxtb	r2, r3
 538 0014 014B     		ldr	r3, .L26
 539 0016 1A70     		strb	r2, [r3]
 623:Generated_Source\PSoC4/BLE.c ****     }
 540              		.loc 1 623 0
 541 0018 BD46     		mov	sp, r7
 542              		@ sp needed
 543 001a 80BD     		pop	{r7, pc}
 544              	.L27:
 545              		.align	2
 546              	.L26:
 547 001c 00000000 		.word	cyBle_eventHandlerFlag
 548              		.cfi_endproc
 549              	.LFE7:
 550              		.size	CyBle_GappStopAdvertisement, .-CyBle_GappStopAdvertisement
 551              		.section	.text.CyBle_ChangeAdDeviceAddress,"ax",%progbits
 552              		.align	2
 553              		.global	CyBle_ChangeAdDeviceAddress
 554              		.code	16
 555              		.thumb_func
 556              		.type	CyBle_ChangeAdDeviceAddress, %function
 557              	CyBle_ChangeAdDeviceAddress:
 558              	.LFB8:
 624:Generated_Source\PSoC4/BLE.c ****     
 625:Generated_Source\PSoC4/BLE.c ****     
 626:Generated_Source\PSoC4/BLE.c ****     /******************************************************************************
 627:Generated_Source\PSoC4/BLE.c ****     ##Function Name: CyBle_ChangeAdDeviceAddress
 628:Generated_Source\PSoC4/BLE.c ****     *******************************************************************************
 629:Generated_Source\PSoC4/BLE.c **** 
 630:Generated_Source\PSoC4/BLE.c ****     Summary:
 631:Generated_Source\PSoC4/BLE.c ****      This API is used to set the Bluetooth device address into the advertisement 
 632:Generated_Source\PSoC4/BLE.c ****      or scan response data structure.
 633:Generated_Source\PSoC4/BLE.c **** 
 634:Generated_Source\PSoC4/BLE.c ****     Parameters:
ARM GAS  C:\Users\TTSS\AppData\Local\Temp\ccIJVLm2.s 			page 22


 635:Generated_Source\PSoC4/BLE.c ****      bdAddr: Bluetooth Device address. The variable is of type CYBLE_GAP_BD_ADDR_T
 636:Generated_Source\PSoC4/BLE.c ****      uint8 dest: 0 - avrevtisement structure, not zero value selects scan response
 637:Generated_Source\PSoC4/BLE.c ****                  structure.
 638:Generated_Source\PSoC4/BLE.c **** 
 639:Generated_Source\PSoC4/BLE.c ****     Return:
 640:Generated_Source\PSoC4/BLE.c ****      None
 641:Generated_Source\PSoC4/BLE.c ****  
 642:Generated_Source\PSoC4/BLE.c ****     ******************************************************************************/
 643:Generated_Source\PSoC4/BLE.c ****     void CyBle_ChangeAdDeviceAddress(const CYBLE_GAP_BD_ADDR_T* bdAddr, uint8 dest)
 644:Generated_Source\PSoC4/BLE.c ****     {
 559              		.loc 1 644 0
 560              		.cfi_startproc
 561 0000 80B5     		push	{r7, lr}
 562              		.cfi_def_cfa_offset 8
 563              		.cfi_offset 7, -8
 564              		.cfi_offset 14, -4
 565 0002 84B0     		sub	sp, sp, #16
 566              		.cfi_def_cfa_offset 24
 567 0004 00AF     		add	r7, sp, #0
 568              		.cfi_def_cfa_register 7
 569 0006 7860     		str	r0, [r7, #4]
 570 0008 0A1C     		mov	r2, r1
 571 000a FB1C     		add	r3, r7, #3
 572 000c 1A70     		strb	r2, [r3]
 645:Generated_Source\PSoC4/BLE.c ****         uint8 i;
 646:Generated_Source\PSoC4/BLE.c ****         uint8 *destBuffer = NULL;
 573              		.loc 1 646 0
 574 000e 0023     		mov	r3, #0
 575 0010 BB60     		str	r3, [r7, #8]
 647:Generated_Source\PSoC4/BLE.c ****         
 648:Generated_Source\PSoC4/BLE.c ****         if(dest == 0u)      /* Destination - advertising structure */
 649:Generated_Source\PSoC4/BLE.c ****         {
 650:Generated_Source\PSoC4/BLE.c ****             #ifdef CYBLE_ADV_PKT_INDEX_BLUETOOTH_DEVICE_ADDRESS
 651:Generated_Source\PSoC4/BLE.c ****                 destBuffer = &cyBle_discoveryData.advData[CYBLE_ADV_PKT_INDEX_BLUETOOTH_DEVICE_ADDR
 652:Generated_Source\PSoC4/BLE.c ****             #endif /* CYBLE_ADV_PKT_INDEX_BLUETOOTH_DEVICE_ADDRESS */
 653:Generated_Source\PSoC4/BLE.c ****         }
 654:Generated_Source\PSoC4/BLE.c ****         else                /* Destination - scan response structure */
 655:Generated_Source\PSoC4/BLE.c ****         {
 656:Generated_Source\PSoC4/BLE.c ****             #ifdef CYBLE_SCN_PKT_INDEX_BLUETOOTH_DEVICE_ADDRESS
 657:Generated_Source\PSoC4/BLE.c ****                 destBuffer = &cyBle_scanRspData.scanRspData[CYBLE_SCN_PKT_INDEX_BLUETOOTH_DEVICE_AD
 658:Generated_Source\PSoC4/BLE.c ****             #endif /* CYBLE_SCN_PKT_INDEX_BLUETOOTH_DEVICE_ADDRESS */    
 659:Generated_Source\PSoC4/BLE.c ****         }
 660:Generated_Source\PSoC4/BLE.c ****         
 661:Generated_Source\PSoC4/BLE.c ****         if(destBuffer != NULL)
 576              		.loc 1 661 0
 577 0012 BB68     		ldr	r3, [r7, #8]
 578 0014 002B     		cmp	r3, #0
 579 0016 20D0     		beq	.L28
 662:Generated_Source\PSoC4/BLE.c ****         {
 663:Generated_Source\PSoC4/BLE.c ****             /* Update Device Address type */
 664:Generated_Source\PSoC4/BLE.c ****             destBuffer[0u] = bdAddr->type;
 580              		.loc 1 664 0
 581 0018 7B68     		ldr	r3, [r7, #4]
 582 001a 9A79     		ldrb	r2, [r3, #6]
 583 001c BB68     		ldr	r3, [r7, #8]
 584 001e 1A70     		strb	r2, [r3]
 665:Generated_Source\PSoC4/BLE.c ****             
ARM GAS  C:\Users\TTSS\AppData\Local\Temp\ccIJVLm2.s 			page 23


 666:Generated_Source\PSoC4/BLE.c ****             for(i = 0; i < CYBLE_GAP_BD_ADDR_SIZE; i++)
 585              		.loc 1 666 0
 586 0020 0F23     		mov	r3, #15
 587 0022 FB18     		add	r3, r7, r3
 588 0024 0022     		mov	r2, #0
 589 0026 1A70     		strb	r2, [r3]
 590 0028 12E0     		b	.L30
 591              	.L31:
 667:Generated_Source\PSoC4/BLE.c ****             {
 668:Generated_Source\PSoC4/BLE.c ****                 destBuffer[i + 1u] = bdAddr->bdAddr[i];
 592              		.loc 1 668 0 discriminator 3
 593 002a 0F23     		mov	r3, #15
 594 002c FB18     		add	r3, r7, r3
 595 002e 1B78     		ldrb	r3, [r3]
 596 0030 0133     		add	r3, r3, #1
 597 0032 BA68     		ldr	r2, [r7, #8]
 598 0034 D318     		add	r3, r2, r3
 599 0036 0F22     		mov	r2, #15
 600 0038 BA18     		add	r2, r7, r2
 601 003a 1278     		ldrb	r2, [r2]
 602 003c 7968     		ldr	r1, [r7, #4]
 603 003e 8A5C     		ldrb	r2, [r1, r2]
 604 0040 1A70     		strb	r2, [r3]
 666:Generated_Source\PSoC4/BLE.c ****             {
 605              		.loc 1 666 0 discriminator 3
 606 0042 0F23     		mov	r3, #15
 607 0044 FB18     		add	r3, r7, r3
 608 0046 1A78     		ldrb	r2, [r3]
 609 0048 0F23     		mov	r3, #15
 610 004a FB18     		add	r3, r7, r3
 611 004c 0132     		add	r2, r2, #1
 612 004e 1A70     		strb	r2, [r3]
 613              	.L30:
 666:Generated_Source\PSoC4/BLE.c ****             {
 614              		.loc 1 666 0 is_stmt 0 discriminator 1
 615 0050 0F23     		mov	r3, #15
 616 0052 FB18     		add	r3, r7, r3
 617 0054 1B78     		ldrb	r3, [r3]
 618 0056 052B     		cmp	r3, #5
 619 0058 E7D9     		bls	.L31
 620              	.L28:
 669:Generated_Source\PSoC4/BLE.c ****             }
 670:Generated_Source\PSoC4/BLE.c ****         }
 671:Generated_Source\PSoC4/BLE.c ****     }
 621              		.loc 1 671 0 is_stmt 1
 622 005a BD46     		mov	sp, r7
 623 005c 04B0     		add	sp, sp, #16
 624              		@ sp needed
 625 005e 80BD     		pop	{r7, pc}
 626              		.cfi_endproc
 627              	.LFE8:
 628              		.size	CyBle_ChangeAdDeviceAddress, .-CyBle_ChangeAdDeviceAddress
 629              		.section	.text.CyBle_GapSetLocalName,"ax",%progbits
 630              		.align	2
 631              		.global	CyBle_GapSetLocalName
 632              		.code	16
 633              		.thumb_func
ARM GAS  C:\Users\TTSS\AppData\Local\Temp\ccIJVLm2.s 			page 24


 634              		.type	CyBle_GapSetLocalName, %function
 635              	CyBle_GapSetLocalName:
 636              	.LFB9:
 672:Generated_Source\PSoC4/BLE.c ****   
 673:Generated_Source\PSoC4/BLE.c **** #endif /* CYBLE_GAP_ROLE_PERIPHERAL || CYBLE_GAP_ROLE_BROADCASTER */
 674:Generated_Source\PSoC4/BLE.c **** 
 675:Generated_Source\PSoC4/BLE.c **** 
 676:Generated_Source\PSoC4/BLE.c **** #if(CYBLE_GAP_ROLE_CENTRAL || CYBLE_GAP_ROLE_OBSERVER)
 677:Generated_Source\PSoC4/BLE.c **** 
 678:Generated_Source\PSoC4/BLE.c ****     /******************************************************************************
 679:Generated_Source\PSoC4/BLE.c ****     ##Function Name: CyBle_GapcStartScan
 680:Generated_Source\PSoC4/BLE.c ****     *******************************************************************************
 681:Generated_Source\PSoC4/BLE.c ****     
 682:Generated_Source\PSoC4/BLE.c ****      Summary:
 683:Generated_Source\PSoC4/BLE.c ****       This function is used for discovering GAP peripheral devices that are 
 684:Generated_Source\PSoC4/BLE.c ****       available for connection. It performs the scanning routine using the 
 685:Generated_Source\PSoC4/BLE.c ****       parameters entered in the component's customizer.
 686:Generated_Source\PSoC4/BLE.c ****       
 687:Generated_Source\PSoC4/BLE.c ****       As soon as the discovery operation starts, CYBLE_EVT_GAPC_SCAN_START_STOP 
 688:Generated_Source\PSoC4/BLE.c ****       event is generated. The CYBLE_EVT_GAPC_SCAN_PROGRESS_RESULT event is 
 689:Generated_Source\PSoC4/BLE.c ****       generated when a GAP peripheral device is located. There are three discovery
 690:Generated_Source\PSoC4/BLE.c ****       procedures can be selected in the customizer's GUI:
 691:Generated_Source\PSoC4/BLE.c ****       
 692:Generated_Source\PSoC4/BLE.c ****       * Observation procedure: A device performing the observer role receives only
 693:Generated_Source\PSoC4/BLE.c ****                                advertisement data from devices irrespective of 
 694:Generated_Source\PSoC4/BLE.c ****                                their discoverable mode settings. Advertisement 
 695:Generated_Source\PSoC4/BLE.c ****                                data received is provided by the event,      
 696:Generated_Source\PSoC4/BLE.c ****                                CYBLE_EVT_GAPC_SCAN_PROGRESS_RESULT. This procedure
 697:Generated_Source\PSoC4/BLE.c ****                                requires the scanType sub parameter to be passive
 698:Generated_Source\PSoC4/BLE.c ****                                scanning. 
 699:Generated_Source\PSoC4/BLE.c ****       
 700:Generated_Source\PSoC4/BLE.c ****       * Limited Discovery procedure: A device performing the limited discovery
 701:Generated_Source\PSoC4/BLE.c ****                                      procedure receives advertisement data and 
 702:Generated_Source\PSoC4/BLE.c ****                                      scan# response data from devices in the 
 703:Generated_Source\PSoC4/BLE.c ****                                      limited discoverable mode only. Received data
 704:Generated_Source\PSoC4/BLE.c ****                                      is provided by the event, 
 705:Generated_Source\PSoC4/BLE.c ****                                      CYBLE_EVT_GAPC_SCAN_PROGRESS_RESULT. This 
 706:Generated_Source\PSoC4/BLE.c ****                                      procedure requires the scanType sub-parameter 
 707:Generated_Source\PSoC4/BLE.c ****                                      to be active scanning.
 708:Generated_Source\PSoC4/BLE.c ****       
 709:Generated_Source\PSoC4/BLE.c ****       * General Discovery procedure: A device performing the general discovery 
 710:Generated_Source\PSoC4/BLE.c ****                                      procedure receives the advertisement data and
 711:Generated_Source\PSoC4/BLE.c ****                                      scan response data from devices in both 
 712:Generated_Source\PSoC4/BLE.c ****                                      limited discoverable mode and the general 
 713:Generated_Source\PSoC4/BLE.c ****                                      discoverable mode. Received data is provided
 714:Generated_Source\PSoC4/BLE.c ****                                      by the event,
 715:Generated_Source\PSoC4/BLE.c ****                                      CYBLE_EVT_GAPC_SCAN_PROGRESS_RESULT. This 
 716:Generated_Source\PSoC4/BLE.c ****                                      procedure requires the scanType sub-parameter
 717:Generated_Source\PSoC4/BLE.c ****                                      to be active scanning.
 718:Generated_Source\PSoC4/BLE.c ****       
 719:Generated_Source\PSoC4/BLE.c ****       Every Advertisement / Scan response packet received results in a new event, 
 720:Generated_Source\PSoC4/BLE.c ****       CYBLE_EVT_GAPC_SCAN_PROGRESS_RESULT.
 721:Generated_Source\PSoC4/BLE.c ****       If 'scanTo' sub-parameter is a non-zero value, then upon commencement of 
 722:Generated_Source\PSoC4/BLE.c ****       discovery procedure and elapsed time = 'scanTo', CYBLE_EVT_TIMEOUT event
 723:Generated_Source\PSoC4/BLE.c ****       is generated with the event parameter indicating CYBLE_GAP_SCAN_TO.
 724:Generated_Source\PSoC4/BLE.c ****       Possible generated events are:
 725:Generated_Source\PSoC4/BLE.c ****       * CYBLE_EVT_GAPC_SCAN_START_STOP: If a device started or stopped scanning. 
ARM GAS  C:\Users\TTSS\AppData\Local\Temp\ccIJVLm2.s 			page 25


 726:Generated_Source\PSoC4/BLE.c ****                                         Use CyBle_GetState() to determine the 
 727:Generated_Source\PSoC4/BLE.c ****                                         state. Sequential scanning could be 
 728:Generated_Source\PSoC4/BLE.c ****                                         started when CYBLE_STATE_DISCONNECTED 
 729:Generated_Source\PSoC4/BLE.c ****                                         state is returned. 
 730:Generated_Source\PSoC4/BLE.c ****       * CYBLE_EVT_GAPC_SCAN_PROGRESS_RESULT 
 731:Generated_Source\PSoC4/BLE.c ****       * CYBLE_EVT_TIMEOUT (CYBLE_GAP_SCAN_TO)
 732:Generated_Source\PSoC4/BLE.c ****     
 733:Generated_Source\PSoC4/BLE.c ****      Parameters:
 734:Generated_Source\PSoC4/BLE.c ****       uint8 scanningIntervalType:  Fast or slow scanning interval with
 735:Generated_Source\PSoC4/BLE.c ****           timings entered in Scan settings section of the customiser.
 736:Generated_Source\PSoC4/BLE.c ****     	  * CYBLE_SCANNING_FAST   0x00u
 737:Generated_Source\PSoC4/BLE.c ****     	  * CYBLE_SCANNING_SLOW   0x01u
 738:Generated_Source\PSoC4/BLE.c ****     	  * CYBLE_SCANNING_CUSTOM 0x02u
 739:Generated_Source\PSoC4/BLE.c ****     
 740:Generated_Source\PSoC4/BLE.c ****     Return:
 741:Generated_Source\PSoC4/BLE.c ****      CYBLE_API_RESULT_T : Return value indicates if the function succeeded or
 742:Generated_Source\PSoC4/BLE.c ****      failed. Following are the possible error codes.
 743:Generated_Source\PSoC4/BLE.c ****      <table>
 744:Generated_Source\PSoC4/BLE.c ****       Errors codes                        Description
 745:Generated_Source\PSoC4/BLE.c ****       ------------                        -----------
 746:Generated_Source\PSoC4/BLE.c ****       CYBLE_ERROR_OK                      On successful operation.
 747:Generated_Source\PSoC4/BLE.c ****       CYBLE_ERROR_STACK_INTERNAL          An error occurred in the BLE stack.
 748:Generated_Source\PSoC4/BLE.c ****       CYBLE_ERROR_INVALID_PARAMETER       On passing an invalid parameter.
 749:Generated_Source\PSoC4/BLE.c ****      </table>
 750:Generated_Source\PSoC4/BLE.c ****      
 751:Generated_Source\PSoC4/BLE.c ****     ******************************************************************************/
 752:Generated_Source\PSoC4/BLE.c ****     CYBLE_API_RESULT_T CyBle_GapcStartScan(uint8 scanningIntervalType)
 753:Generated_Source\PSoC4/BLE.c ****     {
 754:Generated_Source\PSoC4/BLE.c ****         CYBLE_API_RESULT_T apiResult;
 755:Generated_Source\PSoC4/BLE.c **** 
 756:Generated_Source\PSoC4/BLE.c ****         if(scanningIntervalType > CYBLE_SCANNING_CUSTOM)
 757:Generated_Source\PSoC4/BLE.c ****         {
 758:Generated_Source\PSoC4/BLE.c ****             apiResult = CYBLE_ERROR_INVALID_PARAMETER;
 759:Generated_Source\PSoC4/BLE.c ****         }
 760:Generated_Source\PSoC4/BLE.c ****         else
 761:Generated_Source\PSoC4/BLE.c ****         {
 762:Generated_Source\PSoC4/BLE.c ****             if(scanningIntervalType == CYBLE_SCANNING_FAST)
 763:Generated_Source\PSoC4/BLE.c ****             {
 764:Generated_Source\PSoC4/BLE.c ****                 cyBle_discoveryInfo.scanTo = CYBLE_FAST_SCAN_TIMEOUT;
 765:Generated_Source\PSoC4/BLE.c ****                 cyBle_discoveryInfo.scanIntv = CYBLE_FAST_SCAN_INTERVAL;
 766:Generated_Source\PSoC4/BLE.c ****                 cyBle_discoveryInfo.scanWindow = CYBLE_FAST_SCAN_WINDOW;
 767:Generated_Source\PSoC4/BLE.c ****             }
 768:Generated_Source\PSoC4/BLE.c ****             else if(scanningIntervalType == CYBLE_SCANNING_SLOW)
 769:Generated_Source\PSoC4/BLE.c ****             {
 770:Generated_Source\PSoC4/BLE.c ****                 cyBle_discoveryInfo.scanTo = CYBLE_SLOW_SCAN_TIMEOUT;
 771:Generated_Source\PSoC4/BLE.c ****                 cyBle_discoveryInfo.scanIntv = CYBLE_SLOW_SCAN_INTERVAL;
 772:Generated_Source\PSoC4/BLE.c ****                 cyBle_discoveryInfo.scanWindow = CYBLE_SLOW_SCAN_WINDOW;
 773:Generated_Source\PSoC4/BLE.c ****             }       
 774:Generated_Source\PSoC4/BLE.c ****             else /* Do not update scanning intervals */
 775:Generated_Source\PSoC4/BLE.c ****             {
 776:Generated_Source\PSoC4/BLE.c ****             }
 777:Generated_Source\PSoC4/BLE.c ****             
 778:Generated_Source\PSoC4/BLE.c ****             cyBle_scanningIntervalType = scanningIntervalType;
 779:Generated_Source\PSoC4/BLE.c ****             apiResult = CyBle_GapcStartDiscovery(&cyBle_discoveryInfo);
 780:Generated_Source\PSoC4/BLE.c ****         
 781:Generated_Source\PSoC4/BLE.c ****             if(CYBLE_ERROR_OK == apiResult)
 782:Generated_Source\PSoC4/BLE.c ****             {
ARM GAS  C:\Users\TTSS\AppData\Local\Temp\ccIJVLm2.s 			page 26


 783:Generated_Source\PSoC4/BLE.c ****                 cyBle_eventHandlerFlag |= CYBLE_START_FLAG;
 784:Generated_Source\PSoC4/BLE.c ****             }
 785:Generated_Source\PSoC4/BLE.c ****         }
 786:Generated_Source\PSoC4/BLE.c ****        
 787:Generated_Source\PSoC4/BLE.c ****         return (apiResult);
 788:Generated_Source\PSoC4/BLE.c ****     }
 789:Generated_Source\PSoC4/BLE.c ****     
 790:Generated_Source\PSoC4/BLE.c ****     
 791:Generated_Source\PSoC4/BLE.c ****     /******************************************************************************
 792:Generated_Source\PSoC4/BLE.c ****     ##Function Name: CyBle_GapcStopScan
 793:Generated_Source\PSoC4/BLE.c ****     *******************************************************************************
 794:Generated_Source\PSoC4/BLE.c ****     
 795:Generated_Source\PSoC4/BLE.c ****      Summary:
 796:Generated_Source\PSoC4/BLE.c ****       This function used to stop the discovery of devices. On stopping discovery
 797:Generated_Source\PSoC4/BLE.c ****       operation, CYBLE_EVT_GAPC_SCAN_START_STOP event is generated. Application
 798:Generated_Source\PSoC4/BLE.c ****       layer needs to keep track of the function call made before receiving this
 799:Generated_Source\PSoC4/BLE.c ****       event to associate this event with either the start or stop discovery
 800:Generated_Source\PSoC4/BLE.c ****       function.
 801:Generated_Source\PSoC4/BLE.c ****     
 802:Generated_Source\PSoC4/BLE.c ****       Possible events generated are:
 803:Generated_Source\PSoC4/BLE.c ****        * CYBLE_EVT_GAPC_SCAN_START_STOP
 804:Generated_Source\PSoC4/BLE.c ****     
 805:Generated_Source\PSoC4/BLE.c ****      Parameters:
 806:Generated_Source\PSoC4/BLE.c ****       None
 807:Generated_Source\PSoC4/BLE.c ****     
 808:Generated_Source\PSoC4/BLE.c ****      Return:
 809:Generated_Source\PSoC4/BLE.c ****       None
 810:Generated_Source\PSoC4/BLE.c ****     
 811:Generated_Source\PSoC4/BLE.c ****     ******************************************************************************/
 812:Generated_Source\PSoC4/BLE.c ****     void CyBle_GapcStopScan(void)
 813:Generated_Source\PSoC4/BLE.c ****     {
 814:Generated_Source\PSoC4/BLE.c ****         CyBle_GapcStopDiscovery();
 815:Generated_Source\PSoC4/BLE.c ****         
 816:Generated_Source\PSoC4/BLE.c ****         cyBle_eventHandlerFlag |= CYBLE_STOP_FLAG;
 817:Generated_Source\PSoC4/BLE.c ****     }
 818:Generated_Source\PSoC4/BLE.c **** 
 819:Generated_Source\PSoC4/BLE.c ****     
 820:Generated_Source\PSoC4/BLE.c **** #endif /* CYBLE_GAP_ROLE_CENTRAL || CYBLE_GAP_ROLE_OBSERVER */
 821:Generated_Source\PSoC4/BLE.c **** 
 822:Generated_Source\PSoC4/BLE.c **** 
 823:Generated_Source\PSoC4/BLE.c **** #if(CYBLE_GAP_ROLE_CENTRAL)
 824:Generated_Source\PSoC4/BLE.c **** 
 825:Generated_Source\PSoC4/BLE.c ****     /******************************************************************************
 826:Generated_Source\PSoC4/BLE.c ****     ##Function Name: CyBle_GapcConnectDevice
 827:Generated_Source\PSoC4/BLE.c ****     *******************************************************************************
 828:Generated_Source\PSoC4/BLE.c ****     
 829:Generated_Source\PSoC4/BLE.c ****     Summary:
 830:Generated_Source\PSoC4/BLE.c ****      This function is used to send a connection request to the remote device with
 831:Generated_Source\PSoC4/BLE.c ****      the connection parameters set in the component customizer. This function needs
 832:Generated_Source\PSoC4/BLE.c ****      to be called only once after the target device is discovered by 
 833:Generated_Source\PSoC4/BLE.c ****      CyBle_GapcStartScan() and further scanning has stopped. Scanning is 
 834:Generated_Source\PSoC4/BLE.c ****      successfully stopped on invoking CyBle_GapcStopScan() and then receiving the
 835:Generated_Source\PSoC4/BLE.c ****      event CYBLE_EVT_GAPC_SCAN_START_STOP with sub-parameter 'success' = 0x01u.
 836:Generated_Source\PSoC4/BLE.c ****      
 837:Generated_Source\PSoC4/BLE.c ****      On successful connection, the following events are generated at the GAP 
 838:Generated_Source\PSoC4/BLE.c ****      Central device (as well as the GAP Peripheral device), in the following order.
 839:Generated_Source\PSoC4/BLE.c ****      * CYBLE_EVT_GATT_CONNECT_IND
ARM GAS  C:\Users\TTSS\AppData\Local\Temp\ccIJVLm2.s 			page 27


 840:Generated_Source\PSoC4/BLE.c ****      * CYBLE_EVT_GAP_DEVICE_CONNECTED
 841:Generated_Source\PSoC4/BLE.c ****  
 842:Generated_Source\PSoC4/BLE.c ****      A procedure is considered to have timed out if a connection response packet is 
 843:Generated_Source\PSoC4/BLE.c ****      not received within time set by cyBle_connectingTimeout global variable
 844:Generated_Source\PSoC4/BLE.c ****      (30 seconds by default). CYBLE_EVT_TIMEOUT event with CYBLE_GENERIC_TO parameter
 845:Generated_Source\PSoC4/BLE.c ****      will indicate about connection procedure timeout. Connection will automatically
 846:Generated_Source\PSoC4/BLE.c ****      be cancelled and state will be changed to CYBLE_STATE_DISCONNECTED.
 847:Generated_Source\PSoC4/BLE.c ****     
 848:Generated_Source\PSoC4/BLE.c ****     Parameters:
 849:Generated_Source\PSoC4/BLE.c ****      const CYBLE_GAP_BD_ADDR_T address: The device address of the remote device to 
 850:Generated_Source\PSoC4/BLE.c ****                                         connect to. 
 851:Generated_Source\PSoC4/BLE.c ****      timeout: Timeout for which timer to be started in seconds.
 852:Generated_Source\PSoC4/BLE.c ****  
 853:Generated_Source\PSoC4/BLE.c ****     Return:
 854:Generated_Source\PSoC4/BLE.c ****      CYBLE_API_RESULT_T : Return value indicates if the function succeeded or 
 855:Generated_Source\PSoC4/BLE.c ****      failed. Following are the possible error codes.
 856:Generated_Source\PSoC4/BLE.c ****      <table>
 857:Generated_Source\PSoC4/BLE.c ****       Errors codes                        Description
 858:Generated_Source\PSoC4/BLE.c ****       ------------                        -----------
 859:Generated_Source\PSoC4/BLE.c ****       CYBLE_ERROR_OK                      On successful operation.
 860:Generated_Source\PSoC4/BLE.c ****       CYBLE_ERROR_STACK_INTERNAL          On error occurred in the BLE stack.
 861:Generated_Source\PSoC4/BLE.c ****       CYBLE_ERROR_INVALID_PARAMETER       On passing an invalid parameter.
 862:Generated_Source\PSoC4/BLE.c ****       CYBLE_ERROR_INVALID_STATE           On calling this API not in 
 863:Generated_Source\PSoC4/BLE.c ****                                           Disconnected state.
 864:Generated_Source\PSoC4/BLE.c ****      </table>
 865:Generated_Source\PSoC4/BLE.c ****  
 866:Generated_Source\PSoC4/BLE.c ****     ******************************************************************************/
 867:Generated_Source\PSoC4/BLE.c ****     CYBLE_API_RESULT_T CyBle_GapcConnectDevice(const CYBLE_GAP_BD_ADDR_T * address)
 868:Generated_Source\PSoC4/BLE.c ****     {
 869:Generated_Source\PSoC4/BLE.c ****         CYBLE_API_RESULT_T apiResult;
 870:Generated_Source\PSoC4/BLE.c ****         uint8 i;
 871:Generated_Source\PSoC4/BLE.c **** 
 872:Generated_Source\PSoC4/BLE.c ****         if(CYBLE_STATE_DISCONNECTED != CyBle_GetState())
 873:Generated_Source\PSoC4/BLE.c ****         {
 874:Generated_Source\PSoC4/BLE.c ****             apiResult = CYBLE_ERROR_INVALID_STATE;
 875:Generated_Source\PSoC4/BLE.c ****         }
 876:Generated_Source\PSoC4/BLE.c ****         else if(address == NULL)
 877:Generated_Source\PSoC4/BLE.c ****         {
 878:Generated_Source\PSoC4/BLE.c ****             apiResult = CYBLE_ERROR_INVALID_PARAMETER;
 879:Generated_Source\PSoC4/BLE.c ****         }
 880:Generated_Source\PSoC4/BLE.c ****         else
 881:Generated_Source\PSoC4/BLE.c ****         {
 882:Generated_Source\PSoC4/BLE.c ****             for(i = 0u; i < CYBLE_GAP_BD_ADDR_SIZE; i++)
 883:Generated_Source\PSoC4/BLE.c ****             {
 884:Generated_Source\PSoC4/BLE.c ****                 cyBle_connectionParameters.peerBdAddr[i] = address->bdAddr[i];
 885:Generated_Source\PSoC4/BLE.c ****             }
 886:Generated_Source\PSoC4/BLE.c ****             cyBle_connectionParameters.peerAddrType = address -> type;
 887:Generated_Source\PSoC4/BLE.c ****             apiResult = CyBle_GapcInitConnection(&cyBle_connectionParameters);
 888:Generated_Source\PSoC4/BLE.c ****             
 889:Generated_Source\PSoC4/BLE.c ****             if(CYBLE_ERROR_OK == apiResult)
 890:Generated_Source\PSoC4/BLE.c ****             {
 891:Generated_Source\PSoC4/BLE.c ****                 CyBle_SetState(CYBLE_STATE_CONNECTING);
 892:Generated_Source\PSoC4/BLE.c ****                 if(cyBle_connectingTimeout != 0u)
 893:Generated_Source\PSoC4/BLE.c ****                 {
 894:Generated_Source\PSoC4/BLE.c ****                     (void)CyBle_StartTimer(cyBle_connectingTimeout);
 895:Generated_Source\PSoC4/BLE.c ****                 }
 896:Generated_Source\PSoC4/BLE.c ****             }
ARM GAS  C:\Users\TTSS\AppData\Local\Temp\ccIJVLm2.s 			page 28


 897:Generated_Source\PSoC4/BLE.c ****         }
 898:Generated_Source\PSoC4/BLE.c ****         return (apiResult);
 899:Generated_Source\PSoC4/BLE.c ****     }
 900:Generated_Source\PSoC4/BLE.c ****     
 901:Generated_Source\PSoC4/BLE.c **** 
 902:Generated_Source\PSoC4/BLE.c ****     /******************************************************************************
 903:Generated_Source\PSoC4/BLE.c ****     ##Function Name: CyBle_GapcCancelDeviceConnection
 904:Generated_Source\PSoC4/BLE.c ****     *******************************************************************************
 905:Generated_Source\PSoC4/BLE.c ****     
 906:Generated_Source\PSoC4/BLE.c ****     Summary:
 907:Generated_Source\PSoC4/BLE.c ****      This function cancels a previously initiated connection with the remote 
 908:Generated_Source\PSoC4/BLE.c ****      device. It is a blocking function. No event is generated on calling this 
 909:Generated_Source\PSoC4/BLE.c ****      function. If the devices are already connected then this function should not
 910:Generated_Source\PSoC4/BLE.c ****      be used. If you intend to disconnect from an existing connection, the function
 911:Generated_Source\PSoC4/BLE.c ****      CyBle_GapDisconnect() should be used.
 912:Generated_Source\PSoC4/BLE.c **** 
 913:Generated_Source\PSoC4/BLE.c ****     Parameters:
 914:Generated_Source\PSoC4/BLE.c ****      None
 915:Generated_Source\PSoC4/BLE.c **** 
 916:Generated_Source\PSoC4/BLE.c ****     Return:
 917:Generated_Source\PSoC4/BLE.c ****      CYBLE_API_RESULT_T : Return value indicates if the function succeeded or 
 918:Generated_Source\PSoC4/BLE.c ****      failed. Following are the possible error codes.
 919:Generated_Source\PSoC4/BLE.c ****      <table>
 920:Generated_Source\PSoC4/BLE.c ****       Errors codes                        Description
 921:Generated_Source\PSoC4/BLE.c ****       ------------                        -----------
 922:Generated_Source\PSoC4/BLE.c ****       CYBLE_ERROR_OK                      On successful operation.
 923:Generated_Source\PSoC4/BLE.c ****       CYBLE_ERROR_STACK_INTERNAL          An error occurred in the 
 924:Generated_Source\PSoC4/BLE.c ****                                            BLE stack.
 925:Generated_Source\PSoC4/BLE.c ****       CYBLE_ERROR_INVALID_OPERATION       Device is already connected.
 926:Generated_Source\PSoC4/BLE.c ****      </table>
 927:Generated_Source\PSoC4/BLE.c ****  
 928:Generated_Source\PSoC4/BLE.c ****     ******************************************************************************/
 929:Generated_Source\PSoC4/BLE.c ****     CYBLE_API_RESULT_T CyBle_GapcCancelDeviceConnection(void)
 930:Generated_Source\PSoC4/BLE.c ****     {
 931:Generated_Source\PSoC4/BLE.c ****         CYBLE_API_RESULT_T apiResult;
 932:Generated_Source\PSoC4/BLE.c ****         
 933:Generated_Source\PSoC4/BLE.c ****         apiResult = CyBle_GapcCancelConnection();
 934:Generated_Source\PSoC4/BLE.c ****             
 935:Generated_Source\PSoC4/BLE.c ****         if(cyBle_connectingTimeout != 0u)
 936:Generated_Source\PSoC4/BLE.c ****         {
 937:Generated_Source\PSoC4/BLE.c ****             (void)CyBle_StopTimer();
 938:Generated_Source\PSoC4/BLE.c ****         }
 939:Generated_Source\PSoC4/BLE.c **** 
 940:Generated_Source\PSoC4/BLE.c ****         if(CYBLE_ERROR_OK == apiResult)
 941:Generated_Source\PSoC4/BLE.c ****         {
 942:Generated_Source\PSoC4/BLE.c ****             CyBle_SetState(CYBLE_STATE_DISCONNECTED);
 943:Generated_Source\PSoC4/BLE.c ****         }
 944:Generated_Source\PSoC4/BLE.c ****         return (apiResult);
 945:Generated_Source\PSoC4/BLE.c ****     }    
 946:Generated_Source\PSoC4/BLE.c **** 
 947:Generated_Source\PSoC4/BLE.c ****     
 948:Generated_Source\PSoC4/BLE.c **** #endif /* CYBLE_GAP_ROLE_CENTRAL */
 949:Generated_Source\PSoC4/BLE.c **** 
 950:Generated_Source\PSoC4/BLE.c **** 
 951:Generated_Source\PSoC4/BLE.c **** #if(CYBLE_GATT_ROLE_SERVER)
 952:Generated_Source\PSoC4/BLE.c **** 
 953:Generated_Source\PSoC4/BLE.c **** #if(CYBLE_GAP_ROLE_PERIPHERAL)
ARM GAS  C:\Users\TTSS\AppData\Local\Temp\ccIJVLm2.s 			page 29


 954:Generated_Source\PSoC4/BLE.c **** 
 955:Generated_Source\PSoC4/BLE.c ****         /******************************************************************************
 956:Generated_Source\PSoC4/BLE.c ****         ##Function Name: CyBle_ChangeAdLocalName
 957:Generated_Source\PSoC4/BLE.c ****         *******************************************************************************
 958:Generated_Source\PSoC4/BLE.c ****         Summary:
 959:Generated_Source\PSoC4/BLE.c ****          This API is used to set the local device name in the advertisement or scan 
 960:Generated_Source\PSoC4/BLE.c ****          response data structure.
 961:Generated_Source\PSoC4/BLE.c **** 
 962:Generated_Source\PSoC4/BLE.c ****         Parameters:
 963:Generated_Source\PSoC4/BLE.c ****          char8 name: The local device name string to be set in advertisement data 
 964:Generated_Source\PSoC4/BLE.c ****                    structure.
 965:Generated_Source\PSoC4/BLE.c ****          uint8 dest: 0 - advertisement structure, not zero value selects scan response
 966:Generated_Source\PSoC4/BLE.c ****                      structure.
 967:Generated_Source\PSoC4/BLE.c **** 
 968:Generated_Source\PSoC4/BLE.c ****         Return:
 969:Generated_Source\PSoC4/BLE.c ****          None
 970:Generated_Source\PSoC4/BLE.c ****      
 971:Generated_Source\PSoC4/BLE.c ****         ******************************************************************************/
 972:Generated_Source\PSoC4/BLE.c ****         static void CyBle_ChangeAdLocalName(const char8 name[], uint8 dest)
 973:Generated_Source\PSoC4/BLE.c ****         {
 974:Generated_Source\PSoC4/BLE.c ****             uint8 i;
 975:Generated_Source\PSoC4/BLE.c ****             uint8 flag = 0u;
 976:Generated_Source\PSoC4/BLE.c ****             uint8 adLength = 0u;
 977:Generated_Source\PSoC4/BLE.c ****             uint8 byteCounter = 0u;
 978:Generated_Source\PSoC4/BLE.c ****             uint8 *destBuffer;
 979:Generated_Source\PSoC4/BLE.c ****             uint8 maxLength;
 980:Generated_Source\PSoC4/BLE.c ****             
 981:Generated_Source\PSoC4/BLE.c ****             if(dest == 0u)      /* Destination - advertising structure */
 982:Generated_Source\PSoC4/BLE.c ****             {
 983:Generated_Source\PSoC4/BLE.c ****                 destBuffer = cyBle_discoveryData.advData;
 984:Generated_Source\PSoC4/BLE.c ****                 maxLength = cyBle_discoveryData.advDataLen;
 985:Generated_Source\PSoC4/BLE.c ****             }
 986:Generated_Source\PSoC4/BLE.c ****             else                /* Destination - scan response structure */
 987:Generated_Source\PSoC4/BLE.c ****             {
 988:Generated_Source\PSoC4/BLE.c ****                 destBuffer = cyBle_scanRspData.scanRspData;
 989:Generated_Source\PSoC4/BLE.c ****                 maxLength = cyBle_scanRspData.scanRspDataLen;
 990:Generated_Source\PSoC4/BLE.c ****             }
 991:Generated_Source\PSoC4/BLE.c ****             
 992:Generated_Source\PSoC4/BLE.c ****             while((byteCounter < maxLength) && (0u == flag))
 993:Generated_Source\PSoC4/BLE.c ****             {
 994:Generated_Source\PSoC4/BLE.c ****                 adLength = destBuffer[byteCounter];
 995:Generated_Source\PSoC4/BLE.c ****                 
 996:Generated_Source\PSoC4/BLE.c ****                 if(0u != adLength)
 997:Generated_Source\PSoC4/BLE.c ****                 {
 998:Generated_Source\PSoC4/BLE.c ****                     /* Increment byte counter so it can point to AD type */
 999:Generated_Source\PSoC4/BLE.c ****                     byteCounter++;
1000:Generated_Source\PSoC4/BLE.c ****                     
1001:Generated_Source\PSoC4/BLE.c ****                     if((CYBLE_SHORT_LOCAL_NAME == destBuffer[byteCounter]) || 
1002:Generated_Source\PSoC4/BLE.c ****                        (CYBLE_COMPLETE_LOCAL_NAME == destBuffer[byteCounter]))
1003:Generated_Source\PSoC4/BLE.c ****                     {
1004:Generated_Source\PSoC4/BLE.c ****                         /* Start of the Local Name AD type was fount. Set flag and exit the loop. *
1005:Generated_Source\PSoC4/BLE.c ****                         flag = 1u;
1006:Generated_Source\PSoC4/BLE.c ****                     }
1007:Generated_Source\PSoC4/BLE.c ****                     else
1008:Generated_Source\PSoC4/BLE.c ****                     {
1009:Generated_Source\PSoC4/BLE.c ****                         byteCounter += adLength;
1010:Generated_Source\PSoC4/BLE.c ****                     }
ARM GAS  C:\Users\TTSS\AppData\Local\Temp\ccIJVLm2.s 			page 30


1011:Generated_Source\PSoC4/BLE.c ****                 }
1012:Generated_Source\PSoC4/BLE.c ****                 else
1013:Generated_Source\PSoC4/BLE.c ****                 {
1014:Generated_Source\PSoC4/BLE.c ****                     /* The end of advertisement data structure was encountered though exit the loop
1015:Generated_Source\PSoC4/BLE.c ****                     break;
1016:Generated_Source\PSoC4/BLE.c ****                 }
1017:Generated_Source\PSoC4/BLE.c ****             }
1018:Generated_Source\PSoC4/BLE.c ****             
1019:Generated_Source\PSoC4/BLE.c ****             if(0u != flag)
1020:Generated_Source\PSoC4/BLE.c ****             {
1021:Generated_Source\PSoC4/BLE.c ****                 /* Reuse "adLength" to hold location of the last character of local name in 
1022:Generated_Source\PSoC4/BLE.c ****                    AD structure. */
1023:Generated_Source\PSoC4/BLE.c ****                 adLength += byteCounter;
1024:Generated_Source\PSoC4/BLE.c ****                 
1025:Generated_Source\PSoC4/BLE.c ****                 /* Increment byte counter to point to start of the local Name string */
1026:Generated_Source\PSoC4/BLE.c ****                 byteCounter++;
1027:Generated_Source\PSoC4/BLE.c ****                 
1028:Generated_Source\PSoC4/BLE.c ****                 for(i = byteCounter; ((i < (adLength)) && (CYBLE_NULL_CHARCTER != name[i - byteCoun
1029:Generated_Source\PSoC4/BLE.c ****                 {
1030:Generated_Source\PSoC4/BLE.c ****                     destBuffer[i] = (uint8)name[i - byteCounter];
1031:Generated_Source\PSoC4/BLE.c ****                 }
1032:Generated_Source\PSoC4/BLE.c ****                 
1033:Generated_Source\PSoC4/BLE.c ****                 /* This loop handles the case when new local name is shorted than old one.
1034:Generated_Source\PSoC4/BLE.c ****                    In this case all remaining characters should be null characters. */
1035:Generated_Source\PSoC4/BLE.c ****                 while(adLength > i)
1036:Generated_Source\PSoC4/BLE.c ****                 {
1037:Generated_Source\PSoC4/BLE.c ****                     /* Terminate string */
1038:Generated_Source\PSoC4/BLE.c ****                     destBuffer[i] = (uint8)CYBLE_NULL_CHARCTER;
1039:Generated_Source\PSoC4/BLE.c ****                     i++;
1040:Generated_Source\PSoC4/BLE.c ****                 }
1041:Generated_Source\PSoC4/BLE.c ****             }
1042:Generated_Source\PSoC4/BLE.c ****         }
1043:Generated_Source\PSoC4/BLE.c ****         
1044:Generated_Source\PSoC4/BLE.c **** #endif /* (CYBLE_GAP_ROLE_PERIPHERAL) */  
1045:Generated_Source\PSoC4/BLE.c ****     
1046:Generated_Source\PSoC4/BLE.c ****     
1047:Generated_Source\PSoC4/BLE.c ****     /******************************************************************************
1048:Generated_Source\PSoC4/BLE.c ****     ##Function Name: CyBle_GapSetLocalName
1049:Generated_Source\PSoC4/BLE.c ****     *******************************************************************************
1050:Generated_Source\PSoC4/BLE.c ****     Summary:
1051:Generated_Source\PSoC4/BLE.c ****      This API is used to set the local device name - a Characteristic of the 
1052:Generated_Source\PSoC4/BLE.c ****      GAP Service. If the characteristic length entered in the component customizer
1053:Generated_Source\PSoC4/BLE.c ****      is shorter than the string specified by the "name" parameter, the local device
1054:Generated_Source\PSoC4/BLE.c ****      name will be cut to the length specified in the customizer.
1055:Generated_Source\PSoC4/BLE.c **** 
1056:Generated_Source\PSoC4/BLE.c ****     Parameters:
1057:Generated_Source\PSoC4/BLE.c ****      char8 name: The local device name string. The name string to be written as
1058:Generated_Source\PSoC4/BLE.c ****                  the local device name. It represents a UTF-8 encoded User
1059:Generated_Source\PSoC4/BLE.c ****                  Friendly Descriptive Name for the device. The length of the local
1060:Generated_Source\PSoC4/BLE.c ****                  device string is entered into the component customizer and it can
1061:Generated_Source\PSoC4/BLE.c ****                  be set to a value from 0 to 248 bytes. If the name contained in
1062:Generated_Source\PSoC4/BLE.c ****                  the parameter is shorter than the length from the customizer, the
1063:Generated_Source\PSoC4/BLE.c ****                  end of the name is indicated by a NULL octet (0x00).
1064:Generated_Source\PSoC4/BLE.c **** 
1065:Generated_Source\PSoC4/BLE.c ****     Return:
1066:Generated_Source\PSoC4/BLE.c ****      CYBLE_API_RESULT_T : Return value indicates if the function succeeded or 
1067:Generated_Source\PSoC4/BLE.c ****      failed. Following are the possible error codes.
ARM GAS  C:\Users\TTSS\AppData\Local\Temp\ccIJVLm2.s 			page 31


1068:Generated_Source\PSoC4/BLE.c ****      <table>
1069:Generated_Source\PSoC4/BLE.c ****       Errors codes                        Description
1070:Generated_Source\PSoC4/BLE.c ****       ------------                        -----------
1071:Generated_Source\PSoC4/BLE.c ****       CYBLE_ERROR_OK                      Function completed successfully.
1072:Generated_Source\PSoC4/BLE.c ****       CYBLE_ERROR_INVALID_PARAMETER       On specifying NULL as input parameter
1073:Generated_Source\PSoC4/BLE.c ****      </table>
1074:Generated_Source\PSoC4/BLE.c ****  
1075:Generated_Source\PSoC4/BLE.c ****     ******************************************************************************/
1076:Generated_Source\PSoC4/BLE.c ****     CYBLE_API_RESULT_T CyBle_GapSetLocalName(const char8 name[])
1077:Generated_Source\PSoC4/BLE.c ****     {
 637              		.loc 1 1077 0
 638              		.cfi_startproc
 639 0000 80B5     		push	{r7, lr}
 640              		.cfi_def_cfa_offset 8
 641              		.cfi_offset 7, -8
 642              		.cfi_offset 14, -4
 643 0002 86B0     		sub	sp, sp, #24
 644              		.cfi_def_cfa_offset 32
 645 0004 00AF     		add	r7, sp, #0
 646              		.cfi_def_cfa_register 7
 647 0006 7860     		str	r0, [r7, #4]
1078:Generated_Source\PSoC4/BLE.c ****         CYBLE_API_RESULT_T apiResult = CYBLE_ERROR_OK;
 648              		.loc 1 1078 0
 649 0008 1623     		mov	r3, #22
 650 000a FB18     		add	r3, r7, r3
 651 000c 0022     		mov	r2, #0
 652 000e 1A80     		strh	r2, [r3]
1079:Generated_Source\PSoC4/BLE.c ****         uint8 i;
1080:Generated_Source\PSoC4/BLE.c ****         char8 *ptr;
1081:Generated_Source\PSoC4/BLE.c ****         uint8 charLen;
1082:Generated_Source\PSoC4/BLE.c **** 
1083:Generated_Source\PSoC4/BLE.c ****         if(NULL != name)
 653              		.loc 1 1083 0
 654 0010 7B68     		ldr	r3, [r7, #4]
 655 0012 002B     		cmp	r3, #0
 656 0014 40D0     		beq	.L33
1084:Generated_Source\PSoC4/BLE.c ****         {
1085:Generated_Source\PSoC4/BLE.c ****             /* Get the pointer to the Device Name characteristic  */
1086:Generated_Source\PSoC4/BLE.c ****             ptr = (char8 *) CYBLE_GATT_DB_ATTR_GET_ATTR_GEN_PTR(CYBLE_GAP_DEVICE_NAME_INDEX + 1u);
 657              		.loc 1 1086 0
 658 0016 264B     		ldr	r3, .L40
 659 0018 9B6B     		ldr	r3, [r3, #56]
 660 001a 5B68     		ldr	r3, [r3, #4]
 661 001c 3B61     		str	r3, [r7, #16]
1087:Generated_Source\PSoC4/BLE.c **** 
1088:Generated_Source\PSoC4/BLE.c ****             /* First need to get the maximum length of the characteristic data in the GATT
1089:Generated_Source\PSoC4/BLE.c ****                 database to make sure there is enough place for the data. The length
1090:Generated_Source\PSoC4/BLE.c ****                 can't be longer than 248, so only the LSB of 16 bit of length is to
1091:Generated_Source\PSoC4/BLE.c ****                 be used. */
1092:Generated_Source\PSoC4/BLE.c ****             charLen = (uint8)CYBLE_GATT_DB_ATTR_GET_ATTR_GEN_MAX_LEN(CYBLE_GAP_DEVICE_NAME_INDEX + 
 662              		.loc 1 1092 0
 663 001e 244B     		ldr	r3, .L40
 664 0020 9A8E     		ldrh	r2, [r3, #52]
 665 0022 0F23     		mov	r3, #15
 666 0024 FB18     		add	r3, r7, r3
 667 0026 1A70     		strb	r2, [r3]
1093:Generated_Source\PSoC4/BLE.c **** 
ARM GAS  C:\Users\TTSS\AppData\Local\Temp\ccIJVLm2.s 			page 32


1094:Generated_Source\PSoC4/BLE.c ****             /* Copy name into characteristic */
1095:Generated_Source\PSoC4/BLE.c ****             for(i = 0u; ((i < charLen) && (CYBLE_NULL_CHARCTER != name[i])); i++)
 668              		.loc 1 1095 0
 669 0028 1523     		mov	r3, #21
 670 002a FB18     		add	r3, r7, r3
 671 002c 0022     		mov	r2, #0
 672 002e 1A70     		strb	r2, [r3]
 673 0030 12E0     		b	.L34
 674              	.L36:
1096:Generated_Source\PSoC4/BLE.c ****             {
1097:Generated_Source\PSoC4/BLE.c ****                 ptr[i] = name[i];
 675              		.loc 1 1097 0 discriminator 4
 676 0032 1523     		mov	r3, #21
 677 0034 FB18     		add	r3, r7, r3
 678 0036 1B78     		ldrb	r3, [r3]
 679 0038 3A69     		ldr	r2, [r7, #16]
 680 003a D318     		add	r3, r2, r3
 681 003c 1522     		mov	r2, #21
 682 003e BA18     		add	r2, r7, r2
 683 0040 1278     		ldrb	r2, [r2]
 684 0042 7968     		ldr	r1, [r7, #4]
 685 0044 8A18     		add	r2, r1, r2
 686 0046 1278     		ldrb	r2, [r2]
 687 0048 1A70     		strb	r2, [r3]
1095:Generated_Source\PSoC4/BLE.c ****             {
 688              		.loc 1 1095 0 discriminator 4
 689 004a 1523     		mov	r3, #21
 690 004c FB18     		add	r3, r7, r3
 691 004e 1A78     		ldrb	r2, [r3]
 692 0050 1523     		mov	r3, #21
 693 0052 FB18     		add	r3, r7, r3
 694 0054 0132     		add	r2, r2, #1
 695 0056 1A70     		strb	r2, [r3]
 696              	.L34:
1095:Generated_Source\PSoC4/BLE.c ****             {
 697              		.loc 1 1095 0 is_stmt 0 discriminator 1
 698 0058 1523     		mov	r3, #21
 699 005a FA18     		add	r2, r7, r3
 700 005c 0F23     		mov	r3, #15
 701 005e FB18     		add	r3, r7, r3
 702 0060 1278     		ldrb	r2, [r2]
 703 0062 1B78     		ldrb	r3, [r3]
 704 0064 9A42     		cmp	r2, r3
 705 0066 07D2     		bcs	.L35
1095:Generated_Source\PSoC4/BLE.c ****             {
 706              		.loc 1 1095 0 discriminator 3
 707 0068 1523     		mov	r3, #21
 708 006a FB18     		add	r3, r7, r3
 709 006c 1B78     		ldrb	r3, [r3]
 710 006e 7A68     		ldr	r2, [r7, #4]
 711 0070 D318     		add	r3, r2, r3
 712 0072 1B78     		ldrb	r3, [r3]
 713 0074 002B     		cmp	r3, #0
 714 0076 DCD1     		bne	.L36
 715              	.L35:
1098:Generated_Source\PSoC4/BLE.c ****             }
1099:Generated_Source\PSoC4/BLE.c **** 
ARM GAS  C:\Users\TTSS\AppData\Local\Temp\ccIJVLm2.s 			page 33


1100:Generated_Source\PSoC4/BLE.c ****             if(i < charLen)
 716              		.loc 1 1100 0 is_stmt 1
 717 0078 1523     		mov	r3, #21
 718 007a FA18     		add	r2, r7, r3
 719 007c 0F23     		mov	r3, #15
 720 007e FB18     		add	r3, r7, r3
 721 0080 1278     		ldrb	r2, [r2]
 722 0082 1B78     		ldrb	r3, [r3]
 723 0084 9A42     		cmp	r2, r3
 724 0086 0BD2     		bcs	.L38
1101:Generated_Source\PSoC4/BLE.c ****             {
1102:Generated_Source\PSoC4/BLE.c ****                 /* Terminate string */
1103:Generated_Source\PSoC4/BLE.c ****                 ptr[i] = CYBLE_NULL_CHARCTER;
 725              		.loc 1 1103 0
 726 0088 1523     		mov	r3, #21
 727 008a FB18     		add	r3, r7, r3
 728 008c 1B78     		ldrb	r3, [r3]
 729 008e 3A69     		ldr	r2, [r7, #16]
 730 0090 D318     		add	r3, r2, r3
 731 0092 0022     		mov	r2, #0
 732 0094 1A70     		strb	r2, [r3]
 733 0096 03E0     		b	.L38
 734              	.L33:
1104:Generated_Source\PSoC4/BLE.c ****             }
1105:Generated_Source\PSoC4/BLE.c ****             
1106:Generated_Source\PSoC4/BLE.c ****             /* Set new actual length */
1107:Generated_Source\PSoC4/BLE.c ****             
1108:Generated_Source\PSoC4/BLE.c ****             /* Update device name in advertising and scan response structure */
1109:Generated_Source\PSoC4/BLE.c ****             #if(CYBLE_GAP_ROLE_PERIPHERAL)
1110:Generated_Source\PSoC4/BLE.c ****                 CyBle_ChangeAdLocalName(name, 0u);
1111:Generated_Source\PSoC4/BLE.c ****                 CyBle_ChangeAdLocalName(name, 1u);
1112:Generated_Source\PSoC4/BLE.c ****             #endif /* (CYBLE_GAP_ROLE_PERIPHERAL) */
1113:Generated_Source\PSoC4/BLE.c ****         }
1114:Generated_Source\PSoC4/BLE.c ****         else
1115:Generated_Source\PSoC4/BLE.c ****         {
1116:Generated_Source\PSoC4/BLE.c ****             apiResult = CYBLE_ERROR_INVALID_PARAMETER;
 735              		.loc 1 1116 0
 736 0098 1623     		mov	r3, #22
 737 009a FB18     		add	r3, r7, r3
 738 009c 0122     		mov	r2, #1
 739 009e 1A80     		strh	r2, [r3]
 740              	.L38:
1117:Generated_Source\PSoC4/BLE.c ****         }
1118:Generated_Source\PSoC4/BLE.c ****         
1119:Generated_Source\PSoC4/BLE.c ****         return(apiResult);
 741              		.loc 1 1119 0
 742 00a0 1623     		mov	r3, #22
 743 00a2 FB18     		add	r3, r7, r3
 744 00a4 1B88     		ldrh	r3, [r3]
1120:Generated_Source\PSoC4/BLE.c ****     }
 745              		.loc 1 1120 0
 746 00a6 181C     		mov	r0, r3
 747 00a8 BD46     		mov	sp, r7
 748 00aa 06B0     		add	sp, sp, #24
 749              		@ sp needed
 750 00ac 80BD     		pop	{r7, pc}
 751              	.L41:
ARM GAS  C:\Users\TTSS\AppData\Local\Temp\ccIJVLm2.s 			page 34


 752 00ae C046     		.align	2
 753              	.L40:
 754 00b0 00000000 		.word	cyBle_gattDB
 755              		.cfi_endproc
 756              	.LFE9:
 757              		.size	CyBle_GapSetLocalName, .-CyBle_GapSetLocalName
 758              		.section	.text.CyBle_GapGetLocalName,"ax",%progbits
 759              		.align	2
 760              		.global	CyBle_GapGetLocalName
 761              		.code	16
 762              		.thumb_func
 763              		.type	CyBle_GapGetLocalName, %function
 764              	CyBle_GapGetLocalName:
 765              	.LFB10:
1121:Generated_Source\PSoC4/BLE.c **** 
1122:Generated_Source\PSoC4/BLE.c **** 
1123:Generated_Source\PSoC4/BLE.c ****     /******************************************************************************
1124:Generated_Source\PSoC4/BLE.c ****     ##Function Name: CyBle_GapGetLocalName
1125:Generated_Source\PSoC4/BLE.c ****     *******************************************************************************
1126:Generated_Source\PSoC4/BLE.c ****  
1127:Generated_Source\PSoC4/BLE.c ****     Summary:
1128:Generated_Source\PSoC4/BLE.c ****      This API is used to read the local device name - a Characteristic of the 
1129:Generated_Source\PSoC4/BLE.c ****      GAP Service.
1130:Generated_Source\PSoC4/BLE.c **** 
1131:Generated_Source\PSoC4/BLE.c ****     Parameters:
1132:Generated_Source\PSoC4/BLE.c ****     char8 name: The local device name string. Used to read the local name to the
1133:Generated_Source\PSoC4/BLE.c ****                 given string array. It represents a UTF-8 encoded User Friendly 
1134:Generated_Source\PSoC4/BLE.c ****                 Descriptive Name for the device. The length of the local device
1135:Generated_Source\PSoC4/BLE.c ****                 string is entered into the component customizer and it can be set
1136:Generated_Source\PSoC4/BLE.c ****                 to a value from 0 to 248 bytes. If the name contained in the
1137:Generated_Source\PSoC4/BLE.c ****                 parameter is shorter than the length from the customizer, the end
1138:Generated_Source\PSoC4/BLE.c ****                 of the name is indicated by a NULL octet (0x00).
1139:Generated_Source\PSoC4/BLE.c **** 
1140:Generated_Source\PSoC4/BLE.c ****     Return:
1141:Generated_Source\PSoC4/BLE.c ****      CYBLE_API_RESULT_T : Return value indicates if the function succeeded or 
1142:Generated_Source\PSoC4/BLE.c ****      failed. Following are the possible error codes.
1143:Generated_Source\PSoC4/BLE.c ****      <table>
1144:Generated_Source\PSoC4/BLE.c ****       Errors codes                        Description
1145:Generated_Source\PSoC4/BLE.c ****       ------------                        -----------
1146:Generated_Source\PSoC4/BLE.c ****       CYBLE_ERROR_OK                      Function completed successfully.
1147:Generated_Source\PSoC4/BLE.c ****       CYBLE_ERROR_INVALID_PARAMETER       On specifying NULL as input parameter
1148:Generated_Source\PSoC4/BLE.c ****      </table>
1149:Generated_Source\PSoC4/BLE.c **** 
1150:Generated_Source\PSoC4/BLE.c ****     ******************************************************************************/
1151:Generated_Source\PSoC4/BLE.c ****     CYBLE_API_RESULT_T CyBle_GapGetLocalName(char8 name[])
1152:Generated_Source\PSoC4/BLE.c ****     {
 766              		.loc 1 1152 0
 767              		.cfi_startproc
 768 0000 80B5     		push	{r7, lr}
 769              		.cfi_def_cfa_offset 8
 770              		.cfi_offset 7, -8
 771              		.cfi_offset 14, -4
 772 0002 86B0     		sub	sp, sp, #24
 773              		.cfi_def_cfa_offset 32
 774 0004 00AF     		add	r7, sp, #0
 775              		.cfi_def_cfa_register 7
 776 0006 7860     		str	r0, [r7, #4]
ARM GAS  C:\Users\TTSS\AppData\Local\Temp\ccIJVLm2.s 			page 35


1153:Generated_Source\PSoC4/BLE.c ****         CYBLE_API_RESULT_T apiResult = CYBLE_ERROR_OK;
 777              		.loc 1 1153 0
 778 0008 1623     		mov	r3, #22
 779 000a FB18     		add	r3, r7, r3
 780 000c 0022     		mov	r2, #0
 781 000e 1A80     		strh	r2, [r3]
1154:Generated_Source\PSoC4/BLE.c ****         uint8 charLen;
1155:Generated_Source\PSoC4/BLE.c ****         uint8 i;
1156:Generated_Source\PSoC4/BLE.c ****         char8 *ptr;
1157:Generated_Source\PSoC4/BLE.c **** 
1158:Generated_Source\PSoC4/BLE.c ****         if(NULL != name)
 782              		.loc 1 1158 0
 783 0010 7B68     		ldr	r3, [r7, #4]
 784 0012 002B     		cmp	r3, #0
 785 0014 39D0     		beq	.L43
1159:Generated_Source\PSoC4/BLE.c ****         {
1160:Generated_Source\PSoC4/BLE.c ****             /* Get the pointer to the Device Name characteristic  */
1161:Generated_Source\PSoC4/BLE.c ****             ptr = (char8 *) CYBLE_GATT_DB_ATTR_GET_ATTR_GEN_PTR(CYBLE_GAP_DEVICE_NAME_INDEX + 1u);
 786              		.loc 1 1161 0
 787 0016 224B     		ldr	r3, .L49
 788 0018 9B6B     		ldr	r3, [r3, #56]
 789 001a 5B68     		ldr	r3, [r3, #4]
 790 001c 3B61     		str	r3, [r7, #16]
1162:Generated_Source\PSoC4/BLE.c **** 
1163:Generated_Source\PSoC4/BLE.c ****             /* First need to get the length of the characteristic data in the GATT
1164:Generated_Source\PSoC4/BLE.c ****                 database to make sure there is enough place for the data. The length
1165:Generated_Source\PSoC4/BLE.c ****                 can't be longer than 248, so only the LSB of 16 bit of length is to
1166:Generated_Source\PSoC4/BLE.c ****                 be used. */
1167:Generated_Source\PSoC4/BLE.c ****             charLen = (uint8)CYBLE_GATT_DB_ATTR_GET_ATTR_GEN_LEN(CYBLE_GAP_DEVICE_NAME_INDEX + 1u);
 791              		.loc 1 1167 0
 792 001e 204B     		ldr	r3, .L49
 793 0020 9B6B     		ldr	r3, [r3, #56]
 794 0022 1A88     		ldrh	r2, [r3]
 795 0024 0F23     		mov	r3, #15
 796 0026 FB18     		add	r3, r7, r3
 797 0028 1A70     		strb	r2, [r3]
1168:Generated_Source\PSoC4/BLE.c **** 
1169:Generated_Source\PSoC4/BLE.c ****             /* Copy name from characteristic */
1170:Generated_Source\PSoC4/BLE.c ****             for(i = 0u; ((i < charLen) && (CYBLE_NULL_CHARCTER != ptr[i])); i++)
 798              		.loc 1 1170 0
 799 002a 1523     		mov	r3, #21
 800 002c FB18     		add	r3, r7, r3
 801 002e 0022     		mov	r2, #0
 802 0030 1A70     		strb	r2, [r3]
 803 0032 12E0     		b	.L44
 804              	.L46:
1171:Generated_Source\PSoC4/BLE.c ****             {
1172:Generated_Source\PSoC4/BLE.c ****                 name[i] = ptr[i];
 805              		.loc 1 1172 0 discriminator 4
 806 0034 1523     		mov	r3, #21
 807 0036 FB18     		add	r3, r7, r3
 808 0038 1B78     		ldrb	r3, [r3]
 809 003a 7A68     		ldr	r2, [r7, #4]
 810 003c D318     		add	r3, r2, r3
 811 003e 1522     		mov	r2, #21
 812 0040 BA18     		add	r2, r7, r2
 813 0042 1278     		ldrb	r2, [r2]
ARM GAS  C:\Users\TTSS\AppData\Local\Temp\ccIJVLm2.s 			page 36


 814 0044 3969     		ldr	r1, [r7, #16]
 815 0046 8A18     		add	r2, r1, r2
 816 0048 1278     		ldrb	r2, [r2]
 817 004a 1A70     		strb	r2, [r3]
1170:Generated_Source\PSoC4/BLE.c ****             {
 818              		.loc 1 1170 0 discriminator 4
 819 004c 1523     		mov	r3, #21
 820 004e FB18     		add	r3, r7, r3
 821 0050 1A78     		ldrb	r2, [r3]
 822 0052 1523     		mov	r3, #21
 823 0054 FB18     		add	r3, r7, r3
 824 0056 0132     		add	r2, r2, #1
 825 0058 1A70     		strb	r2, [r3]
 826              	.L44:
1170:Generated_Source\PSoC4/BLE.c ****             {
 827              		.loc 1 1170 0 is_stmt 0 discriminator 1
 828 005a 1523     		mov	r3, #21
 829 005c FA18     		add	r2, r7, r3
 830 005e 0F23     		mov	r3, #15
 831 0060 FB18     		add	r3, r7, r3
 832 0062 1278     		ldrb	r2, [r2]
 833 0064 1B78     		ldrb	r3, [r3]
 834 0066 9A42     		cmp	r2, r3
 835 0068 07D2     		bcs	.L45
1170:Generated_Source\PSoC4/BLE.c ****             {
 836              		.loc 1 1170 0 discriminator 3
 837 006a 1523     		mov	r3, #21
 838 006c FB18     		add	r3, r7, r3
 839 006e 1B78     		ldrb	r3, [r3]
 840 0070 3A69     		ldr	r2, [r7, #16]
 841 0072 D318     		add	r3, r2, r3
 842 0074 1B78     		ldrb	r3, [r3]
 843 0076 002B     		cmp	r3, #0
 844 0078 DCD1     		bne	.L46
 845              	.L45:
1173:Generated_Source\PSoC4/BLE.c ****             }
1174:Generated_Source\PSoC4/BLE.c **** 
1175:Generated_Source\PSoC4/BLE.c ****             /* Terminate string */
1176:Generated_Source\PSoC4/BLE.c ****             name[i] = CYBLE_NULL_CHARCTER;
 846              		.loc 1 1176 0 is_stmt 1
 847 007a 1523     		mov	r3, #21
 848 007c FB18     		add	r3, r7, r3
 849 007e 1B78     		ldrb	r3, [r3]
 850 0080 7A68     		ldr	r2, [r7, #4]
 851 0082 D318     		add	r3, r2, r3
 852 0084 0022     		mov	r2, #0
 853 0086 1A70     		strb	r2, [r3]
 854 0088 03E0     		b	.L47
 855              	.L43:
1177:Generated_Source\PSoC4/BLE.c ****         }
1178:Generated_Source\PSoC4/BLE.c ****         else
1179:Generated_Source\PSoC4/BLE.c ****         {
1180:Generated_Source\PSoC4/BLE.c ****             apiResult = CYBLE_ERROR_INVALID_PARAMETER;
 856              		.loc 1 1180 0
 857 008a 1623     		mov	r3, #22
 858 008c FB18     		add	r3, r7, r3
 859 008e 0122     		mov	r2, #1
ARM GAS  C:\Users\TTSS\AppData\Local\Temp\ccIJVLm2.s 			page 37


 860 0090 1A80     		strh	r2, [r3]
 861              	.L47:
1181:Generated_Source\PSoC4/BLE.c ****         }
1182:Generated_Source\PSoC4/BLE.c ****         
1183:Generated_Source\PSoC4/BLE.c ****         return(apiResult);
 862              		.loc 1 1183 0
 863 0092 1623     		mov	r3, #22
 864 0094 FB18     		add	r3, r7, r3
 865 0096 1B88     		ldrh	r3, [r3]
1184:Generated_Source\PSoC4/BLE.c ****     }
 866              		.loc 1 1184 0
 867 0098 181C     		mov	r0, r3
 868 009a BD46     		mov	sp, r7
 869 009c 06B0     		add	sp, sp, #24
 870              		@ sp needed
 871 009e 80BD     		pop	{r7, pc}
 872              	.L50:
 873              		.align	2
 874              	.L49:
 875 00a0 00000000 		.word	cyBle_gattDB
 876              		.cfi_endproc
 877              	.LFE10:
 878              		.size	CyBle_GapGetLocalName, .-CyBle_GapGetLocalName
 879              		.section	.text.CyBle_Get16ByPtr,"ax",%progbits
 880              		.align	2
 881              		.global	CyBle_Get16ByPtr
 882              		.code	16
 883              		.thumb_func
 884              		.type	CyBle_Get16ByPtr, %function
 885              	CyBle_Get16ByPtr:
 886              	.LFB11:
1185:Generated_Source\PSoC4/BLE.c **** 
1186:Generated_Source\PSoC4/BLE.c **** #endif /* (CYBLE_GATT_ROLE_SERVER) */
1187:Generated_Source\PSoC4/BLE.c **** 
1188:Generated_Source\PSoC4/BLE.c **** 
1189:Generated_Source\PSoC4/BLE.c **** /******************************************************************************
1190:Generated_Source\PSoC4/BLE.c **** ##Function Name: CyBle_Get16ByPtr
1191:Generated_Source\PSoC4/BLE.c **** *******************************************************************************
1192:Generated_Source\PSoC4/BLE.c **** 
1193:Generated_Source\PSoC4/BLE.c **** Summary:
1194:Generated_Source\PSoC4/BLE.c ****  Returns the two-bytes value by using a pointer to the LSB.
1195:Generated_Source\PSoC4/BLE.c **** 
1196:Generated_Source\PSoC4/BLE.c **** Parameters:
1197:Generated_Source\PSoC4/BLE.c ****  uint8 * ptr: Pointer to the LSB of two-bytes data (little endian).
1198:Generated_Source\PSoC4/BLE.c **** 
1199:Generated_Source\PSoC4/BLE.c **** Return:
1200:Generated_Source\PSoC4/BLE.c ****  uint16 value: Two-bytes data.
1201:Generated_Source\PSoC4/BLE.c **** 
1202:Generated_Source\PSoC4/BLE.c **** ******************************************************************************/
1203:Generated_Source\PSoC4/BLE.c **** uint16 CyBle_Get16ByPtr(const uint8 ptr[])
1204:Generated_Source\PSoC4/BLE.c **** {
 887              		.loc 1 1204 0
 888              		.cfi_startproc
 889 0000 80B5     		push	{r7, lr}
 890              		.cfi_def_cfa_offset 8
 891              		.cfi_offset 7, -8
 892              		.cfi_offset 14, -4
ARM GAS  C:\Users\TTSS\AppData\Local\Temp\ccIJVLm2.s 			page 38


 893 0002 82B0     		sub	sp, sp, #8
 894              		.cfi_def_cfa_offset 16
 895 0004 00AF     		add	r7, sp, #0
 896              		.cfi_def_cfa_register 7
 897 0006 7860     		str	r0, [r7, #4]
1205:Generated_Source\PSoC4/BLE.c ****     return ((uint16) ptr[0u] | ((uint16) (((uint16) ptr[1u]) << 8u)));
 898              		.loc 1 1205 0
 899 0008 7B68     		ldr	r3, [r7, #4]
 900 000a 1B78     		ldrb	r3, [r3]
 901 000c 9AB2     		uxth	r2, r3
 902 000e 7B68     		ldr	r3, [r7, #4]
 903 0010 0133     		add	r3, r3, #1
 904 0012 1B78     		ldrb	r3, [r3]
 905 0014 9BB2     		uxth	r3, r3
 906 0016 1B02     		lsl	r3, r3, #8
 907 0018 9BB2     		uxth	r3, r3
 908 001a 1343     		orr	r3, r2
 909 001c 9BB2     		uxth	r3, r3
1206:Generated_Source\PSoC4/BLE.c **** }
 910              		.loc 1 1206 0
 911 001e 181C     		mov	r0, r3
 912 0020 BD46     		mov	sp, r7
 913 0022 02B0     		add	sp, sp, #8
 914              		@ sp needed
 915 0024 80BD     		pop	{r7, pc}
 916              		.cfi_endproc
 917              	.LFE11:
 918              		.size	CyBle_Get16ByPtr, .-CyBle_Get16ByPtr
 919 0026 C046     		.section	.text.CyBle_Set16ByPtr,"ax",%progbits
 920              		.align	2
 921              		.global	CyBle_Set16ByPtr
 922              		.code	16
 923              		.thumb_func
 924              		.type	CyBle_Set16ByPtr, %function
 925              	CyBle_Set16ByPtr:
 926              	.LFB12:
1207:Generated_Source\PSoC4/BLE.c **** 
1208:Generated_Source\PSoC4/BLE.c **** 
1209:Generated_Source\PSoC4/BLE.c **** /******************************************************************************
1210:Generated_Source\PSoC4/BLE.c **** ##Function Name: CyBle_Set16ByPtr
1211:Generated_Source\PSoC4/BLE.c **** *******************************************************************************
1212:Generated_Source\PSoC4/BLE.c **** 
1213:Generated_Source\PSoC4/BLE.c **** Summary:
1214:Generated_Source\PSoC4/BLE.c ****  Sets the two-bytes value by using a pointer to the LSB.
1215:Generated_Source\PSoC4/BLE.c **** 
1216:Generated_Source\PSoC4/BLE.c **** Parameters:
1217:Generated_Source\PSoC4/BLE.c ****  uint8 * ptr:   Pointer to the LSB of two-bytes data (little endian).
1218:Generated_Source\PSoC4/BLE.c ****  uint16 value:  Two-bytes data to be written.
1219:Generated_Source\PSoC4/BLE.c **** 
1220:Generated_Source\PSoC4/BLE.c **** Return:
1221:Generated_Source\PSoC4/BLE.c ****  None
1222:Generated_Source\PSoC4/BLE.c **** 
1223:Generated_Source\PSoC4/BLE.c **** ******************************************************************************/
1224:Generated_Source\PSoC4/BLE.c **** void CyBle_Set16ByPtr(uint8 ptr[], uint16 value)
1225:Generated_Source\PSoC4/BLE.c **** {
 927              		.loc 1 1225 0
 928              		.cfi_startproc
ARM GAS  C:\Users\TTSS\AppData\Local\Temp\ccIJVLm2.s 			page 39


 929 0000 80B5     		push	{r7, lr}
 930              		.cfi_def_cfa_offset 8
 931              		.cfi_offset 7, -8
 932              		.cfi_offset 14, -4
 933 0002 82B0     		sub	sp, sp, #8
 934              		.cfi_def_cfa_offset 16
 935 0004 00AF     		add	r7, sp, #0
 936              		.cfi_def_cfa_register 7
 937 0006 7860     		str	r0, [r7, #4]
 938 0008 0A1C     		mov	r2, r1
 939 000a BB1C     		add	r3, r7, #2
 940 000c 1A80     		strh	r2, [r3]
1226:Generated_Source\PSoC4/BLE.c ****     ptr[0u] = (uint8) value;
 941              		.loc 1 1226 0
 942 000e BB1C     		add	r3, r7, #2
 943 0010 1B88     		ldrh	r3, [r3]
 944 0012 DAB2     		uxtb	r2, r3
 945 0014 7B68     		ldr	r3, [r7, #4]
 946 0016 1A70     		strb	r2, [r3]
1227:Generated_Source\PSoC4/BLE.c ****     ptr[1u] = (uint8) (value >> 8u);
 947              		.loc 1 1227 0
 948 0018 7B68     		ldr	r3, [r7, #4]
 949 001a 0133     		add	r3, r3, #1
 950 001c BA1C     		add	r2, r7, #2
 951 001e 1288     		ldrh	r2, [r2]
 952 0020 120A     		lsr	r2, r2, #8
 953 0022 92B2     		uxth	r2, r2
 954 0024 D2B2     		uxtb	r2, r2
 955 0026 1A70     		strb	r2, [r3]
1228:Generated_Source\PSoC4/BLE.c **** }
 956              		.loc 1 1228 0
 957 0028 BD46     		mov	sp, r7
 958 002a 02B0     		add	sp, sp, #8
 959              		@ sp needed
 960 002c 80BD     		pop	{r7, pc}
 961              		.cfi_endproc
 962              	.LFE12:
 963              		.size	CyBle_Set16ByPtr, .-CyBle_Set16ByPtr
 964 002e C046     		.text
 965              	.Letext0:
 966              		.file 2 "Generated_Source\\PSoC4\\cytypes.h"
 967              		.file 3 "Generated_Source\\PSoC4\\BLE_Stack.h"
 968              		.file 4 "Generated_Source\\PSoC4\\BLE_StackGap.h"
 969              		.file 5 "Generated_Source\\PSoC4\\BLE_StackGattDb.h"
 970              		.file 6 "Generated_Source\\PSoC4\\BLE.h"
 971              		.file 7 "Generated_Source\\PSoC4\\BLE_eventHandler.h"
 972              		.file 8 "Generated_Source\\PSoC4\\BLE_gatt.h"