ARM GAS  C:\Users\TTSS\AppData\Local\Temp\cc7u9jdS.s 			page 1


   1              		.cpu cortex-m0
   2              		.fpu softvfp
   3              		.eabi_attribute 20, 1
   4              		.eabi_attribute 21, 1
   5              		.eabi_attribute 23, 3
   6              		.eabi_attribute 24, 1
   7              		.eabi_attribute 25, 1
   8              		.eabi_attribute 26, 1
   9              		.eabi_attribute 30, 6
  10              		.eabi_attribute 34, 0
  11              		.eabi_attribute 18, 4
  12              		.code	16
  13              		.file	"main.c"
  14              		.text
  15              	.Ltext0:
  16              		.cfi_sections	.debug_frame
  17              		.section	.text.main,"ax",%progbits
  18              		.align	2
  19              		.global	main
  20              		.code	16
  21              		.thumb_func
  22              		.type	main, %function
  23              	main:
  24              	.LFB37:
  25              		.file 1 "main.c"
   1:main.c        **** /* ========================================
   2:main.c        ****  * Air Quality Beacon, part of the hackAIR project.
   3:main.c        ****  * Freely available under CC BY 4.0
   4:main.c        ****  *
   5:main.c        ****  *
   6:main.c        ****  * Author: George Doxastakis gdoxastakis.ee@gmail.com
   7:main.c        ****  * Technology Transfer & Smart Solutions
   8:main.c        ****  * TEI of Athens
   9:main.c        ****  * http://research.ee.teiath.gr/ttss/
  10:main.c        ****  *
  11:main.c        ****  * http://www.hackair.eu/
  12:main.c        **** */
  13:main.c        **** #include <project.h>
  14:main.c        **** 
  15:main.c        **** /* Function prototypes */  
  16:main.c        **** void StackEventHandler(uint32 event, void* eventParam);
  17:main.c        **** char* readParticles();
  18:main.c        **** 
  19:main.c        **** /* ADV payload dta structure */  
  20:main.c        **** extern CYBLE_GAPP_DISC_MODE_INFO_T cyBle_discoveryModeInfo;
  21:main.c        **** #define advPayload   (cyBle_discoveryModeInfo.advData->advData) 
  22:main.c        **** 
  23:main.c        **** 
  24:main.c        **** int main()
  25:main.c        **** {
  26              		.loc 1 25 0
  27              		.cfi_startproc
  28 0000 80B5     		push	{r7, lr}
  29              		.cfi_def_cfa_offset 8
  30              		.cfi_offset 7, -8
  31              		.cfi_offset 14, -4
  32 0002 82B0     		sub	sp, sp, #8
ARM GAS  C:\Users\TTSS\AppData\Local\Temp\cc7u9jdS.s 			page 2


  33              		.cfi_def_cfa_offset 16
  34 0004 00AF     		add	r7, sp, #0
  35              		.cfi_def_cfa_register 7
  26:main.c        ****     CyGlobalIntEnable; /* Enable global interrupts. */
  36              		.loc 1 26 0
  37              	@ 26 "main.c" 1
  38 0006 62B6     		CPSIE   i
  39              	@ 0 "" 2
  27:main.c        ****     Serial_Start();
  40              		.loc 1 27 0
  41              		.code	16
  42 0008 FFF7FEFF 		bl	Serial_Start
  28:main.c        ****     /* Start CYBLE component and register the generic event handler */
  29:main.c        ****     CyBle_Start(StackEventHandler);
  43              		.loc 1 29 0
  44 000c 224B     		ldr	r3, .L3
  45 000e 181C     		mov	r0, r3
  46 0010 FFF7FEFF 		bl	CyBle_Start
  47              	.L2:
  48              	.LBB2:
  30:main.c        ****     
  31:main.c        ****     for(;;)
  32:main.c        ****     {
  33:main.c        ****         STATUS_Write(1);CyDelay(300);STATUS_Write(0);
  49              		.loc 1 33 0 discriminator 1
  50 0014 0120     		mov	r0, #1
  51 0016 FFF7FEFF 		bl	STATUS_Write
  52 001a 9623     		mov	r3, #150
  53 001c 5B00     		lsl	r3, r3, #1
  54 001e 181C     		mov	r0, r3
  55 0020 FFF7FEFF 		bl	CyDelay
  56 0024 0020     		mov	r0, #0
  57 0026 FFF7FEFF 		bl	STATUS_Write
  34:main.c        ****         char *val=readParticles(); //Perform sensor measurement (waits for result)
  58              		.loc 1 34 0 discriminator 1
  59 002a FFF7FEFF 		bl	readParticles
  60 002e 031C     		mov	r3, r0
  61 0030 7B60     		str	r3, [r7, #4]
  35:main.c        ****          
  36:main.c        ****         /* Dynamic payload will be continuously updated */
  37:main.c        ****         advPayload[19] =  0x01; //Sensor ID: 0x01 for SEN0177
  62              		.loc 1 37 0 discriminator 1
  63 0032 1A4B     		ldr	r3, .L3+4
  64 0034 9B68     		ldr	r3, [r3, #8]
  65 0036 0122     		mov	r2, #1
  66 0038 DA74     		strb	r2, [r3, #19]
  38:main.c        ****         advPayload[21] =  val[4]; //High byte of PM1 value
  67              		.loc 1 38 0 discriminator 1
  68 003a 184B     		ldr	r3, .L3+4
  69 003c 9B68     		ldr	r3, [r3, #8]
  70 003e 7A68     		ldr	r2, [r7, #4]
  71 0040 0432     		add	r2, r2, #4
  72 0042 1278     		ldrb	r2, [r2]
  73 0044 5A75     		strb	r2, [r3, #21]
  39:main.c        ****         advPayload[22] =  val[5]; //Low byte of PM1 value
  74              		.loc 1 39 0 discriminator 1
  75 0046 154B     		ldr	r3, .L3+4
ARM GAS  C:\Users\TTSS\AppData\Local\Temp\cc7u9jdS.s 			page 3


  76 0048 9B68     		ldr	r3, [r3, #8]
  77 004a 7A68     		ldr	r2, [r7, #4]
  78 004c 0532     		add	r2, r2, #5
  79 004e 1278     		ldrb	r2, [r2]
  80 0050 9A75     		strb	r2, [r3, #22]
  40:main.c        ****         advPayload[23] =  val[6]; //High byte of PM2.5 value
  81              		.loc 1 40 0 discriminator 1
  82 0052 124B     		ldr	r3, .L3+4
  83 0054 9B68     		ldr	r3, [r3, #8]
  84 0056 7A68     		ldr	r2, [r7, #4]
  85 0058 0632     		add	r2, r2, #6
  86 005a 1278     		ldrb	r2, [r2]
  87 005c DA75     		strb	r2, [r3, #23]
  41:main.c        ****         advPayload[24] =  val[7]; //Low byte of PM2.5 value
  88              		.loc 1 41 0 discriminator 1
  89 005e 0F4B     		ldr	r3, .L3+4
  90 0060 9B68     		ldr	r3, [r3, #8]
  91 0062 7A68     		ldr	r2, [r7, #4]
  92 0064 0732     		add	r2, r2, #7
  93 0066 1278     		ldrb	r2, [r2]
  94 0068 1A76     		strb	r2, [r3, #24]
  42:main.c        ****         advPayload[25] =  val[8]; //High byte of PM10 value
  95              		.loc 1 42 0 discriminator 1
  96 006a 0C4B     		ldr	r3, .L3+4
  97 006c 9B68     		ldr	r3, [r3, #8]
  98 006e 7A68     		ldr	r2, [r7, #4]
  99 0070 0832     		add	r2, r2, #8
 100 0072 1278     		ldrb	r2, [r2]
 101 0074 5A76     		strb	r2, [r3, #25]
  43:main.c        ****         advPayload[26] =  val[9]; //Low byte of PM10 value
 102              		.loc 1 43 0 discriminator 1
 103 0076 094B     		ldr	r3, .L3+4
 104 0078 9B68     		ldr	r3, [r3, #8]
 105 007a 7A68     		ldr	r2, [r7, #4]
 106 007c 0932     		add	r2, r2, #9
 107 007e 1278     		ldrb	r2, [r2]
 108 0080 9A76     		strb	r2, [r3, #26]
  44:main.c        ****         CyBle_GapUpdateAdvData(cyBle_discoveryModeInfo.advData, cyBle_discoveryModeInfo.scanRspData
 109              		.loc 1 44 0 discriminator 1
 110 0082 064B     		ldr	r3, .L3+4
 111 0084 9A68     		ldr	r2, [r3, #8]
 112 0086 054B     		ldr	r3, .L3+4
 113 0088 DB68     		ldr	r3, [r3, #12]
 114 008a 101C     		mov	r0, r2
 115 008c 191C     		mov	r1, r3
 116 008e FFF7FEFF 		bl	CyBle_GapUpdateAdvData
  45:main.c        ****         CyBle_ProcessEvents();
 117              		.loc 1 45 0 discriminator 1
 118 0092 FFF7FEFF 		bl	CyBle_ProcessEvents
 119              	.LBE2:
  46:main.c        ****     }
 120              		.loc 1 46 0 discriminator 1
 121 0096 BDE7     		b	.L2
 122              	.L4:
 123              		.align	2
 124              	.L3:
 125 0098 00000000 		.word	StackEventHandler
ARM GAS  C:\Users\TTSS\AppData\Local\Temp\cc7u9jdS.s 			page 4


 126 009c 00000000 		.word	cyBle_discoveryModeInfo
 127              		.cfi_endproc
 128              	.LFE37:
 129              		.size	main, .-main
 130              		.section	.text.StackEventHandler,"ax",%progbits
 131              		.align	2
 132              		.global	StackEventHandler
 133              		.code	16
 134              		.thumb_func
 135              		.type	StackEventHandler, %function
 136              	StackEventHandler:
 137              	.LFB38:
  47:main.c        **** }
  48:main.c        **** 
  49:main.c        **** void StackEventHandler(uint32 event, void *eventParam)
  50:main.c        **** {
 138              		.loc 1 50 0
 139              		.cfi_startproc
 140 0000 80B5     		push	{r7, lr}
 141              		.cfi_def_cfa_offset 8
 142              		.cfi_offset 7, -8
 143              		.cfi_offset 14, -4
 144 0002 82B0     		sub	sp, sp, #8
 145              		.cfi_def_cfa_offset 16
 146 0004 00AF     		add	r7, sp, #0
 147              		.cfi_def_cfa_register 7
 148 0006 7860     		str	r0, [r7, #4]
 149 0008 3960     		str	r1, [r7]
  51:main.c        ****     switch(event)
 150              		.loc 1 51 0
 151 000a 7B68     		ldr	r3, [r7, #4]
 152 000c 012B     		cmp	r3, #1
 153 000e 00D0     		beq	.L7
  52:main.c        ****     {
  53:main.c        ****         
  54:main.c        **** 		case CYBLE_EVT_STACK_ON:
  55:main.c        **** 			/* BLE stack is on. Start BLE advertisement */   
  56:main.c        **** 			CyBle_GappStartAdvertisement(CYBLE_ADVERTISING_FAST);
  57:main.c        **** 		    break;
  58:main.c        **** 		
  59:main.c        ****         default:
  60:main.c        ****             break;
 154              		.loc 1 60 0
 155 0010 03E0     		b	.L5
 156              	.L7:
  56:main.c        **** 		    break;
 157              		.loc 1 56 0
 158 0012 0020     		mov	r0, #0
 159 0014 FFF7FEFF 		bl	CyBle_GappStartAdvertisement
  57:main.c        **** 		
 160              		.loc 1 57 0
 161 0018 C046     		mov	r8, r8
 162              	.L5:
  61:main.c        ****     }   	
  62:main.c        **** 
  63:main.c        **** }
 163              		.loc 1 63 0
ARM GAS  C:\Users\TTSS\AppData\Local\Temp\cc7u9jdS.s 			page 5


 164 001a BD46     		mov	sp, r7
 165 001c 02B0     		add	sp, sp, #8
 166              		@ sp needed
 167 001e 80BD     		pop	{r7, pc}
 168              		.cfi_endproc
 169              	.LFE38:
 170              		.size	StackEventHandler, .-StackEventHandler
 171              		.section	.text.readParticles,"ax",%progbits
 172              		.align	2
 173              		.global	readParticles
 174              		.code	16
 175              		.thumb_func
 176              		.type	readParticles, %function
 177              	readParticles:
 178              	.LFB39:
  64:main.c        **** 
  65:main.c        **** /*******************************************************************
  66:main.c        **** * NAME :            char* readParticles()
  67:main.c        **** *
  68:main.c        **** * DESCRIPTION :     Read sensor measurement
  69:main.c        **** * OUTPUTS :
  70:main.c        **** *       char* Sensor TX packet
  71:main.c        **** */
  72:main.c        **** char* readParticles(){
 179              		.loc 1 72 0
 180              		.cfi_startproc
 181 0000 80B5     		push	{r7, lr}
 182              		.cfi_def_cfa_offset 8
 183              		.cfi_offset 7, -8
 184              		.cfi_offset 14, -4
 185 0002 82B0     		sub	sp, sp, #8
 186              		.cfi_def_cfa_offset 16
 187 0004 00AF     		add	r7, sp, #0
 188              		.cfi_def_cfa_register 7
  73:main.c        ****     int idx;
  74:main.c        ****     static char senData[32];
  75:main.c        ****     senData[0]=0x42;
 189              		.loc 1 75 0
 190 0006 114B     		ldr	r3, .L14
 191 0008 4222     		mov	r2, #66
 192 000a 1A70     		strb	r2, [r3]
  76:main.c        ****     while(Serial_UartGetChar()!= 0x42); // Wait for start character
 193              		.loc 1 76 0
 194 000c C046     		mov	r8, r8
 195              	.L10:
 196              		.loc 1 76 0 is_stmt 0 discriminator 1
 197 000e FFF7FEFF 		bl	Serial_UartGetChar
 198 0012 031E     		sub	r3, r0, #0
 199 0014 422B     		cmp	r3, #66
 200 0016 FAD1     		bne	.L10
  77:main.c        ****     for(idx=1;idx<32;idx++){ // Read TX packet
 201              		.loc 1 77 0 is_stmt 1
 202 0018 0123     		mov	r3, #1
 203 001a 7B60     		str	r3, [r7, #4]
 204 001c 0EE0     		b	.L11
 205              	.L12:
  78:main.c        ****         CyDelay(10); // Wait for data
ARM GAS  C:\Users\TTSS\AppData\Local\Temp\cc7u9jdS.s 			page 6


 206              		.loc 1 78 0 discriminator 3
 207 001e 0A20     		mov	r0, #10
 208 0020 FFF7FEFF 		bl	CyDelay
  79:main.c        ****         senData[idx]=Serial_UartGetChar();// Get next byte
 209              		.loc 1 79 0 discriminator 3
 210 0024 FFF7FEFF 		bl	Serial_UartGetChar
 211 0028 031C     		mov	r3, r0
 212 002a D9B2     		uxtb	r1, r3
 213 002c 074A     		ldr	r2, .L14
 214 002e 7B68     		ldr	r3, [r7, #4]
 215 0030 D318     		add	r3, r2, r3
 216 0032 0A1C     		add	r2, r1, #0
 217 0034 1A70     		strb	r2, [r3]
  77:main.c        ****     for(idx=1;idx<32;idx++){ // Read TX packet
 218              		.loc 1 77 0 discriminator 3
 219 0036 7B68     		ldr	r3, [r7, #4]
 220 0038 0133     		add	r3, r3, #1
 221 003a 7B60     		str	r3, [r7, #4]
 222              	.L11:
  77:main.c        ****     for(idx=1;idx<32;idx++){ // Read TX packet
 223              		.loc 1 77 0 is_stmt 0 discriminator 1
 224 003c 7B68     		ldr	r3, [r7, #4]
 225 003e 1F2B     		cmp	r3, #31
 226 0040 EDDD     		ble	.L12
  80:main.c        ****     }
  81:main.c        ****     return senData;
 227              		.loc 1 81 0 is_stmt 1
 228 0042 024B     		ldr	r3, .L14
  82:main.c        **** }
 229              		.loc 1 82 0
 230 0044 181C     		mov	r0, r3
 231 0046 BD46     		mov	sp, r7
 232 0048 02B0     		add	sp, sp, #8
 233              		@ sp needed
 234 004a 80BD     		pop	{r7, pc}
 235              	.L15:
 236              		.align	2
 237              	.L14:
 238 004c 00000000 		.word	senData.6534
 239              		.cfi_endproc
 240              	.LFE39:
 241              		.size	readParticles, .-readParticles
 242              		.bss
 243              		.align	2
 244              	senData.6534:
 245 0000 00000000 		.space	32
 245      00000000 
 245      00000000 
 245      00000000 
 245      00000000 
 246              		.text
 247              	.Letext0:
 248              		.file 2 "Generated_Source\\PSoC4/cytypes.h"
 249              		.file 3 "Generated_Source\\PSoC4/BLE_Stack.h"
 250              		.file 4 "Generated_Source\\PSoC4/BLE_StackGap.h"