ARM GAS  C:\Users\TTSS\AppData\Local\Temp\ccAdGNmk.s 			page 1


   1              		.cpu cortex-m0
   2              		.fpu softvfp
   3              		.eabi_attribute 20, 1
   4              		.eabi_attribute 21, 1
   5              		.eabi_attribute 23, 3
   6              		.eabi_attribute 24, 1
   7              		.eabi_attribute 25, 1
   8              		.eabi_attribute 26, 1
   9              		.eabi_attribute 30, 6
  10              		.eabi_attribute 34, 0
  11              		.eabi_attribute 18, 4
  12              		.code	16
  13              		.file	"Serial_SPI_UART_INT.c"
  14              		.text
  15              	.Ltext0:
  16              		.cfi_sections	.debug_frame
  17              		.section	.text.Serial_SPI_UART_ISR,"ax",%progbits
  18              		.align	2
  19              		.global	Serial_SPI_UART_ISR
  20              		.code	16
  21              		.thumb_func
  22              		.type	Serial_SPI_UART_ISR, %function
  23              	Serial_SPI_UART_ISR:
  24              	.LFB2:
  25              		.file 1 "Generated_Source\\PSoC4\\Serial_SPI_UART_INT.c"
   1:Generated_Source\PSoC4/Serial_SPI_UART_INT.c **** /*******************************************************************************
   2:Generated_Source\PSoC4/Serial_SPI_UART_INT.c **** * File Name: Serial_SPI_UART_INT.c
   3:Generated_Source\PSoC4/Serial_SPI_UART_INT.c **** * Version 3.10
   4:Generated_Source\PSoC4/Serial_SPI_UART_INT.c **** *
   5:Generated_Source\PSoC4/Serial_SPI_UART_INT.c **** * Description:
   6:Generated_Source\PSoC4/Serial_SPI_UART_INT.c **** *  This file provides the source code to the Interrupt Service Routine for
   7:Generated_Source\PSoC4/Serial_SPI_UART_INT.c **** *  the SCB Component in SPI and UART modes.
   8:Generated_Source\PSoC4/Serial_SPI_UART_INT.c **** *
   9:Generated_Source\PSoC4/Serial_SPI_UART_INT.c **** * Note:
  10:Generated_Source\PSoC4/Serial_SPI_UART_INT.c **** *
  11:Generated_Source\PSoC4/Serial_SPI_UART_INT.c **** ********************************************************************************
  12:Generated_Source\PSoC4/Serial_SPI_UART_INT.c **** * Copyright 2013-2015, Cypress Semiconductor Corporation.  All rights reserved.
  13:Generated_Source\PSoC4/Serial_SPI_UART_INT.c **** * You may use this file only in accordance with the license, terms, conditions,
  14:Generated_Source\PSoC4/Serial_SPI_UART_INT.c **** * disclaimers, and limitations in the end user license agreement accompanying
  15:Generated_Source\PSoC4/Serial_SPI_UART_INT.c **** * the software package with which this file was provided.
  16:Generated_Source\PSoC4/Serial_SPI_UART_INT.c **** *******************************************************************************/
  17:Generated_Source\PSoC4/Serial_SPI_UART_INT.c **** 
  18:Generated_Source\PSoC4/Serial_SPI_UART_INT.c **** #include "Serial_PVT.h"
  19:Generated_Source\PSoC4/Serial_SPI_UART_INT.c **** #include "Serial_SPI_UART_PVT.h"
  20:Generated_Source\PSoC4/Serial_SPI_UART_INT.c **** #include "cyapicallbacks.h"
  21:Generated_Source\PSoC4/Serial_SPI_UART_INT.c **** 
  22:Generated_Source\PSoC4/Serial_SPI_UART_INT.c **** #if (Serial_SCB_IRQ_INTERNAL)
  23:Generated_Source\PSoC4/Serial_SPI_UART_INT.c **** /*******************************************************************************
  24:Generated_Source\PSoC4/Serial_SPI_UART_INT.c **** * Function Name: Serial_SPI_UART_ISR
  25:Generated_Source\PSoC4/Serial_SPI_UART_INT.c **** ********************************************************************************
  26:Generated_Source\PSoC4/Serial_SPI_UART_INT.c **** *
  27:Generated_Source\PSoC4/Serial_SPI_UART_INT.c **** * Summary:
  28:Generated_Source\PSoC4/Serial_SPI_UART_INT.c **** *  Handles the Interrupt Service Routine for the SCB SPI or UART modes.
  29:Generated_Source\PSoC4/Serial_SPI_UART_INT.c **** *
  30:Generated_Source\PSoC4/Serial_SPI_UART_INT.c **** * Parameters:
  31:Generated_Source\PSoC4/Serial_SPI_UART_INT.c **** *  None
  32:Generated_Source\PSoC4/Serial_SPI_UART_INT.c **** *
ARM GAS  C:\Users\TTSS\AppData\Local\Temp\ccAdGNmk.s 			page 2


  33:Generated_Source\PSoC4/Serial_SPI_UART_INT.c **** * Return:
  34:Generated_Source\PSoC4/Serial_SPI_UART_INT.c **** *  None
  35:Generated_Source\PSoC4/Serial_SPI_UART_INT.c **** *
  36:Generated_Source\PSoC4/Serial_SPI_UART_INT.c **** *******************************************************************************/
  37:Generated_Source\PSoC4/Serial_SPI_UART_INT.c **** CY_ISR(Serial_SPI_UART_ISR)
  38:Generated_Source\PSoC4/Serial_SPI_UART_INT.c **** {
  26              		.loc 1 38 0
  27              		.cfi_startproc
  28 0000 80B5     		push	{r7, lr}
  29              		.cfi_def_cfa_offset 8
  30              		.cfi_offset 7, -8
  31              		.cfi_offset 14, -4
  32 0002 82B0     		sub	sp, sp, #8
  33              		.cfi_def_cfa_offset 16
  34 0004 00AF     		add	r7, sp, #0
  35              		.cfi_def_cfa_register 7
  39:Generated_Source\PSoC4/Serial_SPI_UART_INT.c **** #if (Serial_INTERNAL_RX_SW_BUFFER_CONST)
  40:Generated_Source\PSoC4/Serial_SPI_UART_INT.c ****     uint32 locHead;
  41:Generated_Source\PSoC4/Serial_SPI_UART_INT.c **** #endif /* (Serial_INTERNAL_RX_SW_BUFFER_CONST) */
  42:Generated_Source\PSoC4/Serial_SPI_UART_INT.c **** 
  43:Generated_Source\PSoC4/Serial_SPI_UART_INT.c **** #if (Serial_INTERNAL_TX_SW_BUFFER_CONST)
  44:Generated_Source\PSoC4/Serial_SPI_UART_INT.c ****     uint32 locTail;
  45:Generated_Source\PSoC4/Serial_SPI_UART_INT.c **** #endif /* (Serial_INTERNAL_TX_SW_BUFFER_CONST) */
  46:Generated_Source\PSoC4/Serial_SPI_UART_INT.c **** 
  47:Generated_Source\PSoC4/Serial_SPI_UART_INT.c **** #ifdef Serial_SPI_UART_ISR_ENTRY_CALLBACK
  48:Generated_Source\PSoC4/Serial_SPI_UART_INT.c ****     Serial_SPI_UART_ISR_EntryCallback();
  49:Generated_Source\PSoC4/Serial_SPI_UART_INT.c **** #endif /* Serial_SPI_UART_ISR_ENTRY_CALLBACK */
  50:Generated_Source\PSoC4/Serial_SPI_UART_INT.c **** 
  51:Generated_Source\PSoC4/Serial_SPI_UART_INT.c ****     if (NULL != Serial_customIntrHandler)
  36              		.loc 1 51 0
  37 0006 1B4B     		ldr	r3, .L8
  38 0008 1B68     		ldr	r3, [r3]
  39 000a 002B     		cmp	r3, #0
  40 000c 02D0     		beq	.L2
  52:Generated_Source\PSoC4/Serial_SPI_UART_INT.c ****     {
  53:Generated_Source\PSoC4/Serial_SPI_UART_INT.c ****         Serial_customIntrHandler();
  41              		.loc 1 53 0
  42 000e 194B     		ldr	r3, .L8
  43 0010 1B68     		ldr	r3, [r3]
  44 0012 9847     		blx	r3
  45              	.L2:
  54:Generated_Source\PSoC4/Serial_SPI_UART_INT.c ****     }
  55:Generated_Source\PSoC4/Serial_SPI_UART_INT.c **** 
  56:Generated_Source\PSoC4/Serial_SPI_UART_INT.c ****     #if (Serial_CHECK_SPI_WAKE_ENABLE)
  57:Generated_Source\PSoC4/Serial_SPI_UART_INT.c ****     {
  58:Generated_Source\PSoC4/Serial_SPI_UART_INT.c ****         /* Clear SPI wakeup source */
  59:Generated_Source\PSoC4/Serial_SPI_UART_INT.c ****         Serial_ClearSpiExtClkInterruptSource(Serial_INTR_SPI_EC_WAKE_UP);
  60:Generated_Source\PSoC4/Serial_SPI_UART_INT.c ****     }
  61:Generated_Source\PSoC4/Serial_SPI_UART_INT.c ****     #endif
  62:Generated_Source\PSoC4/Serial_SPI_UART_INT.c **** 
  63:Generated_Source\PSoC4/Serial_SPI_UART_INT.c ****     #if (Serial_CHECK_RX_SW_BUFFER)
  64:Generated_Source\PSoC4/Serial_SPI_UART_INT.c ****     {
  65:Generated_Source\PSoC4/Serial_SPI_UART_INT.c ****         if (Serial_CHECK_INTR_RX_MASKED(Serial_INTR_RX_NOT_EMPTY))
  46              		.loc 1 65 0
  47 0014 184B     		ldr	r3, .L8+4
  48 0016 1B68     		ldr	r3, [r3]
  49 0018 0422     		mov	r2, #4
ARM GAS  C:\Users\TTSS\AppData\Local\Temp\ccAdGNmk.s 			page 3


  50 001a 1340     		and	r3, r2
  51 001c 26D0     		beq	.L1
  52              	.L7:
  66:Generated_Source\PSoC4/Serial_SPI_UART_INT.c ****         {
  67:Generated_Source\PSoC4/Serial_SPI_UART_INT.c ****             do
  68:Generated_Source\PSoC4/Serial_SPI_UART_INT.c ****             {
  69:Generated_Source\PSoC4/Serial_SPI_UART_INT.c ****                 /* Move local head index */
  70:Generated_Source\PSoC4/Serial_SPI_UART_INT.c ****                 locHead = (Serial_rxBufferHead + 1u);
  53              		.loc 1 70 0
  54 001e 174B     		ldr	r3, .L8+8
  55 0020 1B68     		ldr	r3, [r3]
  56 0022 0133     		add	r3, r3, #1
  57 0024 7B60     		str	r3, [r7, #4]
  71:Generated_Source\PSoC4/Serial_SPI_UART_INT.c **** 
  72:Generated_Source\PSoC4/Serial_SPI_UART_INT.c ****                 /* Adjust local head index */
  73:Generated_Source\PSoC4/Serial_SPI_UART_INT.c ****                 if (Serial_INTERNAL_RX_BUFFER_SIZE == locHead)
  58              		.loc 1 73 0
  59 0026 7B68     		ldr	r3, [r7, #4]
  60 0028 242B     		cmp	r3, #36
  61 002a 01D1     		bne	.L4
  74:Generated_Source\PSoC4/Serial_SPI_UART_INT.c ****                 {
  75:Generated_Source\PSoC4/Serial_SPI_UART_INT.c ****                     locHead = 0u;
  62              		.loc 1 75 0
  63 002c 0023     		mov	r3, #0
  64 002e 7B60     		str	r3, [r7, #4]
  65              	.L4:
  76:Generated_Source\PSoC4/Serial_SPI_UART_INT.c ****                 }
  77:Generated_Source\PSoC4/Serial_SPI_UART_INT.c **** 
  78:Generated_Source\PSoC4/Serial_SPI_UART_INT.c ****                 if (locHead == Serial_rxBufferTail)
  66              		.loc 1 78 0
  67 0030 134B     		ldr	r3, .L8+12
  68 0032 1B68     		ldr	r3, [r3]
  69 0034 7A68     		ldr	r2, [r7, #4]
  70 0036 9A42     		cmp	r2, r3
  71 0038 05D1     		bne	.L5
  79:Generated_Source\PSoC4/Serial_SPI_UART_INT.c ****                 {
  80:Generated_Source\PSoC4/Serial_SPI_UART_INT.c ****                     #if (Serial_CHECK_UART_RTS_CONTROL_FLOW)
  81:Generated_Source\PSoC4/Serial_SPI_UART_INT.c ****                     {
  82:Generated_Source\PSoC4/Serial_SPI_UART_INT.c ****                         /* There is no space in the software buffer - disable the
  83:Generated_Source\PSoC4/Serial_SPI_UART_INT.c ****                         * RX Not Empty interrupt source. The data elements are
  84:Generated_Source\PSoC4/Serial_SPI_UART_INT.c ****                         * still being received into the RX FIFO until the RTS signal
  85:Generated_Source\PSoC4/Serial_SPI_UART_INT.c ****                         * stops the transmitter. After the data element is read from the
  86:Generated_Source\PSoC4/Serial_SPI_UART_INT.c ****                         * buffer, the RX Not Empty interrupt source is enabled to
  87:Generated_Source\PSoC4/Serial_SPI_UART_INT.c ****                         * move the next data element in the software buffer.
  88:Generated_Source\PSoC4/Serial_SPI_UART_INT.c ****                         */
  89:Generated_Source\PSoC4/Serial_SPI_UART_INT.c ****                         Serial_INTR_RX_MASK_REG &= ~Serial_INTR_RX_NOT_EMPTY;
  90:Generated_Source\PSoC4/Serial_SPI_UART_INT.c ****                         break;
  91:Generated_Source\PSoC4/Serial_SPI_UART_INT.c ****                     }
  92:Generated_Source\PSoC4/Serial_SPI_UART_INT.c ****                     #else
  93:Generated_Source\PSoC4/Serial_SPI_UART_INT.c ****                     {
  94:Generated_Source\PSoC4/Serial_SPI_UART_INT.c ****                         /* Overflow: through away received data element */
  95:Generated_Source\PSoC4/Serial_SPI_UART_INT.c ****                         (void) Serial_RX_FIFO_RD_REG;
  72              		.loc 1 95 0
  73 003a 124B     		ldr	r3, .L8+16
  74 003c 1B68     		ldr	r3, [r3]
  96:Generated_Source\PSoC4/Serial_SPI_UART_INT.c ****                         Serial_rxBufferOverflow = (uint8) Serial_INTR_RX_OVERFLOW;
  75              		.loc 1 96 0
ARM GAS  C:\Users\TTSS\AppData\Local\Temp\ccAdGNmk.s 			page 4


  76 003e 124B     		ldr	r3, .L8+20
  77 0040 2022     		mov	r2, #32
  78 0042 1A70     		strb	r2, [r3]
  79 0044 0AE0     		b	.L6
  80              	.L5:
  97:Generated_Source\PSoC4/Serial_SPI_UART_INT.c ****                     }
  98:Generated_Source\PSoC4/Serial_SPI_UART_INT.c ****                     #endif
  99:Generated_Source\PSoC4/Serial_SPI_UART_INT.c ****                 }
 100:Generated_Source\PSoC4/Serial_SPI_UART_INT.c ****                 else
 101:Generated_Source\PSoC4/Serial_SPI_UART_INT.c ****                 {
 102:Generated_Source\PSoC4/Serial_SPI_UART_INT.c ****                     /* Store received data */
 103:Generated_Source\PSoC4/Serial_SPI_UART_INT.c ****                     Serial_PutWordInRxBuffer(locHead, Serial_RX_FIFO_RD_REG);
  81              		.loc 1 103 0
  82 0046 0F4B     		ldr	r3, .L8+16
  83 0048 1B68     		ldr	r3, [r3]
  84 004a D9B2     		uxtb	r1, r3
  85 004c 0F4A     		ldr	r2, .L8+24
  86 004e 7B68     		ldr	r3, [r7, #4]
  87 0050 D318     		add	r3, r2, r3
  88 0052 0A1C     		add	r2, r1, #0
  89 0054 1A70     		strb	r2, [r3]
 104:Generated_Source\PSoC4/Serial_SPI_UART_INT.c **** 
 105:Generated_Source\PSoC4/Serial_SPI_UART_INT.c ****                     /* Move head index */
 106:Generated_Source\PSoC4/Serial_SPI_UART_INT.c ****                     Serial_rxBufferHead = locHead;
  90              		.loc 1 106 0
  91 0056 094B     		ldr	r3, .L8+8
  92 0058 7A68     		ldr	r2, [r7, #4]
  93 005a 1A60     		str	r2, [r3]
  94              	.L6:
 107:Generated_Source\PSoC4/Serial_SPI_UART_INT.c ****                 }
 108:Generated_Source\PSoC4/Serial_SPI_UART_INT.c ****             }
 109:Generated_Source\PSoC4/Serial_SPI_UART_INT.c ****             while(0u != Serial_GET_RX_FIFO_ENTRIES);
  95              		.loc 1 109 0
  96 005c 0C4B     		ldr	r3, .L8+28
  97 005e 1B68     		ldr	r3, [r3]
  98 0060 1F22     		mov	r2, #31
  99 0062 1340     		and	r3, r2
 100 0064 DBD1     		bne	.L7
 110:Generated_Source\PSoC4/Serial_SPI_UART_INT.c **** 
 111:Generated_Source\PSoC4/Serial_SPI_UART_INT.c ****             Serial_ClearRxInterruptSource(Serial_INTR_RX_NOT_EMPTY);
 101              		.loc 1 111 0
 102 0066 0B4B     		ldr	r3, .L8+32
 103 0068 0422     		mov	r2, #4
 104 006a 1A60     		str	r2, [r3]
 105              	.L1:
 112:Generated_Source\PSoC4/Serial_SPI_UART_INT.c ****         }
 113:Generated_Source\PSoC4/Serial_SPI_UART_INT.c ****     }
 114:Generated_Source\PSoC4/Serial_SPI_UART_INT.c ****     #endif
 115:Generated_Source\PSoC4/Serial_SPI_UART_INT.c **** 
 116:Generated_Source\PSoC4/Serial_SPI_UART_INT.c **** 
 117:Generated_Source\PSoC4/Serial_SPI_UART_INT.c ****     #if (Serial_CHECK_TX_SW_BUFFER)
 118:Generated_Source\PSoC4/Serial_SPI_UART_INT.c ****     {
 119:Generated_Source\PSoC4/Serial_SPI_UART_INT.c ****         if (Serial_CHECK_INTR_TX_MASKED(Serial_INTR_TX_NOT_FULL))
 120:Generated_Source\PSoC4/Serial_SPI_UART_INT.c ****         {
 121:Generated_Source\PSoC4/Serial_SPI_UART_INT.c ****             do
 122:Generated_Source\PSoC4/Serial_SPI_UART_INT.c ****             {
 123:Generated_Source\PSoC4/Serial_SPI_UART_INT.c ****                 /* Check for room in TX software buffer */
ARM GAS  C:\Users\TTSS\AppData\Local\Temp\ccAdGNmk.s 			page 5


 124:Generated_Source\PSoC4/Serial_SPI_UART_INT.c ****                 if (Serial_txBufferHead != Serial_txBufferTail)
 125:Generated_Source\PSoC4/Serial_SPI_UART_INT.c ****                 {
 126:Generated_Source\PSoC4/Serial_SPI_UART_INT.c ****                     /* Move local tail index */
 127:Generated_Source\PSoC4/Serial_SPI_UART_INT.c ****                     locTail = (Serial_txBufferTail + 1u);
 128:Generated_Source\PSoC4/Serial_SPI_UART_INT.c **** 
 129:Generated_Source\PSoC4/Serial_SPI_UART_INT.c ****                     /* Adjust local tail index */
 130:Generated_Source\PSoC4/Serial_SPI_UART_INT.c ****                     if (Serial_TX_BUFFER_SIZE == locTail)
 131:Generated_Source\PSoC4/Serial_SPI_UART_INT.c ****                     {
 132:Generated_Source\PSoC4/Serial_SPI_UART_INT.c ****                         locTail = 0u;
 133:Generated_Source\PSoC4/Serial_SPI_UART_INT.c ****                     }
 134:Generated_Source\PSoC4/Serial_SPI_UART_INT.c **** 
 135:Generated_Source\PSoC4/Serial_SPI_UART_INT.c ****                     /* Put data into TX FIFO */
 136:Generated_Source\PSoC4/Serial_SPI_UART_INT.c ****                     Serial_TX_FIFO_WR_REG = Serial_GetWordFromTxBuffer(locTail);
 137:Generated_Source\PSoC4/Serial_SPI_UART_INT.c **** 
 138:Generated_Source\PSoC4/Serial_SPI_UART_INT.c ****                     /* Move tail index */
 139:Generated_Source\PSoC4/Serial_SPI_UART_INT.c ****                     Serial_txBufferTail = locTail;
 140:Generated_Source\PSoC4/Serial_SPI_UART_INT.c ****                 }
 141:Generated_Source\PSoC4/Serial_SPI_UART_INT.c ****                 else
 142:Generated_Source\PSoC4/Serial_SPI_UART_INT.c ****                 {
 143:Generated_Source\PSoC4/Serial_SPI_UART_INT.c ****                     /* TX software buffer is empty: complete transfer */
 144:Generated_Source\PSoC4/Serial_SPI_UART_INT.c ****                     Serial_DISABLE_INTR_TX(Serial_INTR_TX_NOT_FULL);
 145:Generated_Source\PSoC4/Serial_SPI_UART_INT.c ****                     break;
 146:Generated_Source\PSoC4/Serial_SPI_UART_INT.c ****                 }
 147:Generated_Source\PSoC4/Serial_SPI_UART_INT.c ****             }
 148:Generated_Source\PSoC4/Serial_SPI_UART_INT.c ****             while (Serial_SPI_UART_FIFO_SIZE != Serial_GET_TX_FIFO_ENTRIES);
 149:Generated_Source\PSoC4/Serial_SPI_UART_INT.c **** 
 150:Generated_Source\PSoC4/Serial_SPI_UART_INT.c ****             Serial_ClearTxInterruptSource(Serial_INTR_TX_NOT_FULL);
 151:Generated_Source\PSoC4/Serial_SPI_UART_INT.c ****         }
 152:Generated_Source\PSoC4/Serial_SPI_UART_INT.c ****     }
 153:Generated_Source\PSoC4/Serial_SPI_UART_INT.c ****     #endif
 154:Generated_Source\PSoC4/Serial_SPI_UART_INT.c ****     
 155:Generated_Source\PSoC4/Serial_SPI_UART_INT.c **** #ifdef Serial_SPI_UART_ISR_EXIT_CALLBACK
 156:Generated_Source\PSoC4/Serial_SPI_UART_INT.c ****     Serial_SPI_UART_ISR_ExitCallback();
 157:Generated_Source\PSoC4/Serial_SPI_UART_INT.c **** #endif /* Serial_SPI_UART_ISR_EXIT_CALLBACK */
 158:Generated_Source\PSoC4/Serial_SPI_UART_INT.c ****     
 159:Generated_Source\PSoC4/Serial_SPI_UART_INT.c **** }
 106              		.loc 1 159 0
 107 006c BD46     		mov	sp, r7
 108 006e 02B0     		add	sp, sp, #8
 109              		@ sp needed
 110 0070 80BD     		pop	{r7, pc}
 111              	.L9:
 112 0072 C046     		.align	2
 113              	.L8:
 114 0074 00000000 		.word	Serial_customIntrHandler
 115 0078 CC0F2440 		.word	1076105164
 116 007c 00000000 		.word	Serial_rxBufferHead
 117 0080 00000000 		.word	Serial_rxBufferTail
 118 0084 40032440 		.word	1076101952
 119 0088 00000000 		.word	Serial_rxBufferOverflow
 120 008c 00000000 		.word	Serial_rxBufferInternal
 121 0090 08032440 		.word	1076101896
 122 0094 C00F2440 		.word	1076105152
 123              		.cfi_endproc
 124              	.LFE2:
 125              		.size	Serial_SPI_UART_ISR, .-Serial_SPI_UART_ISR
 126              		.text
ARM GAS  C:\Users\TTSS\AppData\Local\Temp\ccAdGNmk.s 			page 6


 127              	.Letext0:
 128              		.file 2 "Generated_Source\\PSoC4/cytypes.h"
 129              		.file 3 "Generated_Source\\PSoC4\\Serial_PVT.h"
 130              		.file 4 "Generated_Source\\PSoC4\\Serial_SPI_UART_PVT.h"