ARM GAS  C:\Users\TTSS\AppData\Local\Temp\ccfbp0gi.s 			page 1


   1              		.syntax unified
   2              		.cpu cortex-m0
   3              		.fpu softvfp
   4              		.eabi_attribute 20, 1
   5              		.eabi_attribute 21, 1
   6              		.eabi_attribute 23, 3
   7              		.eabi_attribute 24, 1
   8              		.eabi_attribute 25, 1
   9              		.eabi_attribute 26, 1
  10              		.eabi_attribute 30, 6
  11              		.eabi_attribute 34, 0
  12              		.eabi_attribute 18, 4
  13              		.thumb
  14              		.syntax unified
  15              		.file	"BLE_HAL_PVT.c"
  16              		.text
  17              	.Ltext0:
  18              		.cfi_sections	.debug_frame
  19              		.section	.text.CyBLE_Nvram_Write,"ax",%progbits
  20              		.align	2
  21              		.global	CyBLE_Nvram_Write
  22              		.code	16
  23              		.thumb_func
  24              		.type	CyBLE_Nvram_Write, %function
  25              	CyBLE_Nvram_Write:
  26              	.LFB2:
  27              		.file 1 "Generated_Source\\PSoC4\\BLE_HAL_PVT.c"
   1:Generated_Source\PSoC4/BLE_HAL_PVT.c **** /***************************************************************************//**
   2:Generated_Source\PSoC4/BLE_HAL_PVT.c **** * \file CYBLE_HAL_PVT.c
   3:Generated_Source\PSoC4/BLE_HAL_PVT.c **** * \version 3.40
   4:Generated_Source\PSoC4/BLE_HAL_PVT.c **** *
   5:Generated_Source\PSoC4/BLE_HAL_PVT.c **** * \brief
   6:Generated_Source\PSoC4/BLE_HAL_PVT.c **** *  This file contains the source code for the HAL section of the BLE component
   7:Generated_Source\PSoC4/BLE_HAL_PVT.c **** *
   8:Generated_Source\PSoC4/BLE_HAL_PVT.c **** ********************************************************************************
   9:Generated_Source\PSoC4/BLE_HAL_PVT.c **** * \copyright
  10:Generated_Source\PSoC4/BLE_HAL_PVT.c **** * Copyright 2014-2016, Cypress Semiconductor Corporation.  All rights reserved.
  11:Generated_Source\PSoC4/BLE_HAL_PVT.c **** * You may use this file only in accordance with the license, terms, conditions,
  12:Generated_Source\PSoC4/BLE_HAL_PVT.c **** * disclaimers, and limitations in the end user license agreement accompanying
  13:Generated_Source\PSoC4/BLE_HAL_PVT.c **** * the software package with which this file was provided.
  14:Generated_Source\PSoC4/BLE_HAL_PVT.c **** *******************************************************************************/
  15:Generated_Source\PSoC4/BLE_HAL_PVT.c **** 
  16:Generated_Source\PSoC4/BLE_HAL_PVT.c **** #include "BLE_HAL_PVT.h"
  17:Generated_Source\PSoC4/BLE_HAL_PVT.c **** 
  18:Generated_Source\PSoC4/BLE_HAL_PVT.c **** 
  19:Generated_Source\PSoC4/BLE_HAL_PVT.c **** #if(CYBLE_MODE == CYBLE_HCI)
  20:Generated_Source\PSoC4/BLE_HAL_PVT.c **** 
  21:Generated_Source\PSoC4/BLE_HAL_PVT.c **** 
  22:Generated_Source\PSoC4/BLE_HAL_PVT.c **** /*******************************************************************************
  23:Generated_Source\PSoC4/BLE_HAL_PVT.c **** * Function Name: CyBLE_Uart_Start
  24:Generated_Source\PSoC4/BLE_HAL_PVT.c **** ****************************************************************************//**
  25:Generated_Source\PSoC4/BLE_HAL_PVT.c **** *
  26:Generated_Source\PSoC4/BLE_HAL_PVT.c **** *  Enables the platform UART Tx and RX interrupts and then enables the UART
  27:Generated_Source\PSoC4/BLE_HAL_PVT.c **** *  component.
  28:Generated_Source\PSoC4/BLE_HAL_PVT.c **** *
  29:Generated_Source\PSoC4/BLE_HAL_PVT.c **** * \return
  30:Generated_Source\PSoC4/BLE_HAL_PVT.c **** *  None
ARM GAS  C:\Users\TTSS\AppData\Local\Temp\ccfbp0gi.s 			page 2


  31:Generated_Source\PSoC4/BLE_HAL_PVT.c **** *
  32:Generated_Source\PSoC4/BLE_HAL_PVT.c **** *******************************************************************************/
  33:Generated_Source\PSoC4/BLE_HAL_PVT.c **** void CyBLE_Uart_Start (void)
  34:Generated_Source\PSoC4/BLE_HAL_PVT.c **** {
  35:Generated_Source\PSoC4/BLE_HAL_PVT.c ****     #if (CYBLE_HCI_TYPE == CYBLE_HCI_OVER_UART)
  36:Generated_Source\PSoC4/BLE_HAL_PVT.c ****         /* Setup ISR */
  37:Generated_Source\PSoC4/BLE_HAL_PVT.c ****         BLE_uart_isr_StartEx(&CyBLE_Uart_Interrupt);
  38:Generated_Source\PSoC4/BLE_HAL_PVT.c **** 
  39:Generated_Source\PSoC4/BLE_HAL_PVT.c ****         BLE_HAL_Uart_Start();
  40:Generated_Source\PSoC4/BLE_HAL_PVT.c ****     #endif /* (CYBLE_HCI_TYPE == CYBLE_HCI_OVER_UART) */
  41:Generated_Source\PSoC4/BLE_HAL_PVT.c **** }
  42:Generated_Source\PSoC4/BLE_HAL_PVT.c **** 
  43:Generated_Source\PSoC4/BLE_HAL_PVT.c **** 
  44:Generated_Source\PSoC4/BLE_HAL_PVT.c **** /*******************************************************************************
  45:Generated_Source\PSoC4/BLE_HAL_PVT.c **** * Function Name: CyBLE_Uart_Stop
  46:Generated_Source\PSoC4/BLE_HAL_PVT.c **** ****************************************************************************//**
  47:Generated_Source\PSoC4/BLE_HAL_PVT.c **** *
  48:Generated_Source\PSoC4/BLE_HAL_PVT.c **** *  Disables the UART, clears all pending interrupts and disables the UART Tx
  49:Generated_Source\PSoC4/BLE_HAL_PVT.c **** *  and RX interrupts. This will also empty out the FIFOs.
  50:Generated_Source\PSoC4/BLE_HAL_PVT.c **** *
  51:Generated_Source\PSoC4/BLE_HAL_PVT.c **** * \return
  52:Generated_Source\PSoC4/BLE_HAL_PVT.c **** *  None
  53:Generated_Source\PSoC4/BLE_HAL_PVT.c **** *
  54:Generated_Source\PSoC4/BLE_HAL_PVT.c **** *******************************************************************************/
  55:Generated_Source\PSoC4/BLE_HAL_PVT.c **** void CyBLE_Uart_Stop (void)
  56:Generated_Source\PSoC4/BLE_HAL_PVT.c **** {
  57:Generated_Source\PSoC4/BLE_HAL_PVT.c ****     #if (CYBLE_HCI_TYPE == CYBLE_HCI_OVER_UART)
  58:Generated_Source\PSoC4/BLE_HAL_PVT.c ****         /* Stop interrupt and UART */
  59:Generated_Source\PSoC4/BLE_HAL_PVT.c ****         BLE_uart_isr_Stop();
  60:Generated_Source\PSoC4/BLE_HAL_PVT.c **** 
  61:Generated_Source\PSoC4/BLE_HAL_PVT.c ****         BLE_HAL_Uart_Stop();
  62:Generated_Source\PSoC4/BLE_HAL_PVT.c ****     #endif /* (CYBLE_HCI_TYPE == CYBLE_HCI_OVER_UART) */
  63:Generated_Source\PSoC4/BLE_HAL_PVT.c **** }
  64:Generated_Source\PSoC4/BLE_HAL_PVT.c **** 
  65:Generated_Source\PSoC4/BLE_HAL_PVT.c **** 
  66:Generated_Source\PSoC4/BLE_HAL_PVT.c **** /*******************************************************************************
  67:Generated_Source\PSoC4/BLE_HAL_PVT.c **** * Function Name: CyBLE_Uart_Transmit
  68:Generated_Source\PSoC4/BLE_HAL_PVT.c **** ****************************************************************************//**
  69:Generated_Source\PSoC4/BLE_HAL_PVT.c **** *
  70:Generated_Source\PSoC4/BLE_HAL_PVT.c **** *  Sends the data to Uart Tx FIFO. The function handles data length up to the 
  71:Generated_Source\PSoC4/BLE_HAL_PVT.c **** *  supported Tx FIFO length of the uart hardware module.
  72:Generated_Source\PSoC4/BLE_HAL_PVT.c **** *
  73:Generated_Source\PSoC4/BLE_HAL_PVT.c **** *  \param data: Pointer to the data to send through the UART
  74:Generated_Source\PSoC4/BLE_HAL_PVT.c **** *  \param length: the length of data to transmit in bytes
  75:Generated_Source\PSoC4/BLE_HAL_PVT.c **** *
  76:Generated_Source\PSoC4/BLE_HAL_PVT.c **** * \return
  77:Generated_Source\PSoC4/BLE_HAL_PVT.c **** *  None
  78:Generated_Source\PSoC4/BLE_HAL_PVT.c **** *
  79:Generated_Source\PSoC4/BLE_HAL_PVT.c **** *******************************************************************************/
  80:Generated_Source\PSoC4/BLE_HAL_PVT.c **** void CyBLE_Uart_Transmit (const uint8 *dataBuf, uint8 length)
  81:Generated_Source\PSoC4/BLE_HAL_PVT.c **** {
  82:Generated_Source\PSoC4/BLE_HAL_PVT.c ****     #if (CYBLE_HCI_TYPE == CYBLE_HCI_OVER_UART)
  83:Generated_Source\PSoC4/BLE_HAL_PVT.c ****         BLE_HAL_Uart_SpiUartPutArray(dataBuf, (uint32)length);
  84:Generated_Source\PSoC4/BLE_HAL_PVT.c ****     #endif /* (CYBLE_HCI_TYPE == CYBLE_HCI_OVER_UART) */
  85:Generated_Source\PSoC4/BLE_HAL_PVT.c **** }
  86:Generated_Source\PSoC4/BLE_HAL_PVT.c **** 
  87:Generated_Source\PSoC4/BLE_HAL_PVT.c **** /*******************************************************************************
ARM GAS  C:\Users\TTSS\AppData\Local\Temp\ccfbp0gi.s 			page 3


  88:Generated_Source\PSoC4/BLE_HAL_PVT.c **** * Function Name: CyBLE_Uart_Isr_Enable
  89:Generated_Source\PSoC4/BLE_HAL_PVT.c **** ****************************************************************************//**
  90:Generated_Source\PSoC4/BLE_HAL_PVT.c **** *
  91:Generated_Source\PSoC4/BLE_HAL_PVT.c **** *   Enables the UART interrupt to the interrupt controller. 
  92:Generated_Source\PSoC4/BLE_HAL_PVT.c **** *   Do not call this function unless CyBLE_Uart_Start() has been called or the
  93:Generated_Source\PSoC4/BLE_HAL_PVT.c **** *   functionality of the SysInt_Init() function, which sets the vector and the
  94:Generated_Source\PSoC4/BLE_HAL_PVT.c **** *   priority, has been called.
  95:Generated_Source\PSoC4/BLE_HAL_PVT.c **** *
  96:Generated_Source\PSoC4/BLE_HAL_PVT.c **** *******************************************************************************/
  97:Generated_Source\PSoC4/BLE_HAL_PVT.c **** void CyBLE_Uart_Isr_Enable(void)
  98:Generated_Source\PSoC4/BLE_HAL_PVT.c **** {
  99:Generated_Source\PSoC4/BLE_HAL_PVT.c ****     #if (CYBLE_HCI_TYPE == CYBLE_HCI_OVER_UART)
 100:Generated_Source\PSoC4/BLE_HAL_PVT.c ****         BLE_uart_isr_Enable();
 101:Generated_Source\PSoC4/BLE_HAL_PVT.c ****     #endif /* (CYBLE_HCI_TYPE == CYBLE_HCI_OVER_UART) */
 102:Generated_Source\PSoC4/BLE_HAL_PVT.c **** }
 103:Generated_Source\PSoC4/BLE_HAL_PVT.c **** 
 104:Generated_Source\PSoC4/BLE_HAL_PVT.c **** 
 105:Generated_Source\PSoC4/BLE_HAL_PVT.c **** /*******************************************************************************
 106:Generated_Source\PSoC4/BLE_HAL_PVT.c **** * Function Name: CyBLE_Uart_Isr_Disable
 107:Generated_Source\PSoC4/BLE_HAL_PVT.c **** ****************************************************************************//**
 108:Generated_Source\PSoC4/BLE_HAL_PVT.c **** *
 109:Generated_Source\PSoC4/BLE_HAL_PVT.c **** *   Disables the UART Interrupt in the interrupt controller.
 110:Generated_Source\PSoC4/BLE_HAL_PVT.c **** *
 111:Generated_Source\PSoC4/BLE_HAL_PVT.c **** *******************************************************************************/
 112:Generated_Source\PSoC4/BLE_HAL_PVT.c **** void CyBLE_Uart_Isr_Disable(void)
 113:Generated_Source\PSoC4/BLE_HAL_PVT.c **** {
 114:Generated_Source\PSoC4/BLE_HAL_PVT.c ****     #if (CYBLE_HCI_TYPE == CYBLE_HCI_OVER_UART)
 115:Generated_Source\PSoC4/BLE_HAL_PVT.c ****         BLE_uart_isr_Disable();
 116:Generated_Source\PSoC4/BLE_HAL_PVT.c ****     #endif /* (CYBLE_HCI_TYPE == CYBLE_HCI_OVER_UART) */
 117:Generated_Source\PSoC4/BLE_HAL_PVT.c **** }
 118:Generated_Source\PSoC4/BLE_HAL_PVT.c **** 
 119:Generated_Source\PSoC4/BLE_HAL_PVT.c **** #endif /* (CYBLE_MODE == CYBLE_HCI) */
 120:Generated_Source\PSoC4/BLE_HAL_PVT.c **** 
 121:Generated_Source\PSoC4/BLE_HAL_PVT.c **** 
 122:Generated_Source\PSoC4/BLE_HAL_PVT.c **** /*******************************************************************************
 123:Generated_Source\PSoC4/BLE_HAL_PVT.c **** * Function Name: CyBLE_Nvram_Write
 124:Generated_Source\PSoC4/BLE_HAL_PVT.c **** ****************************************************************************//**
 125:Generated_Source\PSoC4/BLE_HAL_PVT.c **** *
 126:Generated_Source\PSoC4/BLE_HAL_PVT.c **** *  This function writes the data to the NVRAM store. It will check the 
 127:Generated_Source\PSoC4/BLE_HAL_PVT.c **** *  appropriate alignment of a start address and also perform an address range 
 128:Generated_Source\PSoC4/BLE_HAL_PVT.c **** *  check based on the length before performing the write operation.
 129:Generated_Source\PSoC4/BLE_HAL_PVT.c **** *  This function performs memory compare and writes only row where there are new
 130:Generated_Source\PSoC4/BLE_HAL_PVT.c **** *  data to write.
 131:Generated_Source\PSoC4/BLE_HAL_PVT.c **** *
 132:Generated_Source\PSoC4/BLE_HAL_PVT.c **** *  \param buffer:   Pointer to the buffer containing the data to be stored.
 133:Generated_Source\PSoC4/BLE_HAL_PVT.c **** *  \param varFlash: Pointer to the array or variable in the flash.
 134:Generated_Source\PSoC4/BLE_HAL_PVT.c **** *  \param length:    The length of the data in bytes.
 135:Generated_Source\PSoC4/BLE_HAL_PVT.c **** *
 136:Generated_Source\PSoC4/BLE_HAL_PVT.c **** * \return
 137:Generated_Source\PSoC4/BLE_HAL_PVT.c **** *  CYRET_SUCCESS    a successful write
 138:Generated_Source\PSoC4/BLE_HAL_PVT.c **** *  CYRET_BAD_PARAM  A request to write outside the flash boundary.
 139:Generated_Source\PSoC4/BLE_HAL_PVT.c **** *  CYRET_UNKNOWN    Other errors in writing the flash
 140:Generated_Source\PSoC4/BLE_HAL_PVT.c **** *
 141:Generated_Source\PSoC4/BLE_HAL_PVT.c **** * \sideeffect
 142:Generated_Source\PSoC4/BLE_HAL_PVT.c **** *  For BLE devices with 128K of Flash memory this function will automatically 
 143:Generated_Source\PSoC4/BLE_HAL_PVT.c **** *  modify the clock settings for the device.
 144:Generated_Source\PSoC4/BLE_HAL_PVT.c **** *  Writing to flash requires changes to be done to the IMO (set to 48 MHz)
ARM GAS  C:\Users\TTSS\AppData\Local\Temp\ccfbp0gi.s 			page 4


 145:Generated_Source\PSoC4/BLE_HAL_PVT.c **** *  and HFCLK (source set to IMO) settings. The configuration is restored before
 146:Generated_Source\PSoC4/BLE_HAL_PVT.c **** *  returning. This will impact the operation of most of the hardware in the
 147:Generated_Source\PSoC4/BLE_HAL_PVT.c **** *  device.
 148:Generated_Source\PSoC4/BLE_HAL_PVT.c **** *
 149:Generated_Source\PSoC4/BLE_HAL_PVT.c **** *******************************************************************************/
 150:Generated_Source\PSoC4/BLE_HAL_PVT.c **** cystatus CyBLE_Nvram_Write (const uint8 buffer[], const uint8 varFlash[], uint16 length)
 151:Generated_Source\PSoC4/BLE_HAL_PVT.c **** {
  28              		.loc 1 151 0
  29              		.cfi_startproc
  30              		@ args = 0, pretend = 0, frame = 304
  31              		@ frame_needed = 1, uses_anonymous_args = 0
  32 0000 80B5     		push	{r7, lr}
  33              		.cfi_def_cfa_offset 8
  34              		.cfi_offset 7, -8
  35              		.cfi_offset 14, -4
  36 0002 CCB0     		sub	sp, sp, #304
  37              		.cfi_def_cfa_offset 312
  38 0004 00AF     		add	r7, sp, #0
  39              		.cfi_def_cfa_register 7
  40 0006 F860     		str	r0, [r7, #12]
  41 0008 B960     		str	r1, [r7, #8]
  42 000a 844B     		ldr	r3, .L14
  43 000c 9821     		movs	r1, #152
  44 000e 4900     		lsls	r1, r1, #1
  45 0010 8C46     		mov	ip, r1
  46 0012 BC44     		add	ip, ip, r7
  47 0014 6344     		add	r3, r3, ip
  48 0016 1A80     		strh	r2, [r3]
 152:Generated_Source\PSoC4/BLE_HAL_PVT.c ****     uint8 writeBuffer[CY_FLASH_SIZEOF_ROW];
 153:Generated_Source\PSoC4/BLE_HAL_PVT.c ****     uint32 rowId;
 154:Generated_Source\PSoC4/BLE_HAL_PVT.c ****     uint32 dstIndex;
 155:Generated_Source\PSoC4/BLE_HAL_PVT.c ****     uint32 srcIndex = 0u;
  49              		.loc 1 155 0
  50 0018 0023     		movs	r3, #0
  51 001a 9222     		movs	r2, #146
  52 001c 5200     		lsls	r2, r2, #1
  53 001e BA18     		adds	r2, r7, r2
  54 0020 1360     		str	r3, [r2]
 156:Generated_Source\PSoC4/BLE_HAL_PVT.c ****     cystatus rc = CYRET_SUCCESS;
  55              		.loc 1 156 0
  56 0022 0023     		movs	r3, #0
  57 0024 9022     		movs	r2, #144
  58 0026 5200     		lsls	r2, r2, #1
  59 0028 BA18     		adds	r2, r7, r2
  60 002a 1360     		str	r3, [r2]
 157:Generated_Source\PSoC4/BLE_HAL_PVT.c ****     uint32 eeOffset;
 158:Generated_Source\PSoC4/BLE_HAL_PVT.c ****     uint32 byteOffset;
 159:Generated_Source\PSoC4/BLE_HAL_PVT.c ****     uint32 rowsNotEqual;
 160:Generated_Source\PSoC4/BLE_HAL_PVT.c **** 
 161:Generated_Source\PSoC4/BLE_HAL_PVT.c ****     eeOffset = (uint32)varFlash;
  61              		.loc 1 161 0
  62 002c BB68     		ldr	r3, [r7, #8]
  63 002e 8A22     		movs	r2, #138
  64 0030 5200     		lsls	r2, r2, #1
  65 0032 BA18     		adds	r2, r7, r2
  66 0034 1360     		str	r3, [r2]
 162:Generated_Source\PSoC4/BLE_HAL_PVT.c **** 
ARM GAS  C:\Users\TTSS\AppData\Local\Temp\ccfbp0gi.s 			page 5


 163:Generated_Source\PSoC4/BLE_HAL_PVT.c ****     /* Make sure, that varFlash[] points to Flash */
 164:Generated_Source\PSoC4/BLE_HAL_PVT.c ****     if ((eeOffset + length) < CYBLE_HAL_FLASH_END_ADDR)
  67              		.loc 1 164 0
  68 0036 794B     		ldr	r3, .L14
  69 0038 9822     		movs	r2, #152
  70 003a 5200     		lsls	r2, r2, #1
  71 003c 9446     		mov	ip, r2
  72 003e BC44     		add	ip, ip, r7
  73 0040 6344     		add	r3, r3, ip
  74 0042 1A88     		ldrh	r2, [r3]
  75 0044 8A23     		movs	r3, #138
  76 0046 5B00     		lsls	r3, r3, #1
  77 0048 FB18     		adds	r3, r7, r3
  78 004a 1B68     		ldr	r3, [r3]
  79 004c D318     		adds	r3, r2, r3
  80 004e 744A     		ldr	r2, .L14+4
  81 0050 9342     		cmp	r3, r2
  82 0052 00D9     		bls	.LCB50
  83 0054 C2E0     		b	.L2	@long jump
  84              	.LCB50:
 165:Generated_Source\PSoC4/BLE_HAL_PVT.c ****     {
 166:Generated_Source\PSoC4/BLE_HAL_PVT.c ****         rowId = eeOffset / CY_FLASH_SIZEOF_ROW;
  85              		.loc 1 166 0
  86 0056 8A23     		movs	r3, #138
  87 0058 5B00     		lsls	r3, r3, #1
  88 005a FB18     		adds	r3, r7, r3
  89 005c 1B68     		ldr	r3, [r3]
  90 005e 1B0A     		lsrs	r3, r3, #8
  91 0060 9622     		movs	r2, #150
  92 0062 5200     		lsls	r2, r2, #1
  93 0064 BA18     		adds	r2, r7, r2
  94 0066 1360     		str	r3, [r2]
 167:Generated_Source\PSoC4/BLE_HAL_PVT.c ****         byteOffset = CY_FLASH_SIZEOF_ROW * rowId;
  95              		.loc 1 167 0
  96 0068 9623     		movs	r3, #150
  97 006a 5B00     		lsls	r3, r3, #1
  98 006c FB18     		adds	r3, r7, r3
  99 006e 1B68     		ldr	r3, [r3]
 100 0070 1B02     		lsls	r3, r3, #8
 101 0072 8E22     		movs	r2, #142
 102 0074 5200     		lsls	r2, r2, #1
 103 0076 BA18     		adds	r2, r7, r2
 104 0078 1360     		str	r3, [r2]
 168:Generated_Source\PSoC4/BLE_HAL_PVT.c **** 
 169:Generated_Source\PSoC4/BLE_HAL_PVT.c ****         while ((srcIndex < length) && (rc == CYRET_SUCCESS))
 105              		.loc 1 169 0
 106 007a 9AE0     		b	.L3
 107              	.L11:
 170:Generated_Source\PSoC4/BLE_HAL_PVT.c ****         {
 171:Generated_Source\PSoC4/BLE_HAL_PVT.c ****             rowsNotEqual = 0u;
 108              		.loc 1 171 0
 109 007c 0023     		movs	r3, #0
 110 007e 8C22     		movs	r2, #140
 111 0080 5200     		lsls	r2, r2, #1
 112 0082 BA18     		adds	r2, r7, r2
 113 0084 1360     		str	r3, [r2]
 172:Generated_Source\PSoC4/BLE_HAL_PVT.c ****             /* Copy data to the write buffer either from the source buffer or from the flash */
ARM GAS  C:\Users\TTSS\AppData\Local\Temp\ccfbp0gi.s 			page 6


 173:Generated_Source\PSoC4/BLE_HAL_PVT.c ****             for (dstIndex = 0u; dstIndex < CY_FLASH_SIZEOF_ROW; dstIndex++)
 114              		.loc 1 173 0
 115 0086 0023     		movs	r3, #0
 116 0088 9422     		movs	r2, #148
 117 008a 5200     		lsls	r2, r2, #1
 118 008c BA18     		adds	r2, r7, r2
 119 008e 1360     		str	r3, [r2]
 120 0090 6BE0     		b	.L4
 121              	.L8:
 174:Generated_Source\PSoC4/BLE_HAL_PVT.c ****             {
 175:Generated_Source\PSoC4/BLE_HAL_PVT.c ****                 if ((byteOffset >= eeOffset) && (srcIndex < length))
 122              		.loc 1 175 0
 123 0092 8E23     		movs	r3, #142
 124 0094 5B00     		lsls	r3, r3, #1
 125 0096 FB18     		adds	r3, r7, r3
 126 0098 1A68     		ldr	r2, [r3]
 127 009a 8A23     		movs	r3, #138
 128 009c 5B00     		lsls	r3, r3, #1
 129 009e FB18     		adds	r3, r7, r3
 130 00a0 1B68     		ldr	r3, [r3]
 131 00a2 9A42     		cmp	r2, r3
 132 00a4 3DD3     		bcc	.L5
 133              		.loc 1 175 0 is_stmt 0 discriminator 1
 134 00a6 5D4B     		ldr	r3, .L14
 135 00a8 9822     		movs	r2, #152
 136 00aa 5200     		lsls	r2, r2, #1
 137 00ac 9446     		mov	ip, r2
 138 00ae BC44     		add	ip, ip, r7
 139 00b0 6344     		add	r3, r3, ip
 140 00b2 1A88     		ldrh	r2, [r3]
 141 00b4 9223     		movs	r3, #146
 142 00b6 5B00     		lsls	r3, r3, #1
 143 00b8 FB18     		adds	r3, r7, r3
 144 00ba 1B68     		ldr	r3, [r3]
 145 00bc 9A42     		cmp	r2, r3
 146 00be 30D9     		bls	.L5
 176:Generated_Source\PSoC4/BLE_HAL_PVT.c ****                 {
 177:Generated_Source\PSoC4/BLE_HAL_PVT.c ****                     writeBuffer[dstIndex] = buffer[srcIndex];
 147              		.loc 1 177 0 is_stmt 1
 148 00c0 FA68     		ldr	r2, [r7, #12]
 149 00c2 9223     		movs	r3, #146
 150 00c4 5B00     		lsls	r3, r3, #1
 151 00c6 FB18     		adds	r3, r7, r3
 152 00c8 1B68     		ldr	r3, [r3]
 153 00ca D318     		adds	r3, r2, r3
 154 00cc 1978     		ldrb	r1, [r3]
 155 00ce 554B     		ldr	r3, .L14+8
 156 00d0 9822     		movs	r2, #152
 157 00d2 5200     		lsls	r2, r2, #1
 158 00d4 BA18     		adds	r2, r7, r2
 159 00d6 D218     		adds	r2, r2, r3
 160 00d8 9423     		movs	r3, #148
 161 00da 5B00     		lsls	r3, r3, #1
 162 00dc FB18     		adds	r3, r7, r3
 163 00de 1B68     		ldr	r3, [r3]
 164 00e0 D318     		adds	r3, r2, r3
 165 00e2 0A1C     		adds	r2, r1, #0
ARM GAS  C:\Users\TTSS\AppData\Local\Temp\ccfbp0gi.s 			page 7


 166 00e4 1A70     		strb	r2, [r3]
 178:Generated_Source\PSoC4/BLE_HAL_PVT.c ****                     /* Detect that row programming is required */
 179:Generated_Source\PSoC4/BLE_HAL_PVT.c ****                     if(CY_GET_XTND_REG8(CYDEV_FLASH_BASE + byteOffset) != buffer[srcIndex])
 167              		.loc 1 179 0
 168 00e6 8E23     		movs	r3, #142
 169 00e8 5B00     		lsls	r3, r3, #1
 170 00ea FB18     		adds	r3, r7, r3
 171 00ec 1B68     		ldr	r3, [r3]
 172 00ee 1B78     		ldrb	r3, [r3]
 173 00f0 DAB2     		uxtb	r2, r3
 174 00f2 F968     		ldr	r1, [r7, #12]
 175 00f4 9223     		movs	r3, #146
 176 00f6 5B00     		lsls	r3, r3, #1
 177 00f8 FB18     		adds	r3, r7, r3
 178 00fa 1B68     		ldr	r3, [r3]
 179 00fc CB18     		adds	r3, r1, r3
 180 00fe 1B78     		ldrb	r3, [r3]
 181 0100 9A42     		cmp	r2, r3
 182 0102 04D0     		beq	.L6
 180:Generated_Source\PSoC4/BLE_HAL_PVT.c ****                     {
 181:Generated_Source\PSoC4/BLE_HAL_PVT.c ****                         rowsNotEqual = 1u;  
 183              		.loc 1 181 0
 184 0104 0123     		movs	r3, #1
 185 0106 8C22     		movs	r2, #140
 186 0108 5200     		lsls	r2, r2, #1
 187 010a BA18     		adds	r2, r7, r2
 188 010c 1360     		str	r3, [r2]
 189              	.L6:
 182:Generated_Source\PSoC4/BLE_HAL_PVT.c ****                     }
 183:Generated_Source\PSoC4/BLE_HAL_PVT.c ****                     srcIndex++;
 190              		.loc 1 183 0
 191 010e 9223     		movs	r3, #146
 192 0110 5B00     		lsls	r3, r3, #1
 193 0112 FB18     		adds	r3, r7, r3
 194 0114 1B68     		ldr	r3, [r3]
 195 0116 0133     		adds	r3, r3, #1
 196 0118 9222     		movs	r2, #146
 197 011a 5200     		lsls	r2, r2, #1
 198 011c BA18     		adds	r2, r7, r2
 199 011e 1360     		str	r3, [r2]
 200 0120 11E0     		b	.L7
 201              	.L5:
 184:Generated_Source\PSoC4/BLE_HAL_PVT.c ****                 }
 185:Generated_Source\PSoC4/BLE_HAL_PVT.c ****                 else
 186:Generated_Source\PSoC4/BLE_HAL_PVT.c ****                 {
 187:Generated_Source\PSoC4/BLE_HAL_PVT.c ****                     writeBuffer[dstIndex] = CY_GET_XTND_REG8(CYDEV_FLASH_BASE + byteOffset);
 202              		.loc 1 187 0
 203 0122 8E23     		movs	r3, #142
 204 0124 5B00     		lsls	r3, r3, #1
 205 0126 FB18     		adds	r3, r7, r3
 206 0128 1B68     		ldr	r3, [r3]
 207 012a 1B78     		ldrb	r3, [r3]
 208 012c D9B2     		uxtb	r1, r3
 209 012e 3D4B     		ldr	r3, .L14+8
 210 0130 9822     		movs	r2, #152
 211 0132 5200     		lsls	r2, r2, #1
 212 0134 BA18     		adds	r2, r7, r2
ARM GAS  C:\Users\TTSS\AppData\Local\Temp\ccfbp0gi.s 			page 8


 213 0136 D218     		adds	r2, r2, r3
 214 0138 9423     		movs	r3, #148
 215 013a 5B00     		lsls	r3, r3, #1
 216 013c FB18     		adds	r3, r7, r3
 217 013e 1B68     		ldr	r3, [r3]
 218 0140 D318     		adds	r3, r2, r3
 219 0142 0A1C     		adds	r2, r1, #0
 220 0144 1A70     		strb	r2, [r3]
 221              	.L7:
 188:Generated_Source\PSoC4/BLE_HAL_PVT.c ****                 }
 189:Generated_Source\PSoC4/BLE_HAL_PVT.c ****                 byteOffset++;
 222              		.loc 1 189 0 discriminator 2
 223 0146 8E23     		movs	r3, #142
 224 0148 5B00     		lsls	r3, r3, #1
 225 014a FB18     		adds	r3, r7, r3
 226 014c 1B68     		ldr	r3, [r3]
 227 014e 0133     		adds	r3, r3, #1
 228 0150 8E22     		movs	r2, #142
 229 0152 5200     		lsls	r2, r2, #1
 230 0154 BA18     		adds	r2, r7, r2
 231 0156 1360     		str	r3, [r2]
 173:Generated_Source\PSoC4/BLE_HAL_PVT.c ****             {
 232              		.loc 1 173 0 discriminator 2
 233 0158 9423     		movs	r3, #148
 234 015a 5B00     		lsls	r3, r3, #1
 235 015c FB18     		adds	r3, r7, r3
 236 015e 1B68     		ldr	r3, [r3]
 237 0160 0133     		adds	r3, r3, #1
 238 0162 9422     		movs	r2, #148
 239 0164 5200     		lsls	r2, r2, #1
 240 0166 BA18     		adds	r2, r7, r2
 241 0168 1360     		str	r3, [r2]
 242              	.L4:
 173:Generated_Source\PSoC4/BLE_HAL_PVT.c ****             {
 243              		.loc 1 173 0 is_stmt 0 discriminator 1
 244 016a 9423     		movs	r3, #148
 245 016c 5B00     		lsls	r3, r3, #1
 246 016e FB18     		adds	r3, r7, r3
 247 0170 1B68     		ldr	r3, [r3]
 248 0172 FF2B     		cmp	r3, #255
 249 0174 8DD9     		bls	.L8
 190:Generated_Source\PSoC4/BLE_HAL_PVT.c ****             }
 191:Generated_Source\PSoC4/BLE_HAL_PVT.c **** 
 192:Generated_Source\PSoC4/BLE_HAL_PVT.c ****             if(rowsNotEqual != 0u)
 250              		.loc 1 192 0 is_stmt 1
 251 0176 8C23     		movs	r3, #140
 252 0178 5B00     		lsls	r3, r3, #1
 253 017a FB18     		adds	r3, r7, r3
 254 017c 1B68     		ldr	r3, [r3]
 255 017e 002B     		cmp	r3, #0
 256 0180 0ED0     		beq	.L9
 193:Generated_Source\PSoC4/BLE_HAL_PVT.c ****             {
 194:Generated_Source\PSoC4/BLE_HAL_PVT.c ****                 /* Write flash row */
 195:Generated_Source\PSoC4/BLE_HAL_PVT.c ****                 rc = CySysFlashWriteRow(rowId, writeBuffer);
 257              		.loc 1 195 0
 258 0182 1423     		movs	r3, #20
 259 0184 FA18     		adds	r2, r7, r3
ARM GAS  C:\Users\TTSS\AppData\Local\Temp\ccfbp0gi.s 			page 9


 260 0186 9623     		movs	r3, #150
 261 0188 5B00     		lsls	r3, r3, #1
 262 018a FB18     		adds	r3, r7, r3
 263 018c 1B68     		ldr	r3, [r3]
 264 018e 1100     		movs	r1, r2
 265 0190 1800     		movs	r0, r3
 266 0192 FFF7FEFF 		bl	CySysFlashWriteRow
 267 0196 0300     		movs	r3, r0
 268 0198 9022     		movs	r2, #144
 269 019a 5200     		lsls	r2, r2, #1
 270 019c BA18     		adds	r2, r7, r2
 271 019e 1360     		str	r3, [r2]
 272              	.L9:
 196:Generated_Source\PSoC4/BLE_HAL_PVT.c ****             }
 197:Generated_Source\PSoC4/BLE_HAL_PVT.c **** 
 198:Generated_Source\PSoC4/BLE_HAL_PVT.c ****             /* Go to the next row */
 199:Generated_Source\PSoC4/BLE_HAL_PVT.c ****             rowId++;
 273              		.loc 1 199 0
 274 01a0 9623     		movs	r3, #150
 275 01a2 5B00     		lsls	r3, r3, #1
 276 01a4 FB18     		adds	r3, r7, r3
 277 01a6 1B68     		ldr	r3, [r3]
 278 01a8 0133     		adds	r3, r3, #1
 279 01aa 9622     		movs	r2, #150
 280 01ac 5200     		lsls	r2, r2, #1
 281 01ae BA18     		adds	r2, r7, r2
 282 01b0 1360     		str	r3, [r2]
 283              	.L3:
 169:Generated_Source\PSoC4/BLE_HAL_PVT.c ****         {
 284              		.loc 1 169 0
 285 01b2 1A4B     		ldr	r3, .L14
 286 01b4 9822     		movs	r2, #152
 287 01b6 5200     		lsls	r2, r2, #1
 288 01b8 9446     		mov	ip, r2
 289 01ba BC44     		add	ip, ip, r7
 290 01bc 6344     		add	r3, r3, ip
 291 01be 1A88     		ldrh	r2, [r3]
 292 01c0 9223     		movs	r3, #146
 293 01c2 5B00     		lsls	r3, r3, #1
 294 01c4 FB18     		adds	r3, r7, r3
 295 01c6 1B68     		ldr	r3, [r3]
 296 01c8 9A42     		cmp	r2, r3
 297 01ca 0CD9     		bls	.L10
 169:Generated_Source\PSoC4/BLE_HAL_PVT.c ****         {
 298              		.loc 1 169 0 is_stmt 0 discriminator 1
 299 01cc 9023     		movs	r3, #144
 300 01ce 5B00     		lsls	r3, r3, #1
 301 01d0 FB18     		adds	r3, r7, r3
 302 01d2 1B68     		ldr	r3, [r3]
 303 01d4 002B     		cmp	r3, #0
 304 01d6 00D1     		bne	.LCB261
 305 01d8 50E7     		b	.L11	@long jump
 306              	.LCB261:
 307 01da 04E0     		b	.L10
 308              	.L2:
 200:Generated_Source\PSoC4/BLE_HAL_PVT.c ****         }
 201:Generated_Source\PSoC4/BLE_HAL_PVT.c ****     }
ARM GAS  C:\Users\TTSS\AppData\Local\Temp\ccfbp0gi.s 			page 10


 202:Generated_Source\PSoC4/BLE_HAL_PVT.c ****     else
 203:Generated_Source\PSoC4/BLE_HAL_PVT.c ****     {
 204:Generated_Source\PSoC4/BLE_HAL_PVT.c ****         rc = CYRET_BAD_PARAM;
 309              		.loc 1 204 0 is_stmt 1
 310 01dc 0123     		movs	r3, #1
 311 01de 9022     		movs	r2, #144
 312 01e0 5200     		lsls	r2, r2, #1
 313 01e2 BA18     		adds	r2, r7, r2
 314 01e4 1360     		str	r3, [r2]
 315              	.L10:
 205:Generated_Source\PSoC4/BLE_HAL_PVT.c ****     }
 206:Generated_Source\PSoC4/BLE_HAL_PVT.c **** 
 207:Generated_Source\PSoC4/BLE_HAL_PVT.c ****     /* Mask return codes from flash, if they are not supported */
 208:Generated_Source\PSoC4/BLE_HAL_PVT.c ****     if ((CYRET_SUCCESS != rc) && (CYRET_BAD_PARAM != rc))
 316              		.loc 1 208 0
 317 01e6 9023     		movs	r3, #144
 318 01e8 5B00     		lsls	r3, r3, #1
 319 01ea FB18     		adds	r3, r7, r3
 320 01ec 1B68     		ldr	r3, [r3]
 321 01ee 002B     		cmp	r3, #0
 322 01f0 0BD0     		beq	.L12
 323              		.loc 1 208 0 is_stmt 0 discriminator 1
 324 01f2 9023     		movs	r3, #144
 325 01f4 5B00     		lsls	r3, r3, #1
 326 01f6 FB18     		adds	r3, r7, r3
 327 01f8 1B68     		ldr	r3, [r3]
 328 01fa 012B     		cmp	r3, #1
 329 01fc 05D0     		beq	.L12
 209:Generated_Source\PSoC4/BLE_HAL_PVT.c ****     {
 210:Generated_Source\PSoC4/BLE_HAL_PVT.c ****         rc = CYRET_UNKNOWN;
 330              		.loc 1 210 0 is_stmt 1
 331 01fe 0123     		movs	r3, #1
 332 0200 5B42     		rsbs	r3, r3, #0
 333 0202 9022     		movs	r2, #144
 334 0204 5200     		lsls	r2, r2, #1
 335 0206 BA18     		adds	r2, r7, r2
 336 0208 1360     		str	r3, [r2]
 337              	.L12:
 211:Generated_Source\PSoC4/BLE_HAL_PVT.c ****     }
 212:Generated_Source\PSoC4/BLE_HAL_PVT.c ****     
 213:Generated_Source\PSoC4/BLE_HAL_PVT.c ****     return (rc);
 338              		.loc 1 213 0
 339 020a 9023     		movs	r3, #144
 340 020c 5B00     		lsls	r3, r3, #1
 341 020e FB18     		adds	r3, r7, r3
 342 0210 1B68     		ldr	r3, [r3]
 214:Generated_Source\PSoC4/BLE_HAL_PVT.c **** }
 343              		.loc 1 214 0
 344 0212 1800     		movs	r0, r3
 345 0214 BD46     		mov	sp, r7
 346 0216 4CB0     		add	sp, sp, #304
 347              		@ sp needed
 348 0218 80BD     		pop	{r7, pc}
 349              	.L15:
 350 021a C046     		.align	2
 351              	.L14:
 352 021c D6FEFFFF 		.word	-298
ARM GAS  C:\Users\TTSS\AppData\Local\Temp\ccfbp0gi.s 			page 11


 353 0220 FFFF0300 		.word	262143
 354 0224 E4FEFFFF 		.word	-284
 355              		.cfi_endproc
 356              	.LFE2:
 357              		.size	CyBLE_Nvram_Write, .-CyBLE_Nvram_Write
 358              		.section	.text.CyBLE_Nvram_Erase,"ax",%progbits
 359              		.align	2
 360              		.global	CyBLE_Nvram_Erase
 361              		.code	16
 362              		.thumb_func
 363              		.type	CyBLE_Nvram_Erase, %function
 364              	CyBLE_Nvram_Erase:
 365              	.LFB3:
 215:Generated_Source\PSoC4/BLE_HAL_PVT.c **** 
 216:Generated_Source\PSoC4/BLE_HAL_PVT.c **** /*******************************************************************************
 217:Generated_Source\PSoC4/BLE_HAL_PVT.c **** * Function Name: CyBLE_Nvram_Erase
 218:Generated_Source\PSoC4/BLE_HAL_PVT.c **** ****************************************************************************//**
 219:Generated_Source\PSoC4/BLE_HAL_PVT.c **** *
 220:Generated_Source\PSoC4/BLE_HAL_PVT.c **** *  This function erases the data from the NVRAM store. It will perform an 
 221:Generated_Source\PSoC4/BLE_HAL_PVT.c **** *  address range check based on the length before performing erase operation.
 222:Generated_Source\PSoC4/BLE_HAL_PVT.c **** *
 223:Generated_Source\PSoC4/BLE_HAL_PVT.c **** *  \param varFlash: the pointer to the array or variable in the flash.
 224:Generated_Source\PSoC4/BLE_HAL_PVT.c **** *  \param length:    the length of the data in bytes.
 225:Generated_Source\PSoC4/BLE_HAL_PVT.c **** *
 226:Generated_Source\PSoC4/BLE_HAL_PVT.c **** * \return
 227:Generated_Source\PSoC4/BLE_HAL_PVT.c **** *  CYRET_SUCCESS    a successful write
 228:Generated_Source\PSoC4/BLE_HAL_PVT.c **** *  CYRET_BAD_PARAM  A request to write outside the flash boundary.
 229:Generated_Source\PSoC4/BLE_HAL_PVT.c **** *  CYRET_UNKNOWN    Other errors in writing the flash
 230:Generated_Source\PSoC4/BLE_HAL_PVT.c **** *
 231:Generated_Source\PSoC4/BLE_HAL_PVT.c **** *******************************************************************************/
 232:Generated_Source\PSoC4/BLE_HAL_PVT.c **** cystatus CyBLE_Nvram_Erase (const uint8 *varFlash, uint16 length)
 233:Generated_Source\PSoC4/BLE_HAL_PVT.c **** {
 366              		.loc 1 233 0
 367              		.cfi_startproc
 368              		@ args = 0, pretend = 0, frame = 280
 369              		@ frame_needed = 1, uses_anonymous_args = 0
 370 0000 80B5     		push	{r7, lr}
 371              		.cfi_def_cfa_offset 8
 372              		.cfi_offset 7, -8
 373              		.cfi_offset 14, -4
 374 0002 C6B0     		sub	sp, sp, #280
 375              		.cfi_def_cfa_offset 288
 376 0004 00AF     		add	r7, sp, #0
 377              		.cfi_def_cfa_register 7
 378 0006 7860     		str	r0, [r7, #4]
 379 0008 0A00     		movs	r2, r1
 380 000a 3F4B     		ldr	r3, .L25
 381 000c 8C21     		movs	r1, #140
 382 000e 4900     		lsls	r1, r1, #1
 383 0010 8C46     		mov	ip, r1
 384 0012 BC44     		add	ip, ip, r7
 385 0014 6344     		add	r3, r3, ip
 386 0016 1A80     		strh	r2, [r3]
 234:Generated_Source\PSoC4/BLE_HAL_PVT.c ****     const uint8 *tempFlash;
 235:Generated_Source\PSoC4/BLE_HAL_PVT.c ****     uint8 flashBuffer[CY_FLASH_SIZEOF_ROW] = {0u};
 387              		.loc 1 235 0
 388 0018 3C4B     		ldr	r3, .L25+4
ARM GAS  C:\Users\TTSS\AppData\Local\Temp\ccfbp0gi.s 			page 12


 389 001a 8C22     		movs	r2, #140
 390 001c 5200     		lsls	r2, r2, #1
 391 001e 9446     		mov	ip, r2
 392 0020 BC44     		add	ip, ip, r7
 393 0022 6344     		add	r3, r3, ip
 394 0024 1800     		movs	r0, r3
 395 0026 8023     		movs	r3, #128
 396 0028 5B00     		lsls	r3, r3, #1
 397 002a 1A00     		movs	r2, r3
 398 002c 0021     		movs	r1, #0
 399 002e FFF7FEFF 		bl	memset
 236:Generated_Source\PSoC4/BLE_HAL_PVT.c ****     uint16 lengthFlash;
 237:Generated_Source\PSoC4/BLE_HAL_PVT.c ****     uint16 lengthRemaining;
 238:Generated_Source\PSoC4/BLE_HAL_PVT.c ****     cystatus rc = CYRET_UNKNOWN;
 400              		.loc 1 238 0
 401 0032 0123     		movs	r3, #1
 402 0034 5B42     		rsbs	r3, r3, #0
 403 0036 8622     		movs	r2, #134
 404 0038 5200     		lsls	r2, r2, #1
 405 003a BA18     		adds	r2, r7, r2
 406 003c 1360     		str	r3, [r2]
 239:Generated_Source\PSoC4/BLE_HAL_PVT.c **** 
 240:Generated_Source\PSoC4/BLE_HAL_PVT.c ****     tempFlash = varFlash;
 407              		.loc 1 240 0
 408 003e 7B68     		ldr	r3, [r7, #4]
 409 0040 8A22     		movs	r2, #138
 410 0042 5200     		lsls	r2, r2, #1
 411 0044 BA18     		adds	r2, r7, r2
 412 0046 1360     		str	r3, [r2]
 241:Generated_Source\PSoC4/BLE_HAL_PVT.c ****     lengthRemaining = length;
 413              		.loc 1 241 0
 414 0048 8823     		movs	r3, #136
 415 004a 5B00     		lsls	r3, r3, #1
 416 004c FB18     		adds	r3, r7, r3
 417 004e 2E4A     		ldr	r2, .L25
 418 0050 8C21     		movs	r1, #140
 419 0052 4900     		lsls	r1, r1, #1
 420 0054 8C46     		mov	ip, r1
 421 0056 BC44     		add	ip, ip, r7
 422 0058 6244     		add	r2, r2, ip
 423 005a 1288     		ldrh	r2, [r2]
 424 005c 1A80     		strh	r2, [r3]
 242:Generated_Source\PSoC4/BLE_HAL_PVT.c **** 
 243:Generated_Source\PSoC4/BLE_HAL_PVT.c ****     while(lengthRemaining > 0u)
 425              		.loc 1 243 0
 426 005e 43E0     		b	.L17
 427              	.L22:
 244:Generated_Source\PSoC4/BLE_HAL_PVT.c ****     {
 245:Generated_Source\PSoC4/BLE_HAL_PVT.c ****         if(lengthRemaining < CY_FLASH_SIZEOF_ROW)
 428              		.loc 1 245 0
 429 0060 8823     		movs	r3, #136
 430 0062 5B00     		lsls	r3, r3, #1
 431 0064 FB18     		adds	r3, r7, r3
 432 0066 1B88     		ldrh	r3, [r3]
 433 0068 FF2B     		cmp	r3, #255
 434 006a 08D8     		bhi	.L18
 246:Generated_Source\PSoC4/BLE_HAL_PVT.c ****         {
ARM GAS  C:\Users\TTSS\AppData\Local\Temp\ccfbp0gi.s 			page 13


 247:Generated_Source\PSoC4/BLE_HAL_PVT.c ****             lengthFlash = lengthRemaining;
 435              		.loc 1 247 0
 436 006c 8923     		movs	r3, #137
 437 006e 5B00     		lsls	r3, r3, #1
 438 0070 FB18     		adds	r3, r7, r3
 439 0072 8822     		movs	r2, #136
 440 0074 5200     		lsls	r2, r2, #1
 441 0076 BA18     		adds	r2, r7, r2
 442 0078 1288     		ldrh	r2, [r2]
 443 007a 1A80     		strh	r2, [r3]
 444 007c 05E0     		b	.L19
 445              	.L18:
 248:Generated_Source\PSoC4/BLE_HAL_PVT.c ****         }
 249:Generated_Source\PSoC4/BLE_HAL_PVT.c ****         else
 250:Generated_Source\PSoC4/BLE_HAL_PVT.c ****         {
 251:Generated_Source\PSoC4/BLE_HAL_PVT.c ****             lengthFlash = CY_FLASH_SIZEOF_ROW;
 446              		.loc 1 251 0
 447 007e 8923     		movs	r3, #137
 448 0080 5B00     		lsls	r3, r3, #1
 449 0082 FB18     		adds	r3, r7, r3
 450 0084 8022     		movs	r2, #128
 451 0086 5200     		lsls	r2, r2, #1
 452 0088 1A80     		strh	r2, [r3]
 453              	.L19:
 252:Generated_Source\PSoC4/BLE_HAL_PVT.c ****         }
 253:Generated_Source\PSoC4/BLE_HAL_PVT.c ****         rc = CyBLE_Nvram_Write(flashBuffer, tempFlash, lengthFlash);
 454              		.loc 1 253 0
 455 008a 8923     		movs	r3, #137
 456 008c 5B00     		lsls	r3, r3, #1
 457 008e FB18     		adds	r3, r7, r3
 458 0090 1A88     		ldrh	r2, [r3]
 459 0092 8A23     		movs	r3, #138
 460 0094 5B00     		lsls	r3, r3, #1
 461 0096 FB18     		adds	r3, r7, r3
 462 0098 1968     		ldr	r1, [r3]
 463 009a 0C23     		movs	r3, #12
 464 009c FB18     		adds	r3, r7, r3
 465 009e 1800     		movs	r0, r3
 466 00a0 FFF7FEFF 		bl	CyBLE_Nvram_Write
 467 00a4 0300     		movs	r3, r0
 468 00a6 8622     		movs	r2, #134
 469 00a8 5200     		lsls	r2, r2, #1
 470 00aa BA18     		adds	r2, r7, r2
 471 00ac 1360     		str	r3, [r2]
 254:Generated_Source\PSoC4/BLE_HAL_PVT.c ****         if(rc != CYRET_SUCCESS)
 472              		.loc 1 254 0
 473 00ae 8623     		movs	r3, #134
 474 00b0 5B00     		lsls	r3, r3, #1
 475 00b2 FB18     		adds	r3, r7, r3
 476 00b4 1B68     		ldr	r3, [r3]
 477 00b6 002B     		cmp	r3, #0
 478 00b8 1DD1     		bne	.L24
 255:Generated_Source\PSoC4/BLE_HAL_PVT.c ****         {
 256:Generated_Source\PSoC4/BLE_HAL_PVT.c ****             break;
 257:Generated_Source\PSoC4/BLE_HAL_PVT.c ****         }
 258:Generated_Source\PSoC4/BLE_HAL_PVT.c ****         tempFlash += CY_FLASH_SIZEOF_ROW;
 479              		.loc 1 258 0
ARM GAS  C:\Users\TTSS\AppData\Local\Temp\ccfbp0gi.s 			page 14


 480 00ba 8A23     		movs	r3, #138
 481 00bc 5B00     		lsls	r3, r3, #1
 482 00be FB18     		adds	r3, r7, r3
 483 00c0 1B68     		ldr	r3, [r3]
 484 00c2 0133     		adds	r3, r3, #1
 485 00c4 FF33     		adds	r3, r3, #255
 486 00c6 8A22     		movs	r2, #138
 487 00c8 5200     		lsls	r2, r2, #1
 488 00ca BA18     		adds	r2, r7, r2
 489 00cc 1360     		str	r3, [r2]
 259:Generated_Source\PSoC4/BLE_HAL_PVT.c ****         lengthRemaining -= lengthFlash;
 490              		.loc 1 259 0
 491 00ce 8823     		movs	r3, #136
 492 00d0 5B00     		lsls	r3, r3, #1
 493 00d2 FB18     		adds	r3, r7, r3
 494 00d4 8822     		movs	r2, #136
 495 00d6 5200     		lsls	r2, r2, #1
 496 00d8 B918     		adds	r1, r7, r2
 497 00da 8922     		movs	r2, #137
 498 00dc 5200     		lsls	r2, r2, #1
 499 00de BA18     		adds	r2, r7, r2
 500 00e0 0988     		ldrh	r1, [r1]
 501 00e2 1288     		ldrh	r2, [r2]
 502 00e4 8A1A     		subs	r2, r1, r2
 503 00e6 1A80     		strh	r2, [r3]
 504              	.L17:
 243:Generated_Source\PSoC4/BLE_HAL_PVT.c ****     {
 505              		.loc 1 243 0
 506 00e8 8823     		movs	r3, #136
 507 00ea 5B00     		lsls	r3, r3, #1
 508 00ec FB18     		adds	r3, r7, r3
 509 00ee 1B88     		ldrh	r3, [r3]
 510 00f0 002B     		cmp	r3, #0
 511 00f2 B5D1     		bne	.L22
 512 00f4 00E0     		b	.L21
 513              	.L24:
 256:Generated_Source\PSoC4/BLE_HAL_PVT.c ****         }
 514              		.loc 1 256 0
 515 00f6 C046     		nop
 516              	.L21:
 260:Generated_Source\PSoC4/BLE_HAL_PVT.c ****     }
 261:Generated_Source\PSoC4/BLE_HAL_PVT.c **** 
 262:Generated_Source\PSoC4/BLE_HAL_PVT.c ****     return rc;
 517              		.loc 1 262 0
 518 00f8 8623     		movs	r3, #134
 519 00fa 5B00     		lsls	r3, r3, #1
 520 00fc FB18     		adds	r3, r7, r3
 521 00fe 1B68     		ldr	r3, [r3]
 263:Generated_Source\PSoC4/BLE_HAL_PVT.c **** }
 522              		.loc 1 263 0
 523 0100 1800     		movs	r0, r3
 524 0102 BD46     		mov	sp, r7
 525 0104 46B0     		add	sp, sp, #280
 526              		@ sp needed
 527 0106 80BD     		pop	{r7, pc}
 528              	.L26:
 529              		.align	2
ARM GAS  C:\Users\TTSS\AppData\Local\Temp\ccfbp0gi.s 			page 15


 530              	.L25:
 531 0108 EAFEFFFF 		.word	-278
 532 010c F4FEFFFF 		.word	-268
 533              		.cfi_endproc
 534              	.LFE3:
 535              		.size	CyBLE_Nvram_Erase, .-CyBLE_Nvram_Erase
 536              		.section	.text.CyBLE_Bless_LlRegRead,"ax",%progbits
 537              		.align	2
 538              		.global	CyBLE_Bless_LlRegRead
 539              		.code	16
 540              		.thumb_func
 541              		.type	CyBLE_Bless_LlRegRead, %function
 542              	CyBLE_Bless_LlRegRead:
 543              	.LFB4:
 264:Generated_Source\PSoC4/BLE_HAL_PVT.c **** 
 265:Generated_Source\PSoC4/BLE_HAL_PVT.c **** 
 266:Generated_Source\PSoC4/BLE_HAL_PVT.c **** /*******************************************************************************
 267:Generated_Source\PSoC4/BLE_HAL_PVT.c **** * Function Name: CyBLE_Bless_LlRegRead
 268:Generated_Source\PSoC4/BLE_HAL_PVT.c **** ****************************************************************************//**
 269:Generated_Source\PSoC4/BLE_HAL_PVT.c **** *
 270:Generated_Source\PSoC4/BLE_HAL_PVT.c **** *  This function reads the content of the BLESS Link Layer register from the 
 271:Generated_Source\PSoC4/BLE_HAL_PVT.c **** *  stack.
 272:Generated_Source\PSoC4/BLE_HAL_PVT.c **** *
 273:Generated_Source\PSoC4/BLE_HAL_PVT.c **** *  \param blessAddr: the pointer to the BLESS link layer address.
 274:Generated_Source\PSoC4/BLE_HAL_PVT.c **** *  \param regValue: the pointer to the buffer space to copy the read value.
 275:Generated_Source\PSoC4/BLE_HAL_PVT.c **** *
 276:Generated_Source\PSoC4/BLE_HAL_PVT.c **** * \return
 277:Generated_Source\PSoC4/BLE_HAL_PVT.c **** *  None
 278:Generated_Source\PSoC4/BLE_HAL_PVT.c **** *
 279:Generated_Source\PSoC4/BLE_HAL_PVT.c **** *******************************************************************************/
 280:Generated_Source\PSoC4/BLE_HAL_PVT.c **** void CyBLE_Bless_LlRegRead (const reg32 *blessAddr, uint16 *regValue)
 281:Generated_Source\PSoC4/BLE_HAL_PVT.c **** {
 544              		.loc 1 281 0
 545              		.cfi_startproc
 546              		@ args = 0, pretend = 0, frame = 8
 547              		@ frame_needed = 1, uses_anonymous_args = 0
 548 0000 80B5     		push	{r7, lr}
 549              		.cfi_def_cfa_offset 8
 550              		.cfi_offset 7, -8
 551              		.cfi_offset 14, -4
 552 0002 82B0     		sub	sp, sp, #8
 553              		.cfi_def_cfa_offset 16
 554 0004 00AF     		add	r7, sp, #0
 555              		.cfi_def_cfa_register 7
 556 0006 7860     		str	r0, [r7, #4]
 557 0008 3960     		str	r1, [r7]
 282:Generated_Source\PSoC4/BLE_HAL_PVT.c ****     *regValue = (uint16)CY_GET_REG32(blessAddr);
 558              		.loc 1 282 0
 559 000a 7B68     		ldr	r3, [r7, #4]
 560 000c 1B68     		ldr	r3, [r3]
 561 000e 9AB2     		uxth	r2, r3
 562 0010 3B68     		ldr	r3, [r7]
 563 0012 1A80     		strh	r2, [r3]
 283:Generated_Source\PSoC4/BLE_HAL_PVT.c **** }
 564              		.loc 1 283 0
 565 0014 C046     		nop
 566 0016 BD46     		mov	sp, r7
ARM GAS  C:\Users\TTSS\AppData\Local\Temp\ccfbp0gi.s 			page 16


 567 0018 02B0     		add	sp, sp, #8
 568              		@ sp needed
 569 001a 80BD     		pop	{r7, pc}
 570              		.cfi_endproc
 571              	.LFE4:
 572              		.size	CyBLE_Bless_LlRegRead, .-CyBLE_Bless_LlRegRead
 573              		.section	.text.CyBLE_Bless_LlRegWrite,"ax",%progbits
 574              		.align	2
 575              		.global	CyBLE_Bless_LlRegWrite
 576              		.code	16
 577              		.thumb_func
 578              		.type	CyBLE_Bless_LlRegWrite, %function
 579              	CyBLE_Bless_LlRegWrite:
 580              	.LFB5:
 284:Generated_Source\PSoC4/BLE_HAL_PVT.c **** 
 285:Generated_Source\PSoC4/BLE_HAL_PVT.c **** 
 286:Generated_Source\PSoC4/BLE_HAL_PVT.c **** /*******************************************************************************
 287:Generated_Source\PSoC4/BLE_HAL_PVT.c **** * Function Name: CyBLE_Bless_LlRegWrite
 288:Generated_Source\PSoC4/BLE_HAL_PVT.c **** ****************************************************************************//**
 289:Generated_Source\PSoC4/BLE_HAL_PVT.c **** *
 290:Generated_Source\PSoC4/BLE_HAL_PVT.c **** *  This function writes to the BLESS Link Layer register from the stack.
 291:Generated_Source\PSoC4/BLE_HAL_PVT.c **** *
 292:Generated_Source\PSoC4/BLE_HAL_PVT.c **** *  \param blessAddr: the pointer to the BLESS link layer address.
 293:Generated_Source\PSoC4/BLE_HAL_PVT.c **** *  \param regValue: the pointer to the value to be written to the BLESS LL reg.
 294:Generated_Source\PSoC4/BLE_HAL_PVT.c **** *
 295:Generated_Source\PSoC4/BLE_HAL_PVT.c **** * \return
 296:Generated_Source\PSoC4/BLE_HAL_PVT.c **** *  None
 297:Generated_Source\PSoC4/BLE_HAL_PVT.c **** *
 298:Generated_Source\PSoC4/BLE_HAL_PVT.c **** *******************************************************************************/
 299:Generated_Source\PSoC4/BLE_HAL_PVT.c **** void CyBLE_Bless_LlRegWrite (reg32 *blessAddr, const uint16 regValue)
 300:Generated_Source\PSoC4/BLE_HAL_PVT.c **** {
 581              		.loc 1 300 0
 582              		.cfi_startproc
 583              		@ args = 0, pretend = 0, frame = 8
 584              		@ frame_needed = 1, uses_anonymous_args = 0
 585 0000 80B5     		push	{r7, lr}
 586              		.cfi_def_cfa_offset 8
 587              		.cfi_offset 7, -8
 588              		.cfi_offset 14, -4
 589 0002 82B0     		sub	sp, sp, #8
 590              		.cfi_def_cfa_offset 16
 591 0004 00AF     		add	r7, sp, #0
 592              		.cfi_def_cfa_register 7
 593 0006 7860     		str	r0, [r7, #4]
 594 0008 0A00     		movs	r2, r1
 595 000a BB1C     		adds	r3, r7, #2
 596 000c 1A80     		strh	r2, [r3]
 301:Generated_Source\PSoC4/BLE_HAL_PVT.c ****     CY_SET_REG32(blessAddr, regValue);
 597              		.loc 1 301 0
 598 000e BB1C     		adds	r3, r7, #2
 599 0010 1A88     		ldrh	r2, [r3]
 600 0012 7B68     		ldr	r3, [r7, #4]
 601 0014 1A60     		str	r2, [r3]
 302:Generated_Source\PSoC4/BLE_HAL_PVT.c **** }
 602              		.loc 1 302 0
 603 0016 C046     		nop
 604 0018 BD46     		mov	sp, r7
ARM GAS  C:\Users\TTSS\AppData\Local\Temp\ccfbp0gi.s 			page 17


 605 001a 02B0     		add	sp, sp, #8
 606              		@ sp needed
 607 001c 80BD     		pop	{r7, pc}
 608              		.cfi_endproc
 609              	.LFE5:
 610              		.size	CyBLE_Bless_LlRegWrite, .-CyBLE_Bless_LlRegWrite
 611 001e C046     		.section	.text.CyBLE_Bless_RfRegRead,"ax",%progbits
 612              		.align	2
 613              		.global	CyBLE_Bless_RfRegRead
 614              		.code	16
 615              		.thumb_func
 616              		.type	CyBLE_Bless_RfRegRead, %function
 617              	CyBLE_Bless_RfRegRead:
 618              	.LFB6:
 303:Generated_Source\PSoC4/BLE_HAL_PVT.c **** 
 304:Generated_Source\PSoC4/BLE_HAL_PVT.c **** 
 305:Generated_Source\PSoC4/BLE_HAL_PVT.c **** /*******************************************************************************
 306:Generated_Source\PSoC4/BLE_HAL_PVT.c **** * Function Name: CyBLE_Bless_RfRegRead
 307:Generated_Source\PSoC4/BLE_HAL_PVT.c **** ****************************************************************************//**
 308:Generated_Source\PSoC4/BLE_HAL_PVT.c **** *
 309:Generated_Source\PSoC4/BLE_HAL_PVT.c **** *  This function reads the content of the BLESS RF register from the stack.
 310:Generated_Source\PSoC4/BLE_HAL_PVT.c **** *
 311:Generated_Source\PSoC4/BLE_HAL_PVT.c **** *  \param blessAddr: the pointer to BLESS RF register address.
 312:Generated_Source\PSoC4/BLE_HAL_PVT.c **** *  \param regValue: the pointer to the buffer space to copy the read value.
 313:Generated_Source\PSoC4/BLE_HAL_PVT.c **** *
 314:Generated_Source\PSoC4/BLE_HAL_PVT.c **** * \return
 315:Generated_Source\PSoC4/BLE_HAL_PVT.c **** *  None
 316:Generated_Source\PSoC4/BLE_HAL_PVT.c **** *
 317:Generated_Source\PSoC4/BLE_HAL_PVT.c **** *******************************************************************************/
 318:Generated_Source\PSoC4/BLE_HAL_PVT.c **** void CyBLE_Bless_RfRegRead (const reg32 *blessAddr, uint16 *regValue)
 319:Generated_Source\PSoC4/BLE_HAL_PVT.c **** {
 619              		.loc 1 319 0
 620              		.cfi_startproc
 621              		@ args = 0, pretend = 0, frame = 8
 622              		@ frame_needed = 1, uses_anonymous_args = 0
 623 0000 80B5     		push	{r7, lr}
 624              		.cfi_def_cfa_offset 8
 625              		.cfi_offset 7, -8
 626              		.cfi_offset 14, -4
 627 0002 82B0     		sub	sp, sp, #8
 628              		.cfi_def_cfa_offset 16
 629 0004 00AF     		add	r7, sp, #0
 630              		.cfi_def_cfa_register 7
 631 0006 7860     		str	r0, [r7, #4]
 632 0008 3960     		str	r1, [r7]
 320:Generated_Source\PSoC4/BLE_HAL_PVT.c ****     *regValue = (uint16)CY_GET_REG32(blessAddr);
 633              		.loc 1 320 0
 634 000a 7B68     		ldr	r3, [r7, #4]
 635 000c 1B68     		ldr	r3, [r3]
 636 000e 9AB2     		uxth	r2, r3
 637 0010 3B68     		ldr	r3, [r7]
 638 0012 1A80     		strh	r2, [r3]
 321:Generated_Source\PSoC4/BLE_HAL_PVT.c **** }
 639              		.loc 1 321 0
 640 0014 C046     		nop
 641 0016 BD46     		mov	sp, r7
 642 0018 02B0     		add	sp, sp, #8
ARM GAS  C:\Users\TTSS\AppData\Local\Temp\ccfbp0gi.s 			page 18


 643              		@ sp needed
 644 001a 80BD     		pop	{r7, pc}
 645              		.cfi_endproc
 646              	.LFE6:
 647              		.size	CyBLE_Bless_RfRegRead, .-CyBLE_Bless_RfRegRead
 648              		.section	.text.CyBLE_Bless_RfRegWrite,"ax",%progbits
 649              		.align	2
 650              		.global	CyBLE_Bless_RfRegWrite
 651              		.code	16
 652              		.thumb_func
 653              		.type	CyBLE_Bless_RfRegWrite, %function
 654              	CyBLE_Bless_RfRegWrite:
 655              	.LFB7:
 322:Generated_Source\PSoC4/BLE_HAL_PVT.c **** 
 323:Generated_Source\PSoC4/BLE_HAL_PVT.c **** 
 324:Generated_Source\PSoC4/BLE_HAL_PVT.c **** /*******************************************************************************
 325:Generated_Source\PSoC4/BLE_HAL_PVT.c **** * Function Name: CyBLE_Bless_RfRegWrite
 326:Generated_Source\PSoC4/BLE_HAL_PVT.c **** ****************************************************************************//**
 327:Generated_Source\PSoC4/BLE_HAL_PVT.c **** *
 328:Generated_Source\PSoC4/BLE_HAL_PVT.c **** *  This function writes to the BLESS RF register from the stack.
 329:Generated_Source\PSoC4/BLE_HAL_PVT.c **** *
 330:Generated_Source\PSoC4/BLE_HAL_PVT.c **** *  \param blessAddr: the pointer to the BLESS RF address.
 331:Generated_Source\PSoC4/BLE_HAL_PVT.c **** *  \param regValue: the pointer to the value to be written to the BLESS RF reg.
 332:Generated_Source\PSoC4/BLE_HAL_PVT.c **** *
 333:Generated_Source\PSoC4/BLE_HAL_PVT.c **** * \return
 334:Generated_Source\PSoC4/BLE_HAL_PVT.c **** *  None
 335:Generated_Source\PSoC4/BLE_HAL_PVT.c **** *
 336:Generated_Source\PSoC4/BLE_HAL_PVT.c **** *******************************************************************************/
 337:Generated_Source\PSoC4/BLE_HAL_PVT.c **** void CyBLE_Bless_RfRegWrite (reg32 *blessAddr, const uint16 regValue)
 338:Generated_Source\PSoC4/BLE_HAL_PVT.c **** {
 656              		.loc 1 338 0
 657              		.cfi_startproc
 658              		@ args = 0, pretend = 0, frame = 8
 659              		@ frame_needed = 1, uses_anonymous_args = 0
 660 0000 80B5     		push	{r7, lr}
 661              		.cfi_def_cfa_offset 8
 662              		.cfi_offset 7, -8
 663              		.cfi_offset 14, -4
 664 0002 82B0     		sub	sp, sp, #8
 665              		.cfi_def_cfa_offset 16
 666 0004 00AF     		add	r7, sp, #0
 667              		.cfi_def_cfa_register 7
 668 0006 7860     		str	r0, [r7, #4]
 669 0008 0A00     		movs	r2, r1
 670 000a BB1C     		adds	r3, r7, #2
 671 000c 1A80     		strh	r2, [r3]
 339:Generated_Source\PSoC4/BLE_HAL_PVT.c ****      CY_SET_REG32(blessAddr, regValue);
 672              		.loc 1 339 0
 673 000e BB1C     		adds	r3, r7, #2
 674 0010 1A88     		ldrh	r2, [r3]
 675 0012 7B68     		ldr	r3, [r7, #4]
 676 0014 1A60     		str	r2, [r3]
 340:Generated_Source\PSoC4/BLE_HAL_PVT.c **** }
 677              		.loc 1 340 0
 678 0016 C046     		nop
 679 0018 BD46     		mov	sp, r7
 680 001a 02B0     		add	sp, sp, #8
ARM GAS  C:\Users\TTSS\AppData\Local\Temp\ccfbp0gi.s 			page 19


 681              		@ sp needed
 682 001c 80BD     		pop	{r7, pc}
 683              		.cfi_endproc
 684              	.LFE7:
 685              		.size	CyBLE_Bless_RfRegWrite, .-CyBLE_Bless_RfRegWrite
 686 001e C046     		.section	.text.CyBLE_BlessDeviceConfig,"ax",%progbits
 687              		.align	2
 688              		.global	CyBLE_BlessDeviceConfig
 689              		.code	16
 690              		.thumb_func
 691              		.type	CyBLE_BlessDeviceConfig, %function
 692              	CyBLE_BlessDeviceConfig:
 693              	.LFB8:
 341:Generated_Source\PSoC4/BLE_HAL_PVT.c **** 
 342:Generated_Source\PSoC4/BLE_HAL_PVT.c **** /*******************************************************************************
 343:Generated_Source\PSoC4/BLE_HAL_PVT.c **** * Function Name: CyBLE_BlessDeviceConfig
 344:Generated_Source\PSoC4/BLE_HAL_PVT.c **** ****************************************************************************//**
 345:Generated_Source\PSoC4/BLE_HAL_PVT.c **** *
 346:Generated_Source\PSoC4/BLE_HAL_PVT.c **** *  This function configures BLESS registers by trimmed values stored in SFLASH.
 347:Generated_Source\PSoC4/BLE_HAL_PVT.c **** *
 348:Generated_Source\PSoC4/BLE_HAL_PVT.c **** * \return
 349:Generated_Source\PSoC4/BLE_HAL_PVT.c **** *  None
 350:Generated_Source\PSoC4/BLE_HAL_PVT.c **** *
 351:Generated_Source\PSoC4/BLE_HAL_PVT.c **** *******************************************************************************/
 352:Generated_Source\PSoC4/BLE_HAL_PVT.c **** void CyBLE_BlessDeviceConfig(void)
 353:Generated_Source\PSoC4/BLE_HAL_PVT.c **** {
 694              		.loc 1 353 0
 695              		.cfi_startproc
 696              		@ args = 0, pretend = 0, frame = 16
 697              		@ frame_needed = 1, uses_anonymous_args = 0
 698 0000 80B5     		push	{r7, lr}
 699              		.cfi_def_cfa_offset 8
 700              		.cfi_offset 7, -8
 701              		.cfi_offset 14, -4
 702 0002 84B0     		sub	sp, sp, #16
 703              		.cfi_def_cfa_offset 24
 704 0004 00AF     		add	r7, sp, #0
 705              		.cfi_def_cfa_register 7
 354:Generated_Source\PSoC4/BLE_HAL_PVT.c **** #if (CYIPBLOCK_m0s8bless_VERSION < 3)
 355:Generated_Source\PSoC4/BLE_HAL_PVT.c ****     
 356:Generated_Source\PSoC4/BLE_HAL_PVT.c ****     uint32 trimRegValue;
 357:Generated_Source\PSoC4/BLE_HAL_PVT.c ****     uint32 ldo;
 358:Generated_Source\PSoC4/BLE_HAL_PVT.c ****     uint16 trimRef34Val;
 359:Generated_Source\PSoC4/BLE_HAL_PVT.c ****     uint16 trimRef38Val;    
 360:Generated_Source\PSoC4/BLE_HAL_PVT.c ****     uint32 siliconRev;
 361:Generated_Source\PSoC4/BLE_HAL_PVT.c **** 
 362:Generated_Source\PSoC4/BLE_HAL_PVT.c ****     trimRegValue = ((uint32)CYBLE_SFLASH_BLESS_BB_BUMP2_HIGH_REG << 8u) | CYBLE_SFLASH_BLESS_BB_BUM
 706              		.loc 1 362 0
 707 0006 494B     		ldr	r3, .L40
 708 0008 1B78     		ldrb	r3, [r3]
 709 000a DBB2     		uxtb	r3, r3
 710 000c 1B02     		lsls	r3, r3, #8
 711 000e 484A     		ldr	r2, .L40+4
 712 0010 1278     		ldrb	r2, [r2]
 713 0012 D2B2     		uxtb	r2, r2
 714 0014 1343     		orrs	r3, r2
 715 0016 FB60     		str	r3, [r7, #12]
ARM GAS  C:\Users\TTSS\AppData\Local\Temp\ccfbp0gi.s 			page 20


 363:Generated_Source\PSoC4/BLE_HAL_PVT.c ****     ldo = ((uint32)CYBLE_SFLASH_BLESS_LDO_HIGH_REG << 8u) | CYBLE_SFLASH_BLESS_LDO_LOW_REG;
 716              		.loc 1 363 0
 717 0018 464B     		ldr	r3, .L40+8
 718 001a 1B78     		ldrb	r3, [r3]
 719 001c DBB2     		uxtb	r3, r3
 720 001e 1B02     		lsls	r3, r3, #8
 721 0020 454A     		ldr	r2, .L40+12
 722 0022 1278     		ldrb	r2, [r2]
 723 0024 D2B2     		uxtb	r2, r2
 724 0026 1343     		orrs	r3, r2
 725 0028 BB60     		str	r3, [r7, #8]
 364:Generated_Source\PSoC4/BLE_HAL_PVT.c **** 
 365:Generated_Source\PSoC4/BLE_HAL_PVT.c ****     if ((ldo == CYBLE_SFLASH_BLERD_LDO_REG_VAL1) && (trimRegValue == CYBLE_SFLASH_BLERD_BB_BUMP2_RE
 726              		.loc 1 365 0
 727 002a BB68     		ldr	r3, [r7, #8]
 728 002c 434A     		ldr	r2, .L40+16
 729 002e 9342     		cmp	r3, r2
 730 0030 07D1     		bne	.L32
 731              		.loc 1 365 0 is_stmt 0 discriminator 1
 732 0032 FB68     		ldr	r3, [r7, #12]
 733 0034 072B     		cmp	r3, #7
 734 0036 04D1     		bne	.L32
 366:Generated_Source\PSoC4/BLE_HAL_PVT.c ****     {
 367:Generated_Source\PSoC4/BLE_HAL_PVT.c ****         ldo = CYBLE_BLERD_LDO_REG_VAL_FINAL;
 735              		.loc 1 367 0 is_stmt 1
 736 0038 414B     		ldr	r3, .L40+20
 737 003a BB60     		str	r3, [r7, #8]
 368:Generated_Source\PSoC4/BLE_HAL_PVT.c ****         trimRegValue = CYBLE_BLERD_BB_BUMP2_REG_VAL_FINAL;
 738              		.loc 1 368 0
 739 003c 0423     		movs	r3, #4
 740 003e FB60     		str	r3, [r7, #12]
 741 0040 09E0     		b	.L33
 742              	.L32:
 369:Generated_Source\PSoC4/BLE_HAL_PVT.c ****     }
 370:Generated_Source\PSoC4/BLE_HAL_PVT.c ****     else if ((ldo == CYBLE_SFLASH_BLERD_LDO_REG_VAL2) && (trimRegValue == CYBLE_BLERD_BB_BUMP2_REG_
 743              		.loc 1 370 0
 744 0042 BA68     		ldr	r2, [r7, #8]
 745 0044 D423     		movs	r3, #212
 746 0046 1B01     		lsls	r3, r3, #4
 747 0048 9A42     		cmp	r2, r3
 748 004a 04D1     		bne	.L33
 749              		.loc 1 370 0 is_stmt 0 discriminator 1
 750 004c FB68     		ldr	r3, [r7, #12]
 751 004e 042B     		cmp	r3, #4
 752 0050 01D1     		bne	.L33
 371:Generated_Source\PSoC4/BLE_HAL_PVT.c ****     {
 372:Generated_Source\PSoC4/BLE_HAL_PVT.c ****         ldo = CYBLE_BLERD_LDO_REG_VAL_FINAL;
 753              		.loc 1 372 0 is_stmt 1
 754 0052 3B4B     		ldr	r3, .L40+20
 755 0054 BB60     		str	r3, [r7, #8]
 756              	.L33:
 373:Generated_Source\PSoC4/BLE_HAL_PVT.c ****     }
 374:Generated_Source\PSoC4/BLE_HAL_PVT.c ****     else
 375:Generated_Source\PSoC4/BLE_HAL_PVT.c ****     {
 376:Generated_Source\PSoC4/BLE_HAL_PVT.c ****     }
 377:Generated_Source\PSoC4/BLE_HAL_PVT.c **** 
 378:Generated_Source\PSoC4/BLE_HAL_PVT.c ****     CYBLE_BLE_BLERD_LDO_REG = ldo;
ARM GAS  C:\Users\TTSS\AppData\Local\Temp\ccfbp0gi.s 			page 21


 757              		.loc 1 378 0
 758 0056 3B4B     		ldr	r3, .L40+24
 759 0058 BA68     		ldr	r2, [r7, #8]
 760 005a 1A60     		str	r2, [r3]
 379:Generated_Source\PSoC4/BLE_HAL_PVT.c ****     CYBLE_BLE_BLERD_BB_BUMP2_REG = trimRegValue;
 761              		.loc 1 379 0
 762 005c 3A4B     		ldr	r3, .L40+28
 763 005e FA68     		ldr	r2, [r7, #12]
 764 0060 1A60     		str	r2, [r3]
 380:Generated_Source\PSoC4/BLE_HAL_PVT.c **** 
 381:Generated_Source\PSoC4/BLE_HAL_PVT.c ****     /* Edit only XTAL fast charge bit */
 382:Generated_Source\PSoC4/BLE_HAL_PVT.c ****     trimRegValue = ((uint32)CYBLE_SFLASH_BLESS_BB_XO_HIGH_REG << 8u) | CYBLE_SFLASH_BLESS_BB_XO_LOW
 765              		.loc 1 382 0
 766 0062 3A4B     		ldr	r3, .L40+32
 767 0064 1B78     		ldrb	r3, [r3]
 768 0066 DBB2     		uxtb	r3, r3
 769 0068 1B02     		lsls	r3, r3, #8
 770 006a 394A     		ldr	r2, .L40+36
 771 006c 1278     		ldrb	r2, [r2]
 772 006e D2B2     		uxtb	r2, r2
 773 0070 1343     		orrs	r3, r2
 774 0072 FB60     		str	r3, [r7, #12]
 383:Generated_Source\PSoC4/BLE_HAL_PVT.c **** 
 384:Generated_Source\PSoC4/BLE_HAL_PVT.c ****     if ((trimRegValue == CYBLE_SFLASH_BLERD_BB_XO_REG_VAL1) || (trimRegValue == CYBLE_SFLASH_BLERD_
 775              		.loc 1 384 0
 776 0074 FA68     		ldr	r2, [r7, #12]
 777 0076 8023     		movs	r3, #128
 778 0078 9B01     		lsls	r3, r3, #6
 779 007a 9A42     		cmp	r2, r3
 780 007c 02D0     		beq	.L34
 781              		.loc 1 384 0 is_stmt 0 discriminator 1
 782 007e FB68     		ldr	r3, [r7, #12]
 783 0080 002B     		cmp	r3, #0
 784 0082 01D1     		bne	.L35
 785              	.L34:
 385:Generated_Source\PSoC4/BLE_HAL_PVT.c ****     {
 386:Generated_Source\PSoC4/BLE_HAL_PVT.c ****         trimRegValue = CYBLE_BLERD_BB_XO_REG_VAL_FINAL;
 786              		.loc 1 386 0 is_stmt 1
 787 0084 334B     		ldr	r3, .L40+40
 788 0086 FB60     		str	r3, [r7, #12]
 789              	.L35:
 387:Generated_Source\PSoC4/BLE_HAL_PVT.c ****     }
 388:Generated_Source\PSoC4/BLE_HAL_PVT.c ****     
 389:Generated_Source\PSoC4/BLE_HAL_PVT.c ****     CYBLE_BLE_BLERD_BB_XO_REG = trimRegValue;
 790              		.loc 1 389 0
 791 0088 334B     		ldr	r3, .L40+44
 792 008a FA68     		ldr	r2, [r7, #12]
 793 008c 1A60     		str	r2, [r3]
 390:Generated_Source\PSoC4/BLE_HAL_PVT.c ****     
 391:Generated_Source\PSoC4/BLE_HAL_PVT.c ****     trimRegValue = ((uint32)CYBLE_SFLASH_BLESS_SY_BUMP1_HIGH_REG << 8u) | CYBLE_SFLASH_BLESS_SY_BUM
 794              		.loc 1 391 0
 795 008e 334B     		ldr	r3, .L40+48
 796 0090 1B78     		ldrb	r3, [r3]
 797 0092 DBB2     		uxtb	r3, r3
 798 0094 1B02     		lsls	r3, r3, #8
 799 0096 324A     		ldr	r2, .L40+52
 800 0098 1278     		ldrb	r2, [r2]
ARM GAS  C:\Users\TTSS\AppData\Local\Temp\ccfbp0gi.s 			page 22


 801 009a D2B2     		uxtb	r2, r2
 802 009c 1343     		orrs	r3, r2
 803 009e FB60     		str	r3, [r7, #12]
 392:Generated_Source\PSoC4/BLE_HAL_PVT.c **** 
 393:Generated_Source\PSoC4/BLE_HAL_PVT.c ****     if ((trimRegValue == CYBLE_SFLASH_BLERD_SY_BUMP1_REG_VAL1) || 
 804              		.loc 1 393 0
 805 00a0 FB68     		ldr	r3, [r7, #12]
 806 00a2 304A     		ldr	r2, .L40+56
 807 00a4 9342     		cmp	r3, r2
 808 00a6 06D0     		beq	.L36
 809              		.loc 1 393 0 is_stmt 0 discriminator 1
 810 00a8 FB68     		ldr	r3, [r7, #12]
 811 00aa 2F4A     		ldr	r2, .L40+60
 812 00ac 9342     		cmp	r3, r2
 813 00ae 02D0     		beq	.L36
 394:Generated_Source\PSoC4/BLE_HAL_PVT.c ****         (trimRegValue == CYBLE_SFLASH_BLERD_SY_BUMP1_REG_VAL2) ||  
 814              		.loc 1 394 0 is_stmt 1
 815 00b0 FB68     		ldr	r3, [r7, #12]
 816 00b2 052B     		cmp	r3, #5
 817 00b4 01D1     		bne	.L37
 818              	.L36:
 395:Generated_Source\PSoC4/BLE_HAL_PVT.c ****         (trimRegValue == CYBLE_SFLASH_BLERD_SY_BUMP1_REG_VAL3))
 396:Generated_Source\PSoC4/BLE_HAL_PVT.c ****     {
 397:Generated_Source\PSoC4/BLE_HAL_PVT.c ****         trimRegValue = CYBLE_BLERD_SY_BUMP1_REG_VAL_FINAL;
 819              		.loc 1 397 0
 820 00b6 2D4B     		ldr	r3, .L40+64
 821 00b8 FB60     		str	r3, [r7, #12]
 822              	.L37:
 398:Generated_Source\PSoC4/BLE_HAL_PVT.c ****     }
 399:Generated_Source\PSoC4/BLE_HAL_PVT.c ****     CYBLE_BLE_BLERD_SY_BUMP1_REG = trimRegValue;
 823              		.loc 1 399 0
 824 00ba 2D4B     		ldr	r3, .L40+68
 825 00bc FA68     		ldr	r2, [r7, #12]
 826 00be 1A60     		str	r2, [r3]
 400:Generated_Source\PSoC4/BLE_HAL_PVT.c **** 
 401:Generated_Source\PSoC4/BLE_HAL_PVT.c ****     /* Following code is for F02FN trimming */
 402:Generated_Source\PSoC4/BLE_HAL_PVT.c ****     siliconRev = (CYBLE_BLE_SILICON_REV_REG >> 4u);
 827              		.loc 1 402 0
 828 00c0 2C4B     		ldr	r3, .L40+72
 829 00c2 1B68     		ldr	r3, [r3]
 830 00c4 1B09     		lsrs	r3, r3, #4
 831 00c6 7B60     		str	r3, [r7, #4]
 403:Generated_Source\PSoC4/BLE_HAL_PVT.c ****     
 404:Generated_Source\PSoC4/BLE_HAL_PVT.c ****     if((CYBLE_BLE_FAMILY_ID_REG == CYBLE_PSOC4A_BLE256DMA_FID) && (siliconRev >= 0x02u) &&
 832              		.loc 1 404 0
 833 00c8 2B4B     		ldr	r3, .L40+76
 834 00ca 1B68     		ldr	r3, [r3]
 835 00cc AA2B     		cmp	r3, #170
 836 00ce 29D1     		bne	.L39
 837              		.loc 1 404 0 is_stmt 0 discriminator 1
 838 00d0 7B68     		ldr	r3, [r7, #4]
 839 00d2 012B     		cmp	r3, #1
 840 00d4 26D9     		bls	.L39
 405:Generated_Source\PSoC4/BLE_HAL_PVT.c ****         (CYBLE_SFLASH_BLESS_SY_BUMP1_HIGH_REG == 0x0Eu))
 841              		.loc 1 405 0 is_stmt 1 discriminator 2
 842 00d6 214B     		ldr	r3, .L40+48
 843 00d8 1B78     		ldrb	r3, [r3]
ARM GAS  C:\Users\TTSS\AppData\Local\Temp\ccfbp0gi.s 			page 23


 844 00da DBB2     		uxtb	r3, r3
 404:Generated_Source\PSoC4/BLE_HAL_PVT.c ****         (CYBLE_SFLASH_BLESS_SY_BUMP1_HIGH_REG == 0x0Eu))
 845              		.loc 1 404 0 discriminator 2
 846 00dc 0E2B     		cmp	r3, #14
 847 00de 21D1     		bne	.L39
 406:Generated_Source\PSoC4/BLE_HAL_PVT.c **** 	{
 407:Generated_Source\PSoC4/BLE_HAL_PVT.c **** 		trimRef34Val = ((uint16)(((uint16) CYBLE_BLE_BLESS_REG34_TRIM_HIGH_REG) << 8u)) |
 848              		.loc 1 407 0
 849 00e0 264B     		ldr	r3, .L40+80
 850 00e2 1B78     		ldrb	r3, [r3]
 851 00e4 DBB2     		uxtb	r3, r3
 852 00e6 9BB2     		uxth	r3, r3
 853 00e8 1B02     		lsls	r3, r3, #8
 854 00ea 99B2     		uxth	r1, r3
 408:Generated_Source\PSoC4/BLE_HAL_PVT.c ****                         ((uint16)CYBLE_BLE_BLESS_REG34_TRIM_LOW_REG);
 855              		.loc 1 408 0
 856 00ec 244B     		ldr	r3, .L40+84
 857 00ee 1B78     		ldrb	r3, [r3]
 858 00f0 DBB2     		uxtb	r3, r3
 407:Generated_Source\PSoC4/BLE_HAL_PVT.c ****                         ((uint16)CYBLE_BLE_BLESS_REG34_TRIM_LOW_REG);
 859              		.loc 1 407 0
 860 00f2 9AB2     		uxth	r2, r3
 861 00f4 BB1C     		adds	r3, r7, #2
 862 00f6 0A43     		orrs	r2, r1
 863 00f8 1A80     		strh	r2, [r3]
 409:Generated_Source\PSoC4/BLE_HAL_PVT.c **** 		CYBLE_BLERD_SY_BUMP2_REG = trimRef34Val;
 864              		.loc 1 409 0
 865 00fa 224B     		ldr	r3, .L40+88
 866 00fc BA1C     		adds	r2, r7, #2
 867 00fe 1288     		ldrh	r2, [r2]
 868 0100 1A60     		str	r2, [r3]
 410:Generated_Source\PSoC4/BLE_HAL_PVT.c **** 	
 411:Generated_Source\PSoC4/BLE_HAL_PVT.c **** 		trimRef38Val = ((uint16)(((uint16)CYBLE_BLE_BLESS_REG38_TRIM_HIGH_REG) << 8u)) |
 869              		.loc 1 411 0
 870 0102 214B     		ldr	r3, .L40+92
 871 0104 1B78     		ldrb	r3, [r3]
 872 0106 DBB2     		uxtb	r3, r3
 873 0108 9BB2     		uxth	r3, r3
 874 010a 1B02     		lsls	r3, r3, #8
 875 010c 99B2     		uxth	r1, r3
 412:Generated_Source\PSoC4/BLE_HAL_PVT.c ****             ((uint16) CYBLE_BLE_BLESS_REG38_TRIM_LOW_REG);
 876              		.loc 1 412 0
 877 010e 1F4B     		ldr	r3, .L40+96
 878 0110 1B78     		ldrb	r3, [r3]
 879 0112 DBB2     		uxtb	r3, r3
 411:Generated_Source\PSoC4/BLE_HAL_PVT.c ****             ((uint16) CYBLE_BLE_BLESS_REG38_TRIM_LOW_REG);
 880              		.loc 1 411 0
 881 0114 9AB2     		uxth	r2, r3
 882 0116 3B00     		movs	r3, r7
 883 0118 0A43     		orrs	r2, r1
 884 011a 1A80     		strh	r2, [r3]
 413:Generated_Source\PSoC4/BLE_HAL_PVT.c **** 		CYBLE_BLERD_RX_BUMP2_REG = trimRef38Val;
 885              		.loc 1 413 0
 886 011c 1C4B     		ldr	r3, .L40+100
 887 011e 3A00     		movs	r2, r7
 888 0120 1288     		ldrh	r2, [r2]
 889 0122 1A60     		str	r2, [r3]
ARM GAS  C:\Users\TTSS\AppData\Local\Temp\ccfbp0gi.s 			page 24


 890              	.L39:
 414:Generated_Source\PSoC4/BLE_HAL_PVT.c **** 	}
 415:Generated_Source\PSoC4/BLE_HAL_PVT.c **** #endif /* (CYIPBLOCK_m0s8bless_VERSION < 3) */
 416:Generated_Source\PSoC4/BLE_HAL_PVT.c **** }
 891              		.loc 1 416 0
 892 0124 C046     		nop
 893 0126 BD46     		mov	sp, r7
 894 0128 04B0     		add	sp, sp, #16
 895              		@ sp needed
 896 012a 80BD     		pop	{r7, pc}
 897              	.L41:
 898              		.align	2
 899              	.L40:
 900 012c 59F1FF0F 		.word	268431705
 901 0130 58F1FF0F 		.word	268431704
 902 0134 5FF1FF0F 		.word	268431711
 903 0138 5EF1FF0F 		.word	268431710
 904 013c 580B0000 		.word	2904
 905 0140 580D0000 		.word	3416
 906 0144 6C002E40 		.word	1076756588
 907 0148 74002E40 		.word	1076756596
 908 014c 5BF1FF0F 		.word	268431707
 909 0150 5AF1FF0F 		.word	268431706
 910 0154 02200000 		.word	8194
 911 0158 78002E40 		.word	1076756600
 912 015c 5DF1FF0F 		.word	268431709
 913 0160 5CF1FF0F 		.word	268431708
 914 0164 0F0F0000 		.word	3855
 915 0168 05050000 		.word	1285
 916 016c 050F0000 		.word	3845
 917 0170 80002E40 		.word	1076756608
 918 0174 EC0F00F0 		.word	-268431380
 919 0178 E00F00F0 		.word	-268431392
 920 017c 6DF2FF0F 		.word	268431981
 921 0180 6CF2FF0F 		.word	268431980
 922 0184 84002E40 		.word	1076756612
 923 0188 6FF2FF0F 		.word	268431983
 924 018c 6EF2FF0F 		.word	268431982
 925 0190 94002E40 		.word	1076756628
 926              		.cfi_endproc
 927              	.LFE8:
 928              		.size	CyBLE_BlessDeviceConfig, .-CyBLE_BlessDeviceConfig
 929              		.section	.text.CyBleHal_DelayUs,"ax",%progbits
 930              		.align	2
 931              		.global	CyBleHal_DelayUs
 932              		.code	16
 933              		.thumb_func
 934              		.type	CyBleHal_DelayUs, %function
 935              	CyBleHal_DelayUs:
 936              	.LFB9:
 417:Generated_Source\PSoC4/BLE_HAL_PVT.c **** 
 418:Generated_Source\PSoC4/BLE_HAL_PVT.c **** 
 419:Generated_Source\PSoC4/BLE_HAL_PVT.c **** /* Interface to CyDelayUs function */
 420:Generated_Source\PSoC4/BLE_HAL_PVT.c **** void CyBleHal_DelayUs(uint16 delayVal)
 421:Generated_Source\PSoC4/BLE_HAL_PVT.c **** {
 937              		.loc 1 421 0
 938              		.cfi_startproc
ARM GAS  C:\Users\TTSS\AppData\Local\Temp\ccfbp0gi.s 			page 25


 939              		@ args = 0, pretend = 0, frame = 8
 940              		@ frame_needed = 1, uses_anonymous_args = 0
 941 0000 80B5     		push	{r7, lr}
 942              		.cfi_def_cfa_offset 8
 943              		.cfi_offset 7, -8
 944              		.cfi_offset 14, -4
 945 0002 82B0     		sub	sp, sp, #8
 946              		.cfi_def_cfa_offset 16
 947 0004 00AF     		add	r7, sp, #0
 948              		.cfi_def_cfa_register 7
 949 0006 0200     		movs	r2, r0
 950 0008 BB1D     		adds	r3, r7, #6
 951 000a 1A80     		strh	r2, [r3]
 422:Generated_Source\PSoC4/BLE_HAL_PVT.c ****     CyDelayUs(delayVal);
 952              		.loc 1 422 0
 953 000c BB1D     		adds	r3, r7, #6
 954 000e 1B88     		ldrh	r3, [r3]
 955 0010 1800     		movs	r0, r3
 956 0012 FFF7FEFF 		bl	CyDelayUs
 423:Generated_Source\PSoC4/BLE_HAL_PVT.c **** }
 957              		.loc 1 423 0
 958 0016 C046     		nop
 959 0018 BD46     		mov	sp, r7
 960 001a 02B0     		add	sp, sp, #8
 961              		@ sp needed
 962 001c 80BD     		pop	{r7, pc}
 963              		.cfi_endproc
 964              	.LFE9:
 965              		.size	CyBleHal_DelayUs, .-CyBleHal_DelayUs
 966 001e C046     		.section	.text.CyBleHal_DelayMs,"ax",%progbits
 967              		.align	2
 968              		.global	CyBleHal_DelayMs
 969              		.code	16
 970              		.thumb_func
 971              		.type	CyBleHal_DelayMs, %function
 972              	CyBleHal_DelayMs:
 973              	.LFB10:
 424:Generated_Source\PSoC4/BLE_HAL_PVT.c **** 
 425:Generated_Source\PSoC4/BLE_HAL_PVT.c **** /* Interface to CyDelay function */
 426:Generated_Source\PSoC4/BLE_HAL_PVT.c **** void CyBleHal_DelayMs(uint32 delayVal)
 427:Generated_Source\PSoC4/BLE_HAL_PVT.c **** {
 974              		.loc 1 427 0
 975              		.cfi_startproc
 976              		@ args = 0, pretend = 0, frame = 8
 977              		@ frame_needed = 1, uses_anonymous_args = 0
 978 0000 80B5     		push	{r7, lr}
 979              		.cfi_def_cfa_offset 8
 980              		.cfi_offset 7, -8
 981              		.cfi_offset 14, -4
 982 0002 82B0     		sub	sp, sp, #8
 983              		.cfi_def_cfa_offset 16
 984 0004 00AF     		add	r7, sp, #0
 985              		.cfi_def_cfa_register 7
 986 0006 7860     		str	r0, [r7, #4]
 428:Generated_Source\PSoC4/BLE_HAL_PVT.c ****     CyDelay(delayVal);
 987              		.loc 1 428 0
 988 0008 7B68     		ldr	r3, [r7, #4]
ARM GAS  C:\Users\TTSS\AppData\Local\Temp\ccfbp0gi.s 			page 26


 989 000a 1800     		movs	r0, r3
 990 000c FFF7FEFF 		bl	CyDelay
 429:Generated_Source\PSoC4/BLE_HAL_PVT.c **** }
 991              		.loc 1 429 0
 992 0010 C046     		nop
 993 0012 BD46     		mov	sp, r7
 994 0014 02B0     		add	sp, sp, #8
 995              		@ sp needed
 996 0016 80BD     		pop	{r7, pc}
 997              		.cfi_endproc
 998              	.LFE10:
 999              		.size	CyBleHal_DelayMs, .-CyBleHal_DelayMs
 1000              		.section	.text.CyBleHal_EnableGlobalInterrupts,"ax",%progbits
 1001              		.align	2
 1002              		.global	CyBleHal_EnableGlobalInterrupts
 1003              		.code	16
 1004              		.thumb_func
 1005              		.type	CyBleHal_EnableGlobalInterrupts, %function
 1006              	CyBleHal_EnableGlobalInterrupts:
 1007              	.LFB11:
 430:Generated_Source\PSoC4/BLE_HAL_PVT.c **** 
 431:Generated_Source\PSoC4/BLE_HAL_PVT.c **** /* Interface to BLE_bless_isr_Enable function */
 432:Generated_Source\PSoC4/BLE_HAL_PVT.c **** void CyBleHal_EnableGlobalInterrupts(void)
 433:Generated_Source\PSoC4/BLE_HAL_PVT.c **** {
 1008              		.loc 1 433 0
 1009              		.cfi_startproc
 1010              		@ args = 0, pretend = 0, frame = 0
 1011              		@ frame_needed = 1, uses_anonymous_args = 0
 1012 0000 80B5     		push	{r7, lr}
 1013              		.cfi_def_cfa_offset 8
 1014              		.cfi_offset 7, -8
 1015              		.cfi_offset 14, -4
 1016 0002 00AF     		add	r7, sp, #0
 1017              		.cfi_def_cfa_register 7
 434:Generated_Source\PSoC4/BLE_HAL_PVT.c ****     BLE_bless_isr_Enable();
 1018              		.loc 1 434 0
 1019 0004 FFF7FEFF 		bl	BLE_bless_isr_Enable
 435:Generated_Source\PSoC4/BLE_HAL_PVT.c **** }
 1020              		.loc 1 435 0
 1021 0008 C046     		nop
 1022 000a BD46     		mov	sp, r7
 1023              		@ sp needed
 1024 000c 80BD     		pop	{r7, pc}
 1025              		.cfi_endproc
 1026              	.LFE11:
 1027              		.size	CyBleHal_EnableGlobalInterrupts, .-CyBleHal_EnableGlobalInterrupts
 1028 000e C046     		.section	.text.CyBleHal_DisableGlobalInterrupts,"ax",%progbits
 1029              		.align	2
 1030              		.global	CyBleHal_DisableGlobalInterrupts
 1031              		.code	16
 1032              		.thumb_func
 1033              		.type	CyBleHal_DisableGlobalInterrupts, %function
 1034              	CyBleHal_DisableGlobalInterrupts:
 1035              	.LFB12:
 436:Generated_Source\PSoC4/BLE_HAL_PVT.c **** 
 437:Generated_Source\PSoC4/BLE_HAL_PVT.c **** /* Interface to BLE_bless_isr_Disable function */
 438:Generated_Source\PSoC4/BLE_HAL_PVT.c **** void CyBleHal_DisableGlobalInterrupts(void)
ARM GAS  C:\Users\TTSS\AppData\Local\Temp\ccfbp0gi.s 			page 27


 439:Generated_Source\PSoC4/BLE_HAL_PVT.c **** {
 1036              		.loc 1 439 0
 1037              		.cfi_startproc
 1038              		@ args = 0, pretend = 0, frame = 0
 1039              		@ frame_needed = 1, uses_anonymous_args = 0
 1040 0000 80B5     		push	{r7, lr}
 1041              		.cfi_def_cfa_offset 8
 1042              		.cfi_offset 7, -8
 1043              		.cfi_offset 14, -4
 1044 0002 00AF     		add	r7, sp, #0
 1045              		.cfi_def_cfa_register 7
 440:Generated_Source\PSoC4/BLE_HAL_PVT.c ****     BLE_bless_isr_Disable();
 1046              		.loc 1 440 0
 1047 0004 FFF7FEFF 		bl	BLE_bless_isr_Disable
 441:Generated_Source\PSoC4/BLE_HAL_PVT.c **** }
 1048              		.loc 1 441 0
 1049 0008 C046     		nop
 1050 000a BD46     		mov	sp, r7
 1051              		@ sp needed
 1052 000c 80BD     		pop	{r7, pc}
 1053              		.cfi_endproc
 1054              	.LFE12:
 1055              		.size	CyBleHal_DisableGlobalInterrupts, .-CyBleHal_DisableGlobalInterrupts
 1056 000e C046     		.section	.text.CyBle_HalInit,"ax",%progbits
 1057              		.align	2
 1058              		.global	CyBle_HalInit
 1059              		.code	16
 1060              		.thumb_func
 1061              		.type	CyBle_HalInit, %function
 1062              	CyBle_HalInit:
 1063              	.LFB13:
 442:Generated_Source\PSoC4/BLE_HAL_PVT.c **** 
 443:Generated_Source\PSoC4/BLE_HAL_PVT.c **** /*******************************************************************************
 444:Generated_Source\PSoC4/BLE_HAL_PVT.c **** * Function Name: CyBle_HalInit
 445:Generated_Source\PSoC4/BLE_HAL_PVT.c **** ****************************************************************************//**
 446:Generated_Source\PSoC4/BLE_HAL_PVT.c **** *
 447:Generated_Source\PSoC4/BLE_HAL_PVT.c **** *  Initializes the BLESS interrupt.
 448:Generated_Source\PSoC4/BLE_HAL_PVT.c **** *
 449:Generated_Source\PSoC4/BLE_HAL_PVT.c **** * \return
 450:Generated_Source\PSoC4/BLE_HAL_PVT.c **** *  None
 451:Generated_Source\PSoC4/BLE_HAL_PVT.c **** *
 452:Generated_Source\PSoC4/BLE_HAL_PVT.c **** *******************************************************************************/
 453:Generated_Source\PSoC4/BLE_HAL_PVT.c **** void CyBle_HalInit(void)
 454:Generated_Source\PSoC4/BLE_HAL_PVT.c **** {
 1064              		.loc 1 454 0
 1065              		.cfi_startproc
 1066              		@ args = 0, pretend = 0, frame = 0
 1067              		@ frame_needed = 1, uses_anonymous_args = 0
 1068 0000 80B5     		push	{r7, lr}
 1069              		.cfi_def_cfa_offset 8
 1070              		.cfi_offset 7, -8
 1071              		.cfi_offset 14, -4
 1072 0002 00AF     		add	r7, sp, #0
 1073              		.cfi_def_cfa_register 7
 455:Generated_Source\PSoC4/BLE_HAL_PVT.c ****     /* For all we know the interrupt is active. */
 456:Generated_Source\PSoC4/BLE_HAL_PVT.c ****     BLE_bless_isr_Disable();
 1074              		.loc 1 456 0
ARM GAS  C:\Users\TTSS\AppData\Local\Temp\ccfbp0gi.s 			page 28


 1075 0004 FFF7FEFF 		bl	BLE_bless_isr_Disable
 457:Generated_Source\PSoC4/BLE_HAL_PVT.c **** 
 458:Generated_Source\PSoC4/BLE_HAL_PVT.c ****     /* Set the ISR to point to the BLE_bless_isr Interrupt. */
 459:Generated_Source\PSoC4/BLE_HAL_PVT.c ****     BLE_bless_isr_SetVector(&CyBLE_Bless_Interrupt);
 1076              		.loc 1 459 0
 1077 0008 044B     		ldr	r3, .L47
 1078 000a 1800     		movs	r0, r3
 1079 000c FFF7FEFF 		bl	BLE_bless_isr_SetVector
 460:Generated_Source\PSoC4/BLE_HAL_PVT.c **** 
 461:Generated_Source\PSoC4/BLE_HAL_PVT.c ****     /* Set the priority. */
 462:Generated_Source\PSoC4/BLE_HAL_PVT.c ****     BLE_bless_isr_SetPriority((uint8)BLE_bless_isr_INTC_PRIOR_NUMBER);
 1080              		.loc 1 462 0
 1081 0010 0320     		movs	r0, #3
 1082 0012 FFF7FEFF 		bl	BLE_bless_isr_SetPriority
 463:Generated_Source\PSoC4/BLE_HAL_PVT.c **** }
 1083              		.loc 1 463 0
 1084 0016 C046     		nop
 1085 0018 BD46     		mov	sp, r7
 1086              		@ sp needed
 1087 001a 80BD     		pop	{r7, pc}
 1088              	.L48:
 1089              		.align	2
 1090              	.L47:
 1091 001c 00000000 		.word	CyBLE_Bless_Interrupt
 1092              		.cfi_endproc
 1093              	.LFE13:
 1094              		.size	CyBle_HalInit, .-CyBle_HalInit
 1095              		.section	.text.CYBLE_BlessStart,"ax",%progbits
 1096              		.align	2
 1097              		.global	CYBLE_BlessStart
 1098              		.code	16
 1099              		.thumb_func
 1100              		.type	CYBLE_BlessStart, %function
 1101              	CYBLE_BlessStart:
 1102              	.LFB14:
 464:Generated_Source\PSoC4/BLE_HAL_PVT.c **** 
 465:Generated_Source\PSoC4/BLE_HAL_PVT.c **** 
 466:Generated_Source\PSoC4/BLE_HAL_PVT.c **** /*******************************************************************************
 467:Generated_Source\PSoC4/BLE_HAL_PVT.c **** * Function Name: CYBLE_BlessStart
 468:Generated_Source\PSoC4/BLE_HAL_PVT.c **** ****************************************************************************//**
 469:Generated_Source\PSoC4/BLE_HAL_PVT.c **** *
 470:Generated_Source\PSoC4/BLE_HAL_PVT.c **** *  Starts Interrupt Controller.
 471:Generated_Source\PSoC4/BLE_HAL_PVT.c **** *
 472:Generated_Source\PSoC4/BLE_HAL_PVT.c **** * \return
 473:Generated_Source\PSoC4/BLE_HAL_PVT.c **** *  None
 474:Generated_Source\PSoC4/BLE_HAL_PVT.c **** *
 475:Generated_Source\PSoC4/BLE_HAL_PVT.c **** *******************************************************************************/
 476:Generated_Source\PSoC4/BLE_HAL_PVT.c **** void CYBLE_BlessStart(void)
 477:Generated_Source\PSoC4/BLE_HAL_PVT.c **** {
 1103              		.loc 1 477 0
 1104              		.cfi_startproc
 1105              		@ args = 0, pretend = 0, frame = 0
 1106              		@ frame_needed = 1, uses_anonymous_args = 0
 1107 0000 80B5     		push	{r7, lr}
 1108              		.cfi_def_cfa_offset 8
 1109              		.cfi_offset 7, -8
 1110              		.cfi_offset 14, -4
ARM GAS  C:\Users\TTSS\AppData\Local\Temp\ccfbp0gi.s 			page 29


 1111 0002 00AF     		add	r7, sp, #0
 1112              		.cfi_def_cfa_register 7
 478:Generated_Source\PSoC4/BLE_HAL_PVT.c **** #if((CYBLE_M0S8BLESS_VERSION_3) && (CYBLE_EXT_PA_ENABLED))
 479:Generated_Source\PSoC4/BLE_HAL_PVT.c ****     CYBLE_EXT_PA_LNA_CTRL_REG |= CYBLE_EXT_PA_LNA_ENABLE | CYBLE_EXT_OUT_EN_DRIVE_VAL; 
 480:Generated_Source\PSoC4/BLE_HAL_PVT.c **** #endif  /* (CYBLE_M0S8BLESS_VERSION_3) */
 481:Generated_Source\PSoC4/BLE_HAL_PVT.c **** 
 482:Generated_Source\PSoC4/BLE_HAL_PVT.c ****     BLE_bless_isr_StartEx(&CyBLE_Bless_Interrupt);
 1113              		.loc 1 482 0
 1114 0004 034B     		ldr	r3, .L50
 1115 0006 1800     		movs	r0, r3
 1116 0008 FFF7FEFF 		bl	BLE_bless_isr_StartEx
 483:Generated_Source\PSoC4/BLE_HAL_PVT.c **** }
 1117              		.loc 1 483 0
 1118 000c C046     		nop
 1119 000e BD46     		mov	sp, r7
 1120              		@ sp needed
 1121 0010 80BD     		pop	{r7, pc}
 1122              	.L51:
 1123 0012 C046     		.align	2
 1124              	.L50:
 1125 0014 00000000 		.word	CyBLE_Bless_Interrupt
 1126              		.cfi_endproc
 1127              	.LFE14:
 1128              		.size	CYBLE_BlessStart, .-CYBLE_BlessStart
 1129              		.section	.text.CyBLE_GetIpBlockVersion,"ax",%progbits
 1130              		.align	2
 1131              		.global	CyBLE_GetIpBlockVersion
 1132              		.code	16
 1133              		.thumb_func
 1134              		.type	CyBLE_GetIpBlockVersion, %function
 1135              	CyBLE_GetIpBlockVersion:
 1136              	.LFB15:
 484:Generated_Source\PSoC4/BLE_HAL_PVT.c **** 
 485:Generated_Source\PSoC4/BLE_HAL_PVT.c **** 
 486:Generated_Source\PSoC4/BLE_HAL_PVT.c **** /*******************************************************************************
 487:Generated_Source\PSoC4/BLE_HAL_PVT.c **** * Function Name: CyBLE_GetIpBlockVersion
 488:Generated_Source\PSoC4/BLE_HAL_PVT.c **** ****************************************************************************//**
 489:Generated_Source\PSoC4/BLE_HAL_PVT.c **** *
 490:Generated_Source\PSoC4/BLE_HAL_PVT.c **** * This function returns the version of m0s8bless ip block.
 491:Generated_Source\PSoC4/BLE_HAL_PVT.c **** *
 492:Generated_Source\PSoC4/BLE_HAL_PVT.c **** * \return
 493:Generated_Source\PSoC4/BLE_HAL_PVT.c **** * uint32 bits:
 494:Generated_Source\PSoC4/BLE_HAL_PVT.c **** * 7:0 - ip version ( 1 - BLE_ver1, 2 - BLE_ver2, 3 - BLE_ver3 )
 495:Generated_Source\PSoC4/BLE_HAL_PVT.c **** * 15:8 - flash size ( 0 - 128k, 1 - 256k )
 496:Generated_Source\PSoC4/BLE_HAL_PVT.c **** * 16 - PSVP device
 497:Generated_Source\PSoC4/BLE_HAL_PVT.c **** * 31:17 - reserved for future usage
 498:Generated_Source\PSoC4/BLE_HAL_PVT.c **** *
 499:Generated_Source\PSoC4/BLE_HAL_PVT.c **** *******************************************************************************/
 500:Generated_Source\PSoC4/BLE_HAL_PVT.c **** uint32 CyBLE_GetIpBlockVersion(void)
 501:Generated_Source\PSoC4/BLE_HAL_PVT.c **** {
 1137              		.loc 1 501 0
 1138              		.cfi_startproc
 1139              		@ args = 0, pretend = 0, frame = 0
 1140              		@ frame_needed = 1, uses_anonymous_args = 0
 1141 0000 80B5     		push	{r7, lr}
 1142              		.cfi_def_cfa_offset 8
 1143              		.cfi_offset 7, -8
ARM GAS  C:\Users\TTSS\AppData\Local\Temp\ccfbp0gi.s 			page 30


 1144              		.cfi_offset 14, -4
 1145 0002 00AF     		add	r7, sp, #0
 1146              		.cfi_def_cfa_register 7
 502:Generated_Source\PSoC4/BLE_HAL_PVT.c ****     return(((uint32)CYBLE_M0S8BLESS_VERSION) | ((uint32)((uint32)CYBLE_FLASH_SIZE) << 8u) |
 1147              		.loc 1 502 0
 1148 0004 014B     		ldr	r3, .L54
 503:Generated_Source\PSoC4/BLE_HAL_PVT.c ****         ((uint32)(((uint32)CYBLE_PSVP_DEVICE)) << 16u));
 504:Generated_Source\PSoC4/BLE_HAL_PVT.c **** }
 1149              		.loc 1 504 0
 1150 0006 1800     		movs	r0, r3
 1151 0008 BD46     		mov	sp, r7
 1152              		@ sp needed
 1153 000a 80BD     		pop	{r7, pc}
 1154              	.L55:
 1155              		.align	2
 1156              	.L54:
 1157 000c 01020000 		.word	513
 1158              		.cfi_endproc
 1159              	.LFE15:
 1160              		.size	CyBLE_GetIpBlockVersion, .-CyBLE_GetIpBlockVersion
 1161              		.section	.text.CyBle_Hal_pairing_local_public_key_handler,"ax",%progbits
 1162              		.align	2
 1163              		.global	CyBle_Hal_pairing_local_public_key_handler
 1164              		.code	16
 1165              		.thumb_func
 1166              		.type	CyBle_Hal_pairing_local_public_key_handler, %function
 1167              	CyBle_Hal_pairing_local_public_key_handler:
 1168              	.LFB16:
 505:Generated_Source\PSoC4/BLE_HAL_PVT.c **** 
 506:Generated_Source\PSoC4/BLE_HAL_PVT.c **** /* Mapping functions for stack size optimization */
 507:Generated_Source\PSoC4/BLE_HAL_PVT.c **** #if(CYBLE_MODE_PROFILE)
 508:Generated_Source\PSoC4/BLE_HAL_PVT.c ****     
 509:Generated_Source\PSoC4/BLE_HAL_PVT.c **** #if(CYBLE_SECURE_CONN_FEATURE_ENABLED)
 510:Generated_Source\PSoC4/BLE_HAL_PVT.c ****     
 511:Generated_Source\PSoC4/BLE_HAL_PVT.c ****     CYBLE_API_RESULT_T CyBle_Hal_pairing_local_public_key_handler(void *param)
 512:Generated_Source\PSoC4/BLE_HAL_PVT.c ****     {
 513:Generated_Source\PSoC4/BLE_HAL_PVT.c ****         return (CyBle_Hal_mapping_pairing_local_public_key_handler(param));
 514:Generated_Source\PSoC4/BLE_HAL_PVT.c ****     }
 515:Generated_Source\PSoC4/BLE_HAL_PVT.c ****      
 516:Generated_Source\PSoC4/BLE_HAL_PVT.c ****     CYBLE_API_RESULT_T CyBle_Hal_pairing_remote_key_handler(void *param)
 517:Generated_Source\PSoC4/BLE_HAL_PVT.c ****     {
 518:Generated_Source\PSoC4/BLE_HAL_PVT.c ****         return (CyBle_Hal_mapping_pairing_remote_key_handler(param));
 519:Generated_Source\PSoC4/BLE_HAL_PVT.c ****     }
 520:Generated_Source\PSoC4/BLE_HAL_PVT.c ****      
 521:Generated_Source\PSoC4/BLE_HAL_PVT.c ****     CYBLE_API_RESULT_T CyBle_Hal_pairing_dhkey_handler(void *param)
 522:Generated_Source\PSoC4/BLE_HAL_PVT.c ****     {
 523:Generated_Source\PSoC4/BLE_HAL_PVT.c ****         return (CyBle_Hal_mapping_pairing_dhkey_handler(param));
 524:Generated_Source\PSoC4/BLE_HAL_PVT.c ****     }
 525:Generated_Source\PSoC4/BLE_HAL_PVT.c **** 
 526:Generated_Source\PSoC4/BLE_HAL_PVT.c ****     CYBLE_API_RESULT_T CyBle_Hal_pairing_dhkey_check_handler(void *param)
 527:Generated_Source\PSoC4/BLE_HAL_PVT.c ****     {
 528:Generated_Source\PSoC4/BLE_HAL_PVT.c ****         return (CyBle_Hal_mapping_pairing_dhkey_check_handler(param));
 529:Generated_Source\PSoC4/BLE_HAL_PVT.c ****     }
 530:Generated_Source\PSoC4/BLE_HAL_PVT.c **** 
 531:Generated_Source\PSoC4/BLE_HAL_PVT.c ****     CYBLE_API_RESULT_T CyBle_Hal_pairing_keypress_notification_handler(void *param)
 532:Generated_Source\PSoC4/BLE_HAL_PVT.c ****     {
 533:Generated_Source\PSoC4/BLE_HAL_PVT.c ****         return (CyBle_Hal_mapping_pairing_keypress_notification_handler(param));
ARM GAS  C:\Users\TTSS\AppData\Local\Temp\ccfbp0gi.s 			page 31


 534:Generated_Source\PSoC4/BLE_HAL_PVT.c ****     }
 535:Generated_Source\PSoC4/BLE_HAL_PVT.c **** 
 536:Generated_Source\PSoC4/BLE_HAL_PVT.c ****     CYBLE_API_RESULT_T CyBle_Hal_pairing_rand_handler(void *param)
 537:Generated_Source\PSoC4/BLE_HAL_PVT.c ****     {
 538:Generated_Source\PSoC4/BLE_HAL_PVT.c ****         return (CyBle_Hal_mapping_pairing_rand_handler(param));
 539:Generated_Source\PSoC4/BLE_HAL_PVT.c ****     }
 540:Generated_Source\PSoC4/BLE_HAL_PVT.c **** 
 541:Generated_Source\PSoC4/BLE_HAL_PVT.c ****     CYBLE_API_RESULT_T CyBle_Hal_pairing_confirm_handler(void *param)
 542:Generated_Source\PSoC4/BLE_HAL_PVT.c ****     {
 543:Generated_Source\PSoC4/BLE_HAL_PVT.c ****         return (CyBle_Hal_mapping_pairing_confirm_handler(param));
 544:Generated_Source\PSoC4/BLE_HAL_PVT.c ****     }
 545:Generated_Source\PSoC4/BLE_HAL_PVT.c **** 
 546:Generated_Source\PSoC4/BLE_HAL_PVT.c ****     CYBLE_API_RESULT_T CyBle_Hal_pairing_lr_confirming_handler(void *param)
 547:Generated_Source\PSoC4/BLE_HAL_PVT.c ****     {
 548:Generated_Source\PSoC4/BLE_HAL_PVT.c ****         return (CyBle_Hal_mapping_pairing_lr_confirming_handler(param));
 549:Generated_Source\PSoC4/BLE_HAL_PVT.c ****     }
 550:Generated_Source\PSoC4/BLE_HAL_PVT.c ****     
 551:Generated_Source\PSoC4/BLE_HAL_PVT.c ****     CYBLE_API_RESULT_T CyBle_Hal_pairing_sc_tbx_dhkey_generate_complete(void* param)
 552:Generated_Source\PSoC4/BLE_HAL_PVT.c ****     {
 553:Generated_Source\PSoC4/BLE_HAL_PVT.c ****         CyBle_Hal_mapping_tbx_dhkey_generate_complete(param);
 554:Generated_Source\PSoC4/BLE_HAL_PVT.c ****         return (CYBLE_ERROR_OK);
 555:Generated_Source\PSoC4/BLE_HAL_PVT.c ****     }
 556:Generated_Source\PSoC4/BLE_HAL_PVT.c **** 
 557:Generated_Source\PSoC4/BLE_HAL_PVT.c ****     CYBLE_API_RESULT_T CyBle_Hal_pairing_sc_tbx_local_pubkey_generate_complete(void)
 558:Generated_Source\PSoC4/BLE_HAL_PVT.c ****     {
 559:Generated_Source\PSoC4/BLE_HAL_PVT.c ****         CyBle_Hal_mapping_tbx_local_pubkey_generate_complete();
 560:Generated_Source\PSoC4/BLE_HAL_PVT.c ****         return (CYBLE_ERROR_OK);
 561:Generated_Source\PSoC4/BLE_HAL_PVT.c ****     }
 562:Generated_Source\PSoC4/BLE_HAL_PVT.c **** 
 563:Generated_Source\PSoC4/BLE_HAL_PVT.c ****     CYBLE_API_RESULT_T CyBle_Hal_pairing_sc_tbx_generate_local_P256_public_key(uint8 param)
 564:Generated_Source\PSoC4/BLE_HAL_PVT.c ****     {
 565:Generated_Source\PSoC4/BLE_HAL_PVT.c ****         return (CyBle_Hal_mapping_tbx_generate_local_P256_public_key(param));
 566:Generated_Source\PSoC4/BLE_HAL_PVT.c ****     }
 567:Generated_Source\PSoC4/BLE_HAL_PVT.c **** 
 568:Generated_Source\PSoC4/BLE_HAL_PVT.c ****     CYBLE_API_RESULT_T CyBle_Hal_pairing_sc_tbx_generate_DHkey(void  * param1, void  * param2)
 569:Generated_Source\PSoC4/BLE_HAL_PVT.c ****     {
 570:Generated_Source\PSoC4/BLE_HAL_PVT.c ****         return (CyBle_Hal_mapping_tbx_generate_DHkey(param1, param2));
 571:Generated_Source\PSoC4/BLE_HAL_PVT.c ****     }
 572:Generated_Source\PSoC4/BLE_HAL_PVT.c **** 
 573:Generated_Source\PSoC4/BLE_HAL_PVT.c ****     void CyBle_Hal_smp_sc_cmac_complete(void)
 574:Generated_Source\PSoC4/BLE_HAL_PVT.c ****     {
 575:Generated_Source\PSoC4/BLE_HAL_PVT.c ****        CyBle_Hal_Mapping_smp_sc_cmac_complete();
 576:Generated_Source\PSoC4/BLE_HAL_PVT.c ****     }
 577:Generated_Source\PSoC4/BLE_HAL_PVT.c **** 
 578:Generated_Source\PSoC4/BLE_HAL_PVT.c ****     CYBLE_API_RESULT_T CyBle_Hal_se_smp_sc_user_passkey_handler(void *param1, void *param2)
 579:Generated_Source\PSoC4/BLE_HAL_PVT.c ****     {
 580:Generated_Source\PSoC4/BLE_HAL_PVT.c ****         return (CyBle_Hal_mapping_se_smp_sc_user_passkey_handler(param1, param2));
 581:Generated_Source\PSoC4/BLE_HAL_PVT.c ****     }
 582:Generated_Source\PSoC4/BLE_HAL_PVT.c **** 
 583:Generated_Source\PSoC4/BLE_HAL_PVT.c ****     void CyBle_Hal_EccPointMult(void)
 584:Generated_Source\PSoC4/BLE_HAL_PVT.c ****     {
 585:Generated_Source\PSoC4/BLE_HAL_PVT.c ****         CyBle_Hal_Mapping_EccPointMult();
 586:Generated_Source\PSoC4/BLE_HAL_PVT.c ****     }
 587:Generated_Source\PSoC4/BLE_HAL_PVT.c ****     
 588:Generated_Source\PSoC4/BLE_HAL_PVT.c **** #else     /* If feature is not required, return error. */
 589:Generated_Source\PSoC4/BLE_HAL_PVT.c ****     
 590:Generated_Source\PSoC4/BLE_HAL_PVT.c ****     CYBLE_API_RESULT_T CyBle_Hal_pairing_local_public_key_handler(void *param CYBLE_UNUSED_ATTR)
ARM GAS  C:\Users\TTSS\AppData\Local\Temp\ccfbp0gi.s 			page 32


 591:Generated_Source\PSoC4/BLE_HAL_PVT.c ****     {
 1169              		.loc 1 591 0
 1170              		.cfi_startproc
 1171              		@ args = 0, pretend = 0, frame = 8
 1172              		@ frame_needed = 1, uses_anonymous_args = 0
 1173 0000 80B5     		push	{r7, lr}
 1174              		.cfi_def_cfa_offset 8
 1175              		.cfi_offset 7, -8
 1176              		.cfi_offset 14, -4
 1177 0002 82B0     		sub	sp, sp, #8
 1178              		.cfi_def_cfa_offset 16
 1179 0004 00AF     		add	r7, sp, #0
 1180              		.cfi_def_cfa_register 7
 1181 0006 7860     		str	r0, [r7, #4]
 592:Generated_Source\PSoC4/BLE_HAL_PVT.c ****         return (CYBLE_ERROR_UNSUPPORTED_FEATURE_OR_PARAMETER_VALUE);
 1182              		.loc 1 592 0
 1183 0008 2B23     		movs	r3, #43
 593:Generated_Source\PSoC4/BLE_HAL_PVT.c ****     }
 1184              		.loc 1 593 0
 1185 000a 1800     		movs	r0, r3
 1186 000c BD46     		mov	sp, r7
 1187 000e 02B0     		add	sp, sp, #8
 1188              		@ sp needed
 1189 0010 80BD     		pop	{r7, pc}
 1190              		.cfi_endproc
 1191              	.LFE16:
 1192              		.size	CyBle_Hal_pairing_local_public_key_handler, .-CyBle_Hal_pairing_local_public_key_handler
 1193 0012 C046     		.section	.text.CyBle_Hal_pairing_remote_key_handler,"ax",%progbits
 1194              		.align	2
 1195              		.global	CyBle_Hal_pairing_remote_key_handler
 1196              		.code	16
 1197              		.thumb_func
 1198              		.type	CyBle_Hal_pairing_remote_key_handler, %function
 1199              	CyBle_Hal_pairing_remote_key_handler:
 1200              	.LFB17:
 594:Generated_Source\PSoC4/BLE_HAL_PVT.c ****      
 595:Generated_Source\PSoC4/BLE_HAL_PVT.c ****     CYBLE_API_RESULT_T CyBle_Hal_pairing_remote_key_handler(void *param CYBLE_UNUSED_ATTR)
 596:Generated_Source\PSoC4/BLE_HAL_PVT.c ****     {
 1201              		.loc 1 596 0
 1202              		.cfi_startproc
 1203              		@ args = 0, pretend = 0, frame = 8
 1204              		@ frame_needed = 1, uses_anonymous_args = 0
 1205 0000 80B5     		push	{r7, lr}
 1206              		.cfi_def_cfa_offset 8
 1207              		.cfi_offset 7, -8
 1208              		.cfi_offset 14, -4
 1209 0002 82B0     		sub	sp, sp, #8
 1210              		.cfi_def_cfa_offset 16
 1211 0004 00AF     		add	r7, sp, #0
 1212              		.cfi_def_cfa_register 7
 1213 0006 7860     		str	r0, [r7, #4]
 597:Generated_Source\PSoC4/BLE_HAL_PVT.c ****         return (CYBLE_ERROR_UNSUPPORTED_FEATURE_OR_PARAMETER_VALUE);
 1214              		.loc 1 597 0
 1215 0008 2B23     		movs	r3, #43
 598:Generated_Source\PSoC4/BLE_HAL_PVT.c ****     }
 1216              		.loc 1 598 0
 1217 000a 1800     		movs	r0, r3
ARM GAS  C:\Users\TTSS\AppData\Local\Temp\ccfbp0gi.s 			page 33


 1218 000c BD46     		mov	sp, r7
 1219 000e 02B0     		add	sp, sp, #8
 1220              		@ sp needed
 1221 0010 80BD     		pop	{r7, pc}
 1222              		.cfi_endproc
 1223              	.LFE17:
 1224              		.size	CyBle_Hal_pairing_remote_key_handler, .-CyBle_Hal_pairing_remote_key_handler
 1225 0012 C046     		.section	.text.CyBle_Hal_pairing_dhkey_handler,"ax",%progbits
 1226              		.align	2
 1227              		.global	CyBle_Hal_pairing_dhkey_handler
 1228              		.code	16
 1229              		.thumb_func
 1230              		.type	CyBle_Hal_pairing_dhkey_handler, %function
 1231              	CyBle_Hal_pairing_dhkey_handler:
 1232              	.LFB18:
 599:Generated_Source\PSoC4/BLE_HAL_PVT.c ****      
 600:Generated_Source\PSoC4/BLE_HAL_PVT.c ****     CYBLE_API_RESULT_T CyBle_Hal_pairing_dhkey_handler(void *param CYBLE_UNUSED_ATTR)
 601:Generated_Source\PSoC4/BLE_HAL_PVT.c ****     {
 1233              		.loc 1 601 0
 1234              		.cfi_startproc
 1235              		@ args = 0, pretend = 0, frame = 8
 1236              		@ frame_needed = 1, uses_anonymous_args = 0
 1237 0000 80B5     		push	{r7, lr}
 1238              		.cfi_def_cfa_offset 8
 1239              		.cfi_offset 7, -8
 1240              		.cfi_offset 14, -4
 1241 0002 82B0     		sub	sp, sp, #8
 1242              		.cfi_def_cfa_offset 16
 1243 0004 00AF     		add	r7, sp, #0
 1244              		.cfi_def_cfa_register 7
 1245 0006 7860     		str	r0, [r7, #4]
 602:Generated_Source\PSoC4/BLE_HAL_PVT.c ****         return (CYBLE_ERROR_UNSUPPORTED_FEATURE_OR_PARAMETER_VALUE);
 1246              		.loc 1 602 0
 1247 0008 2B23     		movs	r3, #43
 603:Generated_Source\PSoC4/BLE_HAL_PVT.c ****     }
 1248              		.loc 1 603 0
 1249 000a 1800     		movs	r0, r3
 1250 000c BD46     		mov	sp, r7
 1251 000e 02B0     		add	sp, sp, #8
 1252              		@ sp needed
 1253 0010 80BD     		pop	{r7, pc}
 1254              		.cfi_endproc
 1255              	.LFE18:
 1256              		.size	CyBle_Hal_pairing_dhkey_handler, .-CyBle_Hal_pairing_dhkey_handler
 1257 0012 C046     		.section	.text.CyBle_Hal_pairing_dhkey_check_handler,"ax",%progbits
 1258              		.align	2
 1259              		.global	CyBle_Hal_pairing_dhkey_check_handler
 1260              		.code	16
 1261              		.thumb_func
 1262              		.type	CyBle_Hal_pairing_dhkey_check_handler, %function
 1263              	CyBle_Hal_pairing_dhkey_check_handler:
 1264              	.LFB19:
 604:Generated_Source\PSoC4/BLE_HAL_PVT.c **** 
 605:Generated_Source\PSoC4/BLE_HAL_PVT.c ****     CYBLE_API_RESULT_T CyBle_Hal_pairing_dhkey_check_handler(void *param CYBLE_UNUSED_ATTR)
 606:Generated_Source\PSoC4/BLE_HAL_PVT.c ****     {
 1265              		.loc 1 606 0
 1266              		.cfi_startproc
ARM GAS  C:\Users\TTSS\AppData\Local\Temp\ccfbp0gi.s 			page 34


 1267              		@ args = 0, pretend = 0, frame = 8
 1268              		@ frame_needed = 1, uses_anonymous_args = 0
 1269 0000 80B5     		push	{r7, lr}
 1270              		.cfi_def_cfa_offset 8
 1271              		.cfi_offset 7, -8
 1272              		.cfi_offset 14, -4
 1273 0002 82B0     		sub	sp, sp, #8
 1274              		.cfi_def_cfa_offset 16
 1275 0004 00AF     		add	r7, sp, #0
 1276              		.cfi_def_cfa_register 7
 1277 0006 7860     		str	r0, [r7, #4]
 607:Generated_Source\PSoC4/BLE_HAL_PVT.c ****         return (CYBLE_ERROR_UNSUPPORTED_FEATURE_OR_PARAMETER_VALUE);
 1278              		.loc 1 607 0
 1279 0008 2B23     		movs	r3, #43
 608:Generated_Source\PSoC4/BLE_HAL_PVT.c ****     }
 1280              		.loc 1 608 0
 1281 000a 1800     		movs	r0, r3
 1282 000c BD46     		mov	sp, r7
 1283 000e 02B0     		add	sp, sp, #8
 1284              		@ sp needed
 1285 0010 80BD     		pop	{r7, pc}
 1286              		.cfi_endproc
 1287              	.LFE19:
 1288              		.size	CyBle_Hal_pairing_dhkey_check_handler, .-CyBle_Hal_pairing_dhkey_check_handler
 1289 0012 C046     		.section	.text.CyBle_Hal_pairing_keypress_notification_handler,"ax",%progbits
 1290              		.align	2
 1291              		.global	CyBle_Hal_pairing_keypress_notification_handler
 1292              		.code	16
 1293              		.thumb_func
 1294              		.type	CyBle_Hal_pairing_keypress_notification_handler, %function
 1295              	CyBle_Hal_pairing_keypress_notification_handler:
 1296              	.LFB20:
 609:Generated_Source\PSoC4/BLE_HAL_PVT.c **** 
 610:Generated_Source\PSoC4/BLE_HAL_PVT.c ****     CYBLE_API_RESULT_T CyBle_Hal_pairing_keypress_notification_handler(void *param CYBLE_UNUSED_ATT
 611:Generated_Source\PSoC4/BLE_HAL_PVT.c ****     {
 1297              		.loc 1 611 0
 1298              		.cfi_startproc
 1299              		@ args = 0, pretend = 0, frame = 8
 1300              		@ frame_needed = 1, uses_anonymous_args = 0
 1301 0000 80B5     		push	{r7, lr}
 1302              		.cfi_def_cfa_offset 8
 1303              		.cfi_offset 7, -8
 1304              		.cfi_offset 14, -4
 1305 0002 82B0     		sub	sp, sp, #8
 1306              		.cfi_def_cfa_offset 16
 1307 0004 00AF     		add	r7, sp, #0
 1308              		.cfi_def_cfa_register 7
 1309 0006 7860     		str	r0, [r7, #4]
 612:Generated_Source\PSoC4/BLE_HAL_PVT.c ****         return (CYBLE_ERROR_UNSUPPORTED_FEATURE_OR_PARAMETER_VALUE);
 1310              		.loc 1 612 0
 1311 0008 2B23     		movs	r3, #43
 613:Generated_Source\PSoC4/BLE_HAL_PVT.c ****     }
 1312              		.loc 1 613 0
 1313 000a 1800     		movs	r0, r3
 1314 000c BD46     		mov	sp, r7
 1315 000e 02B0     		add	sp, sp, #8
 1316              		@ sp needed
ARM GAS  C:\Users\TTSS\AppData\Local\Temp\ccfbp0gi.s 			page 35


 1317 0010 80BD     		pop	{r7, pc}
 1318              		.cfi_endproc
 1319              	.LFE20:
 1320              		.size	CyBle_Hal_pairing_keypress_notification_handler, .-CyBle_Hal_pairing_keypress_notification_h
 1321 0012 C046     		.section	.text.CyBle_Hal_pairing_rand_handler,"ax",%progbits
 1322              		.align	2
 1323              		.global	CyBle_Hal_pairing_rand_handler
 1324              		.code	16
 1325              		.thumb_func
 1326              		.type	CyBle_Hal_pairing_rand_handler, %function
 1327              	CyBle_Hal_pairing_rand_handler:
 1328              	.LFB21:
 614:Generated_Source\PSoC4/BLE_HAL_PVT.c **** 
 615:Generated_Source\PSoC4/BLE_HAL_PVT.c ****     CYBLE_API_RESULT_T CyBle_Hal_pairing_rand_handler(void *param CYBLE_UNUSED_ATTR)
 616:Generated_Source\PSoC4/BLE_HAL_PVT.c ****     {
 1329              		.loc 1 616 0
 1330              		.cfi_startproc
 1331              		@ args = 0, pretend = 0, frame = 8
 1332              		@ frame_needed = 1, uses_anonymous_args = 0
 1333 0000 80B5     		push	{r7, lr}
 1334              		.cfi_def_cfa_offset 8
 1335              		.cfi_offset 7, -8
 1336              		.cfi_offset 14, -4
 1337 0002 82B0     		sub	sp, sp, #8
 1338              		.cfi_def_cfa_offset 16
 1339 0004 00AF     		add	r7, sp, #0
 1340              		.cfi_def_cfa_register 7
 1341 0006 7860     		str	r0, [r7, #4]
 617:Generated_Source\PSoC4/BLE_HAL_PVT.c ****         return (CYBLE_ERROR_UNSUPPORTED_FEATURE_OR_PARAMETER_VALUE);
 1342              		.loc 1 617 0
 1343 0008 2B23     		movs	r3, #43
 618:Generated_Source\PSoC4/BLE_HAL_PVT.c ****     }
 1344              		.loc 1 618 0
 1345 000a 1800     		movs	r0, r3
 1346 000c BD46     		mov	sp, r7
 1347 000e 02B0     		add	sp, sp, #8
 1348              		@ sp needed
 1349 0010 80BD     		pop	{r7, pc}
 1350              		.cfi_endproc
 1351              	.LFE21:
 1352              		.size	CyBle_Hal_pairing_rand_handler, .-CyBle_Hal_pairing_rand_handler
 1353 0012 C046     		.section	.text.CyBle_Hal_pairing_confirm_handler,"ax",%progbits
 1354              		.align	2
 1355              		.global	CyBle_Hal_pairing_confirm_handler
 1356              		.code	16
 1357              		.thumb_func
 1358              		.type	CyBle_Hal_pairing_confirm_handler, %function
 1359              	CyBle_Hal_pairing_confirm_handler:
 1360              	.LFB22:
 619:Generated_Source\PSoC4/BLE_HAL_PVT.c ****     
 620:Generated_Source\PSoC4/BLE_HAL_PVT.c ****     CYBLE_API_RESULT_T CyBle_Hal_pairing_confirm_handler(void *param CYBLE_UNUSED_ATTR)
 621:Generated_Source\PSoC4/BLE_HAL_PVT.c ****     {
 1361              		.loc 1 621 0
 1362              		.cfi_startproc
 1363              		@ args = 0, pretend = 0, frame = 8
 1364              		@ frame_needed = 1, uses_anonymous_args = 0
 1365 0000 80B5     		push	{r7, lr}
ARM GAS  C:\Users\TTSS\AppData\Local\Temp\ccfbp0gi.s 			page 36


 1366              		.cfi_def_cfa_offset 8
 1367              		.cfi_offset 7, -8
 1368              		.cfi_offset 14, -4
 1369 0002 82B0     		sub	sp, sp, #8
 1370              		.cfi_def_cfa_offset 16
 1371 0004 00AF     		add	r7, sp, #0
 1372              		.cfi_def_cfa_register 7
 1373 0006 7860     		str	r0, [r7, #4]
 622:Generated_Source\PSoC4/BLE_HAL_PVT.c ****         return (CYBLE_ERROR_UNSUPPORTED_FEATURE_OR_PARAMETER_VALUE);
 1374              		.loc 1 622 0
 1375 0008 2B23     		movs	r3, #43
 623:Generated_Source\PSoC4/BLE_HAL_PVT.c ****     }
 1376              		.loc 1 623 0
 1377 000a 1800     		movs	r0, r3
 1378 000c BD46     		mov	sp, r7
 1379 000e 02B0     		add	sp, sp, #8
 1380              		@ sp needed
 1381 0010 80BD     		pop	{r7, pc}
 1382              		.cfi_endproc
 1383              	.LFE22:
 1384              		.size	CyBle_Hal_pairing_confirm_handler, .-CyBle_Hal_pairing_confirm_handler
 1385 0012 C046     		.section	.text.CyBle_Hal_pairing_lr_confirming_handler,"ax",%progbits
 1386              		.align	2
 1387              		.global	CyBle_Hal_pairing_lr_confirming_handler
 1388              		.code	16
 1389              		.thumb_func
 1390              		.type	CyBle_Hal_pairing_lr_confirming_handler, %function
 1391              	CyBle_Hal_pairing_lr_confirming_handler:
 1392              	.LFB23:
 624:Generated_Source\PSoC4/BLE_HAL_PVT.c **** 
 625:Generated_Source\PSoC4/BLE_HAL_PVT.c ****     CYBLE_API_RESULT_T CyBle_Hal_pairing_lr_confirming_handler(void *param CYBLE_UNUSED_ATTR)
 626:Generated_Source\PSoC4/BLE_HAL_PVT.c ****     {
 1393              		.loc 1 626 0
 1394              		.cfi_startproc
 1395              		@ args = 0, pretend = 0, frame = 8
 1396              		@ frame_needed = 1, uses_anonymous_args = 0
 1397 0000 80B5     		push	{r7, lr}
 1398              		.cfi_def_cfa_offset 8
 1399              		.cfi_offset 7, -8
 1400              		.cfi_offset 14, -4
 1401 0002 82B0     		sub	sp, sp, #8
 1402              		.cfi_def_cfa_offset 16
 1403 0004 00AF     		add	r7, sp, #0
 1404              		.cfi_def_cfa_register 7
 1405 0006 7860     		str	r0, [r7, #4]
 627:Generated_Source\PSoC4/BLE_HAL_PVT.c ****         return (CYBLE_ERROR_UNSUPPORTED_FEATURE_OR_PARAMETER_VALUE);
 1406              		.loc 1 627 0
 1407 0008 2B23     		movs	r3, #43
 628:Generated_Source\PSoC4/BLE_HAL_PVT.c ****     }
 1408              		.loc 1 628 0
 1409 000a 1800     		movs	r0, r3
 1410 000c BD46     		mov	sp, r7
 1411 000e 02B0     		add	sp, sp, #8
 1412              		@ sp needed
 1413 0010 80BD     		pop	{r7, pc}
 1414              		.cfi_endproc
 1415              	.LFE23:
ARM GAS  C:\Users\TTSS\AppData\Local\Temp\ccfbp0gi.s 			page 37


 1416              		.size	CyBle_Hal_pairing_lr_confirming_handler, .-CyBle_Hal_pairing_lr_confirming_handler
 1417 0012 C046     		.section	.text.CyBle_Hal_pairing_sc_tbx_dhkey_generate_complete,"ax",%progbits
 1418              		.align	2
 1419              		.global	CyBle_Hal_pairing_sc_tbx_dhkey_generate_complete
 1420              		.code	16
 1421              		.thumb_func
 1422              		.type	CyBle_Hal_pairing_sc_tbx_dhkey_generate_complete, %function
 1423              	CyBle_Hal_pairing_sc_tbx_dhkey_generate_complete:
 1424              	.LFB24:
 629:Generated_Source\PSoC4/BLE_HAL_PVT.c ****     
 630:Generated_Source\PSoC4/BLE_HAL_PVT.c ****     CYBLE_API_RESULT_T CyBle_Hal_pairing_sc_tbx_dhkey_generate_complete(void* param CYBLE_UNUSED_AT
 631:Generated_Source\PSoC4/BLE_HAL_PVT.c ****     {
 1425              		.loc 1 631 0
 1426              		.cfi_startproc
 1427              		@ args = 0, pretend = 0, frame = 8
 1428              		@ frame_needed = 1, uses_anonymous_args = 0
 1429 0000 80B5     		push	{r7, lr}
 1430              		.cfi_def_cfa_offset 8
 1431              		.cfi_offset 7, -8
 1432              		.cfi_offset 14, -4
 1433 0002 82B0     		sub	sp, sp, #8
 1434              		.cfi_def_cfa_offset 16
 1435 0004 00AF     		add	r7, sp, #0
 1436              		.cfi_def_cfa_register 7
 1437 0006 7860     		str	r0, [r7, #4]
 632:Generated_Source\PSoC4/BLE_HAL_PVT.c ****         return (CYBLE_ERROR_UNSUPPORTED_FEATURE_OR_PARAMETER_VALUE);
 1438              		.loc 1 632 0
 1439 0008 2B23     		movs	r3, #43
 633:Generated_Source\PSoC4/BLE_HAL_PVT.c ****     }
 1440              		.loc 1 633 0
 1441 000a 1800     		movs	r0, r3
 1442 000c BD46     		mov	sp, r7
 1443 000e 02B0     		add	sp, sp, #8
 1444              		@ sp needed
 1445 0010 80BD     		pop	{r7, pc}
 1446              		.cfi_endproc
 1447              	.LFE24:
 1448              		.size	CyBle_Hal_pairing_sc_tbx_dhkey_generate_complete, .-CyBle_Hal_pairing_sc_tbx_dhkey_generate_
 1449 0012 C046     		.section	.text.CyBle_Hal_pairing_sc_tbx_local_pubkey_generate_complete,"ax",%progbits
 1450              		.align	2
 1451              		.global	CyBle_Hal_pairing_sc_tbx_local_pubkey_generate_complete
 1452              		.code	16
 1453              		.thumb_func
 1454              		.type	CyBle_Hal_pairing_sc_tbx_local_pubkey_generate_complete, %function
 1455              	CyBle_Hal_pairing_sc_tbx_local_pubkey_generate_complete:
 1456              	.LFB25:
 634:Generated_Source\PSoC4/BLE_HAL_PVT.c **** 
 635:Generated_Source\PSoC4/BLE_HAL_PVT.c ****     CYBLE_API_RESULT_T CyBle_Hal_pairing_sc_tbx_local_pubkey_generate_complete(void)
 636:Generated_Source\PSoC4/BLE_HAL_PVT.c ****     {
 1457              		.loc 1 636 0
 1458              		.cfi_startproc
 1459              		@ args = 0, pretend = 0, frame = 0
 1460              		@ frame_needed = 1, uses_anonymous_args = 0
 1461 0000 80B5     		push	{r7, lr}
 1462              		.cfi_def_cfa_offset 8
 1463              		.cfi_offset 7, -8
 1464              		.cfi_offset 14, -4
ARM GAS  C:\Users\TTSS\AppData\Local\Temp\ccfbp0gi.s 			page 38


 1465 0002 00AF     		add	r7, sp, #0
 1466              		.cfi_def_cfa_register 7
 637:Generated_Source\PSoC4/BLE_HAL_PVT.c ****         return (CYBLE_ERROR_UNSUPPORTED_FEATURE_OR_PARAMETER_VALUE);
 1467              		.loc 1 637 0
 1468 0004 2B23     		movs	r3, #43
 638:Generated_Source\PSoC4/BLE_HAL_PVT.c ****     }
 1469              		.loc 1 638 0
 1470 0006 1800     		movs	r0, r3
 1471 0008 BD46     		mov	sp, r7
 1472              		@ sp needed
 1473 000a 80BD     		pop	{r7, pc}
 1474              		.cfi_endproc
 1475              	.LFE25:
 1476              		.size	CyBle_Hal_pairing_sc_tbx_local_pubkey_generate_complete, .-CyBle_Hal_pairing_sc_tbx_local_pu
 1477              		.section	.text.CyBle_Hal_pairing_sc_tbx_generate_local_P256_public_key,"ax",%progbits
 1478              		.align	2
 1479              		.global	CyBle_Hal_pairing_sc_tbx_generate_local_P256_public_key
 1480              		.code	16
 1481              		.thumb_func
 1482              		.type	CyBle_Hal_pairing_sc_tbx_generate_local_P256_public_key, %function
 1483              	CyBle_Hal_pairing_sc_tbx_generate_local_P256_public_key:
 1484              	.LFB26:
 639:Generated_Source\PSoC4/BLE_HAL_PVT.c **** 
 640:Generated_Source\PSoC4/BLE_HAL_PVT.c ****     CYBLE_API_RESULT_T CyBle_Hal_pairing_sc_tbx_generate_local_P256_public_key(uint8 param CYBLE_UN
 641:Generated_Source\PSoC4/BLE_HAL_PVT.c ****     {
 1485              		.loc 1 641 0
 1486              		.cfi_startproc
 1487              		@ args = 0, pretend = 0, frame = 8
 1488              		@ frame_needed = 1, uses_anonymous_args = 0
 1489 0000 80B5     		push	{r7, lr}
 1490              		.cfi_def_cfa_offset 8
 1491              		.cfi_offset 7, -8
 1492              		.cfi_offset 14, -4
 1493 0002 82B0     		sub	sp, sp, #8
 1494              		.cfi_def_cfa_offset 16
 1495 0004 00AF     		add	r7, sp, #0
 1496              		.cfi_def_cfa_register 7
 1497 0006 0200     		movs	r2, r0
 1498 0008 FB1D     		adds	r3, r7, #7
 1499 000a 1A70     		strb	r2, [r3]
 642:Generated_Source\PSoC4/BLE_HAL_PVT.c ****         return (CYBLE_ERROR_UNSUPPORTED_FEATURE_OR_PARAMETER_VALUE);
 1500              		.loc 1 642 0
 1501 000c 2B23     		movs	r3, #43
 643:Generated_Source\PSoC4/BLE_HAL_PVT.c ****     }
 1502              		.loc 1 643 0
 1503 000e 1800     		movs	r0, r3
 1504 0010 BD46     		mov	sp, r7
 1505 0012 02B0     		add	sp, sp, #8
 1506              		@ sp needed
 1507 0014 80BD     		pop	{r7, pc}
 1508              		.cfi_endproc
 1509              	.LFE26:
 1510              		.size	CyBle_Hal_pairing_sc_tbx_generate_local_P256_public_key, .-CyBle_Hal_pairing_sc_tbx_generate
 1511 0016 C046     		.section	.text.CyBle_Hal_pairing_sc_tbx_generate_DHkey,"ax",%progbits
 1512              		.align	2
 1513              		.global	CyBle_Hal_pairing_sc_tbx_generate_DHkey
 1514              		.code	16
ARM GAS  C:\Users\TTSS\AppData\Local\Temp\ccfbp0gi.s 			page 39


 1515              		.thumb_func
 1516              		.type	CyBle_Hal_pairing_sc_tbx_generate_DHkey, %function
 1517              	CyBle_Hal_pairing_sc_tbx_generate_DHkey:
 1518              	.LFB27:
 644:Generated_Source\PSoC4/BLE_HAL_PVT.c **** 
 645:Generated_Source\PSoC4/BLE_HAL_PVT.c ****     CYBLE_API_RESULT_T CyBle_Hal_pairing_sc_tbx_generate_DHkey(void  * param1 CYBLE_UNUSED_ATTR,
 646:Generated_Source\PSoC4/BLE_HAL_PVT.c ****                                                                void  * param2 CYBLE_UNUSED_ATTR)
 647:Generated_Source\PSoC4/BLE_HAL_PVT.c ****     {
 1519              		.loc 1 647 0
 1520              		.cfi_startproc
 1521              		@ args = 0, pretend = 0, frame = 8
 1522              		@ frame_needed = 1, uses_anonymous_args = 0
 1523 0000 80B5     		push	{r7, lr}
 1524              		.cfi_def_cfa_offset 8
 1525              		.cfi_offset 7, -8
 1526              		.cfi_offset 14, -4
 1527 0002 82B0     		sub	sp, sp, #8
 1528              		.cfi_def_cfa_offset 16
 1529 0004 00AF     		add	r7, sp, #0
 1530              		.cfi_def_cfa_register 7
 1531 0006 7860     		str	r0, [r7, #4]
 1532 0008 3960     		str	r1, [r7]
 648:Generated_Source\PSoC4/BLE_HAL_PVT.c ****         return (CYBLE_ERROR_UNSUPPORTED_FEATURE_OR_PARAMETER_VALUE);
 1533              		.loc 1 648 0
 1534 000a 2B23     		movs	r3, #43
 649:Generated_Source\PSoC4/BLE_HAL_PVT.c ****     }
 1535              		.loc 1 649 0
 1536 000c 1800     		movs	r0, r3
 1537 000e BD46     		mov	sp, r7
 1538 0010 02B0     		add	sp, sp, #8
 1539              		@ sp needed
 1540 0012 80BD     		pop	{r7, pc}
 1541              		.cfi_endproc
 1542              	.LFE27:
 1543              		.size	CyBle_Hal_pairing_sc_tbx_generate_DHkey, .-CyBle_Hal_pairing_sc_tbx_generate_DHkey
 1544              		.section	.text.CyBle_Hal_smp_sc_cmac_complete,"ax",%progbits
 1545              		.align	2
 1546              		.global	CyBle_Hal_smp_sc_cmac_complete
 1547              		.code	16
 1548              		.thumb_func
 1549              		.type	CyBle_Hal_smp_sc_cmac_complete, %function
 1550              	CyBle_Hal_smp_sc_cmac_complete:
 1551              	.LFB28:
 650:Generated_Source\PSoC4/BLE_HAL_PVT.c **** 
 651:Generated_Source\PSoC4/BLE_HAL_PVT.c ****     void CyBle_Hal_smp_sc_cmac_complete(void)
 652:Generated_Source\PSoC4/BLE_HAL_PVT.c ****     {
 1552              		.loc 1 652 0
 1553              		.cfi_startproc
 1554              		@ args = 0, pretend = 0, frame = 0
 1555              		@ frame_needed = 1, uses_anonymous_args = 0
 1556 0000 80B5     		push	{r7, lr}
 1557              		.cfi_def_cfa_offset 8
 1558              		.cfi_offset 7, -8
 1559              		.cfi_offset 14, -4
 1560 0002 00AF     		add	r7, sp, #0
 1561              		.cfi_def_cfa_register 7
 653:Generated_Source\PSoC4/BLE_HAL_PVT.c ****     }
ARM GAS  C:\Users\TTSS\AppData\Local\Temp\ccfbp0gi.s 			page 40


 1562              		.loc 1 653 0
 1563 0004 C046     		nop
 1564 0006 BD46     		mov	sp, r7
 1565              		@ sp needed
 1566 0008 80BD     		pop	{r7, pc}
 1567              		.cfi_endproc
 1568              	.LFE28:
 1569              		.size	CyBle_Hal_smp_sc_cmac_complete, .-CyBle_Hal_smp_sc_cmac_complete
 1570              		.section	.text.CyBle_Hal_se_smp_sc_user_passkey_handler,"ax",%progbits
 1571              		.align	2
 1572              		.global	CyBle_Hal_se_smp_sc_user_passkey_handler
 1573              		.code	16
 1574              		.thumb_func
 1575              		.type	CyBle_Hal_se_smp_sc_user_passkey_handler, %function
 1576              	CyBle_Hal_se_smp_sc_user_passkey_handler:
 1577              	.LFB29:
 654:Generated_Source\PSoC4/BLE_HAL_PVT.c **** 
 655:Generated_Source\PSoC4/BLE_HAL_PVT.c ****     CYBLE_API_RESULT_T CyBle_Hal_se_smp_sc_user_passkey_handler(void  * param1 CYBLE_UNUSED_ATTR,
 656:Generated_Source\PSoC4/BLE_HAL_PVT.c ****                                                                 void  * param2 CYBLE_UNUSED_ATTR)
 657:Generated_Source\PSoC4/BLE_HAL_PVT.c ****     {
 1578              		.loc 1 657 0
 1579              		.cfi_startproc
 1580              		@ args = 0, pretend = 0, frame = 8
 1581              		@ frame_needed = 1, uses_anonymous_args = 0
 1582 0000 80B5     		push	{r7, lr}
 1583              		.cfi_def_cfa_offset 8
 1584              		.cfi_offset 7, -8
 1585              		.cfi_offset 14, -4
 1586 0002 82B0     		sub	sp, sp, #8
 1587              		.cfi_def_cfa_offset 16
 1588 0004 00AF     		add	r7, sp, #0
 1589              		.cfi_def_cfa_register 7
 1590 0006 7860     		str	r0, [r7, #4]
 1591 0008 3960     		str	r1, [r7]
 658:Generated_Source\PSoC4/BLE_HAL_PVT.c ****         return (CYBLE_ERROR_UNSUPPORTED_FEATURE_OR_PARAMETER_VALUE);
 1592              		.loc 1 658 0
 1593 000a 2B23     		movs	r3, #43
 659:Generated_Source\PSoC4/BLE_HAL_PVT.c ****     }
 1594              		.loc 1 659 0
 1595 000c 1800     		movs	r0, r3
 1596 000e BD46     		mov	sp, r7
 1597 0010 02B0     		add	sp, sp, #8
 1598              		@ sp needed
 1599 0012 80BD     		pop	{r7, pc}
 1600              		.cfi_endproc
 1601              	.LFE29:
 1602              		.size	CyBle_Hal_se_smp_sc_user_passkey_handler, .-CyBle_Hal_se_smp_sc_user_passkey_handler
 1603              		.section	.text.CyBle_Hal_EccPointMult,"ax",%progbits
 1604              		.align	2
 1605              		.global	CyBle_Hal_EccPointMult
 1606              		.code	16
 1607              		.thumb_func
 1608              		.type	CyBle_Hal_EccPointMult, %function
 1609              	CyBle_Hal_EccPointMult:
 1610              	.LFB30:
 660:Generated_Source\PSoC4/BLE_HAL_PVT.c **** 
 661:Generated_Source\PSoC4/BLE_HAL_PVT.c ****     void CyBle_Hal_EccPointMult(void)
ARM GAS  C:\Users\TTSS\AppData\Local\Temp\ccfbp0gi.s 			page 41


 662:Generated_Source\PSoC4/BLE_HAL_PVT.c ****     {
 1611              		.loc 1 662 0
 1612              		.cfi_startproc
 1613              		@ args = 0, pretend = 0, frame = 0
 1614              		@ frame_needed = 1, uses_anonymous_args = 0
 1615 0000 80B5     		push	{r7, lr}
 1616              		.cfi_def_cfa_offset 8
 1617              		.cfi_offset 7, -8
 1618              		.cfi_offset 14, -4
 1619 0002 00AF     		add	r7, sp, #0
 1620              		.cfi_def_cfa_register 7
 663:Generated_Source\PSoC4/BLE_HAL_PVT.c ****     }
 1621              		.loc 1 663 0
 1622 0004 C046     		nop
 1623 0006 BD46     		mov	sp, r7
 1624              		@ sp needed
 1625 0008 80BD     		pop	{r7, pc}
 1626              		.cfi_endproc
 1627              	.LFE30:
 1628              		.size	CyBle_Hal_EccPointMult, .-CyBle_Hal_EccPointMult
 1629              		.section	.text.BLE_CMP_FTR_API_lec_hci_handle_read_local_P256_public_key_command,"ax",%progbits
 1630              		.align	2
 1631              		.global	BLE_CMP_FTR_API_lec_hci_handle_read_local_P256_public_key_command
 1632              		.code	16
 1633              		.thumb_func
 1634              		.type	BLE_CMP_FTR_API_lec_hci_handle_read_local_P256_public_key_command, %function
 1635              	BLE_CMP_FTR_API_lec_hci_handle_read_local_P256_public_key_command:
 1636              	.LFB31:
 664:Generated_Source\PSoC4/BLE_HAL_PVT.c ****     
 665:Generated_Source\PSoC4/BLE_HAL_PVT.c **** #endif /* (CYBLE_SECURE_CONN_FEATURE_ENABLED) */
 666:Generated_Source\PSoC4/BLE_HAL_PVT.c **** 
 667:Generated_Source\PSoC4/BLE_HAL_PVT.c **** #endif /* CYBLE_MODE_PROFILE */
 668:Generated_Source\PSoC4/BLE_HAL_PVT.c **** 
 669:Generated_Source\PSoC4/BLE_HAL_PVT.c **** #if(CYBLE_SECURE_CONN_FEATURE_ENABLED)
 670:Generated_Source\PSoC4/BLE_HAL_PVT.c ****     
 671:Generated_Source\PSoC4/BLE_HAL_PVT.c ****     uint16 BLE_CMP_FTR_API_lec_hci_handle_read_local_P256_public_key_command(void *param)
 672:Generated_Source\PSoC4/BLE_HAL_PVT.c ****     {
 673:Generated_Source\PSoC4/BLE_HAL_PVT.c ****         return (BLE_STK_FTR_API_lec_hci_handle_read_local_P256_public_key_command(param));
 674:Generated_Source\PSoC4/BLE_HAL_PVT.c ****     }
 675:Generated_Source\PSoC4/BLE_HAL_PVT.c ****     
 676:Generated_Source\PSoC4/BLE_HAL_PVT.c ****     uint16 BLE_CMP_FTR_API_lec_hci_handle_generate_DHkey_command(void *param)
 677:Generated_Source\PSoC4/BLE_HAL_PVT.c ****     {
 678:Generated_Source\PSoC4/BLE_HAL_PVT.c ****         return (BLE_STK_FTR_API_lec_hci_handle_generate_DHkey_command(param));
 679:Generated_Source\PSoC4/BLE_HAL_PVT.c ****     }
 680:Generated_Source\PSoC4/BLE_HAL_PVT.c **** 
 681:Generated_Source\PSoC4/BLE_HAL_PVT.c **** #else     /* If feature is not required, return error. */
 682:Generated_Source\PSoC4/BLE_HAL_PVT.c ****     
 683:Generated_Source\PSoC4/BLE_HAL_PVT.c ****     uint16 BLE_CMP_FTR_API_lec_hci_handle_read_local_P256_public_key_command(void *param CYBLE_UNUS
 684:Generated_Source\PSoC4/BLE_HAL_PVT.c ****     {
 1637              		.loc 1 684 0
 1638              		.cfi_startproc
 1639              		@ args = 0, pretend = 0, frame = 8
 1640              		@ frame_needed = 1, uses_anonymous_args = 0
 1641 0000 80B5     		push	{r7, lr}
 1642              		.cfi_def_cfa_offset 8
 1643              		.cfi_offset 7, -8
 1644              		.cfi_offset 14, -4
ARM GAS  C:\Users\TTSS\AppData\Local\Temp\ccfbp0gi.s 			page 42


 1645 0002 82B0     		sub	sp, sp, #8
 1646              		.cfi_def_cfa_offset 16
 1647 0004 00AF     		add	r7, sp, #0
 1648              		.cfi_def_cfa_register 7
 1649 0006 7860     		str	r0, [r7, #4]
 685:Generated_Source\PSoC4/BLE_HAL_PVT.c ****         return (CYBLE_UNKNOWN_HCI_COMMAND_ERROR);
 1650              		.loc 1 685 0
 1651 0008 0123     		movs	r3, #1
 686:Generated_Source\PSoC4/BLE_HAL_PVT.c ****     }
 1652              		.loc 1 686 0
 1653 000a 1800     		movs	r0, r3
 1654 000c BD46     		mov	sp, r7
 1655 000e 02B0     		add	sp, sp, #8
 1656              		@ sp needed
 1657 0010 80BD     		pop	{r7, pc}
 1658              		.cfi_endproc
 1659              	.LFE31:
 1660              		.size	BLE_CMP_FTR_API_lec_hci_handle_read_local_P256_public_key_command, .-BLE_CMP_FTR_API_lec_hci
 1661 0012 C046     		.section	.text.BLE_CMP_FTR_API_lec_hci_handle_generate_DHkey_command,"ax",%progbits
 1662              		.align	2
 1663              		.global	BLE_CMP_FTR_API_lec_hci_handle_generate_DHkey_command
 1664              		.code	16
 1665              		.thumb_func
 1666              		.type	BLE_CMP_FTR_API_lec_hci_handle_generate_DHkey_command, %function
 1667              	BLE_CMP_FTR_API_lec_hci_handle_generate_DHkey_command:
 1668              	.LFB32:
 687:Generated_Source\PSoC4/BLE_HAL_PVT.c ****     
 688:Generated_Source\PSoC4/BLE_HAL_PVT.c ****     uint16 BLE_CMP_FTR_API_lec_hci_handle_generate_DHkey_command(void *param CYBLE_UNUSED_ATTR)
 689:Generated_Source\PSoC4/BLE_HAL_PVT.c ****     {
 1669              		.loc 1 689 0
 1670              		.cfi_startproc
 1671              		@ args = 0, pretend = 0, frame = 8
 1672              		@ frame_needed = 1, uses_anonymous_args = 0
 1673 0000 80B5     		push	{r7, lr}
 1674              		.cfi_def_cfa_offset 8
 1675              		.cfi_offset 7, -8
 1676              		.cfi_offset 14, -4
 1677 0002 82B0     		sub	sp, sp, #8
 1678              		.cfi_def_cfa_offset 16
 1679 0004 00AF     		add	r7, sp, #0
 1680              		.cfi_def_cfa_register 7
 1681 0006 7860     		str	r0, [r7, #4]
 690:Generated_Source\PSoC4/BLE_HAL_PVT.c ****         return (CYBLE_UNKNOWN_HCI_COMMAND_ERROR);
 1682              		.loc 1 690 0
 1683 0008 0123     		movs	r3, #1
 691:Generated_Source\PSoC4/BLE_HAL_PVT.c ****     }
 1684              		.loc 1 691 0
 1685 000a 1800     		movs	r0, r3
 1686 000c BD46     		mov	sp, r7
 1687 000e 02B0     		add	sp, sp, #8
 1688              		@ sp needed
 1689 0010 80BD     		pop	{r7, pc}
 1690              		.cfi_endproc
 1691              	.LFE32:
 1692              		.size	BLE_CMP_FTR_API_lec_hci_handle_generate_DHkey_command, .-BLE_CMP_FTR_API_lec_hci_handle_gene
 1693 0012 C046     		.text
 1694              	.Letext0:
ARM GAS  C:\Users\TTSS\AppData\Local\Temp\ccfbp0gi.s 			page 43


 1695              		.file 2 "Generated_Source\\PSoC4\\cytypes.h"
 1696              		.file 3 "Generated_Source\\PSoC4\\BLE_Stack.h"
 1697              		.section	.debug_info,"",%progbits
 1698              	.Ldebug_info0:
 1699 0000 B6070000 		.4byte	0x7b6
 1700 0004 0400     		.2byte	0x4
 1701 0006 00000000 		.4byte	.Ldebug_abbrev0
 1702 000a 04       		.byte	0x4
 1703 000b 01       		.uleb128 0x1
 1704 000c 68040000 		.4byte	.LASF110
 1705 0010 0C       		.byte	0xc
 1706 0011 EF010000 		.4byte	.LASF111
 1707 0015 08050000 		.4byte	.LASF112
 1708 0019 00000000 		.4byte	.Ldebug_ranges0+0
 1709 001d 00000000 		.4byte	0
 1710 0021 00000000 		.4byte	.Ldebug_line0
 1711 0025 02       		.uleb128 0x2
 1712 0026 01       		.byte	0x1
 1713 0027 06       		.byte	0x6
 1714 0028 1C060000 		.4byte	.LASF0
 1715 002c 02       		.uleb128 0x2
 1716 002d 01       		.byte	0x1
 1717 002e 08       		.byte	0x8
 1718 002f C2050000 		.4byte	.LASF1
 1719 0033 02       		.uleb128 0x2
 1720 0034 02       		.byte	0x2
 1721 0035 05       		.byte	0x5
 1722 0036 16010000 		.4byte	.LASF2
 1723 003a 02       		.uleb128 0x2
 1724 003b 02       		.byte	0x2
 1725 003c 07       		.byte	0x7
 1726 003d 26070000 		.4byte	.LASF3
 1727 0041 02       		.uleb128 0x2
 1728 0042 04       		.byte	0x4
 1729 0043 05       		.byte	0x5
 1730 0044 FA030000 		.4byte	.LASF4
 1731 0048 02       		.uleb128 0x2
 1732 0049 04       		.byte	0x4
 1733 004a 07       		.byte	0x7
 1734 004b 6D080000 		.4byte	.LASF5
 1735 004f 02       		.uleb128 0x2
 1736 0050 08       		.byte	0x8
 1737 0051 05       		.byte	0x5
 1738 0052 B6030000 		.4byte	.LASF6
 1739 0056 02       		.uleb128 0x2
 1740 0057 08       		.byte	0x8
 1741 0058 07       		.byte	0x7
 1742 0059 28060000 		.4byte	.LASF7
 1743 005d 03       		.uleb128 0x3
 1744 005e 04       		.byte	0x4
 1745 005f 05       		.byte	0x5
 1746 0060 696E7400 		.ascii	"int\000"
 1747 0064 02       		.uleb128 0x2
 1748 0065 04       		.byte	0x4
 1749 0066 07       		.byte	0x7
 1750 0067 7C060000 		.4byte	.LASF8
 1751 006b 04       		.uleb128 0x4
ARM GAS  C:\Users\TTSS\AppData\Local\Temp\ccfbp0gi.s 			page 44


 1752 006c DE070000 		.4byte	.LASF9
 1753 0070 02       		.byte	0x2
 1754 0071 D201     		.2byte	0x1d2
 1755 0073 2C000000 		.4byte	0x2c
 1756 0077 04       		.uleb128 0x4
 1757 0078 53080000 		.4byte	.LASF10
 1758 007c 02       		.byte	0x2
 1759 007d D301     		.2byte	0x1d3
 1760 007f 3A000000 		.4byte	0x3a
 1761 0083 04       		.uleb128 0x4
 1762 0084 61080000 		.4byte	.LASF11
 1763 0088 02       		.byte	0x2
 1764 0089 D401     		.2byte	0x1d4
 1765 008b 48000000 		.4byte	0x48
 1766 008f 02       		.uleb128 0x2
 1767 0090 04       		.byte	0x4
 1768 0091 04       		.byte	0x4
 1769 0092 B0030000 		.4byte	.LASF12
 1770 0096 02       		.uleb128 0x2
 1771 0097 08       		.byte	0x8
 1772 0098 04       		.byte	0x4
 1773 0099 640A0000 		.4byte	.LASF13
 1774 009d 02       		.uleb128 0x2
 1775 009e 01       		.byte	0x1
 1776 009f 08       		.byte	0x8
 1777 00a0 4F070000 		.4byte	.LASF14
 1778 00a4 04       		.uleb128 0x4
 1779 00a5 AE060000 		.4byte	.LASF15
 1780 00a9 02       		.byte	0x2
 1781 00aa 7402     		.2byte	0x274
 1782 00ac 48000000 		.4byte	0x48
 1783 00b0 04       		.uleb128 0x4
 1784 00b1 68080000 		.4byte	.LASF16
 1785 00b5 02       		.byte	0x2
 1786 00b6 7C02     		.2byte	0x27c
 1787 00b8 BC000000 		.4byte	0xbc
 1788 00bc 05       		.uleb128 0x5
 1789 00bd 6B000000 		.4byte	0x6b
 1790 00c1 04       		.uleb128 0x4
 1791 00c2 FD060000 		.4byte	.LASF17
 1792 00c6 02       		.byte	0x2
 1793 00c7 7E02     		.2byte	0x27e
 1794 00c9 CD000000 		.4byte	0xcd
 1795 00cd 05       		.uleb128 0x5
 1796 00ce 83000000 		.4byte	0x83
 1797 00d2 02       		.uleb128 0x2
 1798 00d3 08       		.byte	0x8
 1799 00d4 04       		.byte	0x4
 1800 00d5 99050000 		.4byte	.LASF18
 1801 00d9 02       		.uleb128 0x2
 1802 00da 04       		.byte	0x4
 1803 00db 07       		.byte	0x7
 1804 00dc 20010000 		.4byte	.LASF19
 1805 00e0 06       		.uleb128 0x6
 1806 00e1 04       		.byte	0x4
 1807 00e2 07       		.uleb128 0x7
 1808 00e3 02       		.byte	0x2
ARM GAS  C:\Users\TTSS\AppData\Local\Temp\ccfbp0gi.s 			page 45


 1809 00e4 3A000000 		.4byte	0x3a
 1810 00e8 03       		.byte	0x3
 1811 00e9 EA03     		.2byte	0x3ea
 1812 00eb C1010000 		.4byte	0x1c1
 1813 00ef 08       		.uleb128 0x8
 1814 00f0 32010000 		.4byte	.LASF20
 1815 00f4 00       		.byte	0
 1816 00f5 08       		.uleb128 0x8
 1817 00f6 14020000 		.4byte	.LASF21
 1818 00fa 01       		.byte	0x1
 1819 00fb 08       		.uleb128 0x8
 1820 00fc 7E020000 		.4byte	.LASF22
 1821 0100 02       		.byte	0x2
 1822 0101 08       		.uleb128 0x8
 1823 0102 E4070000 		.4byte	.LASF23
 1824 0106 03       		.byte	0x3
 1825 0107 08       		.uleb128 0x8
 1826 0108 8D030000 		.4byte	.LASF24
 1827 010c 04       		.byte	0x4
 1828 010d 08       		.uleb128 0x8
 1829 010e 32020000 		.4byte	.LASF25
 1830 0112 05       		.byte	0x5
 1831 0113 08       		.uleb128 0x8
 1832 0114 3D030000 		.4byte	.LASF26
 1833 0118 06       		.byte	0x6
 1834 0119 08       		.uleb128 0x8
 1835 011a A5050000 		.4byte	.LASF27
 1836 011e 07       		.byte	0x7
 1837 011f 08       		.uleb128 0x8
 1838 0120 2E040000 		.4byte	.LASF28
 1839 0124 08       		.byte	0x8
 1840 0125 08       		.uleb128 0x8
 1841 0126 67060000 		.4byte	.LASF29
 1842 012a 09       		.byte	0x9
 1843 012b 08       		.uleb128 0x8
 1844 012c 8A000000 		.4byte	.LASF30
 1845 0130 0A       		.byte	0xa
 1846 0131 08       		.uleb128 0x8
 1847 0132 C4030000 		.4byte	.LASF31
 1848 0136 0B       		.byte	0xb
 1849 0137 08       		.uleb128 0x8
 1850 0138 50060000 		.4byte	.LASF32
 1851 013c 0C       		.byte	0xc
 1852 013d 08       		.uleb128 0x8
 1853 013e 89060000 		.4byte	.LASF33
 1854 0142 0D       		.byte	0xd
 1855 0143 08       		.uleb128 0x8
 1856 0144 2E000000 		.4byte	.LASF34
 1857 0148 0E       		.byte	0xe
 1858 0149 08       		.uleb128 0x8
 1859 014a 09000000 		.4byte	.LASF35
 1860 014e 0F       		.byte	0xf
 1861 014f 08       		.uleb128 0x8
 1862 0150 EC0A0000 		.4byte	.LASF36
 1863 0154 10       		.byte	0x10
 1864 0155 08       		.uleb128 0x8
 1865 0156 BA000000 		.4byte	.LASF37
ARM GAS  C:\Users\TTSS\AppData\Local\Temp\ccfbp0gi.s 			page 46


 1866 015a 11       		.byte	0x11
 1867 015b 08       		.uleb128 0x8
 1868 015c E9080000 		.4byte	.LASF38
 1869 0160 12       		.byte	0x12
 1870 0161 08       		.uleb128 0x8
 1871 0162 A5080000 		.4byte	.LASF39
 1872 0166 13       		.byte	0x13
 1873 0167 08       		.uleb128 0x8
 1874 0168 010A0000 		.4byte	.LASF40
 1875 016c 27       		.byte	0x27
 1876 016d 08       		.uleb128 0x8
 1877 016e 72010000 		.4byte	.LASF41
 1878 0172 28       		.byte	0x28
 1879 0173 08       		.uleb128 0x8
 1880 0174 D3010000 		.4byte	.LASF42
 1881 0178 29       		.byte	0x29
 1882 0179 08       		.uleb128 0x8
 1883 017a 97010000 		.4byte	.LASF43
 1884 017e 2A       		.byte	0x2a
 1885 017f 08       		.uleb128 0x8
 1886 0180 09080000 		.4byte	.LASF44
 1887 0184 2B       		.byte	0x2b
 1888 0185 08       		.uleb128 0x8
 1889 0186 D0050000 		.4byte	.LASF45
 1890 018a 2C       		.byte	0x2c
 1891 018b 08       		.uleb128 0x8
 1892 018c 41010000 		.4byte	.LASF46
 1893 0190 2D       		.byte	0x2d
 1894 0191 08       		.uleb128 0x8
 1895 0192 78070000 		.4byte	.LASF47
 1896 0196 FE       		.byte	0xfe
 1897 0197 08       		.uleb128 0x8
 1898 0198 460A0000 		.4byte	.LASF48
 1899 019c FF       		.byte	0xff
 1900 019d 09       		.uleb128 0x9
 1901 019e C8090000 		.4byte	.LASF49
 1902 01a2 0001     		.2byte	0x100
 1903 01a4 09       		.uleb128 0x9
 1904 01a5 1A0B0000 		.4byte	.LASF50
 1905 01a9 0101     		.2byte	0x101
 1906 01ab 09       		.uleb128 0x9
 1907 01ac 03070000 		.4byte	.LASF51
 1908 01b0 0201     		.2byte	0x102
 1909 01b2 09       		.uleb128 0x9
 1910 01b3 94070000 		.4byte	.LASF52
 1911 01b7 0301     		.2byte	0x103
 1912 01b9 09       		.uleb128 0x9
 1913 01ba 61070000 		.4byte	.LASF53
 1914 01be 0401     		.2byte	0x104
 1915 01c0 00       		.byte	0
 1916 01c1 04       		.uleb128 0x4
 1917 01c2 B9020000 		.4byte	.LASF54
 1918 01c6 03       		.byte	0x3
 1919 01c7 5C04     		.2byte	0x45c
 1920 01c9 E2000000 		.4byte	0xe2
 1921 01cd 0A       		.uleb128 0xa
 1922 01ce 04       		.byte	0x4
ARM GAS  C:\Users\TTSS\AppData\Local\Temp\ccfbp0gi.s 			page 47


 1923 01cf 77000000 		.4byte	0x77
 1924 01d3 0B       		.uleb128 0xb
 1925 01d4 F6040000 		.4byte	.LASF65
 1926 01d8 01       		.byte	0x1
 1927 01d9 96       		.byte	0x96
 1928 01da A4000000 		.4byte	0xa4
 1929 01de 00000000 		.4byte	.LFB2
 1930 01e2 28020000 		.4byte	.LFE2-.LFB2
 1931 01e6 01       		.uleb128 0x1
 1932 01e7 9C       		.byte	0x9c
 1933 01e8 8A020000 		.4byte	0x28a
 1934 01ec 0C       		.uleb128 0xc
 1935 01ed 5A080000 		.4byte	.LASF55
 1936 01f1 01       		.byte	0x1
 1937 01f2 96       		.byte	0x96
 1938 01f3 8A020000 		.4byte	0x28a
 1939 01f7 03       		.uleb128 0x3
 1940 01f8 91       		.byte	0x91
 1941 01f9 D47D     		.sleb128 -300
 1942 01fb 0C       		.uleb128 0xc
 1943 01fc 00000000 		.4byte	.LASF56
 1944 0200 01       		.byte	0x1
 1945 0201 96       		.byte	0x96
 1946 0202 8A020000 		.4byte	0x28a
 1947 0206 03       		.uleb128 0x3
 1948 0207 91       		.byte	0x91
 1949 0208 D07D     		.sleb128 -304
 1950 020a 0C       		.uleb128 0xc
 1951 020b 6B010000 		.4byte	.LASF57
 1952 020f 01       		.byte	0x1
 1953 0210 96       		.byte	0x96
 1954 0211 77000000 		.4byte	0x77
 1955 0215 03       		.uleb128 0x3
 1956 0216 91       		.byte	0x91
 1957 0217 CE7D     		.sleb128 -306
 1958 0219 0D       		.uleb128 0xd
 1959 021a E8050000 		.4byte	.LASF58
 1960 021e 01       		.byte	0x1
 1961 021f 98       		.byte	0x98
 1962 0220 95020000 		.4byte	0x295
 1963 0224 03       		.uleb128 0x3
 1964 0225 91       		.byte	0x91
 1965 0226 DC7D     		.sleb128 -292
 1966 0228 0D       		.uleb128 0xd
 1967 0229 4C040000 		.4byte	.LASF59
 1968 022d 01       		.byte	0x1
 1969 022e 99       		.byte	0x99
 1970 022f 83000000 		.4byte	0x83
 1971 0233 02       		.uleb128 0x2
 1972 0234 91       		.byte	0x91
 1973 0235 74       		.sleb128 -12
 1974 0236 0D       		.uleb128 0xd
 1975 0237 29010000 		.4byte	.LASF60
 1976 023b 01       		.byte	0x1
 1977 023c 9A       		.byte	0x9a
 1978 023d 83000000 		.4byte	0x83
 1979 0241 02       		.uleb128 0x2
ARM GAS  C:\Users\TTSS\AppData\Local\Temp\ccfbp0gi.s 			page 48


 1980 0242 91       		.byte	0x91
 1981 0243 70       		.sleb128 -16
 1982 0244 0D       		.uleb128 0xd
 1983 0245 E4030000 		.4byte	.LASF61
 1984 0249 01       		.byte	0x1
 1985 024a 9B       		.byte	0x9b
 1986 024b 83000000 		.4byte	0x83
 1987 024f 02       		.uleb128 0x2
 1988 0250 91       		.byte	0x91
 1989 0251 6C       		.sleb128 -20
 1990 0252 0E       		.uleb128 0xe
 1991 0253 726300   		.ascii	"rc\000"
 1992 0256 01       		.byte	0x1
 1993 0257 9C       		.byte	0x9c
 1994 0258 A4000000 		.4byte	0xa4
 1995 025c 02       		.uleb128 0x2
 1996 025d 91       		.byte	0x91
 1997 025e 68       		.sleb128 -24
 1998 025f 0D       		.uleb128 0xd
 1999 0260 330B0000 		.4byte	.LASF62
 2000 0264 01       		.byte	0x1
 2001 0265 9D       		.byte	0x9d
 2002 0266 83000000 		.4byte	0x83
 2003 026a 02       		.uleb128 0x2
 2004 026b 91       		.byte	0x91
 2005 026c 5C       		.sleb128 -36
 2006 026d 0D       		.uleb128 0xd
 2007 026e 3B0A0000 		.4byte	.LASF63
 2008 0272 01       		.byte	0x1
 2009 0273 9E       		.byte	0x9e
 2010 0274 83000000 		.4byte	0x83
 2011 0278 02       		.uleb128 0x2
 2012 0279 91       		.byte	0x91
 2013 027a 64       		.sleb128 -28
 2014 027b 0D       		.uleb128 0xd
 2015 027c 10040000 		.4byte	.LASF64
 2016 0280 01       		.byte	0x1
 2017 0281 9F       		.byte	0x9f
 2018 0282 83000000 		.4byte	0x83
 2019 0286 02       		.uleb128 0x2
 2020 0287 91       		.byte	0x91
 2021 0288 60       		.sleb128 -32
 2022 0289 00       		.byte	0
 2023 028a 0A       		.uleb128 0xa
 2024 028b 04       		.byte	0x4
 2025 028c 90020000 		.4byte	0x290
 2026 0290 0F       		.uleb128 0xf
 2027 0291 6B000000 		.4byte	0x6b
 2028 0295 10       		.uleb128 0x10
 2029 0296 6B000000 		.4byte	0x6b
 2030 029a A5020000 		.4byte	0x2a5
 2031 029e 11       		.uleb128 0x11
 2032 029f D9000000 		.4byte	0xd9
 2033 02a3 FF       		.byte	0xff
 2034 02a4 00       		.byte	0
 2035 02a5 0B       		.uleb128 0xb
 2036 02a6 D7080000 		.4byte	.LASF66
ARM GAS  C:\Users\TTSS\AppData\Local\Temp\ccfbp0gi.s 			page 49


 2037 02aa 01       		.byte	0x1
 2038 02ab E8       		.byte	0xe8
 2039 02ac A4000000 		.4byte	0xa4
 2040 02b0 00000000 		.4byte	.LFB3
 2041 02b4 10010000 		.4byte	.LFE3-.LFB3
 2042 02b8 01       		.uleb128 0x1
 2043 02b9 9C       		.byte	0x9c
 2044 02ba 23030000 		.4byte	0x323
 2045 02be 0C       		.uleb128 0xc
 2046 02bf 00000000 		.4byte	.LASF56
 2047 02c3 01       		.byte	0x1
 2048 02c4 E8       		.byte	0xe8
 2049 02c5 8A020000 		.4byte	0x28a
 2050 02c9 03       		.uleb128 0x3
 2051 02ca 91       		.byte	0x91
 2052 02cb E47D     		.sleb128 -284
 2053 02cd 0C       		.uleb128 0xc
 2054 02ce 6B010000 		.4byte	.LASF57
 2055 02d2 01       		.byte	0x1
 2056 02d3 E8       		.byte	0xe8
 2057 02d4 77000000 		.4byte	0x77
 2058 02d8 03       		.uleb128 0x3
 2059 02d9 91       		.byte	0x91
 2060 02da E27D     		.sleb128 -286
 2061 02dc 0D       		.uleb128 0xd
 2062 02dd CD080000 		.4byte	.LASF67
 2063 02e1 01       		.byte	0x1
 2064 02e2 EA       		.byte	0xea
 2065 02e3 8A020000 		.4byte	0x28a
 2066 02e7 02       		.uleb128 0x2
 2067 02e8 91       		.byte	0x91
 2068 02e9 74       		.sleb128 -12
 2069 02ea 0D       		.uleb128 0xd
 2070 02eb 72020000 		.4byte	.LASF68
 2071 02ef 01       		.byte	0x1
 2072 02f0 EB       		.byte	0xeb
 2073 02f1 95020000 		.4byte	0x295
 2074 02f5 03       		.uleb128 0x3
 2075 02f6 91       		.byte	0x91
 2076 02f7 EC7D     		.sleb128 -276
 2077 02f9 0D       		.uleb128 0xd
 2078 02fa AD020000 		.4byte	.LASF69
 2079 02fe 01       		.byte	0x1
 2080 02ff EC       		.byte	0xec
 2081 0300 77000000 		.4byte	0x77
 2082 0304 02       		.uleb128 0x2
 2083 0305 91       		.byte	0x91
 2084 0306 72       		.sleb128 -14
 2085 0307 0D       		.uleb128 0xd
 2086 0308 3F070000 		.4byte	.LASF70
 2087 030c 01       		.byte	0x1
 2088 030d ED       		.byte	0xed
 2089 030e 77000000 		.4byte	0x77
 2090 0312 02       		.uleb128 0x2
 2091 0313 91       		.byte	0x91
 2092 0314 70       		.sleb128 -16
 2093 0315 0E       		.uleb128 0xe
ARM GAS  C:\Users\TTSS\AppData\Local\Temp\ccfbp0gi.s 			page 50


 2094 0316 726300   		.ascii	"rc\000"
 2095 0319 01       		.byte	0x1
 2096 031a EE       		.byte	0xee
 2097 031b A4000000 		.4byte	0xa4
 2098 031f 02       		.uleb128 0x2
 2099 0320 91       		.byte	0x91
 2100 0321 6C       		.sleb128 -20
 2101 0322 00       		.byte	0
 2102 0323 12       		.uleb128 0x12
 2103 0324 52040000 		.4byte	.LASF73
 2104 0328 01       		.byte	0x1
 2105 0329 1801     		.2byte	0x118
 2106 032b 00000000 		.4byte	.LFB4
 2107 032f 1C000000 		.4byte	.LFE4-.LFB4
 2108 0333 01       		.uleb128 0x1
 2109 0334 9C       		.byte	0x9c
 2110 0335 58030000 		.4byte	0x358
 2111 0339 13       		.uleb128 0x13
 2112 033a 80000000 		.4byte	.LASF71
 2113 033e 01       		.byte	0x1
 2114 033f 1801     		.2byte	0x118
 2115 0341 58030000 		.4byte	0x358
 2116 0345 02       		.uleb128 0x2
 2117 0346 91       		.byte	0x91
 2118 0347 74       		.sleb128 -12
 2119 0348 13       		.uleb128 0x13
 2120 0349 CC020000 		.4byte	.LASF72
 2121 034d 01       		.byte	0x1
 2122 034e 1801     		.2byte	0x118
 2123 0350 CD010000 		.4byte	0x1cd
 2124 0354 02       		.uleb128 0x2
 2125 0355 91       		.byte	0x91
 2126 0356 70       		.sleb128 -16
 2127 0357 00       		.byte	0
 2128 0358 0A       		.uleb128 0xa
 2129 0359 04       		.byte	0x4
 2130 035a 5E030000 		.4byte	0x35e
 2131 035e 0F       		.uleb128 0xf
 2132 035f C1000000 		.4byte	0xc1
 2133 0363 12       		.uleb128 0x12
 2134 0364 AD0A0000 		.4byte	.LASF74
 2135 0368 01       		.byte	0x1
 2136 0369 2B01     		.2byte	0x12b
 2137 036b 00000000 		.4byte	.LFB5
 2138 036f 1E000000 		.4byte	.LFE5-.LFB5
 2139 0373 01       		.uleb128 0x1
 2140 0374 9C       		.byte	0x9c
 2141 0375 98030000 		.4byte	0x398
 2142 0379 13       		.uleb128 0x13
 2143 037a 80000000 		.4byte	.LASF71
 2144 037e 01       		.byte	0x1
 2145 037f 2B01     		.2byte	0x12b
 2146 0381 98030000 		.4byte	0x398
 2147 0385 02       		.uleb128 0x2
 2148 0386 91       		.byte	0x91
 2149 0387 74       		.sleb128 -12
 2150 0388 13       		.uleb128 0x13
ARM GAS  C:\Users\TTSS\AppData\Local\Temp\ccfbp0gi.s 			page 51


 2151 0389 CC020000 		.4byte	.LASF72
 2152 038d 01       		.byte	0x1
 2153 038e 2B01     		.2byte	0x12b
 2154 0390 9E030000 		.4byte	0x39e
 2155 0394 02       		.uleb128 0x2
 2156 0395 91       		.byte	0x91
 2157 0396 72       		.sleb128 -14
 2158 0397 00       		.byte	0
 2159 0398 0A       		.uleb128 0xa
 2160 0399 04       		.byte	0x4
 2161 039a C1000000 		.4byte	0xc1
 2162 039e 0F       		.uleb128 0xf
 2163 039f 77000000 		.4byte	0x77
 2164 03a3 12       		.uleb128 0x12
 2165 03a4 A4000000 		.4byte	.LASF75
 2166 03a8 01       		.byte	0x1
 2167 03a9 3E01     		.2byte	0x13e
 2168 03ab 00000000 		.4byte	.LFB6
 2169 03af 1C000000 		.4byte	.LFE6-.LFB6
 2170 03b3 01       		.uleb128 0x1
 2171 03b4 9C       		.byte	0x9c
 2172 03b5 D8030000 		.4byte	0x3d8
 2173 03b9 13       		.uleb128 0x13
 2174 03ba 80000000 		.4byte	.LASF71
 2175 03be 01       		.byte	0x1
 2176 03bf 3E01     		.2byte	0x13e
 2177 03c1 58030000 		.4byte	0x358
 2178 03c5 02       		.uleb128 0x2
 2179 03c6 91       		.byte	0x91
 2180 03c7 74       		.sleb128 -12
 2181 03c8 13       		.uleb128 0x13
 2182 03c9 CC020000 		.4byte	.LASF72
 2183 03cd 01       		.byte	0x1
 2184 03ce 3E01     		.2byte	0x13e
 2185 03d0 CD010000 		.4byte	0x1cd
 2186 03d4 02       		.uleb128 0x2
 2187 03d5 91       		.byte	0x91
 2188 03d6 70       		.sleb128 -16
 2189 03d7 00       		.byte	0
 2190 03d8 12       		.uleb128 0x12
 2191 03d9 D8060000 		.4byte	.LASF76
 2192 03dd 01       		.byte	0x1
 2193 03de 5101     		.2byte	0x151
 2194 03e0 00000000 		.4byte	.LFB7
 2195 03e4 1E000000 		.4byte	.LFE7-.LFB7
 2196 03e8 01       		.uleb128 0x1
 2197 03e9 9C       		.byte	0x9c
 2198 03ea 0D040000 		.4byte	0x40d
 2199 03ee 13       		.uleb128 0x13
 2200 03ef 80000000 		.4byte	.LASF71
 2201 03f3 01       		.byte	0x1
 2202 03f4 5101     		.2byte	0x151
 2203 03f6 98030000 		.4byte	0x398
 2204 03fa 02       		.uleb128 0x2
 2205 03fb 91       		.byte	0x91
 2206 03fc 74       		.sleb128 -12
 2207 03fd 13       		.uleb128 0x13
ARM GAS  C:\Users\TTSS\AppData\Local\Temp\ccfbp0gi.s 			page 52


 2208 03fe CC020000 		.4byte	.LASF72
 2209 0402 01       		.byte	0x1
 2210 0403 5101     		.2byte	0x151
 2211 0405 9E030000 		.4byte	0x39e
 2212 0409 02       		.uleb128 0x2
 2213 040a 91       		.byte	0x91
 2214 040b 72       		.sleb128 -14
 2215 040c 00       		.byte	0
 2216 040d 12       		.uleb128 0x12
 2217 040e 230A0000 		.4byte	.LASF77
 2218 0412 01       		.byte	0x1
 2219 0413 6001     		.2byte	0x160
 2220 0415 00000000 		.4byte	.LFB8
 2221 0419 94010000 		.4byte	.LFE8-.LFB8
 2222 041d 01       		.uleb128 0x1
 2223 041e 9C       		.byte	0x9c
 2224 041f 6F040000 		.4byte	0x46f
 2225 0423 14       		.uleb128 0x14
 2226 0424 54070000 		.4byte	.LASF78
 2227 0428 01       		.byte	0x1
 2228 0429 6401     		.2byte	0x164
 2229 042b 83000000 		.4byte	0x83
 2230 042f 02       		.uleb128 0x2
 2231 0430 91       		.byte	0x91
 2232 0431 74       		.sleb128 -12
 2233 0432 15       		.uleb128 0x15
 2234 0433 6C646F00 		.ascii	"ldo\000"
 2235 0437 01       		.byte	0x1
 2236 0438 6501     		.2byte	0x165
 2237 043a 83000000 		.4byte	0x83
 2238 043e 02       		.uleb128 0x2
 2239 043f 91       		.byte	0x91
 2240 0440 70       		.sleb128 -16
 2241 0441 14       		.uleb128 0x14
 2242 0442 ED030000 		.4byte	.LASF79
 2243 0446 01       		.byte	0x1
 2244 0447 6601     		.2byte	0x166
 2245 0449 77000000 		.4byte	0x77
 2246 044d 02       		.uleb128 0x2
 2247 044e 91       		.byte	0x91
 2248 044f 6A       		.sleb128 -22
 2249 0450 14       		.uleb128 0x14
 2250 0451 03040000 		.4byte	.LASF80
 2251 0455 01       		.byte	0x1
 2252 0456 6701     		.2byte	0x167
 2253 0458 77000000 		.4byte	0x77
 2254 045c 02       		.uleb128 0x2
 2255 045d 91       		.byte	0x91
 2256 045e 68       		.sleb128 -24
 2257 045f 14       		.uleb128 0x14
 2258 0460 AE070000 		.4byte	.LASF81
 2259 0464 01       		.byte	0x1
 2260 0465 6801     		.2byte	0x168
 2261 0467 83000000 		.4byte	0x83
 2262 046b 02       		.uleb128 0x2
 2263 046c 91       		.byte	0x91
 2264 046d 6C       		.sleb128 -20
ARM GAS  C:\Users\TTSS\AppData\Local\Temp\ccfbp0gi.s 			page 53


 2265 046e 00       		.byte	0
 2266 046f 16       		.uleb128 0x16
 2267 0470 3F060000 		.4byte	.LASF82
 2268 0474 01       		.byte	0x1
 2269 0475 A401     		.2byte	0x1a4
 2270 0477 00000000 		.4byte	.LFB9
 2271 047b 1E000000 		.4byte	.LFE9-.LFB9
 2272 047f 01       		.uleb128 0x1
 2273 0480 9C       		.byte	0x9c
 2274 0481 95040000 		.4byte	0x495
 2275 0485 13       		.uleb128 0x13
 2276 0486 A7090000 		.4byte	.LASF83
 2277 048a 01       		.byte	0x1
 2278 048b A401     		.2byte	0x1a4
 2279 048d 77000000 		.4byte	0x77
 2280 0491 02       		.uleb128 0x2
 2281 0492 91       		.byte	0x91
 2282 0493 76       		.sleb128 -10
 2283 0494 00       		.byte	0
 2284 0495 16       		.uleb128 0x16
 2285 0496 1D040000 		.4byte	.LASF84
 2286 049a 01       		.byte	0x1
 2287 049b AA01     		.2byte	0x1aa
 2288 049d 00000000 		.4byte	.LFB10
 2289 04a1 18000000 		.4byte	.LFE10-.LFB10
 2290 04a5 01       		.uleb128 0x1
 2291 04a6 9C       		.byte	0x9c
 2292 04a7 BB040000 		.4byte	0x4bb
 2293 04ab 13       		.uleb128 0x13
 2294 04ac A7090000 		.4byte	.LASF83
 2295 04b0 01       		.byte	0x1
 2296 04b1 AA01     		.2byte	0x1aa
 2297 04b3 83000000 		.4byte	0x83
 2298 04b7 02       		.uleb128 0x2
 2299 04b8 91       		.byte	0x91
 2300 04b9 74       		.sleb128 -12
 2301 04ba 00       		.byte	0
 2302 04bb 17       		.uleb128 0x17
 2303 04bc E1090000 		.4byte	.LASF85
 2304 04c0 01       		.byte	0x1
 2305 04c1 B001     		.2byte	0x1b0
 2306 04c3 00000000 		.4byte	.LFB11
 2307 04c7 0E000000 		.4byte	.LFE11-.LFB11
 2308 04cb 01       		.uleb128 0x1
 2309 04cc 9C       		.byte	0x9c
 2310 04cd 17       		.uleb128 0x17
 2311 04ce B7060000 		.4byte	.LASF86
 2312 04d2 01       		.byte	0x1
 2313 04d3 B601     		.2byte	0x1b6
 2314 04d5 00000000 		.4byte	.LFB12
 2315 04d9 0E000000 		.4byte	.LFE12-.LFB12
 2316 04dd 01       		.uleb128 0x1
 2317 04de 9C       		.byte	0x9c
 2318 04df 17       		.uleb128 0x17
 2319 04e0 560A0000 		.4byte	.LASF87
 2320 04e4 01       		.byte	0x1
 2321 04e5 C501     		.2byte	0x1c5
ARM GAS  C:\Users\TTSS\AppData\Local\Temp\ccfbp0gi.s 			page 54


 2322 04e7 00000000 		.4byte	.LFB13
 2323 04eb 20000000 		.4byte	.LFE13-.LFB13
 2324 04ef 01       		.uleb128 0x1
 2325 04f0 9C       		.byte	0x9c
 2326 04f1 17       		.uleb128 0x17
 2327 04f2 9C020000 		.4byte	.LASF88
 2328 04f6 01       		.byte	0x1
 2329 04f7 DC01     		.2byte	0x1dc
 2330 04f9 00000000 		.4byte	.LFB14
 2331 04fd 18000000 		.4byte	.LFE14-.LFB14
 2332 0501 01       		.uleb128 0x1
 2333 0502 9C       		.byte	0x9c
 2334 0503 18       		.uleb128 0x18
 2335 0504 B0090000 		.4byte	.LASF99
 2336 0508 01       		.byte	0x1
 2337 0509 F401     		.2byte	0x1f4
 2338 050b 83000000 		.4byte	0x83
 2339 050f 00000000 		.4byte	.LFB15
 2340 0513 10000000 		.4byte	.LFE15-.LFB15
 2341 0517 01       		.uleb128 0x1
 2342 0518 9C       		.byte	0x9c
 2343 0519 19       		.uleb128 0x19
 2344 051a 4B090000 		.4byte	.LASF89
 2345 051e 01       		.byte	0x1
 2346 051f 4E02     		.2byte	0x24e
 2347 0521 C1010000 		.4byte	0x1c1
 2348 0525 00000000 		.4byte	.LFB16
 2349 0529 12000000 		.4byte	.LFE16-.LFB16
 2350 052d 01       		.uleb128 0x1
 2351 052e 9C       		.byte	0x9c
 2352 052f 43050000 		.4byte	0x543
 2353 0533 13       		.uleb128 0x13
 2354 0534 39070000 		.4byte	.LASF90
 2355 0538 01       		.byte	0x1
 2356 0539 4E02     		.2byte	0x24e
 2357 053b E0000000 		.4byte	0xe0
 2358 053f 02       		.uleb128 0x2
 2359 0540 91       		.byte	0x91
 2360 0541 74       		.sleb128 -12
 2361 0542 00       		.byte	0
 2362 0543 19       		.uleb128 0x19
 2363 0544 B9070000 		.4byte	.LASF91
 2364 0548 01       		.byte	0x1
 2365 0549 5302     		.2byte	0x253
 2366 054b C1010000 		.4byte	0x1c1
 2367 054f 00000000 		.4byte	.LFB17
 2368 0553 12000000 		.4byte	.LFE17-.LFB17
 2369 0557 01       		.uleb128 0x1
 2370 0558 9C       		.byte	0x9c
 2371 0559 6D050000 		.4byte	0x56d
 2372 055d 13       		.uleb128 0x13
 2373 055e 39070000 		.4byte	.LASF90
 2374 0562 01       		.byte	0x1
 2375 0563 5302     		.2byte	0x253
 2376 0565 E0000000 		.4byte	0xe0
 2377 0569 02       		.uleb128 0x2
 2378 056a 91       		.byte	0x91
ARM GAS  C:\Users\TTSS\AppData\Local\Temp\ccfbp0gi.s 			page 55


 2379 056b 74       		.sleb128 -12
 2380 056c 00       		.byte	0
 2381 056d 19       		.uleb128 0x19
 2382 056e 2B090000 		.4byte	.LASF92
 2383 0572 01       		.byte	0x1
 2384 0573 5802     		.2byte	0x258
 2385 0575 C1010000 		.4byte	0x1c1
 2386 0579 00000000 		.4byte	.LFB18
 2387 057d 12000000 		.4byte	.LFE18-.LFB18
 2388 0581 01       		.uleb128 0x1
 2389 0582 9C       		.byte	0x9c
 2390 0583 97050000 		.4byte	0x597
 2391 0587 13       		.uleb128 0x13
 2392 0588 39070000 		.4byte	.LASF90
 2393 058c 01       		.byte	0x1
 2394 058d 5802     		.2byte	0x258
 2395 058f E0000000 		.4byte	0xe0
 2396 0593 02       		.uleb128 0x2
 2397 0594 91       		.byte	0x91
 2398 0595 74       		.sleb128 -12
 2399 0596 00       		.byte	0
 2400 0597 19       		.uleb128 0x19
 2401 0598 7F080000 		.4byte	.LASF93
 2402 059c 01       		.byte	0x1
 2403 059d 5D02     		.2byte	0x25d
 2404 059f C1010000 		.4byte	0x1c1
 2405 05a3 00000000 		.4byte	.LFB19
 2406 05a7 12000000 		.4byte	.LFE19-.LFB19
 2407 05ab 01       		.uleb128 0x1
 2408 05ac 9C       		.byte	0x9c
 2409 05ad C1050000 		.4byte	0x5c1
 2410 05b1 13       		.uleb128 0x13
 2411 05b2 39070000 		.4byte	.LASF90
 2412 05b6 01       		.byte	0x1
 2413 05b7 5D02     		.2byte	0x25d
 2414 05b9 E0000000 		.4byte	0xe0
 2415 05bd 02       		.uleb128 0x2
 2416 05be 91       		.byte	0x91
 2417 05bf 74       		.sleb128 -12
 2418 05c0 00       		.byte	0
 2419 05c1 19       		.uleb128 0x19
 2420 05c2 D5020000 		.4byte	.LASF94
 2421 05c6 01       		.byte	0x1
 2422 05c7 6202     		.2byte	0x262
 2423 05c9 C1010000 		.4byte	0x1c1
 2424 05cd 00000000 		.4byte	.LFB20
 2425 05d1 12000000 		.4byte	.LFE20-.LFB20
 2426 05d5 01       		.uleb128 0x1
 2427 05d6 9C       		.byte	0x9c
 2428 05d7 EB050000 		.4byte	0x5eb
 2429 05db 13       		.uleb128 0x13
 2430 05dc 39070000 		.4byte	.LASF90
 2431 05e0 01       		.byte	0x1
 2432 05e1 6202     		.2byte	0x262
 2433 05e3 E0000000 		.4byte	0xe0
 2434 05e7 02       		.uleb128 0x2
 2435 05e8 91       		.byte	0x91
ARM GAS  C:\Users\TTSS\AppData\Local\Temp\ccfbp0gi.s 			page 56


 2436 05e9 74       		.sleb128 -12
 2437 05ea 00       		.byte	0
 2438 05eb 19       		.uleb128 0x19
 2439 05ec 0C090000 		.4byte	.LASF95
 2440 05f0 01       		.byte	0x1
 2441 05f1 6702     		.2byte	0x267
 2442 05f3 C1010000 		.4byte	0x1c1
 2443 05f7 00000000 		.4byte	.LFB21
 2444 05fb 12000000 		.4byte	.LFE21-.LFB21
 2445 05ff 01       		.uleb128 0x1
 2446 0600 9C       		.byte	0x9c
 2447 0601 15060000 		.4byte	0x615
 2448 0605 13       		.uleb128 0x13
 2449 0606 39070000 		.4byte	.LASF90
 2450 060a 01       		.byte	0x1
 2451 060b 6702     		.2byte	0x267
 2452 060d E0000000 		.4byte	0xe0
 2453 0611 02       		.uleb128 0x2
 2454 0612 91       		.byte	0x91
 2455 0613 74       		.sleb128 -12
 2456 0614 00       		.byte	0
 2457 0615 19       		.uleb128 0x19
 2458 0616 50020000 		.4byte	.LASF96
 2459 061a 01       		.byte	0x1
 2460 061b 6C02     		.2byte	0x26c
 2461 061d C1010000 		.4byte	0x1c1
 2462 0621 00000000 		.4byte	.LFB22
 2463 0625 12000000 		.4byte	.LFE22-.LFB22
 2464 0629 01       		.uleb128 0x1
 2465 062a 9C       		.byte	0x9c
 2466 062b 3F060000 		.4byte	0x63f
 2467 062f 13       		.uleb128 0x13
 2468 0630 39070000 		.4byte	.LASF90
 2469 0634 01       		.byte	0x1
 2470 0635 6C02     		.2byte	0x26c
 2471 0637 E0000000 		.4byte	0xe0
 2472 063b 02       		.uleb128 0x2
 2473 063c 91       		.byte	0x91
 2474 063d 74       		.sleb128 -12
 2475 063e 00       		.byte	0
 2476 063f 19       		.uleb128 0x19
 2477 0640 F4050000 		.4byte	.LASF97
 2478 0644 01       		.byte	0x1
 2479 0645 7102     		.2byte	0x271
 2480 0647 C1010000 		.4byte	0x1c1
 2481 064b 00000000 		.4byte	.LFB23
 2482 064f 12000000 		.4byte	.LFE23-.LFB23
 2483 0653 01       		.uleb128 0x1
 2484 0654 9C       		.byte	0x9c
 2485 0655 69060000 		.4byte	0x669
 2486 0659 13       		.uleb128 0x13
 2487 065a 39070000 		.4byte	.LASF90
 2488 065e 01       		.byte	0x1
 2489 065f 7102     		.2byte	0x271
 2490 0661 E0000000 		.4byte	0xe0
 2491 0665 02       		.uleb128 0x2
 2492 0666 91       		.byte	0x91
ARM GAS  C:\Users\TTSS\AppData\Local\Temp\ccfbp0gi.s 			page 57


 2493 0667 74       		.sleb128 -12
 2494 0668 00       		.byte	0
 2495 0669 19       		.uleb128 0x19
 2496 066a 76090000 		.4byte	.LASF98
 2497 066e 01       		.byte	0x1
 2498 066f 7602     		.2byte	0x276
 2499 0671 C1010000 		.4byte	0x1c1
 2500 0675 00000000 		.4byte	.LFB24
 2501 0679 12000000 		.4byte	.LFE24-.LFB24
 2502 067d 01       		.uleb128 0x1
 2503 067e 9C       		.byte	0x9c
 2504 067f 93060000 		.4byte	0x693
 2505 0683 13       		.uleb128 0x13
 2506 0684 39070000 		.4byte	.LASF90
 2507 0688 01       		.byte	0x1
 2508 0689 7602     		.2byte	0x276
 2509 068b E0000000 		.4byte	0xe0
 2510 068f 02       		.uleb128 0x2
 2511 0690 91       		.byte	0x91
 2512 0691 74       		.sleb128 -12
 2513 0692 00       		.byte	0
 2514 0693 18       		.uleb128 0x18
 2515 0694 05030000 		.4byte	.LASF100
 2516 0698 01       		.byte	0x1
 2517 0699 7B02     		.2byte	0x27b
 2518 069b C1010000 		.4byte	0x1c1
 2519 069f 00000000 		.4byte	.LFB25
 2520 06a3 0C000000 		.4byte	.LFE25-.LFB25
 2521 06a7 01       		.uleb128 0x1
 2522 06a8 9C       		.byte	0x9c
 2523 06a9 19       		.uleb128 0x19
 2524 06aa DE000000 		.4byte	.LASF101
 2525 06ae 01       		.byte	0x1
 2526 06af 8002     		.2byte	0x280
 2527 06b1 C1010000 		.4byte	0x1c1
 2528 06b5 00000000 		.4byte	.LFB26
 2529 06b9 16000000 		.4byte	.LFE26-.LFB26
 2530 06bd 01       		.uleb128 0x1
 2531 06be 9C       		.byte	0x9c
 2532 06bf D3060000 		.4byte	0x6d3
 2533 06c3 13       		.uleb128 0x13
 2534 06c4 39070000 		.4byte	.LASF90
 2535 06c8 01       		.byte	0x1
 2536 06c9 8002     		.2byte	0x280
 2537 06cb 6B000000 		.4byte	0x6b
 2538 06cf 02       		.uleb128 0x2
 2539 06d0 91       		.byte	0x91
 2540 06d1 77       		.sleb128 -9
 2541 06d2 00       		.byte	0
 2542 06d3 19       		.uleb128 0x19
 2543 06d4 C40A0000 		.4byte	.LASF102
 2544 06d8 01       		.byte	0x1
 2545 06d9 8502     		.2byte	0x285
 2546 06db C1010000 		.4byte	0x1c1
 2547 06df 00000000 		.4byte	.LFB27
 2548 06e3 14000000 		.4byte	.LFE27-.LFB27
 2549 06e7 01       		.uleb128 0x1
ARM GAS  C:\Users\TTSS\AppData\Local\Temp\ccfbp0gi.s 			page 58


 2550 06e8 9C       		.byte	0x9c
 2551 06e9 0C070000 		.4byte	0x70c
 2552 06ed 13       		.uleb128 0x13
 2553 06ee EF060000 		.4byte	.LASF103
 2554 06f2 01       		.byte	0x1
 2555 06f3 8502     		.2byte	0x285
 2556 06f5 E0000000 		.4byte	0xe0
 2557 06f9 02       		.uleb128 0x2
 2558 06fa 91       		.byte	0x91
 2559 06fb 74       		.sleb128 -12
 2560 06fc 13       		.uleb128 0x13
 2561 06fd F6060000 		.4byte	.LASF104
 2562 0701 01       		.byte	0x1
 2563 0702 8602     		.2byte	0x286
 2564 0704 E0000000 		.4byte	0xe0
 2565 0708 02       		.uleb128 0x2
 2566 0709 91       		.byte	0x91
 2567 070a 70       		.sleb128 -16
 2568 070b 00       		.byte	0
 2569 070c 1A       		.uleb128 0x1a
 2570 070d B4010000 		.4byte	.LASF105
 2571 0711 01       		.byte	0x1
 2572 0712 8B02     		.2byte	0x28b
 2573 0714 00000000 		.4byte	.LFB28
 2574 0718 0A000000 		.4byte	.LFE28-.LFB28
 2575 071c 01       		.uleb128 0x1
 2576 071d 9C       		.byte	0x9c
 2577 071e 19       		.uleb128 0x19
 2578 071f 57000000 		.4byte	.LASF106
 2579 0723 01       		.byte	0x1
 2580 0724 8F02     		.2byte	0x28f
 2581 0726 C1010000 		.4byte	0x1c1
 2582 072a 00000000 		.4byte	.LFB29
 2583 072e 14000000 		.4byte	.LFE29-.LFB29
 2584 0732 01       		.uleb128 0x1
 2585 0733 9C       		.byte	0x9c
 2586 0734 57070000 		.4byte	0x757
 2587 0738 13       		.uleb128 0x13
 2588 0739 EF060000 		.4byte	.LASF103
 2589 073d 01       		.byte	0x1
 2590 073e 8F02     		.2byte	0x28f
 2591 0740 E0000000 		.4byte	0xe0
 2592 0744 02       		.uleb128 0x2
 2593 0745 91       		.byte	0x91
 2594 0746 74       		.sleb128 -12
 2595 0747 13       		.uleb128 0x13
 2596 0748 F6060000 		.4byte	.LASF104
 2597 074c 01       		.byte	0x1
 2598 074d 9002     		.2byte	0x290
 2599 074f E0000000 		.4byte	0xe0
 2600 0753 02       		.uleb128 0x2
 2601 0754 91       		.byte	0x91
 2602 0755 70       		.sleb128 -16
 2603 0756 00       		.byte	0
 2604 0757 1A       		.uleb128 0x1a
 2605 0758 3C080000 		.4byte	.LASF107
 2606 075c 01       		.byte	0x1
ARM GAS  C:\Users\TTSS\AppData\Local\Temp\ccfbp0gi.s 			page 59


 2607 075d 9502     		.2byte	0x295
 2608 075f 00000000 		.4byte	.LFB30
 2609 0763 0A000000 		.4byte	.LFE30-.LFB30
 2610 0767 01       		.uleb128 0x1
 2611 0768 9C       		.byte	0x9c
 2612 0769 19       		.uleb128 0x19
 2613 076a 6B0A0000 		.4byte	.LASF108
 2614 076e 01       		.byte	0x1
 2615 076f AB02     		.2byte	0x2ab
 2616 0771 77000000 		.4byte	0x77
 2617 0775 00000000 		.4byte	.LFB31
 2618 0779 12000000 		.4byte	.LFE31-.LFB31
 2619 077d 01       		.uleb128 0x1
 2620 077e 9C       		.byte	0x9c
 2621 077f 93070000 		.4byte	0x793
 2622 0783 13       		.uleb128 0x13
 2623 0784 39070000 		.4byte	.LASF90
 2624 0788 01       		.byte	0x1
 2625 0789 AB02     		.2byte	0x2ab
 2626 078b E0000000 		.4byte	0xe0
 2627 078f 02       		.uleb128 0x2
 2628 0790 91       		.byte	0x91
 2629 0791 74       		.sleb128 -12
 2630 0792 00       		.byte	0
 2631 0793 1B       		.uleb128 0x1b
 2632 0794 57030000 		.4byte	.LASF109
 2633 0798 01       		.byte	0x1
 2634 0799 B002     		.2byte	0x2b0
 2635 079b 77000000 		.4byte	0x77
 2636 079f 00000000 		.4byte	.LFB32
 2637 07a3 12000000 		.4byte	.LFE32-.LFB32
 2638 07a7 01       		.uleb128 0x1
 2639 07a8 9C       		.byte	0x9c
 2640 07a9 13       		.uleb128 0x13
 2641 07aa 39070000 		.4byte	.LASF90
 2642 07ae 01       		.byte	0x1
 2643 07af B002     		.2byte	0x2b0
 2644 07b1 E0000000 		.4byte	0xe0
 2645 07b5 02       		.uleb128 0x2
 2646 07b6 91       		.byte	0x91
 2647 07b7 74       		.sleb128 -12
 2648 07b8 00       		.byte	0
 2649 07b9 00       		.byte	0
 2650              		.section	.debug_abbrev,"",%progbits
 2651              	.Ldebug_abbrev0:
 2652 0000 01       		.uleb128 0x1
 2653 0001 11       		.uleb128 0x11
 2654 0002 01       		.byte	0x1
 2655 0003 25       		.uleb128 0x25
 2656 0004 0E       		.uleb128 0xe
 2657 0005 13       		.uleb128 0x13
 2658 0006 0B       		.uleb128 0xb
 2659 0007 03       		.uleb128 0x3
 2660 0008 0E       		.uleb128 0xe
 2661 0009 1B       		.uleb128 0x1b
 2662 000a 0E       		.uleb128 0xe
 2663 000b 55       		.uleb128 0x55
ARM GAS  C:\Users\TTSS\AppData\Local\Temp\ccfbp0gi.s 			page 60


 2664 000c 17       		.uleb128 0x17
 2665 000d 11       		.uleb128 0x11
 2666 000e 01       		.uleb128 0x1
 2667 000f 10       		.uleb128 0x10
 2668 0010 17       		.uleb128 0x17
 2669 0011 00       		.byte	0
 2670 0012 00       		.byte	0
 2671 0013 02       		.uleb128 0x2
 2672 0014 24       		.uleb128 0x24
 2673 0015 00       		.byte	0
 2674 0016 0B       		.uleb128 0xb
 2675 0017 0B       		.uleb128 0xb
 2676 0018 3E       		.uleb128 0x3e
 2677 0019 0B       		.uleb128 0xb
 2678 001a 03       		.uleb128 0x3
 2679 001b 0E       		.uleb128 0xe
 2680 001c 00       		.byte	0
 2681 001d 00       		.byte	0
 2682 001e 03       		.uleb128 0x3
 2683 001f 24       		.uleb128 0x24
 2684 0020 00       		.byte	0
 2685 0021 0B       		.uleb128 0xb
 2686 0022 0B       		.uleb128 0xb
 2687 0023 3E       		.uleb128 0x3e
 2688 0024 0B       		.uleb128 0xb
 2689 0025 03       		.uleb128 0x3
 2690 0026 08       		.uleb128 0x8
 2691 0027 00       		.byte	0
 2692 0028 00       		.byte	0
 2693 0029 04       		.uleb128 0x4
 2694 002a 16       		.uleb128 0x16
 2695 002b 00       		.byte	0
 2696 002c 03       		.uleb128 0x3
 2697 002d 0E       		.uleb128 0xe
 2698 002e 3A       		.uleb128 0x3a
 2699 002f 0B       		.uleb128 0xb
 2700 0030 3B       		.uleb128 0x3b
 2701 0031 05       		.uleb128 0x5
 2702 0032 49       		.uleb128 0x49
 2703 0033 13       		.uleb128 0x13
 2704 0034 00       		.byte	0
 2705 0035 00       		.byte	0
 2706 0036 05       		.uleb128 0x5
 2707 0037 35       		.uleb128 0x35
 2708 0038 00       		.byte	0
 2709 0039 49       		.uleb128 0x49
 2710 003a 13       		.uleb128 0x13
 2711 003b 00       		.byte	0
 2712 003c 00       		.byte	0
 2713 003d 06       		.uleb128 0x6
 2714 003e 0F       		.uleb128 0xf
 2715 003f 00       		.byte	0
 2716 0040 0B       		.uleb128 0xb
 2717 0041 0B       		.uleb128 0xb
 2718 0042 00       		.byte	0
 2719 0043 00       		.byte	0
 2720 0044 07       		.uleb128 0x7
ARM GAS  C:\Users\TTSS\AppData\Local\Temp\ccfbp0gi.s 			page 61


 2721 0045 04       		.uleb128 0x4
 2722 0046 01       		.byte	0x1
 2723 0047 0B       		.uleb128 0xb
 2724 0048 0B       		.uleb128 0xb
 2725 0049 49       		.uleb128 0x49
 2726 004a 13       		.uleb128 0x13
 2727 004b 3A       		.uleb128 0x3a
 2728 004c 0B       		.uleb128 0xb
 2729 004d 3B       		.uleb128 0x3b
 2730 004e 05       		.uleb128 0x5
 2731 004f 01       		.uleb128 0x1
 2732 0050 13       		.uleb128 0x13
 2733 0051 00       		.byte	0
 2734 0052 00       		.byte	0
 2735 0053 08       		.uleb128 0x8
 2736 0054 28       		.uleb128 0x28
 2737 0055 00       		.byte	0
 2738 0056 03       		.uleb128 0x3
 2739 0057 0E       		.uleb128 0xe
 2740 0058 1C       		.uleb128 0x1c
 2741 0059 0B       		.uleb128 0xb
 2742 005a 00       		.byte	0
 2743 005b 00       		.byte	0
 2744 005c 09       		.uleb128 0x9
 2745 005d 28       		.uleb128 0x28
 2746 005e 00       		.byte	0
 2747 005f 03       		.uleb128 0x3
 2748 0060 0E       		.uleb128 0xe
 2749 0061 1C       		.uleb128 0x1c
 2750 0062 05       		.uleb128 0x5
 2751 0063 00       		.byte	0
 2752 0064 00       		.byte	0
 2753 0065 0A       		.uleb128 0xa
 2754 0066 0F       		.uleb128 0xf
 2755 0067 00       		.byte	0
 2756 0068 0B       		.uleb128 0xb
 2757 0069 0B       		.uleb128 0xb
 2758 006a 49       		.uleb128 0x49
 2759 006b 13       		.uleb128 0x13
 2760 006c 00       		.byte	0
 2761 006d 00       		.byte	0
 2762 006e 0B       		.uleb128 0xb
 2763 006f 2E       		.uleb128 0x2e
 2764 0070 01       		.byte	0x1
 2765 0071 3F       		.uleb128 0x3f
 2766 0072 19       		.uleb128 0x19
 2767 0073 03       		.uleb128 0x3
 2768 0074 0E       		.uleb128 0xe
 2769 0075 3A       		.uleb128 0x3a
 2770 0076 0B       		.uleb128 0xb
 2771 0077 3B       		.uleb128 0x3b
 2772 0078 0B       		.uleb128 0xb
 2773 0079 27       		.uleb128 0x27
 2774 007a 19       		.uleb128 0x19
 2775 007b 49       		.uleb128 0x49
 2776 007c 13       		.uleb128 0x13
 2777 007d 11       		.uleb128 0x11
ARM GAS  C:\Users\TTSS\AppData\Local\Temp\ccfbp0gi.s 			page 62


 2778 007e 01       		.uleb128 0x1
 2779 007f 12       		.uleb128 0x12
 2780 0080 06       		.uleb128 0x6
 2781 0081 40       		.uleb128 0x40
 2782 0082 18       		.uleb128 0x18
 2783 0083 9642     		.uleb128 0x2116
 2784 0085 19       		.uleb128 0x19
 2785 0086 01       		.uleb128 0x1
 2786 0087 13       		.uleb128 0x13
 2787 0088 00       		.byte	0
 2788 0089 00       		.byte	0
 2789 008a 0C       		.uleb128 0xc
 2790 008b 05       		.uleb128 0x5
 2791 008c 00       		.byte	0
 2792 008d 03       		.uleb128 0x3
 2793 008e 0E       		.uleb128 0xe
 2794 008f 3A       		.uleb128 0x3a
 2795 0090 0B       		.uleb128 0xb
 2796 0091 3B       		.uleb128 0x3b
 2797 0092 0B       		.uleb128 0xb
 2798 0093 49       		.uleb128 0x49
 2799 0094 13       		.uleb128 0x13
 2800 0095 02       		.uleb128 0x2
 2801 0096 18       		.uleb128 0x18
 2802 0097 00       		.byte	0
 2803 0098 00       		.byte	0
 2804 0099 0D       		.uleb128 0xd
 2805 009a 34       		.uleb128 0x34
 2806 009b 00       		.byte	0
 2807 009c 03       		.uleb128 0x3
 2808 009d 0E       		.uleb128 0xe
 2809 009e 3A       		.uleb128 0x3a
 2810 009f 0B       		.uleb128 0xb
 2811 00a0 3B       		.uleb128 0x3b
 2812 00a1 0B       		.uleb128 0xb
 2813 00a2 49       		.uleb128 0x49
 2814 00a3 13       		.uleb128 0x13
 2815 00a4 02       		.uleb128 0x2
 2816 00a5 18       		.uleb128 0x18
 2817 00a6 00       		.byte	0
 2818 00a7 00       		.byte	0
 2819 00a8 0E       		.uleb128 0xe
 2820 00a9 34       		.uleb128 0x34
 2821 00aa 00       		.byte	0
 2822 00ab 03       		.uleb128 0x3
 2823 00ac 08       		.uleb128 0x8
 2824 00ad 3A       		.uleb128 0x3a
 2825 00ae 0B       		.uleb128 0xb
 2826 00af 3B       		.uleb128 0x3b
 2827 00b0 0B       		.uleb128 0xb
 2828 00b1 49       		.uleb128 0x49
 2829 00b2 13       		.uleb128 0x13
 2830 00b3 02       		.uleb128 0x2
 2831 00b4 18       		.uleb128 0x18
 2832 00b5 00       		.byte	0
 2833 00b6 00       		.byte	0
 2834 00b7 0F       		.uleb128 0xf
ARM GAS  C:\Users\TTSS\AppData\Local\Temp\ccfbp0gi.s 			page 63


 2835 00b8 26       		.uleb128 0x26
 2836 00b9 00       		.byte	0
 2837 00ba 49       		.uleb128 0x49
 2838 00bb 13       		.uleb128 0x13
 2839 00bc 00       		.byte	0
 2840 00bd 00       		.byte	0
 2841 00be 10       		.uleb128 0x10
 2842 00bf 01       		.uleb128 0x1
 2843 00c0 01       		.byte	0x1
 2844 00c1 49       		.uleb128 0x49
 2845 00c2 13       		.uleb128 0x13
 2846 00c3 01       		.uleb128 0x1
 2847 00c4 13       		.uleb128 0x13
 2848 00c5 00       		.byte	0
 2849 00c6 00       		.byte	0
 2850 00c7 11       		.uleb128 0x11
 2851 00c8 21       		.uleb128 0x21
 2852 00c9 00       		.byte	0
 2853 00ca 49       		.uleb128 0x49
 2854 00cb 13       		.uleb128 0x13
 2855 00cc 2F       		.uleb128 0x2f
 2856 00cd 0B       		.uleb128 0xb
 2857 00ce 00       		.byte	0
 2858 00cf 00       		.byte	0
 2859 00d0 12       		.uleb128 0x12
 2860 00d1 2E       		.uleb128 0x2e
 2861 00d2 01       		.byte	0x1
 2862 00d3 3F       		.uleb128 0x3f
 2863 00d4 19       		.uleb128 0x19
 2864 00d5 03       		.uleb128 0x3
 2865 00d6 0E       		.uleb128 0xe
 2866 00d7 3A       		.uleb128 0x3a
 2867 00d8 0B       		.uleb128 0xb
 2868 00d9 3B       		.uleb128 0x3b
 2869 00da 05       		.uleb128 0x5
 2870 00db 27       		.uleb128 0x27
 2871 00dc 19       		.uleb128 0x19
 2872 00dd 11       		.uleb128 0x11
 2873 00de 01       		.uleb128 0x1
 2874 00df 12       		.uleb128 0x12
 2875 00e0 06       		.uleb128 0x6
 2876 00e1 40       		.uleb128 0x40
 2877 00e2 18       		.uleb128 0x18
 2878 00e3 9742     		.uleb128 0x2117
 2879 00e5 19       		.uleb128 0x19
 2880 00e6 01       		.uleb128 0x1
 2881 00e7 13       		.uleb128 0x13
 2882 00e8 00       		.byte	0
 2883 00e9 00       		.byte	0
 2884 00ea 13       		.uleb128 0x13
 2885 00eb 05       		.uleb128 0x5
 2886 00ec 00       		.byte	0
 2887 00ed 03       		.uleb128 0x3
 2888 00ee 0E       		.uleb128 0xe
 2889 00ef 3A       		.uleb128 0x3a
 2890 00f0 0B       		.uleb128 0xb
 2891 00f1 3B       		.uleb128 0x3b
ARM GAS  C:\Users\TTSS\AppData\Local\Temp\ccfbp0gi.s 			page 64


 2892 00f2 05       		.uleb128 0x5
 2893 00f3 49       		.uleb128 0x49
 2894 00f4 13       		.uleb128 0x13
 2895 00f5 02       		.uleb128 0x2
 2896 00f6 18       		.uleb128 0x18
 2897 00f7 00       		.byte	0
 2898 00f8 00       		.byte	0
 2899 00f9 14       		.uleb128 0x14
 2900 00fa 34       		.uleb128 0x34
 2901 00fb 00       		.byte	0
 2902 00fc 03       		.uleb128 0x3
 2903 00fd 0E       		.uleb128 0xe
 2904 00fe 3A       		.uleb128 0x3a
 2905 00ff 0B       		.uleb128 0xb
 2906 0100 3B       		.uleb128 0x3b
 2907 0101 05       		.uleb128 0x5
 2908 0102 49       		.uleb128 0x49
 2909 0103 13       		.uleb128 0x13
 2910 0104 02       		.uleb128 0x2
 2911 0105 18       		.uleb128 0x18
 2912 0106 00       		.byte	0
 2913 0107 00       		.byte	0
 2914 0108 15       		.uleb128 0x15
 2915 0109 34       		.uleb128 0x34
 2916 010a 00       		.byte	0
 2917 010b 03       		.uleb128 0x3
 2918 010c 08       		.uleb128 0x8
 2919 010d 3A       		.uleb128 0x3a
 2920 010e 0B       		.uleb128 0xb
 2921 010f 3B       		.uleb128 0x3b
 2922 0110 05       		.uleb128 0x5
 2923 0111 49       		.uleb128 0x49
 2924 0112 13       		.uleb128 0x13
 2925 0113 02       		.uleb128 0x2
 2926 0114 18       		.uleb128 0x18
 2927 0115 00       		.byte	0
 2928 0116 00       		.byte	0
 2929 0117 16       		.uleb128 0x16
 2930 0118 2E       		.uleb128 0x2e
 2931 0119 01       		.byte	0x1
 2932 011a 3F       		.uleb128 0x3f
 2933 011b 19       		.uleb128 0x19
 2934 011c 03       		.uleb128 0x3
 2935 011d 0E       		.uleb128 0xe
 2936 011e 3A       		.uleb128 0x3a
 2937 011f 0B       		.uleb128 0xb
 2938 0120 3B       		.uleb128 0x3b
 2939 0121 05       		.uleb128 0x5
 2940 0122 27       		.uleb128 0x27
 2941 0123 19       		.uleb128 0x19
 2942 0124 11       		.uleb128 0x11
 2943 0125 01       		.uleb128 0x1
 2944 0126 12       		.uleb128 0x12
 2945 0127 06       		.uleb128 0x6
 2946 0128 40       		.uleb128 0x40
 2947 0129 18       		.uleb128 0x18
 2948 012a 9642     		.uleb128 0x2116
ARM GAS  C:\Users\TTSS\AppData\Local\Temp\ccfbp0gi.s 			page 65


 2949 012c 19       		.uleb128 0x19
 2950 012d 01       		.uleb128 0x1
 2951 012e 13       		.uleb128 0x13
 2952 012f 00       		.byte	0
 2953 0130 00       		.byte	0
 2954 0131 17       		.uleb128 0x17
 2955 0132 2E       		.uleb128 0x2e
 2956 0133 00       		.byte	0
 2957 0134 3F       		.uleb128 0x3f
 2958 0135 19       		.uleb128 0x19
 2959 0136 03       		.uleb128 0x3
 2960 0137 0E       		.uleb128 0xe
 2961 0138 3A       		.uleb128 0x3a
 2962 0139 0B       		.uleb128 0xb
 2963 013a 3B       		.uleb128 0x3b
 2964 013b 05       		.uleb128 0x5
 2965 013c 27       		.uleb128 0x27
 2966 013d 19       		.uleb128 0x19
 2967 013e 11       		.uleb128 0x11
 2968 013f 01       		.uleb128 0x1
 2969 0140 12       		.uleb128 0x12
 2970 0141 06       		.uleb128 0x6
 2971 0142 40       		.uleb128 0x40
 2972 0143 18       		.uleb128 0x18
 2973 0144 9642     		.uleb128 0x2116
 2974 0146 19       		.uleb128 0x19
 2975 0147 00       		.byte	0
 2976 0148 00       		.byte	0
 2977 0149 18       		.uleb128 0x18
 2978 014a 2E       		.uleb128 0x2e
 2979 014b 00       		.byte	0
 2980 014c 3F       		.uleb128 0x3f
 2981 014d 19       		.uleb128 0x19
 2982 014e 03       		.uleb128 0x3
 2983 014f 0E       		.uleb128 0xe
 2984 0150 3A       		.uleb128 0x3a
 2985 0151 0B       		.uleb128 0xb
 2986 0152 3B       		.uleb128 0x3b
 2987 0153 05       		.uleb128 0x5
 2988 0154 27       		.uleb128 0x27
 2989 0155 19       		.uleb128 0x19
 2990 0156 49       		.uleb128 0x49
 2991 0157 13       		.uleb128 0x13
 2992 0158 11       		.uleb128 0x11
 2993 0159 01       		.uleb128 0x1
 2994 015a 12       		.uleb128 0x12
 2995 015b 06       		.uleb128 0x6
 2996 015c 40       		.uleb128 0x40
 2997 015d 18       		.uleb128 0x18
 2998 015e 9742     		.uleb128 0x2117
 2999 0160 19       		.uleb128 0x19
 3000 0161 00       		.byte	0
 3001 0162 00       		.byte	0
 3002 0163 19       		.uleb128 0x19
 3003 0164 2E       		.uleb128 0x2e
 3004 0165 01       		.byte	0x1
 3005 0166 3F       		.uleb128 0x3f
ARM GAS  C:\Users\TTSS\AppData\Local\Temp\ccfbp0gi.s 			page 66


 3006 0167 19       		.uleb128 0x19
 3007 0168 03       		.uleb128 0x3
 3008 0169 0E       		.uleb128 0xe
 3009 016a 3A       		.uleb128 0x3a
 3010 016b 0B       		.uleb128 0xb
 3011 016c 3B       		.uleb128 0x3b
 3012 016d 05       		.uleb128 0x5
 3013 016e 27       		.uleb128 0x27
 3014 016f 19       		.uleb128 0x19
 3015 0170 49       		.uleb128 0x49
 3016 0171 13       		.uleb128 0x13
 3017 0172 11       		.uleb128 0x11
 3018 0173 01       		.uleb128 0x1
 3019 0174 12       		.uleb128 0x12
 3020 0175 06       		.uleb128 0x6
 3021 0176 40       		.uleb128 0x40
 3022 0177 18       		.uleb128 0x18
 3023 0178 9742     		.uleb128 0x2117
 3024 017a 19       		.uleb128 0x19
 3025 017b 01       		.uleb128 0x1
 3026 017c 13       		.uleb128 0x13
 3027 017d 00       		.byte	0
 3028 017e 00       		.byte	0
 3029 017f 1A       		.uleb128 0x1a
 3030 0180 2E       		.uleb128 0x2e
 3031 0181 00       		.byte	0
 3032 0182 3F       		.uleb128 0x3f
 3033 0183 19       		.uleb128 0x19
 3034 0184 03       		.uleb128 0x3
 3035 0185 0E       		.uleb128 0xe
 3036 0186 3A       		.uleb128 0x3a
 3037 0187 0B       		.uleb128 0xb
 3038 0188 3B       		.uleb128 0x3b
 3039 0189 05       		.uleb128 0x5
 3040 018a 27       		.uleb128 0x27
 3041 018b 19       		.uleb128 0x19
 3042 018c 11       		.uleb128 0x11
 3043 018d 01       		.uleb128 0x1
 3044 018e 12       		.uleb128 0x12
 3045 018f 06       		.uleb128 0x6
 3046 0190 40       		.uleb128 0x40
 3047 0191 18       		.uleb128 0x18
 3048 0192 9742     		.uleb128 0x2117
 3049 0194 19       		.uleb128 0x19
 3050 0195 00       		.byte	0
 3051 0196 00       		.byte	0
 3052 0197 1B       		.uleb128 0x1b
 3053 0198 2E       		.uleb128 0x2e
 3054 0199 01       		.byte	0x1
 3055 019a 3F       		.uleb128 0x3f
 3056 019b 19       		.uleb128 0x19
 3057 019c 03       		.uleb128 0x3
 3058 019d 0E       		.uleb128 0xe
 3059 019e 3A       		.uleb128 0x3a
 3060 019f 0B       		.uleb128 0xb
 3061 01a0 3B       		.uleb128 0x3b
 3062 01a1 05       		.uleb128 0x5
ARM GAS  C:\Users\TTSS\AppData\Local\Temp\ccfbp0gi.s 			page 67


 3063 01a2 27       		.uleb128 0x27
 3064 01a3 19       		.uleb128 0x19
 3065 01a4 49       		.uleb128 0x49
 3066 01a5 13       		.uleb128 0x13
 3067 01a6 11       		.uleb128 0x11
 3068 01a7 01       		.uleb128 0x1
 3069 01a8 12       		.uleb128 0x12
 3070 01a9 06       		.uleb128 0x6
 3071 01aa 40       		.uleb128 0x40
 3072 01ab 18       		.uleb128 0x18
 3073 01ac 9742     		.uleb128 0x2117
 3074 01ae 19       		.uleb128 0x19
 3075 01af 00       		.byte	0
 3076 01b0 00       		.byte	0
 3077 01b1 00       		.byte	0
 3078              		.section	.debug_aranges,"",%progbits
 3079 0000 0C010000 		.4byte	0x10c
 3080 0004 0200     		.2byte	0x2
 3081 0006 00000000 		.4byte	.Ldebug_info0
 3082 000a 04       		.byte	0x4
 3083 000b 00       		.byte	0
 3084 000c 0000     		.2byte	0
 3085 000e 0000     		.2byte	0
 3086 0010 00000000 		.4byte	.LFB2
 3087 0014 28020000 		.4byte	.LFE2-.LFB2
 3088 0018 00000000 		.4byte	.LFB3
 3089 001c 10010000 		.4byte	.LFE3-.LFB3
 3090 0020 00000000 		.4byte	.LFB4
 3091 0024 1C000000 		.4byte	.LFE4-.LFB4
 3092 0028 00000000 		.4byte	.LFB5
 3093 002c 1E000000 		.4byte	.LFE5-.LFB5
 3094 0030 00000000 		.4byte	.LFB6
 3095 0034 1C000000 		.4byte	.LFE6-.LFB6
 3096 0038 00000000 		.4byte	.LFB7
 3097 003c 1E000000 		.4byte	.LFE7-.LFB7
 3098 0040 00000000 		.4byte	.LFB8
 3099 0044 94010000 		.4byte	.LFE8-.LFB8
 3100 0048 00000000 		.4byte	.LFB9
 3101 004c 1E000000 		.4byte	.LFE9-.LFB9
 3102 0050 00000000 		.4byte	.LFB10
 3103 0054 18000000 		.4byte	.LFE10-.LFB10
 3104 0058 00000000 		.4byte	.LFB11
 3105 005c 0E000000 		.4byte	.LFE11-.LFB11
 3106 0060 00000000 		.4byte	.LFB12
 3107 0064 0E000000 		.4byte	.LFE12-.LFB12
 3108 0068 00000000 		.4byte	.LFB13
 3109 006c 20000000 		.4byte	.LFE13-.LFB13
 3110 0070 00000000 		.4byte	.LFB14
 3111 0074 18000000 		.4byte	.LFE14-.LFB14
 3112 0078 00000000 		.4byte	.LFB15
 3113 007c 10000000 		.4byte	.LFE15-.LFB15
 3114 0080 00000000 		.4byte	.LFB16
 3115 0084 12000000 		.4byte	.LFE16-.LFB16
 3116 0088 00000000 		.4byte	.LFB17
 3117 008c 12000000 		.4byte	.LFE17-.LFB17
 3118 0090 00000000 		.4byte	.LFB18
 3119 0094 12000000 		.4byte	.LFE18-.LFB18
ARM GAS  C:\Users\TTSS\AppData\Local\Temp\ccfbp0gi.s 			page 68


 3120 0098 00000000 		.4byte	.LFB19
 3121 009c 12000000 		.4byte	.LFE19-.LFB19
 3122 00a0 00000000 		.4byte	.LFB20
 3123 00a4 12000000 		.4byte	.LFE20-.LFB20
 3124 00a8 00000000 		.4byte	.LFB21
 3125 00ac 12000000 		.4byte	.LFE21-.LFB21
 3126 00b0 00000000 		.4byte	.LFB22
 3127 00b4 12000000 		.4byte	.LFE22-.LFB22
 3128 00b8 00000000 		.4byte	.LFB23
 3129 00bc 12000000 		.4byte	.LFE23-.LFB23
 3130 00c0 00000000 		.4byte	.LFB24
 3131 00c4 12000000 		.4byte	.LFE24-.LFB24
 3132 00c8 00000000 		.4byte	.LFB25
 3133 00cc 0C000000 		.4byte	.LFE25-.LFB25
 3134 00d0 00000000 		.4byte	.LFB26
 3135 00d4 16000000 		.4byte	.LFE26-.LFB26
 3136 00d8 00000000 		.4byte	.LFB27
 3137 00dc 14000000 		.4byte	.LFE27-.LFB27
 3138 00e0 00000000 		.4byte	.LFB28
 3139 00e4 0A000000 		.4byte	.LFE28-.LFB28
 3140 00e8 00000000 		.4byte	.LFB29
 3141 00ec 14000000 		.4byte	.LFE29-.LFB29
 3142 00f0 00000000 		.4byte	.LFB30
 3143 00f4 0A000000 		.4byte	.LFE30-.LFB30
 3144 00f8 00000000 		.4byte	.LFB31
 3145 00fc 12000000 		.4byte	.LFE31-.LFB31
 3146 0100 00000000 		.4byte	.LFB32
 3147 0104 12000000 		.4byte	.LFE32-.LFB32
 3148 0108 00000000 		.4byte	0
 3149 010c 00000000 		.4byte	0
 3150              		.section	.debug_ranges,"",%progbits
 3151              	.Ldebug_ranges0:
 3152 0000 00000000 		.4byte	.LFB2
 3153 0004 28020000 		.4byte	.LFE2
 3154 0008 00000000 		.4byte	.LFB3
 3155 000c 10010000 		.4byte	.LFE3
 3156 0010 00000000 		.4byte	.LFB4
 3157 0014 1C000000 		.4byte	.LFE4
 3158 0018 00000000 		.4byte	.LFB5
 3159 001c 1E000000 		.4byte	.LFE5
 3160 0020 00000000 		.4byte	.LFB6
 3161 0024 1C000000 		.4byte	.LFE6
 3162 0028 00000000 		.4byte	.LFB7
 3163 002c 1E000000 		.4byte	.LFE7
 3164 0030 00000000 		.4byte	.LFB8
 3165 0034 94010000 		.4byte	.LFE8
 3166 0038 00000000 		.4byte	.LFB9
 3167 003c 1E000000 		.4byte	.LFE9
 3168 0040 00000000 		.4byte	.LFB10
 3169 0044 18000000 		.4byte	.LFE10
 3170 0048 00000000 		.4byte	.LFB11
 3171 004c 0E000000 		.4byte	.LFE11
 3172 0050 00000000 		.4byte	.LFB12
 3173 0054 0E000000 		.4byte	.LFE12
 3174 0058 00000000 		.4byte	.LFB13
 3175 005c 20000000 		.4byte	.LFE13
 3176 0060 00000000 		.4byte	.LFB14
ARM GAS  C:\Users\TTSS\AppData\Local\Temp\ccfbp0gi.s 			page 69


 3177 0064 18000000 		.4byte	.LFE14
 3178 0068 00000000 		.4byte	.LFB15
 3179 006c 10000000 		.4byte	.LFE15
 3180 0070 00000000 		.4byte	.LFB16
 3181 0074 12000000 		.4byte	.LFE16
 3182 0078 00000000 		.4byte	.LFB17
 3183 007c 12000000 		.4byte	.LFE17
 3184 0080 00000000 		.4byte	.LFB18
 3185 0084 12000000 		.4byte	.LFE18
 3186 0088 00000000 		.4byte	.LFB19
 3187 008c 12000000 		.4byte	.LFE19
 3188 0090 00000000 		.4byte	.LFB20
 3189 0094 12000000 		.4byte	.LFE20
 3190 0098 00000000 		.4byte	.LFB21
 3191 009c 12000000 		.4byte	.LFE21
 3192 00a0 00000000 		.4byte	.LFB22
 3193 00a4 12000000 		.4byte	.LFE22
 3194 00a8 00000000 		.4byte	.LFB23
 3195 00ac 12000000 		.4byte	.LFE23
 3196 00b0 00000000 		.4byte	.LFB24
 3197 00b4 12000000 		.4byte	.LFE24
 3198 00b8 00000000 		.4byte	.LFB25
 3199 00bc 0C000000 		.4byte	.LFE25
 3200 00c0 00000000 		.4byte	.LFB26
 3201 00c4 16000000 		.4byte	.LFE26
 3202 00c8 00000000 		.4byte	.LFB27
 3203 00cc 14000000 		.4byte	.LFE27
 3204 00d0 00000000 		.4byte	.LFB28
 3205 00d4 0A000000 		.4byte	.LFE28
 3206 00d8 00000000 		.4byte	.LFB29
 3207 00dc 14000000 		.4byte	.LFE29
 3208 00e0 00000000 		.4byte	.LFB30
 3209 00e4 0A000000 		.4byte	.LFE30
 3210 00e8 00000000 		.4byte	.LFB31
 3211 00ec 12000000 		.4byte	.LFE31
 3212 00f0 00000000 		.4byte	.LFB32
 3213 00f4 12000000 		.4byte	.LFE32
 3214 00f8 00000000 		.4byte	0
 3215 00fc 00000000 		.4byte	0
 3216              		.section	.debug_line,"",%progbits
 3217              	.Ldebug_line0:
 3218 0000 2E030000 		.section	.debug_str,"MS",%progbits,1
 3218      02005700 
 3218      00000201 
 3218      FB0E0D00 
 3218      01010101 
 3219              	.LASF56:
 3220 0000 76617246 		.ascii	"varFlash\000"
 3220      6C617368 
 3220      00
 3221              	.LASF35:
 3222 0009 4359424C 		.ascii	"CYBLE_ERROR_L2CAP_PSM_NOT_REGISTERED\000"
 3222      455F4552 
 3222      524F525F 
 3222      4C324341 
 3222      505F5053 
 3223              	.LASF34:
ARM GAS  C:\Users\TTSS\AppData\Local\Temp\ccfbp0gi.s 			page 70


 3224 002e 4359424C 		.ascii	"CYBLE_ERROR_L2CAP_PSM_ALREADY_REGISTERED\000"
 3224      455F4552 
 3224      524F525F 
 3224      4C324341 
 3224      505F5053 
 3225              	.LASF106:
 3226 0057 4379426C 		.ascii	"CyBle_Hal_se_smp_sc_user_passkey_handler\000"
 3226      655F4861 
 3226      6C5F7365 
 3226      5F736D70 
 3226      5F73635F 
 3227              	.LASF71:
 3228 0080 626C6573 		.ascii	"blessAddr\000"
 3228      73416464 
 3228      7200
 3229              	.LASF30:
 3230 008a 4359424C 		.ascii	"CYBLE_ERROR_TX_POWER_READ\000"
 3230      455F4552 
 3230      524F525F 
 3230      54585F50 
 3230      4F574552 
 3231              	.LASF75:
 3232 00a4 4379424C 		.ascii	"CyBLE_Bless_RfRegRead\000"
 3232      455F426C 
 3232      6573735F 
 3232      52665265 
 3232      67526561 
 3233              	.LASF37:
 3234 00ba 4359424C 		.ascii	"CYBLE_ERROR_L2CAP_CHANNEL_NOT_FOUND\000"
 3234      455F4552 
 3234      524F525F 
 3234      4C324341 
 3234      505F4348 
 3235              	.LASF101:
 3236 00de 4379426C 		.ascii	"CyBle_Hal_pairing_sc_tbx_generate_local_P256_public"
 3236      655F4861 
 3236      6C5F7061 
 3236      6972696E 
 3236      675F7363 
 3237 0111 5F6B6579 		.ascii	"_key\000"
 3237      00
 3238              	.LASF2:
 3239 0116 73686F72 		.ascii	"short int\000"
 3239      7420696E 
 3239      7400
 3240              	.LASF19:
 3241 0120 73697A65 		.ascii	"sizetype\000"
 3241      74797065 
 3241      00
 3242              	.LASF60:
 3243 0129 64737449 		.ascii	"dstIndex\000"
 3243      6E646578 
 3243      00
 3244              	.LASF20:
 3245 0132 4359424C 		.ascii	"CYBLE_ERROR_OK\000"
 3245      455F4552 
 3245      524F525F 
ARM GAS  C:\Users\TTSS\AppData\Local\Temp\ccfbp0gi.s 			page 71


 3245      4F4B00
 3246              	.LASF46:
 3247 0141 4359424C 		.ascii	"CYBLE_ERROR_LL_SAME_TRANSACTION_COLLISION\000"
 3247      455F4552 
 3247      524F525F 
 3247      4C4C5F53 
 3247      414D455F 
 3248              	.LASF57:
 3249 016b 6C656E67 		.ascii	"length\000"
 3249      746800
 3250              	.LASF41:
 3251 0172 4359424C 		.ascii	"CYBLE_ERROR_FLASH_WRITE_NOT_PERMITED\000"
 3251      455F4552 
 3251      524F525F 
 3251      464C4153 
 3251      485F5752 
 3252              	.LASF43:
 3253 0197 4359424C 		.ascii	"CYBLE_ERROR_HARDWARE_FAILURE\000"
 3253      455F4552 
 3253      524F525F 
 3253      48415244 
 3253      57415245 
 3254              	.LASF105:
 3255 01b4 4379426C 		.ascii	"CyBle_Hal_smp_sc_cmac_complete\000"
 3255      655F4861 
 3255      6C5F736D 
 3255      705F7363 
 3255      5F636D61 
 3256              	.LASF42:
 3257 01d3 4359424C 		.ascii	"CYBLE_ERROR_MIC_AUTH_FAILED\000"
 3257      455F4552 
 3257      524F525F 
 3257      4D49435F 
 3257      41555448 
 3258              	.LASF111:
 3259 01ef 47656E65 		.ascii	"Generated_Source\\PSoC4\\BLE_HAL_PVT.c\000"
 3259      72617465 
 3259      645F536F 
 3259      75726365 
 3259      5C50536F 
 3260              	.LASF21:
 3261 0214 4359424C 		.ascii	"CYBLE_ERROR_INVALID_PARAMETER\000"
 3261      455F4552 
 3261      524F525F 
 3261      494E5641 
 3261      4C49445F 
 3262              	.LASF25:
 3263 0232 4359424C 		.ascii	"CYBLE_ERROR_OOB_NOT_AVAILABLE\000"
 3263      455F4552 
 3263      524F525F 
 3263      4F4F425F 
 3263      4E4F545F 
 3264              	.LASF96:
 3265 0250 4379426C 		.ascii	"CyBle_Hal_pairing_confirm_handler\000"
 3265      655F4861 
 3265      6C5F7061 
 3265      6972696E 
ARM GAS  C:\Users\TTSS\AppData\Local\Temp\ccfbp0gi.s 			page 72


 3265      675F636F 
 3266              	.LASF68:
 3267 0272 666C6173 		.ascii	"flashBuffer\000"
 3267      68427566 
 3267      66657200 
 3268              	.LASF22:
 3269 027e 4359424C 		.ascii	"CYBLE_ERROR_INVALID_OPERATION\000"
 3269      455F4552 
 3269      524F525F 
 3269      494E5641 
 3269      4C49445F 
 3270              	.LASF88:
 3271 029c 4359424C 		.ascii	"CYBLE_BlessStart\000"
 3271      455F426C 
 3271      65737353 
 3271      74617274 
 3271      00
 3272              	.LASF69:
 3273 02ad 6C656E67 		.ascii	"lengthFlash\000"
 3273      7468466C 
 3273      61736800 
 3274              	.LASF54:
 3275 02b9 4359424C 		.ascii	"CYBLE_API_RESULT_T\000"
 3275      455F4150 
 3275      495F5245 
 3275      53554C54 
 3275      5F5400
 3276              	.LASF72:
 3277 02cc 72656756 		.ascii	"regValue\000"
 3277      616C7565 
 3277      00
 3278              	.LASF94:
 3279 02d5 4379426C 		.ascii	"CyBle_Hal_pairing_keypress_notification_handler\000"
 3279      655F4861 
 3279      6C5F7061 
 3279      6972696E 
 3279      675F6B65 
 3280              	.LASF100:
 3281 0305 4379426C 		.ascii	"CyBle_Hal_pairing_sc_tbx_local_pubkey_generate_comp"
 3281      655F4861 
 3281      6C5F7061 
 3281      6972696E 
 3281      675F7363 
 3282 0338 6C657465 		.ascii	"lete\000"
 3282      00
 3283              	.LASF26:
 3284 033d 4359424C 		.ascii	"CYBLE_ERROR_NO_CONNECTION\000"
 3284      455F4552 
 3284      524F525F 
 3284      4E4F5F43 
 3284      4F4E4E45 
 3285              	.LASF109:
 3286 0357 424C455F 		.ascii	"BLE_CMP_FTR_API_lec_hci_handle_generate_DHkey_comma"
 3286      434D505F 
 3286      4654525F 
 3286      4150495F 
 3286      6C65635F 
ARM GAS  C:\Users\TTSS\AppData\Local\Temp\ccfbp0gi.s 			page 73


 3287 038a 6E6400   		.ascii	"nd\000"
 3288              	.LASF24:
 3289 038d 4359424C 		.ascii	"CYBLE_ERROR_INSUFFICIENT_RESOURCES\000"
 3289      455F4552 
 3289      524F525F 
 3289      494E5355 
 3289      46464943 
 3290              	.LASF12:
 3291 03b0 666C6F61 		.ascii	"float\000"
 3291      7400
 3292              	.LASF6:
 3293 03b6 6C6F6E67 		.ascii	"long long int\000"
 3293      206C6F6E 
 3293      6720696E 
 3293      7400
 3294              	.LASF31:
 3295 03c4 4359424C 		.ascii	"CYBLE_ERROR_BT_ON_NOT_COMPLETED\000"
 3295      455F4552 
 3295      524F525F 
 3295      42545F4F 
 3295      4E5F4E4F 
 3296              	.LASF61:
 3297 03e4 73726349 		.ascii	"srcIndex\000"
 3297      6E646578 
 3297      00
 3298              	.LASF79:
 3299 03ed 7472696D 		.ascii	"trimRef34Val\000"
 3299      52656633 
 3299      3456616C 
 3299      00
 3300              	.LASF4:
 3301 03fa 6C6F6E67 		.ascii	"long int\000"
 3301      20696E74 
 3301      00
 3302              	.LASF80:
 3303 0403 7472696D 		.ascii	"trimRef38Val\000"
 3303      52656633 
 3303      3856616C 
 3303      00
 3304              	.LASF64:
 3305 0410 726F7773 		.ascii	"rowsNotEqual\000"
 3305      4E6F7445 
 3305      7175616C 
 3305      00
 3306              	.LASF84:
 3307 041d 4379426C 		.ascii	"CyBleHal_DelayMs\000"
 3307      6548616C 
 3307      5F44656C 
 3307      61794D73 
 3307      00
 3308              	.LASF28:
 3309 042e 4359424C 		.ascii	"CYBLE_ERROR_REPEATED_ATTEMPTS\000"
 3309      455F4552 
 3309      524F525F 
 3309      52455045 
 3309      41544544 
 3310              	.LASF59:
ARM GAS  C:\Users\TTSS\AppData\Local\Temp\ccfbp0gi.s 			page 74


 3311 044c 726F7749 		.ascii	"rowId\000"
 3311      6400
 3312              	.LASF73:
 3313 0452 4379424C 		.ascii	"CyBLE_Bless_LlRegRead\000"
 3313      455F426C 
 3313      6573735F 
 3313      4C6C5265 
 3313      67526561 
 3314              	.LASF110:
 3315 0468 474E5520 		.ascii	"GNU C11 5.4.1 20160609 (release) [ARM/embedded-5-br"
 3315      43313120 
 3315      352E342E 
 3315      31203230 
 3315      31363036 
 3316 049b 616E6368 		.ascii	"anch revision 237715] -mcpu=cortex-m0 -mthumb -g -O"
 3316      20726576 
 3316      6973696F 
 3316      6E203233 
 3316      37373135 
 3317 04ce 30202D66 		.ascii	"0 -ffunction-sections -ffat-lto-objects\000"
 3317      66756E63 
 3317      74696F6E 
 3317      2D736563 
 3317      74696F6E 
 3318              	.LASF65:
 3319 04f6 4379424C 		.ascii	"CyBLE_Nvram_Write\000"
 3319      455F4E76 
 3319      72616D5F 
 3319      57726974 
 3319      6500
 3320              	.LASF112:
 3321 0508 433A5C55 		.ascii	"C:\\Users\\TTSS\\Documents\\Repositories\\hackAIR-P"
 3321      73657273 
 3321      5C545453 
 3321      535C446F 
 3321      63756D65 
 3322 0536 536F435C 		.ascii	"SoC\\SEN0177 - Laser Dust Sensor\\PSoC Firmware\\PS"
 3322      53454E30 
 3322      31373720 
 3322      2D204C61 
 3322      73657220 
 3323 0566 6F432043 		.ascii	"oC Creator Project\\SerialLaserSensor_SEN0177.cydsn"
 3323      72656174 
 3323      6F722050 
 3323      726F6A65 
 3323      63745C53 
 3324 0598 00       		.ascii	"\000"
 3325              	.LASF18:
 3326 0599 6C6F6E67 		.ascii	"long double\000"
 3326      20646F75 
 3326      626C6500 
 3327              	.LASF27:
 3328 05a5 4359424C 		.ascii	"CYBLE_ERROR_NO_DEVICE_ENTITY\000"
 3328      455F4552 
 3328      524F525F 
 3328      4E4F5F44 
 3328      45564943 
ARM GAS  C:\Users\TTSS\AppData\Local\Temp\ccfbp0gi.s 			page 75


 3329              	.LASF1:
 3330 05c2 756E7369 		.ascii	"unsigned char\000"
 3330      676E6564 
 3330      20636861 
 3330      7200
 3331              	.LASF45:
 3332 05d0 4359424C 		.ascii	"CYBLE_ERROR_FLASH_WRITE\000"
 3332      455F4552 
 3332      524F525F 
 3332      464C4153 
 3332      485F5752 
 3333              	.LASF58:
 3334 05e8 77726974 		.ascii	"writeBuffer\000"
 3334      65427566 
 3334      66657200 
 3335              	.LASF97:
 3336 05f4 4379426C 		.ascii	"CyBle_Hal_pairing_lr_confirming_handler\000"
 3336      655F4861 
 3336      6C5F7061 
 3336      6972696E 
 3336      675F6C72 
 3337              	.LASF0:
 3338 061c 7369676E 		.ascii	"signed char\000"
 3338      65642063 
 3338      68617200 
 3339              	.LASF7:
 3340 0628 6C6F6E67 		.ascii	"long long unsigned int\000"
 3340      206C6F6E 
 3340      6720756E 
 3340      7369676E 
 3340      65642069 
 3341              	.LASF82:
 3342 063f 4379426C 		.ascii	"CyBleHal_DelayUs\000"
 3342      6548616C 
 3342      5F44656C 
 3342      61795573 
 3342      00
 3343              	.LASF32:
 3344 0650 4359424C 		.ascii	"CYBLE_ERROR_SEC_FAILED\000"
 3344      455F4552 
 3344      524F525F 
 3344      5345435F 
 3344      4641494C 
 3345              	.LASF29:
 3346 0667 4359424C 		.ascii	"CYBLE_ERROR_GAP_ROLE\000"
 3346      455F4552 
 3346      524F525F 
 3346      4741505F 
 3346      524F4C45 
 3347              	.LASF8:
 3348 067c 756E7369 		.ascii	"unsigned int\000"
 3348      676E6564 
 3348      20696E74 
 3348      00
 3349              	.LASF33:
 3350 0689 4359424C 		.ascii	"CYBLE_ERROR_L2CAP_PSM_WRONG_ENCODING\000"
 3350      455F4552 
ARM GAS  C:\Users\TTSS\AppData\Local\Temp\ccfbp0gi.s 			page 76


 3350      524F525F 
 3350      4C324341 
 3350      505F5053 
 3351              	.LASF15:
 3352 06ae 63797374 		.ascii	"cystatus\000"
 3352      61747573 
 3352      00
 3353              	.LASF86:
 3354 06b7 4379426C 		.ascii	"CyBleHal_DisableGlobalInterrupts\000"
 3354      6548616C 
 3354      5F446973 
 3354      61626C65 
 3354      476C6F62 
 3355              	.LASF76:
 3356 06d8 4379424C 		.ascii	"CyBLE_Bless_RfRegWrite\000"
 3356      455F426C 
 3356      6573735F 
 3356      52665265 
 3356      67577269 
 3357              	.LASF103:
 3358 06ef 70617261 		.ascii	"param1\000"
 3358      6D3100
 3359              	.LASF104:
 3360 06f6 70617261 		.ascii	"param2\000"
 3360      6D3200
 3361              	.LASF17:
 3362 06fd 72656733 		.ascii	"reg32\000"
 3362      3200
 3363              	.LASF51:
 3364 0703 4359424C 		.ascii	"CYBLE_ERROR_CHAR_IS_NOT_DISCOVERED\000"
 3364      455F4552 
 3364      524F525F 
 3364      43484152 
 3364      5F49535F 
 3365              	.LASF3:
 3366 0726 73686F72 		.ascii	"short unsigned int\000"
 3366      7420756E 
 3366      7369676E 
 3366      65642069 
 3366      6E7400
 3367              	.LASF90:
 3368 0739 70617261 		.ascii	"param\000"
 3368      6D00
 3369              	.LASF70:
 3370 073f 6C656E67 		.ascii	"lengthRemaining\000"
 3370      74685265 
 3370      6D61696E 
 3370      696E6700 
 3371              	.LASF14:
 3372 074f 63686172 		.ascii	"char\000"
 3372      00
 3373              	.LASF78:
 3374 0754 7472696D 		.ascii	"trimRegValue\000"
 3374      52656756 
 3374      616C7565 
 3374      00
 3375              	.LASF53:
ARM GAS  C:\Users\TTSS\AppData\Local\Temp\ccfbp0gi.s 			page 77


 3376 0761 4359424C 		.ascii	"CYBLE_ERROR_STACK_BUSY\000"
 3376      455F4552 
 3376      524F525F 
 3376      53544143 
 3376      4B5F4255 
 3377              	.LASF47:
 3378 0778 4359424C 		.ascii	"CYBLE_ERROR_CONTROLLER_BUSY\000"
 3378      455F4552 
 3378      524F525F 
 3378      434F4E54 
 3378      524F4C4C 
 3379              	.LASF52:
 3380 0794 4359424C 		.ascii	"CYBLE_ERROR_INVALID_STATE\000"
 3380      455F4552 
 3380      524F525F 
 3380      494E5641 
 3380      4C49445F 
 3381              	.LASF81:
 3382 07ae 73696C69 		.ascii	"siliconRev\000"
 3382      636F6E52 
 3382      657600
 3383              	.LASF91:
 3384 07b9 4379426C 		.ascii	"CyBle_Hal_pairing_remote_key_handler\000"
 3384      655F4861 
 3384      6C5F7061 
 3384      6972696E 
 3384      675F7265 
 3385              	.LASF9:
 3386 07de 75696E74 		.ascii	"uint8\000"
 3386      3800
 3387              	.LASF23:
 3388 07e4 4359424C 		.ascii	"CYBLE_ERROR_MEMORY_ALLOCATION_FAILED\000"
 3388      455F4552 
 3388      524F525F 
 3388      4D454D4F 
 3388      52595F41 
 3389              	.LASF44:
 3390 0809 4359424C 		.ascii	"CYBLE_ERROR_UNSUPPORTED_FEATURE_OR_PARAMETER_VALUE\000"
 3390      455F4552 
 3390      524F525F 
 3390      554E5355 
 3390      50504F52 
 3391              	.LASF107:
 3392 083c 4379426C 		.ascii	"CyBle_Hal_EccPointMult\000"
 3392      655F4861 
 3392      6C5F4563 
 3392      63506F69 
 3392      6E744D75 
 3393              	.LASF10:
 3394 0853 75696E74 		.ascii	"uint16\000"
 3394      313600
 3395              	.LASF55:
 3396 085a 62756666 		.ascii	"buffer\000"
 3396      657200
 3397              	.LASF11:
 3398 0861 75696E74 		.ascii	"uint32\000"
 3398      333200
ARM GAS  C:\Users\TTSS\AppData\Local\Temp\ccfbp0gi.s 			page 78


 3399              	.LASF16:
 3400 0868 72656738 		.ascii	"reg8\000"
 3400      00
 3401              	.LASF5:
 3402 086d 6C6F6E67 		.ascii	"long unsigned int\000"
 3402      20756E73 
 3402      69676E65 
 3402      6420696E 
 3402      7400
 3403              	.LASF93:
 3404 087f 4379426C 		.ascii	"CyBle_Hal_pairing_dhkey_check_handler\000"
 3404      655F4861 
 3404      6C5F7061 
 3404      6972696E 
 3404      675F6468 
 3405              	.LASF39:
 3406 08a5 4359424C 		.ascii	"CYBLE_ERROR_GATT_DB_INVALID_ATTR_HANDLE\000"
 3406      455F4552 
 3406      524F525F 
 3406      47415454 
 3406      5F44425F 
 3407              	.LASF67:
 3408 08cd 74656D70 		.ascii	"tempFlash\000"
 3408      466C6173 
 3408      6800
 3409              	.LASF66:
 3410 08d7 4379424C 		.ascii	"CyBLE_Nvram_Erase\000"
 3410      455F4E76 
 3410      72616D5F 
 3410      45726173 
 3410      6500
 3411              	.LASF38:
 3412 08e9 4359424C 		.ascii	"CYBLE_ERROR_L2CAP_PSM_NOT_IN_RANGE\000"
 3412      455F4552 
 3412      524F525F 
 3412      4C324341 
 3412      505F5053 
 3413              	.LASF95:
 3414 090c 4379426C 		.ascii	"CyBle_Hal_pairing_rand_handler\000"
 3414      655F4861 
 3414      6C5F7061 
 3414      6972696E 
 3414      675F7261 
 3415              	.LASF92:
 3416 092b 4379426C 		.ascii	"CyBle_Hal_pairing_dhkey_handler\000"
 3416      655F4861 
 3416      6C5F7061 
 3416      6972696E 
 3416      675F6468 
 3417              	.LASF89:
 3418 094b 4379426C 		.ascii	"CyBle_Hal_pairing_local_public_key_handler\000"
 3418      655F4861 
 3418      6C5F7061 
 3418      6972696E 
 3418      675F6C6F 
 3419              	.LASF98:
 3420 0976 4379426C 		.ascii	"CyBle_Hal_pairing_sc_tbx_dhkey_generate_complete\000"
ARM GAS  C:\Users\TTSS\AppData\Local\Temp\ccfbp0gi.s 			page 79


 3420      655F4861 
 3420      6C5F7061 
 3420      6972696E 
 3420      675F7363 
 3421              	.LASF83:
 3422 09a7 64656C61 		.ascii	"delayVal\000"
 3422      7956616C 
 3422      00
 3423              	.LASF99:
 3424 09b0 4379424C 		.ascii	"CyBLE_GetIpBlockVersion\000"
 3424      455F4765 
 3424      74497042 
 3424      6C6F636B 
 3424      56657273 
 3425              	.LASF49:
 3426 09c8 4359424C 		.ascii	"CYBLE_ERROR_NTF_DISABLED\000"
 3426      455F4552 
 3426      524F525F 
 3426      4E54465F 
 3426      44495341 
 3427              	.LASF85:
 3428 09e1 4379426C 		.ascii	"CyBleHal_EnableGlobalInterrupts\000"
 3428      6548616C 
 3428      5F456E61 
 3428      626C6547 
 3428      6C6F6261 
 3429              	.LASF40:
 3430 0a01 4359424C 		.ascii	"CYBLE_ERROR_DEVICE_ALREADY_EXISTS\000"
 3430      455F4552 
 3430      524F525F 
 3430      44455649 
 3430      43455F41 
 3431              	.LASF77:
 3432 0a23 4379424C 		.ascii	"CyBLE_BlessDeviceConfig\000"
 3432      455F426C 
 3432      65737344 
 3432      65766963 
 3432      65436F6E 
 3433              	.LASF63:
 3434 0a3b 62797465 		.ascii	"byteOffset\000"
 3434      4F666673 
 3434      657400
 3435              	.LASF48:
 3436 0a46 4359424C 		.ascii	"CYBLE_ERROR_MAX\000"
 3436      455F4552 
 3436      524F525F 
 3436      4D415800 
 3437              	.LASF87:
 3438 0a56 4379426C 		.ascii	"CyBle_HalInit\000"
 3438      655F4861 
 3438      6C496E69 
 3438      7400
 3439              	.LASF13:
 3440 0a64 646F7562 		.ascii	"double\000"
 3440      6C6500
 3441              	.LASF108:
 3442 0a6b 424C455F 		.ascii	"BLE_CMP_FTR_API_lec_hci_handle_read_local_P256_publ"
ARM GAS  C:\Users\TTSS\AppData\Local\Temp\ccfbp0gi.s 			page 80


 3442      434D505F 
 3442      4654525F 
 3442      4150495F 
 3442      6C65635F 
 3443 0a9e 69635F6B 		.ascii	"ic_key_command\000"
 3443      65795F63 
 3443      6F6D6D61 
 3443      6E6400
 3444              	.LASF74:
 3445 0aad 4379424C 		.ascii	"CyBLE_Bless_LlRegWrite\000"
 3445      455F426C 
 3445      6573735F 
 3445      4C6C5265 
 3445      67577269 
 3446              	.LASF102:
 3447 0ac4 4379426C 		.ascii	"CyBle_Hal_pairing_sc_tbx_generate_DHkey\000"
 3447      655F4861 
 3447      6C5F7061 
 3447      6972696E 
 3447      675F7363 
 3448              	.LASF36:
 3449 0aec 4359424C 		.ascii	"CYBLE_ERROR_L2CAP_CONNECTION_ENTITY_NOT_FOUND\000"
 3449      455F4552 
 3449      524F525F 
 3449      4C324341 
 3449      505F434F 
 3450              	.LASF50:
 3451 0b1a 4359424C 		.ascii	"CYBLE_ERROR_IND_DISABLED\000"
 3451      455F4552 
 3451      524F525F 
 3451      494E445F 
 3451      44495341 
 3452              	.LASF62:
 3453 0b33 65654F66 		.ascii	"eeOffset\000"
 3453      66736574 
 3453      00
 3454              		.ident	"GCC: (GNU Tools for ARM Embedded Processors) 5.4.1 20160609 (release) [ARM/embedded-5-bran
