ARM GAS  C:\Users\TTSS\AppData\Local\Temp\ccftBoAu.s 			page 1


   1              		.syntax unified
   2              		.cpu cortex-m0
   3              		.fpu softvfp
   4              		.eabi_attribute 20, 1
   5              		.eabi_attribute 21, 1
   6              		.eabi_attribute 23, 3
   7              		.eabi_attribute 24, 1
   8              		.eabi_attribute 25, 1
   9              		.eabi_attribute 26, 1
  10              		.eabi_attribute 30, 6
  11              		.eabi_attribute 34, 0
  12              		.eabi_attribute 18, 4
  13              		.thumb
  14              		.syntax unified
  15              		.file	"main.c"
  16              		.text
  17              	.Ltext0:
  18              		.cfi_sections	.debug_frame
  19              		.section	.text.main,"ax",%progbits
  20              		.align	2
  21              		.global	main
  22              		.code	16
  23              		.thumb_func
  24              		.type	main, %function
  25              	main:
  26              	.LFB35:
  27              		.file 1 "main.c"
   1:main.c        **** /* ========================================
   2:main.c        ****  * Air Quality Beacon, part of the hackAIR project.
   3:main.c        ****  * Freely available under CC BY 4.0
   4:main.c        ****  *
   5:main.c        ****  *
   6:main.c        ****  * Author: George Doxastakis gdoxastakis.ee@gmail.com
   7:main.c        ****  * Technology Transfer & Smart Solutions
   8:main.c        ****  * TEI of Athens
   9:main.c        ****  * http://research.ee.teiath.gr/ttss/
  10:main.c        ****  *
  11:main.c        ****  * http://www.hackair.eu/
  12:main.c        **** */
  13:main.c        **** #include <project.h>
  14:main.c        **** 
  15:main.c        **** /* Function prototypes */  
  16:main.c        **** void StackEventHandler(uint32 event, void* eventParam);
  17:main.c        **** char* readParticles();
  18:main.c        **** 
  19:main.c        **** /* ADV payload dta structure */  
  20:main.c        **** extern CYBLE_GAPP_DISC_MODE_INFO_T cyBle_discoveryModeInfo;
  21:main.c        **** #define advPayload   (cyBle_discoveryModeInfo.advData->advData) 
  22:main.c        **** 
  23:main.c        **** 
  24:main.c        **** int main()
  25:main.c        **** {
  28              		.loc 1 25 0
  29              		.cfi_startproc
  30              		@ args = 0, pretend = 0, frame = 8
  31              		@ frame_needed = 1, uses_anonymous_args = 0
  32 0000 80B5     		push	{r7, lr}
ARM GAS  C:\Users\TTSS\AppData\Local\Temp\ccftBoAu.s 			page 2


  33              		.cfi_def_cfa_offset 8
  34              		.cfi_offset 7, -8
  35              		.cfi_offset 14, -4
  36 0002 82B0     		sub	sp, sp, #8
  37              		.cfi_def_cfa_offset 16
  38 0004 00AF     		add	r7, sp, #0
  39              		.cfi_def_cfa_register 7
  26:main.c        ****     CyGlobalIntEnable; /* Enable global interrupts. */
  40              		.loc 1 26 0
  41              		.syntax divided
  42              	@ 26 "main.c" 1
  43 0006 62B6     		CPSIE   i
  44              	@ 0 "" 2
  27:main.c        ****     Serial_Start();
  45              		.loc 1 27 0
  46              		.thumb
  47              		.syntax unified
  48 0008 FFF7FEFF 		bl	Serial_Start
  28:main.c        ****     /* Start CYBLE component and register the generic event handler */
  29:main.c        ****     CyBle_Start(StackEventHandler);
  49              		.loc 1 29 0
  50 000c 224B     		ldr	r3, .L3
  51 000e 1800     		movs	r0, r3
  52 0010 FFF7FEFF 		bl	CyBle_Start
  53              	.L2:
  54              	.LBB2:
  30:main.c        ****     
  31:main.c        ****     for(;;)
  32:main.c        ****     {
  33:main.c        ****         STATUS_Write(1);CyDelay(300);STATUS_Write(0);
  55              		.loc 1 33 0 discriminator 1
  56 0014 0120     		movs	r0, #1
  57 0016 FFF7FEFF 		bl	STATUS_Write
  58 001a 9623     		movs	r3, #150
  59 001c 5B00     		lsls	r3, r3, #1
  60 001e 1800     		movs	r0, r3
  61 0020 FFF7FEFF 		bl	CyDelay
  62 0024 0020     		movs	r0, #0
  63 0026 FFF7FEFF 		bl	STATUS_Write
  34:main.c        ****         char *val=readParticles(); //Perform sensor measurement (waits for result)
  64              		.loc 1 34 0 discriminator 1
  65 002a FFF7FEFF 		bl	readParticles
  66 002e 0300     		movs	r3, r0
  67 0030 7B60     		str	r3, [r7, #4]
  35:main.c        ****          
  36:main.c        ****         /* Dynamic payload will be continuously updated */
  37:main.c        ****         advPayload[19] =  0x01; //Sensor ID: 0x01 for SEN0177
  68              		.loc 1 37 0 discriminator 1
  69 0032 1A4B     		ldr	r3, .L3+4
  70 0034 9B68     		ldr	r3, [r3, #8]
  71 0036 0122     		movs	r2, #1
  72 0038 DA74     		strb	r2, [r3, #19]
  38:main.c        ****         advPayload[21] =  val[4]; //High byte of PM1 value
  73              		.loc 1 38 0 discriminator 1
  74 003a 184B     		ldr	r3, .L3+4
  75 003c 9B68     		ldr	r3, [r3, #8]
  76 003e 7A68     		ldr	r2, [r7, #4]
ARM GAS  C:\Users\TTSS\AppData\Local\Temp\ccftBoAu.s 			page 3


  77 0040 0432     		adds	r2, r2, #4
  78 0042 1278     		ldrb	r2, [r2]
  79 0044 5A75     		strb	r2, [r3, #21]
  39:main.c        ****         advPayload[22] =  val[5]; //Low byte of PM1 value
  80              		.loc 1 39 0 discriminator 1
  81 0046 154B     		ldr	r3, .L3+4
  82 0048 9B68     		ldr	r3, [r3, #8]
  83 004a 7A68     		ldr	r2, [r7, #4]
  84 004c 0532     		adds	r2, r2, #5
  85 004e 1278     		ldrb	r2, [r2]
  86 0050 9A75     		strb	r2, [r3, #22]
  40:main.c        ****         advPayload[23] =  val[6]; //High byte of PM2.5 value
  87              		.loc 1 40 0 discriminator 1
  88 0052 124B     		ldr	r3, .L3+4
  89 0054 9B68     		ldr	r3, [r3, #8]
  90 0056 7A68     		ldr	r2, [r7, #4]
  91 0058 0632     		adds	r2, r2, #6
  92 005a 1278     		ldrb	r2, [r2]
  93 005c DA75     		strb	r2, [r3, #23]
  41:main.c        ****         advPayload[24] =  val[7]; //Low byte of PM2.5 value
  94              		.loc 1 41 0 discriminator 1
  95 005e 0F4B     		ldr	r3, .L3+4
  96 0060 9B68     		ldr	r3, [r3, #8]
  97 0062 7A68     		ldr	r2, [r7, #4]
  98 0064 0732     		adds	r2, r2, #7
  99 0066 1278     		ldrb	r2, [r2]
 100 0068 1A76     		strb	r2, [r3, #24]
  42:main.c        ****         advPayload[25] =  val[8]; //High byte of PM10 value
 101              		.loc 1 42 0 discriminator 1
 102 006a 0C4B     		ldr	r3, .L3+4
 103 006c 9B68     		ldr	r3, [r3, #8]
 104 006e 7A68     		ldr	r2, [r7, #4]
 105 0070 0832     		adds	r2, r2, #8
 106 0072 1278     		ldrb	r2, [r2]
 107 0074 5A76     		strb	r2, [r3, #25]
  43:main.c        ****         advPayload[26] =  val[9]; //Low byte of PM10 value
 108              		.loc 1 43 0 discriminator 1
 109 0076 094B     		ldr	r3, .L3+4
 110 0078 9B68     		ldr	r3, [r3, #8]
 111 007a 7A68     		ldr	r2, [r7, #4]
 112 007c 0932     		adds	r2, r2, #9
 113 007e 1278     		ldrb	r2, [r2]
 114 0080 9A76     		strb	r2, [r3, #26]
  44:main.c        ****         CyBle_GapUpdateAdvData(cyBle_discoveryModeInfo.advData, cyBle_discoveryModeInfo.scanRspData
 115              		.loc 1 44 0 discriminator 1
 116 0082 064B     		ldr	r3, .L3+4
 117 0084 9A68     		ldr	r2, [r3, #8]
 118 0086 054B     		ldr	r3, .L3+4
 119 0088 DB68     		ldr	r3, [r3, #12]
 120 008a 1900     		movs	r1, r3
 121 008c 1000     		movs	r0, r2
 122 008e FFF7FEFF 		bl	CyBle_GapUpdateAdvData
  45:main.c        ****         CyBle_ProcessEvents();
 123              		.loc 1 45 0 discriminator 1
 124 0092 FFF7FEFF 		bl	CyBle_ProcessEvents
 125              	.LBE2:
  46:main.c        ****     }
ARM GAS  C:\Users\TTSS\AppData\Local\Temp\ccftBoAu.s 			page 4


 126              		.loc 1 46 0 discriminator 1
 127 0096 BDE7     		b	.L2
 128              	.L4:
 129              		.align	2
 130              	.L3:
 131 0098 00000000 		.word	StackEventHandler
 132 009c 00000000 		.word	cyBle_discoveryModeInfo
 133              		.cfi_endproc
 134              	.LFE35:
 135              		.size	main, .-main
 136              		.section	.text.StackEventHandler,"ax",%progbits
 137              		.align	2
 138              		.global	StackEventHandler
 139              		.code	16
 140              		.thumb_func
 141              		.type	StackEventHandler, %function
 142              	StackEventHandler:
 143              	.LFB36:
  47:main.c        **** }
  48:main.c        **** 
  49:main.c        **** void StackEventHandler(uint32 event, void *eventParam)
  50:main.c        **** {
 144              		.loc 1 50 0
 145              		.cfi_startproc
 146              		@ args = 0, pretend = 0, frame = 8
 147              		@ frame_needed = 1, uses_anonymous_args = 0
 148 0000 80B5     		push	{r7, lr}
 149              		.cfi_def_cfa_offset 8
 150              		.cfi_offset 7, -8
 151              		.cfi_offset 14, -4
 152 0002 82B0     		sub	sp, sp, #8
 153              		.cfi_def_cfa_offset 16
 154 0004 00AF     		add	r7, sp, #0
 155              		.cfi_def_cfa_register 7
 156 0006 7860     		str	r0, [r7, #4]
 157 0008 3960     		str	r1, [r7]
  51:main.c        ****     switch(event)
 158              		.loc 1 51 0
 159 000a 7B68     		ldr	r3, [r7, #4]
 160 000c 012B     		cmp	r3, #1
 161 000e 00D0     		beq	.L7
  52:main.c        ****     {
  53:main.c        ****         
  54:main.c        **** 		case CYBLE_EVT_STACK_ON:
  55:main.c        **** 			/* BLE stack is on. Start BLE advertisement */   
  56:main.c        **** 			CyBle_GappStartAdvertisement(CYBLE_ADVERTISING_FAST);
  57:main.c        **** 		    break;
  58:main.c        **** 		
  59:main.c        ****         default:
  60:main.c        ****             break;
 162              		.loc 1 60 0
 163 0010 03E0     		b	.L8
 164              	.L7:
  56:main.c        **** 		    break;
 165              		.loc 1 56 0
 166 0012 0020     		movs	r0, #0
 167 0014 FFF7FEFF 		bl	CyBle_GappStartAdvertisement
ARM GAS  C:\Users\TTSS\AppData\Local\Temp\ccftBoAu.s 			page 5


  57:main.c        **** 		
 168              		.loc 1 57 0
 169 0018 C046     		nop
 170              	.L8:
  61:main.c        ****     }   	
  62:main.c        **** 
  63:main.c        **** }
 171              		.loc 1 63 0
 172 001a C046     		nop
 173 001c BD46     		mov	sp, r7
 174 001e 02B0     		add	sp, sp, #8
 175              		@ sp needed
 176 0020 80BD     		pop	{r7, pc}
 177              		.cfi_endproc
 178              	.LFE36:
 179              		.size	StackEventHandler, .-StackEventHandler
 180 0022 C046     		.section	.text.readParticles,"ax",%progbits
 181              		.align	2
 182              		.global	readParticles
 183              		.code	16
 184              		.thumb_func
 185              		.type	readParticles, %function
 186              	readParticles:
 187              	.LFB37:
  64:main.c        **** 
  65:main.c        **** /*******************************************************************
  66:main.c        **** * NAME :            char* readParticles()
  67:main.c        **** *
  68:main.c        **** * DESCRIPTION :     Read sensor measurement
  69:main.c        **** * OUTPUTS :
  70:main.c        **** *       char* Sensor TX packet
  71:main.c        **** */
  72:main.c        **** char* readParticles(){
 188              		.loc 1 72 0
 189              		.cfi_startproc
 190              		@ args = 0, pretend = 0, frame = 8
 191              		@ frame_needed = 1, uses_anonymous_args = 0
 192 0000 80B5     		push	{r7, lr}
 193              		.cfi_def_cfa_offset 8
 194              		.cfi_offset 7, -8
 195              		.cfi_offset 14, -4
 196 0002 82B0     		sub	sp, sp, #8
 197              		.cfi_def_cfa_offset 16
 198 0004 00AF     		add	r7, sp, #0
 199              		.cfi_def_cfa_register 7
  73:main.c        ****     int idx;
  74:main.c        ****     static char senData[32];
  75:main.c        ****     senData[0]=0x42;
 200              		.loc 1 75 0
 201 0006 114B     		ldr	r3, .L14
 202 0008 4222     		movs	r2, #66
 203 000a 1A70     		strb	r2, [r3]
  76:main.c        ****     while(Serial_UartGetChar()!= 0x42); // Wait for start character
 204              		.loc 1 76 0
 205 000c C046     		nop
 206              	.L10:
 207              		.loc 1 76 0 is_stmt 0 discriminator 1
ARM GAS  C:\Users\TTSS\AppData\Local\Temp\ccftBoAu.s 			page 6


 208 000e FFF7FEFF 		bl	Serial_UartGetChar
 209 0012 0300     		movs	r3, r0
 210 0014 422B     		cmp	r3, #66
 211 0016 FAD1     		bne	.L10
  77:main.c        ****     for(idx=1;idx<32;idx++){ // Read TX packet
 212              		.loc 1 77 0 is_stmt 1
 213 0018 0123     		movs	r3, #1
 214 001a 7B60     		str	r3, [r7, #4]
 215 001c 0EE0     		b	.L11
 216              	.L12:
  78:main.c        ****         CyDelay(10); // Wait for data
 217              		.loc 1 78 0 discriminator 3
 218 001e 0A20     		movs	r0, #10
 219 0020 FFF7FEFF 		bl	CyDelay
  79:main.c        ****         senData[idx]=Serial_UartGetChar();// Get next byte
 220              		.loc 1 79 0 discriminator 3
 221 0024 FFF7FEFF 		bl	Serial_UartGetChar
 222 0028 0300     		movs	r3, r0
 223 002a D9B2     		uxtb	r1, r3
 224 002c 074A     		ldr	r2, .L14
 225 002e 7B68     		ldr	r3, [r7, #4]
 226 0030 D318     		adds	r3, r2, r3
 227 0032 0A1C     		adds	r2, r1, #0
 228 0034 1A70     		strb	r2, [r3]
  77:main.c        ****     for(idx=1;idx<32;idx++){ // Read TX packet
 229              		.loc 1 77 0 discriminator 3
 230 0036 7B68     		ldr	r3, [r7, #4]
 231 0038 0133     		adds	r3, r3, #1
 232 003a 7B60     		str	r3, [r7, #4]
 233              	.L11:
  77:main.c        ****     for(idx=1;idx<32;idx++){ // Read TX packet
 234              		.loc 1 77 0 is_stmt 0 discriminator 1
 235 003c 7B68     		ldr	r3, [r7, #4]
 236 003e 1F2B     		cmp	r3, #31
 237 0040 EDDD     		ble	.L12
  80:main.c        ****     }
  81:main.c        ****     return senData;
 238              		.loc 1 81 0 is_stmt 1
 239 0042 024B     		ldr	r3, .L14
  82:main.c        **** }
 240              		.loc 1 82 0
 241 0044 1800     		movs	r0, r3
 242 0046 BD46     		mov	sp, r7
 243 0048 02B0     		add	sp, sp, #8
 244              		@ sp needed
 245 004a 80BD     		pop	{r7, pc}
 246              	.L15:
 247              		.align	2
 248              	.L14:
 249 004c 00000000 		.word	senData.7182
 250              		.cfi_endproc
 251              	.LFE37:
 252              		.size	readParticles, .-readParticles
 253              		.bss
 254              		.align	2
 255              	senData.7182:
 256 0000 00000000 		.space	32
ARM GAS  C:\Users\TTSS\AppData\Local\Temp\ccftBoAu.s 			page 7


 256      00000000 
 256      00000000 
 256      00000000 
 256      00000000 
 257              		.text
 258              	.Letext0:
 259              		.file 2 "Generated_Source\\PSoC4/cytypes.h"
 260              		.file 3 "Generated_Source\\PSoC4/BLE_Stack.h"
 261              		.file 4 "Generated_Source\\PSoC4/BLE_StackGap.h"