ARM GAS  C:\Users\TTSS\AppData\Local\Temp\ccFnBkQJ.s 			page 1


   1              		.syntax unified
   2              		.cpu cortex-m0
   3              		.fpu softvfp
   4              		.eabi_attribute 20, 1
   5              		.eabi_attribute 21, 1
   6              		.eabi_attribute 23, 3
   7              		.eabi_attribute 24, 1
   8              		.eabi_attribute 25, 1
   9              		.eabi_attribute 26, 1
  10              		.eabi_attribute 30, 6
  11              		.eabi_attribute 34, 0
  12              		.eabi_attribute 18, 4
  13              		.thumb
  14              		.syntax unified
  15              		.file	"Serial_SPI_UART.c"
  16              		.text
  17              	.Ltext0:
  18              		.cfi_sections	.debug_frame
  19              		.comm	Serial_rxBufferHead,4,4
  20              		.comm	Serial_rxBufferTail,4,4
  21              		.comm	Serial_rxBufferOverflow,1,1
  22              		.comm	Serial_rxBufferInternal,36,4
  23              		.section	.text.Serial_SpiUartReadRxData,"ax",%progbits
  24              		.align	2
  25              		.global	Serial_SpiUartReadRxData
  26              		.code	16
  27              		.thumb_func
  28              		.type	Serial_SpiUartReadRxData, %function
  29              	Serial_SpiUartReadRxData:
  30              	.LFB2:
  31              		.file 1 "Generated_Source\\PSoC4\\Serial_SPI_UART.c"
   1:Generated_Source\PSoC4/Serial_SPI_UART.c **** /***************************************************************************//**
   2:Generated_Source\PSoC4/Serial_SPI_UART.c **** * \file Serial_SPI_UART.c
   3:Generated_Source\PSoC4/Serial_SPI_UART.c **** * \version 4.0
   4:Generated_Source\PSoC4/Serial_SPI_UART.c **** *
   5:Generated_Source\PSoC4/Serial_SPI_UART.c **** * \brief
   6:Generated_Source\PSoC4/Serial_SPI_UART.c **** *  This file provides the source code to the API for the SCB Component in
   7:Generated_Source\PSoC4/Serial_SPI_UART.c **** *  SPI and UART modes.
   8:Generated_Source\PSoC4/Serial_SPI_UART.c **** *
   9:Generated_Source\PSoC4/Serial_SPI_UART.c **** * Note:
  10:Generated_Source\PSoC4/Serial_SPI_UART.c **** *
  11:Generated_Source\PSoC4/Serial_SPI_UART.c **** *******************************************************************************
  12:Generated_Source\PSoC4/Serial_SPI_UART.c **** * \copyright
  13:Generated_Source\PSoC4/Serial_SPI_UART.c **** * Copyright 2013-2017, Cypress Semiconductor Corporation.  All rights reserved.
  14:Generated_Source\PSoC4/Serial_SPI_UART.c **** * You may use this file only in accordance with the license, terms, conditions,
  15:Generated_Source\PSoC4/Serial_SPI_UART.c **** * disclaimers, and limitations in the end user license agreement accompanying
  16:Generated_Source\PSoC4/Serial_SPI_UART.c **** * the software package with which this file was provided.
  17:Generated_Source\PSoC4/Serial_SPI_UART.c **** *******************************************************************************/
  18:Generated_Source\PSoC4/Serial_SPI_UART.c **** 
  19:Generated_Source\PSoC4/Serial_SPI_UART.c **** #include "Serial_PVT.h"
  20:Generated_Source\PSoC4/Serial_SPI_UART.c **** #include "Serial_SPI_UART_PVT.h"
  21:Generated_Source\PSoC4/Serial_SPI_UART.c **** 
  22:Generated_Source\PSoC4/Serial_SPI_UART.c **** /***************************************
  23:Generated_Source\PSoC4/Serial_SPI_UART.c **** *        SPI/UART Private Vars
  24:Generated_Source\PSoC4/Serial_SPI_UART.c **** ***************************************/
  25:Generated_Source\PSoC4/Serial_SPI_UART.c **** 
  26:Generated_Source\PSoC4/Serial_SPI_UART.c **** #if(Serial_INTERNAL_RX_SW_BUFFER_CONST)
ARM GAS  C:\Users\TTSS\AppData\Local\Temp\ccFnBkQJ.s 			page 2


  27:Generated_Source\PSoC4/Serial_SPI_UART.c ****     /* Start index to put data into the software receive buffer.*/
  28:Generated_Source\PSoC4/Serial_SPI_UART.c ****     volatile uint32 Serial_rxBufferHead;
  29:Generated_Source\PSoC4/Serial_SPI_UART.c ****     /* Start index to get data from the software receive buffer.*/
  30:Generated_Source\PSoC4/Serial_SPI_UART.c ****     volatile uint32 Serial_rxBufferTail;
  31:Generated_Source\PSoC4/Serial_SPI_UART.c ****     /**
  32:Generated_Source\PSoC4/Serial_SPI_UART.c ****     * \addtogroup group_globals
  33:Generated_Source\PSoC4/Serial_SPI_UART.c ****     * \{
  34:Generated_Source\PSoC4/Serial_SPI_UART.c ****     */
  35:Generated_Source\PSoC4/Serial_SPI_UART.c ****     /** Sets when internal software receive buffer overflow
  36:Generated_Source\PSoC4/Serial_SPI_UART.c ****     *  was occurred.
  37:Generated_Source\PSoC4/Serial_SPI_UART.c ****     */
  38:Generated_Source\PSoC4/Serial_SPI_UART.c ****     volatile uint8  Serial_rxBufferOverflow;
  39:Generated_Source\PSoC4/Serial_SPI_UART.c ****     /** \} globals */
  40:Generated_Source\PSoC4/Serial_SPI_UART.c **** #endif /* (Serial_INTERNAL_RX_SW_BUFFER_CONST) */
  41:Generated_Source\PSoC4/Serial_SPI_UART.c **** 
  42:Generated_Source\PSoC4/Serial_SPI_UART.c **** #if(Serial_INTERNAL_TX_SW_BUFFER_CONST)
  43:Generated_Source\PSoC4/Serial_SPI_UART.c ****     /* Start index to put data into the software transmit buffer.*/
  44:Generated_Source\PSoC4/Serial_SPI_UART.c ****     volatile uint32 Serial_txBufferHead;
  45:Generated_Source\PSoC4/Serial_SPI_UART.c ****     /* Start index to get data from the software transmit buffer.*/
  46:Generated_Source\PSoC4/Serial_SPI_UART.c ****     volatile uint32 Serial_txBufferTail;
  47:Generated_Source\PSoC4/Serial_SPI_UART.c **** #endif /* (Serial_INTERNAL_TX_SW_BUFFER_CONST) */
  48:Generated_Source\PSoC4/Serial_SPI_UART.c **** 
  49:Generated_Source\PSoC4/Serial_SPI_UART.c **** #if(Serial_INTERNAL_RX_SW_BUFFER)
  50:Generated_Source\PSoC4/Serial_SPI_UART.c ****     /* Add one element to the buffer to receive full packet. One byte in receive buffer is always e
  51:Generated_Source\PSoC4/Serial_SPI_UART.c ****     volatile uint8 Serial_rxBufferInternal[Serial_INTERNAL_RX_BUFFER_SIZE];
  52:Generated_Source\PSoC4/Serial_SPI_UART.c **** #endif /* (Serial_INTERNAL_RX_SW_BUFFER) */
  53:Generated_Source\PSoC4/Serial_SPI_UART.c **** 
  54:Generated_Source\PSoC4/Serial_SPI_UART.c **** #if(Serial_INTERNAL_TX_SW_BUFFER)
  55:Generated_Source\PSoC4/Serial_SPI_UART.c ****     volatile uint8 Serial_txBufferInternal[Serial_TX_BUFFER_SIZE];
  56:Generated_Source\PSoC4/Serial_SPI_UART.c **** #endif /* (Serial_INTERNAL_TX_SW_BUFFER) */
  57:Generated_Source\PSoC4/Serial_SPI_UART.c **** 
  58:Generated_Source\PSoC4/Serial_SPI_UART.c **** 
  59:Generated_Source\PSoC4/Serial_SPI_UART.c **** #if(Serial_RX_DIRECTION)
  60:Generated_Source\PSoC4/Serial_SPI_UART.c ****     /*******************************************************************************
  61:Generated_Source\PSoC4/Serial_SPI_UART.c ****     * Function Name: Serial_SpiUartReadRxData
  62:Generated_Source\PSoC4/Serial_SPI_UART.c ****     ****************************************************************************//**
  63:Generated_Source\PSoC4/Serial_SPI_UART.c ****     *
  64:Generated_Source\PSoC4/Serial_SPI_UART.c ****     *  Retrieves the next data element from the receive buffer.
  65:Generated_Source\PSoC4/Serial_SPI_UART.c ****     *   - RX software buffer is disabled: Returns data element retrieved from
  66:Generated_Source\PSoC4/Serial_SPI_UART.c ****     *     RX FIFO. Undefined data will be returned if the RX FIFO is empty.
  67:Generated_Source\PSoC4/Serial_SPI_UART.c ****     *   - RX software buffer is enabled: Returns data element from the software
  68:Generated_Source\PSoC4/Serial_SPI_UART.c ****     *     receive buffer. Zero value is returned if the software receive buffer
  69:Generated_Source\PSoC4/Serial_SPI_UART.c ****     *     is empty.
  70:Generated_Source\PSoC4/Serial_SPI_UART.c ****     *
  71:Generated_Source\PSoC4/Serial_SPI_UART.c ****     * \return
  72:Generated_Source\PSoC4/Serial_SPI_UART.c ****     *  Next data element from the receive buffer. 
  73:Generated_Source\PSoC4/Serial_SPI_UART.c ****     *  The amount of data bits to be received depends on RX data bits selection 
  74:Generated_Source\PSoC4/Serial_SPI_UART.c ****     *  (the data bit counting starts from LSB of return value).
  75:Generated_Source\PSoC4/Serial_SPI_UART.c ****     *
  76:Generated_Source\PSoC4/Serial_SPI_UART.c ****     * \globalvars
  77:Generated_Source\PSoC4/Serial_SPI_UART.c ****     *  Serial_rxBufferHead - the start index to put data into the 
  78:Generated_Source\PSoC4/Serial_SPI_UART.c ****     *  software receive buffer.
  79:Generated_Source\PSoC4/Serial_SPI_UART.c ****     *  Serial_rxBufferTail - the start index to get data from the 
  80:Generated_Source\PSoC4/Serial_SPI_UART.c ****     *  software receive buffer.
  81:Generated_Source\PSoC4/Serial_SPI_UART.c ****     *
  82:Generated_Source\PSoC4/Serial_SPI_UART.c ****     *******************************************************************************/
  83:Generated_Source\PSoC4/Serial_SPI_UART.c ****     uint32 Serial_SpiUartReadRxData(void)
ARM GAS  C:\Users\TTSS\AppData\Local\Temp\ccFnBkQJ.s 			page 3


  84:Generated_Source\PSoC4/Serial_SPI_UART.c ****     {
  32              		.loc 1 84 0
  33              		.cfi_startproc
  34              		@ args = 0, pretend = 0, frame = 8
  35              		@ frame_needed = 1, uses_anonymous_args = 0
  36 0000 80B5     		push	{r7, lr}
  37              		.cfi_def_cfa_offset 8
  38              		.cfi_offset 7, -8
  39              		.cfi_offset 14, -4
  40 0002 82B0     		sub	sp, sp, #8
  41              		.cfi_def_cfa_offset 16
  42 0004 00AF     		add	r7, sp, #0
  43              		.cfi_def_cfa_register 7
  85:Generated_Source\PSoC4/Serial_SPI_UART.c ****         uint32 rxData = 0u;
  44              		.loc 1 85 0
  45 0006 0023     		movs	r3, #0
  46 0008 7B60     		str	r3, [r7, #4]
  86:Generated_Source\PSoC4/Serial_SPI_UART.c **** 
  87:Generated_Source\PSoC4/Serial_SPI_UART.c ****     #if (Serial_INTERNAL_RX_SW_BUFFER_CONST)
  88:Generated_Source\PSoC4/Serial_SPI_UART.c ****         uint32 locTail;
  89:Generated_Source\PSoC4/Serial_SPI_UART.c ****     #endif /* (Serial_INTERNAL_RX_SW_BUFFER_CONST) */
  90:Generated_Source\PSoC4/Serial_SPI_UART.c **** 
  91:Generated_Source\PSoC4/Serial_SPI_UART.c ****         #if (Serial_CHECK_RX_SW_BUFFER)
  92:Generated_Source\PSoC4/Serial_SPI_UART.c ****         {
  93:Generated_Source\PSoC4/Serial_SPI_UART.c ****             if (Serial_rxBufferHead != Serial_rxBufferTail)
  47              		.loc 1 93 0
  48 000a 0E4B     		ldr	r3, .L5
  49 000c 1A68     		ldr	r2, [r3]
  50 000e 0E4B     		ldr	r3, .L5+4
  51 0010 1B68     		ldr	r3, [r3]
  52 0012 9A42     		cmp	r2, r3
  53 0014 11D0     		beq	.L2
  94:Generated_Source\PSoC4/Serial_SPI_UART.c ****             {
  95:Generated_Source\PSoC4/Serial_SPI_UART.c ****                 /* There is data in RX software buffer */
  96:Generated_Source\PSoC4/Serial_SPI_UART.c **** 
  97:Generated_Source\PSoC4/Serial_SPI_UART.c ****                 /* Calculate index to read from */
  98:Generated_Source\PSoC4/Serial_SPI_UART.c ****                 locTail = (Serial_rxBufferTail + 1u);
  54              		.loc 1 98 0
  55 0016 0C4B     		ldr	r3, .L5+4
  56 0018 1B68     		ldr	r3, [r3]
  57 001a 0133     		adds	r3, r3, #1
  58 001c 3B60     		str	r3, [r7]
  99:Generated_Source\PSoC4/Serial_SPI_UART.c **** 
 100:Generated_Source\PSoC4/Serial_SPI_UART.c ****                 if (Serial_INTERNAL_RX_BUFFER_SIZE == locTail)
  59              		.loc 1 100 0
  60 001e 3B68     		ldr	r3, [r7]
  61 0020 242B     		cmp	r3, #36
  62 0022 01D1     		bne	.L3
 101:Generated_Source\PSoC4/Serial_SPI_UART.c ****                 {
 102:Generated_Source\PSoC4/Serial_SPI_UART.c ****                     locTail = 0u;
  63              		.loc 1 102 0
  64 0024 0023     		movs	r3, #0
  65 0026 3B60     		str	r3, [r7]
  66              	.L3:
 103:Generated_Source\PSoC4/Serial_SPI_UART.c ****                 }
 104:Generated_Source\PSoC4/Serial_SPI_UART.c **** 
 105:Generated_Source\PSoC4/Serial_SPI_UART.c ****                 /* Get data from RX software buffer */
ARM GAS  C:\Users\TTSS\AppData\Local\Temp\ccFnBkQJ.s 			page 4


 106:Generated_Source\PSoC4/Serial_SPI_UART.c ****                 rxData = Serial_GetWordFromRxBuffer(locTail);
  67              		.loc 1 106 0
  68 0028 084A     		ldr	r2, .L5+8
  69 002a 3B68     		ldr	r3, [r7]
  70 002c D318     		adds	r3, r2, r3
  71 002e 1B78     		ldrb	r3, [r3]
  72 0030 DBB2     		uxtb	r3, r3
  73 0032 7B60     		str	r3, [r7, #4]
 107:Generated_Source\PSoC4/Serial_SPI_UART.c **** 
 108:Generated_Source\PSoC4/Serial_SPI_UART.c ****                 /* Change index in the buffer */
 109:Generated_Source\PSoC4/Serial_SPI_UART.c ****                 Serial_rxBufferTail = locTail;
  74              		.loc 1 109 0
  75 0034 044B     		ldr	r3, .L5+4
  76 0036 3A68     		ldr	r2, [r7]
  77 0038 1A60     		str	r2, [r3]
  78              	.L2:
 110:Generated_Source\PSoC4/Serial_SPI_UART.c **** 
 111:Generated_Source\PSoC4/Serial_SPI_UART.c ****                 #if (Serial_CHECK_UART_RTS_CONTROL_FLOW)
 112:Generated_Source\PSoC4/Serial_SPI_UART.c ****                 {
 113:Generated_Source\PSoC4/Serial_SPI_UART.c ****                     /* Check if RX Not Empty is disabled in the interrupt */
 114:Generated_Source\PSoC4/Serial_SPI_UART.c ****                     if (0u == (Serial_INTR_RX_MASK_REG & Serial_INTR_RX_NOT_EMPTY))
 115:Generated_Source\PSoC4/Serial_SPI_UART.c ****                     {
 116:Generated_Source\PSoC4/Serial_SPI_UART.c ****                         /* Enable RX Not Empty interrupt source to continue
 117:Generated_Source\PSoC4/Serial_SPI_UART.c ****                         * receiving data into software buffer.
 118:Generated_Source\PSoC4/Serial_SPI_UART.c ****                         */
 119:Generated_Source\PSoC4/Serial_SPI_UART.c ****                         Serial_INTR_RX_MASK_REG |= Serial_INTR_RX_NOT_EMPTY;
 120:Generated_Source\PSoC4/Serial_SPI_UART.c ****                     }
 121:Generated_Source\PSoC4/Serial_SPI_UART.c ****                 }
 122:Generated_Source\PSoC4/Serial_SPI_UART.c ****                 #endif
 123:Generated_Source\PSoC4/Serial_SPI_UART.c **** 
 124:Generated_Source\PSoC4/Serial_SPI_UART.c ****             }
 125:Generated_Source\PSoC4/Serial_SPI_UART.c ****         }
 126:Generated_Source\PSoC4/Serial_SPI_UART.c ****         #else
 127:Generated_Source\PSoC4/Serial_SPI_UART.c ****         {
 128:Generated_Source\PSoC4/Serial_SPI_UART.c ****             /* Read data from RX FIFO */
 129:Generated_Source\PSoC4/Serial_SPI_UART.c ****             rxData = Serial_RX_FIFO_RD_REG;
 130:Generated_Source\PSoC4/Serial_SPI_UART.c ****         }
 131:Generated_Source\PSoC4/Serial_SPI_UART.c ****         #endif
 132:Generated_Source\PSoC4/Serial_SPI_UART.c **** 
 133:Generated_Source\PSoC4/Serial_SPI_UART.c ****         return (rxData);
  79              		.loc 1 133 0
  80 003a 7B68     		ldr	r3, [r7, #4]
 134:Generated_Source\PSoC4/Serial_SPI_UART.c ****     }
  81              		.loc 1 134 0
  82 003c 1800     		movs	r0, r3
  83 003e BD46     		mov	sp, r7
  84 0040 02B0     		add	sp, sp, #8
  85              		@ sp needed
  86 0042 80BD     		pop	{r7, pc}
  87              	.L6:
  88              		.align	2
  89              	.L5:
  90 0044 00000000 		.word	Serial_rxBufferHead
  91 0048 00000000 		.word	Serial_rxBufferTail
  92 004c 00000000 		.word	Serial_rxBufferInternal
  93              		.cfi_endproc
  94              	.LFE2:
ARM GAS  C:\Users\TTSS\AppData\Local\Temp\ccFnBkQJ.s 			page 5


  95              		.size	Serial_SpiUartReadRxData, .-Serial_SpiUartReadRxData
  96              		.section	.text.Serial_SpiUartGetRxBufferSize,"ax",%progbits
  97              		.align	2
  98              		.global	Serial_SpiUartGetRxBufferSize
  99              		.code	16
 100              		.thumb_func
 101              		.type	Serial_SpiUartGetRxBufferSize, %function
 102              	Serial_SpiUartGetRxBufferSize:
 103              	.LFB3:
 135:Generated_Source\PSoC4/Serial_SPI_UART.c **** 
 136:Generated_Source\PSoC4/Serial_SPI_UART.c **** 
 137:Generated_Source\PSoC4/Serial_SPI_UART.c ****     /*******************************************************************************
 138:Generated_Source\PSoC4/Serial_SPI_UART.c ****     * Function Name: Serial_SpiUartGetRxBufferSize
 139:Generated_Source\PSoC4/Serial_SPI_UART.c ****     ****************************************************************************//**
 140:Generated_Source\PSoC4/Serial_SPI_UART.c ****     *
 141:Generated_Source\PSoC4/Serial_SPI_UART.c ****     *  Returns the number of received data elements in the receive buffer.
 142:Generated_Source\PSoC4/Serial_SPI_UART.c ****     *   - RX software buffer disabled: returns the number of used entries in
 143:Generated_Source\PSoC4/Serial_SPI_UART.c ****     *     RX FIFO.
 144:Generated_Source\PSoC4/Serial_SPI_UART.c ****     *   - RX software buffer enabled: returns the number of elements which were
 145:Generated_Source\PSoC4/Serial_SPI_UART.c ****     *     placed in the receive buffer. This does not include the hardware RX FIFO.
 146:Generated_Source\PSoC4/Serial_SPI_UART.c ****     *
 147:Generated_Source\PSoC4/Serial_SPI_UART.c ****     * \return
 148:Generated_Source\PSoC4/Serial_SPI_UART.c ****     *  Number of received data elements.
 149:Generated_Source\PSoC4/Serial_SPI_UART.c ****     *
 150:Generated_Source\PSoC4/Serial_SPI_UART.c ****     * \globalvars
 151:Generated_Source\PSoC4/Serial_SPI_UART.c ****     *  Serial_rxBufferHead - the start index to put data into the 
 152:Generated_Source\PSoC4/Serial_SPI_UART.c ****     *  software receive buffer.
 153:Generated_Source\PSoC4/Serial_SPI_UART.c ****     *  Serial_rxBufferTail - the start index to get data from the 
 154:Generated_Source\PSoC4/Serial_SPI_UART.c ****     *  software receive buffer.
 155:Generated_Source\PSoC4/Serial_SPI_UART.c ****     *
 156:Generated_Source\PSoC4/Serial_SPI_UART.c ****     *******************************************************************************/
 157:Generated_Source\PSoC4/Serial_SPI_UART.c ****     uint32 Serial_SpiUartGetRxBufferSize(void)
 158:Generated_Source\PSoC4/Serial_SPI_UART.c ****     {
 104              		.loc 1 158 0
 105              		.cfi_startproc
 106              		@ args = 0, pretend = 0, frame = 8
 107              		@ frame_needed = 1, uses_anonymous_args = 0
 108 0000 80B5     		push	{r7, lr}
 109              		.cfi_def_cfa_offset 8
 110              		.cfi_offset 7, -8
 111              		.cfi_offset 14, -4
 112 0002 82B0     		sub	sp, sp, #8
 113              		.cfi_def_cfa_offset 16
 114 0004 00AF     		add	r7, sp, #0
 115              		.cfi_def_cfa_register 7
 159:Generated_Source\PSoC4/Serial_SPI_UART.c ****         uint32 size;
 160:Generated_Source\PSoC4/Serial_SPI_UART.c ****     #if (Serial_INTERNAL_RX_SW_BUFFER_CONST)
 161:Generated_Source\PSoC4/Serial_SPI_UART.c ****         uint32 locHead;
 162:Generated_Source\PSoC4/Serial_SPI_UART.c ****     #endif /* (Serial_INTERNAL_RX_SW_BUFFER_CONST) */
 163:Generated_Source\PSoC4/Serial_SPI_UART.c **** 
 164:Generated_Source\PSoC4/Serial_SPI_UART.c ****         #if (Serial_CHECK_RX_SW_BUFFER)
 165:Generated_Source\PSoC4/Serial_SPI_UART.c ****         {
 166:Generated_Source\PSoC4/Serial_SPI_UART.c ****             locHead = Serial_rxBufferHead;
 116              		.loc 1 166 0
 117 0006 0C4B     		ldr	r3, .L11
 118 0008 1B68     		ldr	r3, [r3]
 119 000a 3B60     		str	r3, [r7]
ARM GAS  C:\Users\TTSS\AppData\Local\Temp\ccFnBkQJ.s 			page 6


 167:Generated_Source\PSoC4/Serial_SPI_UART.c **** 
 168:Generated_Source\PSoC4/Serial_SPI_UART.c ****             if(locHead >= Serial_rxBufferTail)
 120              		.loc 1 168 0
 121 000c 0B4B     		ldr	r3, .L11+4
 122 000e 1B68     		ldr	r3, [r3]
 123 0010 3A68     		ldr	r2, [r7]
 124 0012 9A42     		cmp	r2, r3
 125 0014 05D3     		bcc	.L8
 169:Generated_Source\PSoC4/Serial_SPI_UART.c ****             {
 170:Generated_Source\PSoC4/Serial_SPI_UART.c ****                 size = (locHead - Serial_rxBufferTail);
 126              		.loc 1 170 0
 127 0016 094B     		ldr	r3, .L11+4
 128 0018 1B68     		ldr	r3, [r3]
 129 001a 3A68     		ldr	r2, [r7]
 130 001c D31A     		subs	r3, r2, r3
 131 001e 7B60     		str	r3, [r7, #4]
 132 0020 05E0     		b	.L9
 133              	.L8:
 171:Generated_Source\PSoC4/Serial_SPI_UART.c ****             }
 172:Generated_Source\PSoC4/Serial_SPI_UART.c ****             else
 173:Generated_Source\PSoC4/Serial_SPI_UART.c ****             {
 174:Generated_Source\PSoC4/Serial_SPI_UART.c ****                 size = (locHead + (Serial_INTERNAL_RX_BUFFER_SIZE - Serial_rxBufferTail));
 134              		.loc 1 174 0
 135 0022 064B     		ldr	r3, .L11+4
 136 0024 1B68     		ldr	r3, [r3]
 137 0026 3A68     		ldr	r2, [r7]
 138 0028 D31A     		subs	r3, r2, r3
 139 002a 2433     		adds	r3, r3, #36
 140 002c 7B60     		str	r3, [r7, #4]
 141              	.L9:
 175:Generated_Source\PSoC4/Serial_SPI_UART.c ****             }
 176:Generated_Source\PSoC4/Serial_SPI_UART.c ****         }
 177:Generated_Source\PSoC4/Serial_SPI_UART.c ****         #else
 178:Generated_Source\PSoC4/Serial_SPI_UART.c ****         {
 179:Generated_Source\PSoC4/Serial_SPI_UART.c ****             size = Serial_GET_RX_FIFO_ENTRIES;
 180:Generated_Source\PSoC4/Serial_SPI_UART.c ****         }
 181:Generated_Source\PSoC4/Serial_SPI_UART.c ****         #endif
 182:Generated_Source\PSoC4/Serial_SPI_UART.c **** 
 183:Generated_Source\PSoC4/Serial_SPI_UART.c ****         return (size);
 142              		.loc 1 183 0
 143 002e 7B68     		ldr	r3, [r7, #4]
 184:Generated_Source\PSoC4/Serial_SPI_UART.c ****     }
 144              		.loc 1 184 0
 145 0030 1800     		movs	r0, r3
 146 0032 BD46     		mov	sp, r7
 147 0034 02B0     		add	sp, sp, #8
 148              		@ sp needed
 149 0036 80BD     		pop	{r7, pc}
 150              	.L12:
 151              		.align	2
 152              	.L11:
 153 0038 00000000 		.word	Serial_rxBufferHead
 154 003c 00000000 		.word	Serial_rxBufferTail
 155              		.cfi_endproc
 156              	.LFE3:
 157              		.size	Serial_SpiUartGetRxBufferSize, .-Serial_SpiUartGetRxBufferSize
 158              		.section	.text.Serial_SpiUartClearRxBuffer,"ax",%progbits
ARM GAS  C:\Users\TTSS\AppData\Local\Temp\ccFnBkQJ.s 			page 7


 159              		.align	2
 160              		.global	Serial_SpiUartClearRxBuffer
 161              		.code	16
 162              		.thumb_func
 163              		.type	Serial_SpiUartClearRxBuffer, %function
 164              	Serial_SpiUartClearRxBuffer:
 165              	.LFB4:
 185:Generated_Source\PSoC4/Serial_SPI_UART.c **** 
 186:Generated_Source\PSoC4/Serial_SPI_UART.c **** 
 187:Generated_Source\PSoC4/Serial_SPI_UART.c ****     /*******************************************************************************
 188:Generated_Source\PSoC4/Serial_SPI_UART.c ****     * Function Name: Serial_SpiUartClearRxBuffer
 189:Generated_Source\PSoC4/Serial_SPI_UART.c ****     ****************************************************************************//**
 190:Generated_Source\PSoC4/Serial_SPI_UART.c ****     *
 191:Generated_Source\PSoC4/Serial_SPI_UART.c ****     *  Clears the receive buffer and RX FIFO.
 192:Generated_Source\PSoC4/Serial_SPI_UART.c ****     *
 193:Generated_Source\PSoC4/Serial_SPI_UART.c ****     * \globalvars
 194:Generated_Source\PSoC4/Serial_SPI_UART.c ****     *  Serial_rxBufferHead - the start index to put data into the 
 195:Generated_Source\PSoC4/Serial_SPI_UART.c ****     *  software receive buffer.
 196:Generated_Source\PSoC4/Serial_SPI_UART.c ****     *  Serial_rxBufferTail - the start index to get data from the 
 197:Generated_Source\PSoC4/Serial_SPI_UART.c ****     *  software receive buffer.
 198:Generated_Source\PSoC4/Serial_SPI_UART.c ****     *
 199:Generated_Source\PSoC4/Serial_SPI_UART.c ****     *******************************************************************************/
 200:Generated_Source\PSoC4/Serial_SPI_UART.c ****     void Serial_SpiUartClearRxBuffer(void)
 201:Generated_Source\PSoC4/Serial_SPI_UART.c ****     {
 166              		.loc 1 201 0
 167              		.cfi_startproc
 168              		@ args = 0, pretend = 0, frame = 0
 169              		@ frame_needed = 1, uses_anonymous_args = 0
 170 0000 80B5     		push	{r7, lr}
 171              		.cfi_def_cfa_offset 8
 172              		.cfi_offset 7, -8
 173              		.cfi_offset 14, -4
 174 0002 00AF     		add	r7, sp, #0
 175              		.cfi_def_cfa_register 7
 202:Generated_Source\PSoC4/Serial_SPI_UART.c ****         #if (Serial_CHECK_RX_SW_BUFFER)
 203:Generated_Source\PSoC4/Serial_SPI_UART.c ****         {
 204:Generated_Source\PSoC4/Serial_SPI_UART.c ****             /* Lock from component interruption */
 205:Generated_Source\PSoC4/Serial_SPI_UART.c ****             Serial_DisableInt();
 176              		.loc 1 205 0
 177 0004 0920     		movs	r0, #9
 178 0006 FFF7FEFF 		bl	CyIntDisable
 206:Generated_Source\PSoC4/Serial_SPI_UART.c **** 
 207:Generated_Source\PSoC4/Serial_SPI_UART.c ****             /* Flush RX software buffer */
 208:Generated_Source\PSoC4/Serial_SPI_UART.c ****             Serial_rxBufferHead = Serial_rxBufferTail;
 179              		.loc 1 208 0
 180 000a 0E4B     		ldr	r3, .L14
 181 000c 1A68     		ldr	r2, [r3]
 182 000e 0E4B     		ldr	r3, .L14+4
 183 0010 1A60     		str	r2, [r3]
 209:Generated_Source\PSoC4/Serial_SPI_UART.c ****             Serial_rxBufferOverflow = 0u;
 184              		.loc 1 209 0
 185 0012 0E4B     		ldr	r3, .L14+8
 186 0014 0022     		movs	r2, #0
 187 0016 1A70     		strb	r2, [r3]
 210:Generated_Source\PSoC4/Serial_SPI_UART.c **** 
 211:Generated_Source\PSoC4/Serial_SPI_UART.c ****             Serial_CLEAR_RX_FIFO;
 188              		.loc 1 211 0
ARM GAS  C:\Users\TTSS\AppData\Local\Temp\ccFnBkQJ.s 			page 8


 189 0018 0D4B     		ldr	r3, .L14+12
 190 001a 0D4A     		ldr	r2, .L14+12
 191 001c 1268     		ldr	r2, [r2]
 192 001e 8021     		movs	r1, #128
 193 0020 4902     		lsls	r1, r1, #9
 194 0022 0A43     		orrs	r2, r1
 195 0024 1A60     		str	r2, [r3]
 196 0026 0A4B     		ldr	r3, .L14+12
 197 0028 094A     		ldr	r2, .L14+12
 198 002a 1268     		ldr	r2, [r2]
 199 002c 0949     		ldr	r1, .L14+16
 200 002e 0A40     		ands	r2, r1
 201 0030 1A60     		str	r2, [r3]
 212:Generated_Source\PSoC4/Serial_SPI_UART.c ****             Serial_ClearRxInterruptSource(Serial_INTR_RX_ALL);
 202              		.loc 1 212 0
 203 0032 094B     		ldr	r3, .L14+20
 204 0034 094A     		ldr	r2, .L14+24
 205 0036 1A60     		str	r2, [r3]
 213:Generated_Source\PSoC4/Serial_SPI_UART.c **** 
 214:Generated_Source\PSoC4/Serial_SPI_UART.c ****             #if (Serial_CHECK_UART_RTS_CONTROL_FLOW)
 215:Generated_Source\PSoC4/Serial_SPI_UART.c ****             {
 216:Generated_Source\PSoC4/Serial_SPI_UART.c ****                 /* Enable RX Not Empty interrupt source to continue receiving
 217:Generated_Source\PSoC4/Serial_SPI_UART.c ****                 * data into software buffer.
 218:Generated_Source\PSoC4/Serial_SPI_UART.c ****                 */
 219:Generated_Source\PSoC4/Serial_SPI_UART.c ****                 Serial_INTR_RX_MASK_REG |= Serial_INTR_RX_NOT_EMPTY;
 220:Generated_Source\PSoC4/Serial_SPI_UART.c ****             }
 221:Generated_Source\PSoC4/Serial_SPI_UART.c ****             #endif
 222:Generated_Source\PSoC4/Serial_SPI_UART.c ****             
 223:Generated_Source\PSoC4/Serial_SPI_UART.c ****             /* Release lock */
 224:Generated_Source\PSoC4/Serial_SPI_UART.c ****             Serial_EnableInt();
 206              		.loc 1 224 0
 207 0038 0920     		movs	r0, #9
 208 003a FFF7FEFF 		bl	CyIntEnable
 225:Generated_Source\PSoC4/Serial_SPI_UART.c ****         }
 226:Generated_Source\PSoC4/Serial_SPI_UART.c ****         #else
 227:Generated_Source\PSoC4/Serial_SPI_UART.c ****         {
 228:Generated_Source\PSoC4/Serial_SPI_UART.c ****             Serial_CLEAR_RX_FIFO;
 229:Generated_Source\PSoC4/Serial_SPI_UART.c ****         }
 230:Generated_Source\PSoC4/Serial_SPI_UART.c ****         #endif
 231:Generated_Source\PSoC4/Serial_SPI_UART.c ****     }
 209              		.loc 1 231 0
 210 003e C046     		nop
 211 0040 BD46     		mov	sp, r7
 212              		@ sp needed
 213 0042 80BD     		pop	{r7, pc}
 214              	.L15:
 215              		.align	2
 216              	.L14:
 217 0044 00000000 		.word	Serial_rxBufferTail
 218 0048 00000000 		.word	Serial_rxBufferHead
 219 004c 00000000 		.word	Serial_rxBufferOverflow
 220 0050 04032440 		.word	1076101892
 221 0054 FFFFFEFF 		.word	-65537
 222 0058 C00F2440 		.word	1076105152
 223 005c ED0F0000 		.word	4077
 224              		.cfi_endproc
 225              	.LFE4:
ARM GAS  C:\Users\TTSS\AppData\Local\Temp\ccFnBkQJ.s 			page 9


 226              		.size	Serial_SpiUartClearRxBuffer, .-Serial_SpiUartClearRxBuffer
 227              		.section	.text.Serial_SpiUartDisableIntRx,"ax",%progbits
 228              		.align	2
 229              		.global	Serial_SpiUartDisableIntRx
 230              		.code	16
 231              		.thumb_func
 232              		.type	Serial_SpiUartDisableIntRx, %function
 233              	Serial_SpiUartDisableIntRx:
 234              	.LFB5:
 232:Generated_Source\PSoC4/Serial_SPI_UART.c **** 
 233:Generated_Source\PSoC4/Serial_SPI_UART.c **** #endif /* (Serial_RX_DIRECTION) */
 234:Generated_Source\PSoC4/Serial_SPI_UART.c **** 
 235:Generated_Source\PSoC4/Serial_SPI_UART.c **** 
 236:Generated_Source\PSoC4/Serial_SPI_UART.c **** #if(Serial_TX_DIRECTION)
 237:Generated_Source\PSoC4/Serial_SPI_UART.c ****     /*******************************************************************************
 238:Generated_Source\PSoC4/Serial_SPI_UART.c ****     * Function Name: Serial_SpiUartWriteTxData
 239:Generated_Source\PSoC4/Serial_SPI_UART.c ****     ****************************************************************************//**
 240:Generated_Source\PSoC4/Serial_SPI_UART.c ****     *
 241:Generated_Source\PSoC4/Serial_SPI_UART.c ****     *  Places a data entry into the transmit buffer to be sent at the next available
 242:Generated_Source\PSoC4/Serial_SPI_UART.c ****     *  bus time.
 243:Generated_Source\PSoC4/Serial_SPI_UART.c ****     *  This function is blocking and waits until there is space available to put the
 244:Generated_Source\PSoC4/Serial_SPI_UART.c ****     *  requested data in the transmit buffer.
 245:Generated_Source\PSoC4/Serial_SPI_UART.c ****     *
 246:Generated_Source\PSoC4/Serial_SPI_UART.c ****     *  \param txDataByte: the data to be transmitted.
 247:Generated_Source\PSoC4/Serial_SPI_UART.c ****     *   The amount of data bits to be transmitted depends on TX data bits selection 
 248:Generated_Source\PSoC4/Serial_SPI_UART.c ****     *   (the data bit counting starts from LSB of txDataByte).
 249:Generated_Source\PSoC4/Serial_SPI_UART.c ****     *
 250:Generated_Source\PSoC4/Serial_SPI_UART.c ****     * \globalvars
 251:Generated_Source\PSoC4/Serial_SPI_UART.c ****     *  Serial_txBufferHead - the start index to put data into the 
 252:Generated_Source\PSoC4/Serial_SPI_UART.c ****     *  software transmit buffer.
 253:Generated_Source\PSoC4/Serial_SPI_UART.c ****     *  Serial_txBufferTail - start index to get data from the software
 254:Generated_Source\PSoC4/Serial_SPI_UART.c ****     *  transmit buffer.
 255:Generated_Source\PSoC4/Serial_SPI_UART.c ****     *
 256:Generated_Source\PSoC4/Serial_SPI_UART.c ****     *******************************************************************************/
 257:Generated_Source\PSoC4/Serial_SPI_UART.c ****     void Serial_SpiUartWriteTxData(uint32 txData)
 258:Generated_Source\PSoC4/Serial_SPI_UART.c ****     {
 259:Generated_Source\PSoC4/Serial_SPI_UART.c ****     #if (Serial_INTERNAL_TX_SW_BUFFER_CONST)
 260:Generated_Source\PSoC4/Serial_SPI_UART.c ****         uint32 locHead;
 261:Generated_Source\PSoC4/Serial_SPI_UART.c ****     #endif /* (Serial_INTERNAL_TX_SW_BUFFER_CONST) */
 262:Generated_Source\PSoC4/Serial_SPI_UART.c **** 
 263:Generated_Source\PSoC4/Serial_SPI_UART.c ****         #if (Serial_CHECK_TX_SW_BUFFER)
 264:Generated_Source\PSoC4/Serial_SPI_UART.c ****         {
 265:Generated_Source\PSoC4/Serial_SPI_UART.c ****             /* Put data directly into the TX FIFO */
 266:Generated_Source\PSoC4/Serial_SPI_UART.c ****             if ((Serial_txBufferHead == Serial_txBufferTail) &&
 267:Generated_Source\PSoC4/Serial_SPI_UART.c ****                 (Serial_SPI_UART_FIFO_SIZE != Serial_GET_TX_FIFO_ENTRIES))
 268:Generated_Source\PSoC4/Serial_SPI_UART.c ****             {
 269:Generated_Source\PSoC4/Serial_SPI_UART.c ****                 /* TX software buffer is empty: put data directly in TX FIFO */
 270:Generated_Source\PSoC4/Serial_SPI_UART.c ****                 Serial_TX_FIFO_WR_REG = txData;
 271:Generated_Source\PSoC4/Serial_SPI_UART.c ****             }
 272:Generated_Source\PSoC4/Serial_SPI_UART.c ****             /* Put data into TX software buffer */
 273:Generated_Source\PSoC4/Serial_SPI_UART.c ****             else
 274:Generated_Source\PSoC4/Serial_SPI_UART.c ****             {
 275:Generated_Source\PSoC4/Serial_SPI_UART.c ****                 /* Head index to put data */
 276:Generated_Source\PSoC4/Serial_SPI_UART.c ****                 locHead = (Serial_txBufferHead + 1u);
 277:Generated_Source\PSoC4/Serial_SPI_UART.c **** 
 278:Generated_Source\PSoC4/Serial_SPI_UART.c ****                 /* Adjust TX software buffer index */
 279:Generated_Source\PSoC4/Serial_SPI_UART.c ****                 if (Serial_TX_BUFFER_SIZE == locHead)
ARM GAS  C:\Users\TTSS\AppData\Local\Temp\ccFnBkQJ.s 			page 10


 280:Generated_Source\PSoC4/Serial_SPI_UART.c ****                 {
 281:Generated_Source\PSoC4/Serial_SPI_UART.c ****                     locHead = 0u;
 282:Generated_Source\PSoC4/Serial_SPI_UART.c ****                 }
 283:Generated_Source\PSoC4/Serial_SPI_UART.c **** 
 284:Generated_Source\PSoC4/Serial_SPI_UART.c ****                 /* Wait for space in TX software buffer */
 285:Generated_Source\PSoC4/Serial_SPI_UART.c ****                 while (locHead == Serial_txBufferTail)
 286:Generated_Source\PSoC4/Serial_SPI_UART.c ****                 {
 287:Generated_Source\PSoC4/Serial_SPI_UART.c ****                 }
 288:Generated_Source\PSoC4/Serial_SPI_UART.c **** 
 289:Generated_Source\PSoC4/Serial_SPI_UART.c ****                 /* TX software buffer has at least one room */
 290:Generated_Source\PSoC4/Serial_SPI_UART.c **** 
 291:Generated_Source\PSoC4/Serial_SPI_UART.c ****                 /* Clear old status of INTR_TX_NOT_FULL. It sets at the end of transfer when TX FIF
 292:Generated_Source\PSoC4/Serial_SPI_UART.c ****                 Serial_ClearTxInterruptSource(Serial_INTR_TX_NOT_FULL);
 293:Generated_Source\PSoC4/Serial_SPI_UART.c **** 
 294:Generated_Source\PSoC4/Serial_SPI_UART.c ****                 Serial_PutWordInTxBuffer(locHead, txData);
 295:Generated_Source\PSoC4/Serial_SPI_UART.c **** 
 296:Generated_Source\PSoC4/Serial_SPI_UART.c ****                 Serial_txBufferHead = locHead;
 297:Generated_Source\PSoC4/Serial_SPI_UART.c **** 
 298:Generated_Source\PSoC4/Serial_SPI_UART.c ****                 /* Check if TX Not Full is disabled in interrupt */
 299:Generated_Source\PSoC4/Serial_SPI_UART.c ****                 if (0u == (Serial_INTR_TX_MASK_REG & Serial_INTR_TX_NOT_FULL))
 300:Generated_Source\PSoC4/Serial_SPI_UART.c ****                 {
 301:Generated_Source\PSoC4/Serial_SPI_UART.c ****                     /* Enable TX Not Full interrupt source to transmit from software buffer */
 302:Generated_Source\PSoC4/Serial_SPI_UART.c ****                     Serial_INTR_TX_MASK_REG |= (uint32) Serial_INTR_TX_NOT_FULL;
 303:Generated_Source\PSoC4/Serial_SPI_UART.c ****                 }
 304:Generated_Source\PSoC4/Serial_SPI_UART.c ****             }
 305:Generated_Source\PSoC4/Serial_SPI_UART.c ****         }
 306:Generated_Source\PSoC4/Serial_SPI_UART.c ****         #else
 307:Generated_Source\PSoC4/Serial_SPI_UART.c ****         {
 308:Generated_Source\PSoC4/Serial_SPI_UART.c ****             /* Wait until TX FIFO has space to put data element */
 309:Generated_Source\PSoC4/Serial_SPI_UART.c ****             while (Serial_SPI_UART_FIFO_SIZE == Serial_GET_TX_FIFO_ENTRIES)
 310:Generated_Source\PSoC4/Serial_SPI_UART.c ****             {
 311:Generated_Source\PSoC4/Serial_SPI_UART.c ****             }
 312:Generated_Source\PSoC4/Serial_SPI_UART.c **** 
 313:Generated_Source\PSoC4/Serial_SPI_UART.c ****             Serial_TX_FIFO_WR_REG = txData;
 314:Generated_Source\PSoC4/Serial_SPI_UART.c ****         }
 315:Generated_Source\PSoC4/Serial_SPI_UART.c ****         #endif
 316:Generated_Source\PSoC4/Serial_SPI_UART.c ****     }
 317:Generated_Source\PSoC4/Serial_SPI_UART.c **** 
 318:Generated_Source\PSoC4/Serial_SPI_UART.c **** 
 319:Generated_Source\PSoC4/Serial_SPI_UART.c ****     /*******************************************************************************
 320:Generated_Source\PSoC4/Serial_SPI_UART.c ****     * Function Name: Serial_SpiUartPutArray
 321:Generated_Source\PSoC4/Serial_SPI_UART.c ****     ****************************************************************************//**
 322:Generated_Source\PSoC4/Serial_SPI_UART.c ****     *
 323:Generated_Source\PSoC4/Serial_SPI_UART.c ****     *  Places an array of data into the transmit buffer to be sent.
 324:Generated_Source\PSoC4/Serial_SPI_UART.c ****     *  This function is blocking and waits until there is a space available to put
 325:Generated_Source\PSoC4/Serial_SPI_UART.c ****     *  all the requested data in the transmit buffer. The array size can be greater
 326:Generated_Source\PSoC4/Serial_SPI_UART.c ****     *  than transmit buffer size.
 327:Generated_Source\PSoC4/Serial_SPI_UART.c ****     *
 328:Generated_Source\PSoC4/Serial_SPI_UART.c ****     * \param wrBuf: pointer to an array of data to be placed in transmit buffer. 
 329:Generated_Source\PSoC4/Serial_SPI_UART.c ****     *  The width of the data to be transmitted depends on TX data width selection 
 330:Generated_Source\PSoC4/Serial_SPI_UART.c ****     *  (the data bit counting starts from LSB for each array element).
 331:Generated_Source\PSoC4/Serial_SPI_UART.c ****     * \param count: number of data elements to be placed in the transmit buffer.
 332:Generated_Source\PSoC4/Serial_SPI_UART.c ****     *
 333:Generated_Source\PSoC4/Serial_SPI_UART.c ****     * \globalvars
 334:Generated_Source\PSoC4/Serial_SPI_UART.c ****     *  Serial_txBufferHead - the start index to put data into the 
 335:Generated_Source\PSoC4/Serial_SPI_UART.c ****     *  software transmit buffer.
 336:Generated_Source\PSoC4/Serial_SPI_UART.c ****     *  Serial_txBufferTail - start index to get data from the software
ARM GAS  C:\Users\TTSS\AppData\Local\Temp\ccFnBkQJ.s 			page 11


 337:Generated_Source\PSoC4/Serial_SPI_UART.c ****     *  transmit buffer.
 338:Generated_Source\PSoC4/Serial_SPI_UART.c ****     *
 339:Generated_Source\PSoC4/Serial_SPI_UART.c ****     *******************************************************************************/
 340:Generated_Source\PSoC4/Serial_SPI_UART.c ****     void Serial_SpiUartPutArray(const uint8 wrBuf[], uint32 count)
 341:Generated_Source\PSoC4/Serial_SPI_UART.c ****     {
 342:Generated_Source\PSoC4/Serial_SPI_UART.c ****         uint32 i;
 343:Generated_Source\PSoC4/Serial_SPI_UART.c **** 
 344:Generated_Source\PSoC4/Serial_SPI_UART.c ****         for (i=0u; i < count; i++)
 345:Generated_Source\PSoC4/Serial_SPI_UART.c ****         {
 346:Generated_Source\PSoC4/Serial_SPI_UART.c ****             Serial_SpiUartWriteTxData((uint32) wrBuf[i]);
 347:Generated_Source\PSoC4/Serial_SPI_UART.c ****         }
 348:Generated_Source\PSoC4/Serial_SPI_UART.c ****     }
 349:Generated_Source\PSoC4/Serial_SPI_UART.c **** 
 350:Generated_Source\PSoC4/Serial_SPI_UART.c **** 
 351:Generated_Source\PSoC4/Serial_SPI_UART.c ****     /*******************************************************************************
 352:Generated_Source\PSoC4/Serial_SPI_UART.c ****     * Function Name: Serial_SpiUartGetTxBufferSize
 353:Generated_Source\PSoC4/Serial_SPI_UART.c ****     ****************************************************************************//**
 354:Generated_Source\PSoC4/Serial_SPI_UART.c ****     *
 355:Generated_Source\PSoC4/Serial_SPI_UART.c ****     *  Returns the number of elements currently in the transmit buffer.
 356:Generated_Source\PSoC4/Serial_SPI_UART.c ****     *   - TX software buffer is disabled: returns the number of used entries in
 357:Generated_Source\PSoC4/Serial_SPI_UART.c ****     *     TX FIFO.
 358:Generated_Source\PSoC4/Serial_SPI_UART.c ****     *   - TX software buffer is enabled: returns the number of elements currently
 359:Generated_Source\PSoC4/Serial_SPI_UART.c ****     *     used in the transmit buffer. This number does not include used entries in
 360:Generated_Source\PSoC4/Serial_SPI_UART.c ****     *     the TX FIFO. The transmit buffer size is zero until the TX FIFO is
 361:Generated_Source\PSoC4/Serial_SPI_UART.c ****     *     not full.
 362:Generated_Source\PSoC4/Serial_SPI_UART.c ****     *
 363:Generated_Source\PSoC4/Serial_SPI_UART.c ****     * \return
 364:Generated_Source\PSoC4/Serial_SPI_UART.c ****     *  Number of data elements ready to transmit.
 365:Generated_Source\PSoC4/Serial_SPI_UART.c ****     *
 366:Generated_Source\PSoC4/Serial_SPI_UART.c ****     * \globalvars
 367:Generated_Source\PSoC4/Serial_SPI_UART.c ****     *  Serial_txBufferHead - the start index to put data into the 
 368:Generated_Source\PSoC4/Serial_SPI_UART.c ****     *  software transmit buffer.
 369:Generated_Source\PSoC4/Serial_SPI_UART.c ****     *  Serial_txBufferTail - start index to get data from the software
 370:Generated_Source\PSoC4/Serial_SPI_UART.c ****     *  transmit buffer.
 371:Generated_Source\PSoC4/Serial_SPI_UART.c ****     *
 372:Generated_Source\PSoC4/Serial_SPI_UART.c ****     *******************************************************************************/
 373:Generated_Source\PSoC4/Serial_SPI_UART.c ****     uint32 Serial_SpiUartGetTxBufferSize(void)
 374:Generated_Source\PSoC4/Serial_SPI_UART.c ****     {
 375:Generated_Source\PSoC4/Serial_SPI_UART.c ****         uint32 size;
 376:Generated_Source\PSoC4/Serial_SPI_UART.c ****     #if (Serial_INTERNAL_TX_SW_BUFFER_CONST)
 377:Generated_Source\PSoC4/Serial_SPI_UART.c ****         uint32 locTail;
 378:Generated_Source\PSoC4/Serial_SPI_UART.c ****     #endif /* (Serial_INTERNAL_TX_SW_BUFFER_CONST) */
 379:Generated_Source\PSoC4/Serial_SPI_UART.c **** 
 380:Generated_Source\PSoC4/Serial_SPI_UART.c ****         #if (Serial_CHECK_TX_SW_BUFFER)
 381:Generated_Source\PSoC4/Serial_SPI_UART.c ****         {
 382:Generated_Source\PSoC4/Serial_SPI_UART.c ****             /* Get current Tail index */
 383:Generated_Source\PSoC4/Serial_SPI_UART.c ****             locTail = Serial_txBufferTail;
 384:Generated_Source\PSoC4/Serial_SPI_UART.c **** 
 385:Generated_Source\PSoC4/Serial_SPI_UART.c ****             if (Serial_txBufferHead >= locTail)
 386:Generated_Source\PSoC4/Serial_SPI_UART.c ****             {
 387:Generated_Source\PSoC4/Serial_SPI_UART.c ****                 size = (Serial_txBufferHead - locTail);
 388:Generated_Source\PSoC4/Serial_SPI_UART.c ****             }
 389:Generated_Source\PSoC4/Serial_SPI_UART.c ****             else
 390:Generated_Source\PSoC4/Serial_SPI_UART.c ****             {
 391:Generated_Source\PSoC4/Serial_SPI_UART.c ****                 size = (Serial_txBufferHead + (Serial_TX_BUFFER_SIZE - locTail));
 392:Generated_Source\PSoC4/Serial_SPI_UART.c ****             }
 393:Generated_Source\PSoC4/Serial_SPI_UART.c ****         }
ARM GAS  C:\Users\TTSS\AppData\Local\Temp\ccFnBkQJ.s 			page 12


 394:Generated_Source\PSoC4/Serial_SPI_UART.c ****         #else
 395:Generated_Source\PSoC4/Serial_SPI_UART.c ****         {
 396:Generated_Source\PSoC4/Serial_SPI_UART.c ****             size = Serial_GET_TX_FIFO_ENTRIES;
 397:Generated_Source\PSoC4/Serial_SPI_UART.c ****         }
 398:Generated_Source\PSoC4/Serial_SPI_UART.c ****         #endif
 399:Generated_Source\PSoC4/Serial_SPI_UART.c **** 
 400:Generated_Source\PSoC4/Serial_SPI_UART.c ****         return (size);
 401:Generated_Source\PSoC4/Serial_SPI_UART.c ****     }
 402:Generated_Source\PSoC4/Serial_SPI_UART.c **** 
 403:Generated_Source\PSoC4/Serial_SPI_UART.c **** 
 404:Generated_Source\PSoC4/Serial_SPI_UART.c ****     /*******************************************************************************
 405:Generated_Source\PSoC4/Serial_SPI_UART.c ****     * Function Name: Serial_SpiUartClearTxBuffer
 406:Generated_Source\PSoC4/Serial_SPI_UART.c ****     ****************************************************************************//**
 407:Generated_Source\PSoC4/Serial_SPI_UART.c ****     *
 408:Generated_Source\PSoC4/Serial_SPI_UART.c ****     *  Clears the transmit buffer and TX FIFO.
 409:Generated_Source\PSoC4/Serial_SPI_UART.c ****     *
 410:Generated_Source\PSoC4/Serial_SPI_UART.c ****     * \globalvars
 411:Generated_Source\PSoC4/Serial_SPI_UART.c ****     *  Serial_txBufferHead - the start index to put data into the 
 412:Generated_Source\PSoC4/Serial_SPI_UART.c ****     *  software transmit buffer.
 413:Generated_Source\PSoC4/Serial_SPI_UART.c ****     *  Serial_txBufferTail - start index to get data from the software
 414:Generated_Source\PSoC4/Serial_SPI_UART.c ****     *  transmit buffer.
 415:Generated_Source\PSoC4/Serial_SPI_UART.c ****     *
 416:Generated_Source\PSoC4/Serial_SPI_UART.c ****     *******************************************************************************/
 417:Generated_Source\PSoC4/Serial_SPI_UART.c ****     void Serial_SpiUartClearTxBuffer(void)
 418:Generated_Source\PSoC4/Serial_SPI_UART.c ****     {
 419:Generated_Source\PSoC4/Serial_SPI_UART.c ****         #if (Serial_CHECK_TX_SW_BUFFER)
 420:Generated_Source\PSoC4/Serial_SPI_UART.c ****         {
 421:Generated_Source\PSoC4/Serial_SPI_UART.c ****             /* Lock from component interruption */
 422:Generated_Source\PSoC4/Serial_SPI_UART.c ****             Serial_DisableInt();
 423:Generated_Source\PSoC4/Serial_SPI_UART.c **** 
 424:Generated_Source\PSoC4/Serial_SPI_UART.c ****             /* Flush TX software buffer */
 425:Generated_Source\PSoC4/Serial_SPI_UART.c ****             Serial_txBufferHead = Serial_txBufferTail;
 426:Generated_Source\PSoC4/Serial_SPI_UART.c **** 
 427:Generated_Source\PSoC4/Serial_SPI_UART.c ****             Serial_INTR_TX_MASK_REG &= (uint32) ~Serial_INTR_TX_NOT_FULL;
 428:Generated_Source\PSoC4/Serial_SPI_UART.c ****             Serial_CLEAR_TX_FIFO;
 429:Generated_Source\PSoC4/Serial_SPI_UART.c ****             Serial_ClearTxInterruptSource(Serial_INTR_TX_ALL);
 430:Generated_Source\PSoC4/Serial_SPI_UART.c **** 
 431:Generated_Source\PSoC4/Serial_SPI_UART.c ****             /* Release lock */
 432:Generated_Source\PSoC4/Serial_SPI_UART.c ****             Serial_EnableInt();
 433:Generated_Source\PSoC4/Serial_SPI_UART.c ****         }
 434:Generated_Source\PSoC4/Serial_SPI_UART.c ****         #else
 435:Generated_Source\PSoC4/Serial_SPI_UART.c ****         {
 436:Generated_Source\PSoC4/Serial_SPI_UART.c ****             Serial_CLEAR_TX_FIFO;
 437:Generated_Source\PSoC4/Serial_SPI_UART.c ****         }
 438:Generated_Source\PSoC4/Serial_SPI_UART.c ****         #endif
 439:Generated_Source\PSoC4/Serial_SPI_UART.c ****     }
 440:Generated_Source\PSoC4/Serial_SPI_UART.c **** 
 441:Generated_Source\PSoC4/Serial_SPI_UART.c **** #endif /* (Serial_TX_DIRECTION) */
 442:Generated_Source\PSoC4/Serial_SPI_UART.c **** 
 443:Generated_Source\PSoC4/Serial_SPI_UART.c **** 
 444:Generated_Source\PSoC4/Serial_SPI_UART.c **** /*******************************************************************************
 445:Generated_Source\PSoC4/Serial_SPI_UART.c **** * Function Name: Serial_SpiUartDisableIntRx
 446:Generated_Source\PSoC4/Serial_SPI_UART.c **** ****************************************************************************//**
 447:Generated_Source\PSoC4/Serial_SPI_UART.c **** *
 448:Generated_Source\PSoC4/Serial_SPI_UART.c **** *  Disables the RX interrupt sources.
 449:Generated_Source\PSoC4/Serial_SPI_UART.c **** *
 450:Generated_Source\PSoC4/Serial_SPI_UART.c **** *  \return
ARM GAS  C:\Users\TTSS\AppData\Local\Temp\ccFnBkQJ.s 			page 13


 451:Generated_Source\PSoC4/Serial_SPI_UART.c **** *   Returns the RX interrupt sources enabled before the function call.
 452:Generated_Source\PSoC4/Serial_SPI_UART.c **** *
 453:Generated_Source\PSoC4/Serial_SPI_UART.c **** *******************************************************************************/
 454:Generated_Source\PSoC4/Serial_SPI_UART.c **** uint32 Serial_SpiUartDisableIntRx(void)
 455:Generated_Source\PSoC4/Serial_SPI_UART.c **** {
 235              		.loc 1 455 0
 236              		.cfi_startproc
 237              		@ args = 0, pretend = 0, frame = 8
 238              		@ frame_needed = 1, uses_anonymous_args = 0
 239 0000 80B5     		push	{r7, lr}
 240              		.cfi_def_cfa_offset 8
 241              		.cfi_offset 7, -8
 242              		.cfi_offset 14, -4
 243 0002 82B0     		sub	sp, sp, #8
 244              		.cfi_def_cfa_offset 16
 245 0004 00AF     		add	r7, sp, #0
 246              		.cfi_def_cfa_register 7
 456:Generated_Source\PSoC4/Serial_SPI_UART.c ****     uint32 intSource;
 457:Generated_Source\PSoC4/Serial_SPI_UART.c **** 
 458:Generated_Source\PSoC4/Serial_SPI_UART.c ****     intSource = Serial_GetRxInterruptMode();
 247              		.loc 1 458 0
 248 0006 054B     		ldr	r3, .L18
 249 0008 1B68     		ldr	r3, [r3]
 250 000a 7B60     		str	r3, [r7, #4]
 459:Generated_Source\PSoC4/Serial_SPI_UART.c **** 
 460:Generated_Source\PSoC4/Serial_SPI_UART.c ****     Serial_SetRxInterruptMode(Serial_NO_INTR_SOURCES);
 251              		.loc 1 460 0
 252 000c 034B     		ldr	r3, .L18
 253 000e 0022     		movs	r2, #0
 254 0010 1A60     		str	r2, [r3]
 461:Generated_Source\PSoC4/Serial_SPI_UART.c **** 
 462:Generated_Source\PSoC4/Serial_SPI_UART.c ****     return (intSource);
 255              		.loc 1 462 0
 256 0012 7B68     		ldr	r3, [r7, #4]
 463:Generated_Source\PSoC4/Serial_SPI_UART.c **** }
 257              		.loc 1 463 0
 258 0014 1800     		movs	r0, r3
 259 0016 BD46     		mov	sp, r7
 260 0018 02B0     		add	sp, sp, #8
 261              		@ sp needed
 262 001a 80BD     		pop	{r7, pc}
 263              	.L19:
 264              		.align	2
 265              	.L18:
 266 001c C80F2440 		.word	1076105160
 267              		.cfi_endproc
 268              	.LFE5:
 269              		.size	Serial_SpiUartDisableIntRx, .-Serial_SpiUartDisableIntRx
 270              		.section	.text.Serial_SpiUartDisableIntTx,"ax",%progbits
 271              		.align	2
 272              		.global	Serial_SpiUartDisableIntTx
 273              		.code	16
 274              		.thumb_func
 275              		.type	Serial_SpiUartDisableIntTx, %function
 276              	Serial_SpiUartDisableIntTx:
 277              	.LFB6:
 464:Generated_Source\PSoC4/Serial_SPI_UART.c **** 
ARM GAS  C:\Users\TTSS\AppData\Local\Temp\ccFnBkQJ.s 			page 14


 465:Generated_Source\PSoC4/Serial_SPI_UART.c **** 
 466:Generated_Source\PSoC4/Serial_SPI_UART.c **** /*******************************************************************************
 467:Generated_Source\PSoC4/Serial_SPI_UART.c **** * Function Name: Serial_SpiUartDisableIntTx
 468:Generated_Source\PSoC4/Serial_SPI_UART.c **** ****************************************************************************//**
 469:Generated_Source\PSoC4/Serial_SPI_UART.c **** *
 470:Generated_Source\PSoC4/Serial_SPI_UART.c **** *  Disables TX interrupt sources.
 471:Generated_Source\PSoC4/Serial_SPI_UART.c **** *
 472:Generated_Source\PSoC4/Serial_SPI_UART.c **** *  \return
 473:Generated_Source\PSoC4/Serial_SPI_UART.c **** *   Returns TX interrupt sources enabled before function call.
 474:Generated_Source\PSoC4/Serial_SPI_UART.c **** *
 475:Generated_Source\PSoC4/Serial_SPI_UART.c **** *******************************************************************************/
 476:Generated_Source\PSoC4/Serial_SPI_UART.c **** uint32 Serial_SpiUartDisableIntTx(void)
 477:Generated_Source\PSoC4/Serial_SPI_UART.c **** {
 278              		.loc 1 477 0
 279              		.cfi_startproc
 280              		@ args = 0, pretend = 0, frame = 8
 281              		@ frame_needed = 1, uses_anonymous_args = 0
 282 0000 80B5     		push	{r7, lr}
 283              		.cfi_def_cfa_offset 8
 284              		.cfi_offset 7, -8
 285              		.cfi_offset 14, -4
 286 0002 82B0     		sub	sp, sp, #8
 287              		.cfi_def_cfa_offset 16
 288 0004 00AF     		add	r7, sp, #0
 289              		.cfi_def_cfa_register 7
 478:Generated_Source\PSoC4/Serial_SPI_UART.c ****     uint32 intSourceMask;
 479:Generated_Source\PSoC4/Serial_SPI_UART.c **** 
 480:Generated_Source\PSoC4/Serial_SPI_UART.c ****     intSourceMask = Serial_GetTxInterruptMode();
 290              		.loc 1 480 0
 291 0006 054B     		ldr	r3, .L22
 292 0008 1B68     		ldr	r3, [r3]
 293 000a 7B60     		str	r3, [r7, #4]
 481:Generated_Source\PSoC4/Serial_SPI_UART.c **** 
 482:Generated_Source\PSoC4/Serial_SPI_UART.c ****     Serial_SetTxInterruptMode(Serial_NO_INTR_SOURCES);
 294              		.loc 1 482 0
 295 000c 034B     		ldr	r3, .L22
 296 000e 0022     		movs	r2, #0
 297 0010 1A60     		str	r2, [r3]
 483:Generated_Source\PSoC4/Serial_SPI_UART.c **** 
 484:Generated_Source\PSoC4/Serial_SPI_UART.c ****     return (intSourceMask);
 298              		.loc 1 484 0
 299 0012 7B68     		ldr	r3, [r7, #4]
 485:Generated_Source\PSoC4/Serial_SPI_UART.c **** }
 300              		.loc 1 485 0
 301 0014 1800     		movs	r0, r3
 302 0016 BD46     		mov	sp, r7
 303 0018 02B0     		add	sp, sp, #8
 304              		@ sp needed
 305 001a 80BD     		pop	{r7, pc}
 306              	.L23:
 307              		.align	2
 308              	.L22:
 309 001c 880F2440 		.word	1076105096
 310              		.cfi_endproc
 311              	.LFE6:
 312              		.size	Serial_SpiUartDisableIntTx, .-Serial_SpiUartDisableIntTx
 313              		.text
ARM GAS  C:\Users\TTSS\AppData\Local\Temp\ccFnBkQJ.s 			page 15


 314              	.Letext0:
 315              		.file 2 "Generated_Source\\PSoC4/cytypes.h"