ARM GAS  C:\Users\TTSS\AppData\Local\Temp\ccN6gQB4.s 			page 1


   1              		.cpu cortex-m0
   2              		.fpu softvfp
   3              		.eabi_attribute 20, 1
   4              		.eabi_attribute 21, 1
   5              		.eabi_attribute 23, 3
   6              		.eabi_attribute 24, 1
   7              		.eabi_attribute 25, 1
   8              		.eabi_attribute 26, 1
   9              		.eabi_attribute 30, 6
  10              		.eabi_attribute 34, 0
  11              		.eabi_attribute 18, 4
  12              		.code	16
  13              		.file	"main.c"
  14              		.text
  15              	.Ltext0:
  16              		.cfi_sections	.debug_frame
  17              		.global	__aeabi_idiv
  18              		.section	.text.main,"ax",%progbits
  19              		.align	2
  20              		.global	main
  21              		.code	16
  22              		.thumb_func
  23              		.type	main, %function
  24              	main:
  25              	.LFB37:
  26              		.file 1 "main.c"
   1:main.c        **** /* ========================================
   2:main.c        ****  * Air Quality Beacon, part of the hackAIR project.
   3:main.c        ****  * Freely available under CC BY 4.0
   4:main.c        ****  *
   5:main.c        ****  *
   6:main.c        ****  * Author: George Doxastakis gdoxastakis.ee@gmail.com
   7:main.c        ****  * Technology Transfer & Smart Solutions
   8:main.c        ****  * TEI of Athens
   9:main.c        ****  * http://research.ee.teiath.gr/ttss/
  10:main.c        ****  *
  11:main.c        ****  * http://www.hackair.eu/
  12:main.c        **** */
  13:main.c        **** #include <project.h>
  14:main.c        **** 
  15:main.c        **** /* Function prototypes */  
  16:main.c        **** void StackEventHandler(uint32 event, void* eventParam);
  17:main.c        **** char* readParticles();
  18:main.c        **** 
  19:main.c        **** /* ADV payload dta structure */  
  20:main.c        **** extern CYBLE_GAPP_DISC_MODE_INFO_T cyBle_discoveryModeInfo;
  21:main.c        **** #define advPayload   (cyBle_discoveryModeInfo.advData->advData) 
  22:main.c        **** 
  23:main.c        **** 
  24:main.c        **** int main()
  25:main.c        **** {
  27              		.loc 1 25 0
  28              		.cfi_startproc
  29 0000 80B5     		push	{r7, lr}
  30              		.cfi_def_cfa_offset 8
  31              		.cfi_offset 7, -8
  32              		.cfi_offset 14, -4
ARM GAS  C:\Users\TTSS\AppData\Local\Temp\ccN6gQB4.s 			page 2


  33 0002 82B0     		sub	sp, sp, #8
  34              		.cfi_def_cfa_offset 16
  35 0004 00AF     		add	r7, sp, #0
  36              		.cfi_def_cfa_register 7
  26:main.c        ****     CyGlobalIntEnable; /* Enable global interrupts. */
  37              		.loc 1 26 0
  38              	@ 26 "main.c" 1
  39 0006 62B6     		CPSIE   i
  40              	@ 0 "" 2
  27:main.c        ****     Serial_Start();
  41              		.loc 1 27 0
  42              		.code	16
  43 0008 FFF7FEFF 		bl	Serial_Start
  28:main.c        ****     /* Start CYBLE component and register the generic event handler */
  29:main.c        ****     CyBle_Start(StackEventHandler);
  44              		.loc 1 29 0
  45 000c 324B     		ldr	r3, .L3
  46 000e 181C     		mov	r0, r3
  47 0010 FFF7FEFF 		bl	CyBle_Start
  48              	.L2:
  49              	.LBB2:
  30:main.c        ****     
  31:main.c        ****     for(;;)
  32:main.c        ****     {
  33:main.c        ****         STATUS_Write(1);CyDelay(300);STATUS_Write(0);
  50              		.loc 1 33 0 discriminator 1
  51 0014 0120     		mov	r0, #1
  52 0016 FFF7FEFF 		bl	STATUS_Write
  53 001a 9623     		mov	r3, #150
  54 001c 5B00     		lsl	r3, r3, #1
  55 001e 181C     		mov	r0, r3
  56 0020 FFF7FEFF 		bl	CyDelay
  57 0024 0020     		mov	r0, #0
  58 0026 FFF7FEFF 		bl	STATUS_Write
  34:main.c        ****         char *val=readParticles(); //Perform sensor measurement (waits for result)
  59              		.loc 1 34 0 discriminator 1
  60 002a FFF7FEFF 		bl	readParticles
  61 002e 031C     		mov	r3, r0
  62 0030 7B60     		str	r3, [r7, #4]
  35:main.c        ****         uint16 pmsmall= (val[3]*256 + val[2])/10; //PM2.5 value
  63              		.loc 1 35 0 discriminator 1
  64 0032 7B68     		ldr	r3, [r7, #4]
  65 0034 0333     		add	r3, r3, #3
  66 0036 1B78     		ldrb	r3, [r3]
  67 0038 1B02     		lsl	r3, r3, #8
  68 003a 7A68     		ldr	r2, [r7, #4]
  69 003c 0232     		add	r2, r2, #2
  70 003e 1278     		ldrb	r2, [r2]
  71 0040 9B18     		add	r3, r3, r2
  72 0042 181C     		mov	r0, r3
  73 0044 0A21     		mov	r1, #10
  74 0046 FFF7FEFF 		bl	__aeabi_idiv
  75 004a 031C     		mov	r3, r0
  76 004c 1A1C     		mov	r2, r3
  77 004e BB1C     		add	r3, r7, #2
  78 0050 1A80     		strh	r2, [r3]
  36:main.c        ****         uint16 pmlarge= (val[5]*256 + val[4])/10; //PM10 value
ARM GAS  C:\Users\TTSS\AppData\Local\Temp\ccN6gQB4.s 			page 3


  79              		.loc 1 36 0 discriminator 1
  80 0052 7B68     		ldr	r3, [r7, #4]
  81 0054 0533     		add	r3, r3, #5
  82 0056 1B78     		ldrb	r3, [r3]
  83 0058 1B02     		lsl	r3, r3, #8
  84 005a 7A68     		ldr	r2, [r7, #4]
  85 005c 0432     		add	r2, r2, #4
  86 005e 1278     		ldrb	r2, [r2]
  87 0060 9B18     		add	r3, r3, r2
  88 0062 181C     		mov	r0, r3
  89 0064 0A21     		mov	r1, #10
  90 0066 FFF7FEFF 		bl	__aeabi_idiv
  91 006a 031C     		mov	r3, r0
  92 006c 1A1C     		mov	r2, r3
  93 006e 3B1C     		mov	r3, r7
  94 0070 1A80     		strh	r2, [r3]
  37:main.c        ****         /* Dynamic payload will be continuously updated */
  38:main.c        ****         advPayload[19] =  0x02; //Sensor ID: 0x02 for SDS011
  95              		.loc 1 38 0 discriminator 1
  96 0072 1A4B     		ldr	r3, .L3+4
  97 0074 9B68     		ldr	r3, [r3, #8]
  98 0076 0222     		mov	r2, #2
  99 0078 DA74     		strb	r2, [r3, #19]
  39:main.c        ****         advPayload[21] =  0x00; //High byte of PM1 value - Not Available
 100              		.loc 1 39 0 discriminator 1
 101 007a 184B     		ldr	r3, .L3+4
 102 007c 9B68     		ldr	r3, [r3, #8]
 103 007e 0022     		mov	r2, #0
 104 0080 5A75     		strb	r2, [r3, #21]
  40:main.c        ****         advPayload[22] =  0x00; //Low byte of PM1 value - Not Available
 105              		.loc 1 40 0 discriminator 1
 106 0082 164B     		ldr	r3, .L3+4
 107 0084 9B68     		ldr	r3, [r3, #8]
 108 0086 0022     		mov	r2, #0
 109 0088 9A75     		strb	r2, [r3, #22]
  41:main.c        ****         advPayload[23] =  pmsmall>>8; //High byte of PM2.5 value
 110              		.loc 1 41 0 discriminator 1
 111 008a 144B     		ldr	r3, .L3+4
 112 008c 9B68     		ldr	r3, [r3, #8]
 113 008e BA1C     		add	r2, r7, #2
 114 0090 1288     		ldrh	r2, [r2]
 115 0092 120A     		lsr	r2, r2, #8
 116 0094 92B2     		uxth	r2, r2
 117 0096 D2B2     		uxtb	r2, r2
 118 0098 DA75     		strb	r2, [r3, #23]
  42:main.c        ****         advPayload[24] =  pmsmall&0xFF; //Low byte of PM2.5 value
 119              		.loc 1 42 0 discriminator 1
 120 009a 104B     		ldr	r3, .L3+4
 121 009c 9B68     		ldr	r3, [r3, #8]
 122 009e BA1C     		add	r2, r7, #2
 123 00a0 1288     		ldrh	r2, [r2]
 124 00a2 D2B2     		uxtb	r2, r2
 125 00a4 1A76     		strb	r2, [r3, #24]
  43:main.c        ****         advPayload[25] =  pmlarge>>8; //High byte of PM10 value
 126              		.loc 1 43 0 discriminator 1
 127 00a6 0D4B     		ldr	r3, .L3+4
 128 00a8 9B68     		ldr	r3, [r3, #8]
ARM GAS  C:\Users\TTSS\AppData\Local\Temp\ccN6gQB4.s 			page 4


 129 00aa 3A1C     		mov	r2, r7
 130 00ac 1288     		ldrh	r2, [r2]
 131 00ae 120A     		lsr	r2, r2, #8
 132 00b0 92B2     		uxth	r2, r2
 133 00b2 D2B2     		uxtb	r2, r2
 134 00b4 5A76     		strb	r2, [r3, #25]
  44:main.c        ****         advPayload[26] =  pmlarge&0xFF; //Low byte of PM10 value
 135              		.loc 1 44 0 discriminator 1
 136 00b6 094B     		ldr	r3, .L3+4
 137 00b8 9B68     		ldr	r3, [r3, #8]
 138 00ba 3A1C     		mov	r2, r7
 139 00bc 1288     		ldrh	r2, [r2]
 140 00be D2B2     		uxtb	r2, r2
 141 00c0 9A76     		strb	r2, [r3, #26]
  45:main.c        ****         CyBle_GapUpdateAdvData(cyBle_discoveryModeInfo.advData, cyBle_discoveryModeInfo.scanRspData
 142              		.loc 1 45 0 discriminator 1
 143 00c2 064B     		ldr	r3, .L3+4
 144 00c4 9A68     		ldr	r2, [r3, #8]
 145 00c6 054B     		ldr	r3, .L3+4
 146 00c8 DB68     		ldr	r3, [r3, #12]
 147 00ca 101C     		mov	r0, r2
 148 00cc 191C     		mov	r1, r3
 149 00ce FFF7FEFF 		bl	CyBle_GapUpdateAdvData
  46:main.c        ****         CyBle_ProcessEvents();
 150              		.loc 1 46 0 discriminator 1
 151 00d2 FFF7FEFF 		bl	CyBle_ProcessEvents
 152              	.LBE2:
  47:main.c        ****     }
 153              		.loc 1 47 0 discriminator 1
 154 00d6 9DE7     		b	.L2
 155              	.L4:
 156              		.align	2
 157              	.L3:
 158 00d8 00000000 		.word	StackEventHandler
 159 00dc 00000000 		.word	cyBle_discoveryModeInfo
 160              		.cfi_endproc
 161              	.LFE37:
 162              		.size	main, .-main
 163              		.section	.text.StackEventHandler,"ax",%progbits
 164              		.align	2
 165              		.global	StackEventHandler
 166              		.code	16
 167              		.thumb_func
 168              		.type	StackEventHandler, %function
 169              	StackEventHandler:
 170              	.LFB38:
  48:main.c        **** }
  49:main.c        **** 
  50:main.c        **** void StackEventHandler(uint32 event, void *eventParam)
  51:main.c        **** {
 171              		.loc 1 51 0
 172              		.cfi_startproc
 173 0000 80B5     		push	{r7, lr}
 174              		.cfi_def_cfa_offset 8
 175              		.cfi_offset 7, -8
 176              		.cfi_offset 14, -4
 177 0002 82B0     		sub	sp, sp, #8
ARM GAS  C:\Users\TTSS\AppData\Local\Temp\ccN6gQB4.s 			page 5


 178              		.cfi_def_cfa_offset 16
 179 0004 00AF     		add	r7, sp, #0
 180              		.cfi_def_cfa_register 7
 181 0006 7860     		str	r0, [r7, #4]
 182 0008 3960     		str	r1, [r7]
  52:main.c        ****     switch(event)
 183              		.loc 1 52 0
 184 000a 7B68     		ldr	r3, [r7, #4]
 185 000c 012B     		cmp	r3, #1
 186 000e 00D0     		beq	.L7
  53:main.c        ****     {
  54:main.c        ****         
  55:main.c        **** 		case CYBLE_EVT_STACK_ON:
  56:main.c        **** 			/* BLE stack is on. Start BLE advertisement */   
  57:main.c        **** 			CyBle_GappStartAdvertisement(CYBLE_ADVERTISING_FAST);
  58:main.c        **** 		    break;
  59:main.c        **** 		
  60:main.c        ****         default:
  61:main.c        ****             break;
 187              		.loc 1 61 0
 188 0010 03E0     		b	.L5
 189              	.L7:
  57:main.c        **** 		    break;
 190              		.loc 1 57 0
 191 0012 0020     		mov	r0, #0
 192 0014 FFF7FEFF 		bl	CyBle_GappStartAdvertisement
  58:main.c        **** 		
 193              		.loc 1 58 0
 194 0018 C046     		mov	r8, r8
 195              	.L5:
  62:main.c        ****     }   	
  63:main.c        **** 
  64:main.c        **** }
 196              		.loc 1 64 0
 197 001a BD46     		mov	sp, r7
 198 001c 02B0     		add	sp, sp, #8
 199              		@ sp needed
 200 001e 80BD     		pop	{r7, pc}
 201              		.cfi_endproc
 202              	.LFE38:
 203              		.size	StackEventHandler, .-StackEventHandler
 204              		.section	.text.readParticles,"ax",%progbits
 205              		.align	2
 206              		.global	readParticles
 207              		.code	16
 208              		.thumb_func
 209              		.type	readParticles, %function
 210              	readParticles:
 211              	.LFB39:
  65:main.c        **** 
  66:main.c        **** /*******************************************************************
  67:main.c        **** * NAME :            char* readParticles()
  68:main.c        **** *
  69:main.c        **** * DESCRIPTION :     Read sensor measurement
  70:main.c        **** * OUTPUTS :
  71:main.c        **** *       char* Sensor TX packet
  72:main.c        **** */
ARM GAS  C:\Users\TTSS\AppData\Local\Temp\ccN6gQB4.s 			page 6


  73:main.c        **** char* readParticles(){
 212              		.loc 1 73 0
 213              		.cfi_startproc
 214 0000 80B5     		push	{r7, lr}
 215              		.cfi_def_cfa_offset 8
 216              		.cfi_offset 7, -8
 217              		.cfi_offset 14, -4
 218 0002 82B0     		sub	sp, sp, #8
 219              		.cfi_def_cfa_offset 16
 220 0004 00AF     		add	r7, sp, #0
 221              		.cfi_def_cfa_register 7
  74:main.c        ****     int idx;
  75:main.c        ****     static char senData[10];
  76:main.c        ****     senData[0]=0xAA;
 222              		.loc 1 76 0
 223 0006 114B     		ldr	r3, .L14
 224 0008 AA22     		mov	r2, #170
 225 000a 1A70     		strb	r2, [r3]
  77:main.c        ****     while(Serial_UartGetChar()!= 0xAA); // Wait for start character
 226              		.loc 1 77 0
 227 000c C046     		mov	r8, r8
 228              	.L10:
 229              		.loc 1 77 0 is_stmt 0 discriminator 1
 230 000e FFF7FEFF 		bl	Serial_UartGetChar
 231 0012 031E     		sub	r3, r0, #0
 232 0014 AA2B     		cmp	r3, #170
 233 0016 FAD1     		bne	.L10
  78:main.c        ****     for(idx=1;idx<10;idx++){ // Read TX packet
 234              		.loc 1 78 0 is_stmt 1
 235 0018 0123     		mov	r3, #1
 236 001a 7B60     		str	r3, [r7, #4]
 237 001c 0EE0     		b	.L11
 238              	.L12:
  79:main.c        ****         CyDelay(10); // Wait for data
 239              		.loc 1 79 0 discriminator 3
 240 001e 0A20     		mov	r0, #10
 241 0020 FFF7FEFF 		bl	CyDelay
  80:main.c        ****         senData[idx]=Serial_UartGetChar();// Get next byte
 242              		.loc 1 80 0 discriminator 3
 243 0024 FFF7FEFF 		bl	Serial_UartGetChar
 244 0028 031C     		mov	r3, r0
 245 002a D9B2     		uxtb	r1, r3
 246 002c 074A     		ldr	r2, .L14
 247 002e 7B68     		ldr	r3, [r7, #4]
 248 0030 D318     		add	r3, r2, r3
 249 0032 0A1C     		add	r2, r1, #0
 250 0034 1A70     		strb	r2, [r3]
  78:main.c        ****     for(idx=1;idx<10;idx++){ // Read TX packet
 251              		.loc 1 78 0 discriminator 3
 252 0036 7B68     		ldr	r3, [r7, #4]
 253 0038 0133     		add	r3, r3, #1
 254 003a 7B60     		str	r3, [r7, #4]
 255              	.L11:
  78:main.c        ****     for(idx=1;idx<10;idx++){ // Read TX packet
 256              		.loc 1 78 0 is_stmt 0 discriminator 1
 257 003c 7B68     		ldr	r3, [r7, #4]
 258 003e 092B     		cmp	r3, #9
ARM GAS  C:\Users\TTSS\AppData\Local\Temp\ccN6gQB4.s 			page 7


 259 0040 EDDD     		ble	.L12
  81:main.c        ****     }
  82:main.c        ****     return senData;
 260              		.loc 1 82 0 is_stmt 1
 261 0042 024B     		ldr	r3, .L14
  83:main.c        **** }
 262              		.loc 1 83 0
 263 0044 181C     		mov	r0, r3
 264 0046 BD46     		mov	sp, r7
 265 0048 02B0     		add	sp, sp, #8
 266              		@ sp needed
 267 004a 80BD     		pop	{r7, pc}
 268              	.L15:
 269              		.align	2
 270              	.L14:
 271 004c 00000000 		.word	senData.6536
 272              		.cfi_endproc
 273              	.LFE39:
 274              		.size	readParticles, .-readParticles
 275              		.bss
 276              		.align	2
 277              	senData.6536:
 278 0000 00000000 		.space	10
 278      00000000 
 278      0000
 279 000a 0000     		.text
 280              	.Letext0:
 281              		.file 2 "Generated_Source\\PSoC4/cytypes.h"
 282              		.file 3 "Generated_Source\\PSoC4/BLE_Stack.h"
 283              		.file 4 "Generated_Source\\PSoC4/BLE_StackGap.h"