ARM GAS  C:\Users\TTSS\AppData\Local\Temp\ccwoAHLq.s 			page 1


   1              		.cpu cortex-m0
   2              		.fpu softvfp
   3              		.eabi_attribute 20, 1
   4              		.eabi_attribute 21, 1
   5              		.eabi_attribute 23, 3
   6              		.eabi_attribute 24, 1
   7              		.eabi_attribute 25, 1
   8              		.eabi_attribute 26, 1
   9              		.eabi_attribute 30, 6
  10              		.eabi_attribute 34, 0
  11              		.eabi_attribute 18, 4
  12              		.code	16
  13              		.file	"BLE_eventHandler.c"
  14              		.text
  15              	.Ltext0:
  16              		.cfi_sections	.debug_frame
  17              		.comm	cyBle_connHandle,2,4
  18              		.comm	cyBle_eventHandlerFlag,1,1
  19              		.comm	cyBle_busyStatus,1,1
  20              		.comm	cyBle_advertisingIntervalType,1,1
  21              		.global	cyBle_authInfo
  22              		.data
  23              		.align	2
  24              		.type	cyBle_authInfo, %object
  25              		.size	cyBle_authInfo, 4
  26              	cyBle_authInfo:
  27 0000 10       		.byte	16
  28 0001 01       		.byte	1
  29 0002 10       		.byte	16
  30 0003 00       		.byte	0
  31              		.section	.text.CyBle_WriteReqHandler,"ax",%progbits
  32              		.align	2
  33              		.code	16
  34              		.thumb_func
  35              		.type	CyBle_WriteReqHandler, %function
  36              	CyBle_WriteReqHandler:
  37              	.LFB2:
  38              		.file 1 "Generated_Source\\PSoC4\\BLE_eventHandler.c"
   1:Generated_Source\PSoC4/BLE_eventHandler.c **** /*******************************************************************************
   2:Generated_Source\PSoC4/BLE_eventHandler.c **** File Name: CYBLE_eventHandler.c
   3:Generated_Source\PSoC4/BLE_eventHandler.c **** Version 2.0
   4:Generated_Source\PSoC4/BLE_eventHandler.c **** 
   5:Generated_Source\PSoC4/BLE_eventHandler.c **** Description:
   6:Generated_Source\PSoC4/BLE_eventHandler.c ****  This file contains the source code for the Event Handler State Machine
   7:Generated_Source\PSoC4/BLE_eventHandler.c ****  of the BLE Component.
   8:Generated_Source\PSoC4/BLE_eventHandler.c **** 
   9:Generated_Source\PSoC4/BLE_eventHandler.c **** ********************************************************************************
  10:Generated_Source\PSoC4/BLE_eventHandler.c **** Copyright 2014-2015, Cypress Semiconductor Corporation.  All rights reserved.
  11:Generated_Source\PSoC4/BLE_eventHandler.c **** You may use this file only in accordance with the license, terms, conditions,
  12:Generated_Source\PSoC4/BLE_eventHandler.c **** disclaimers, and limitations in the end user license agreement accompanying
  13:Generated_Source\PSoC4/BLE_eventHandler.c **** the software package with which this file was provided.
  14:Generated_Source\PSoC4/BLE_eventHandler.c **** *******************************************************************************/
  15:Generated_Source\PSoC4/BLE_eventHandler.c **** 
  16:Generated_Source\PSoC4/BLE_eventHandler.c **** #include "BLE_eventHandler.h"
  17:Generated_Source\PSoC4/BLE_eventHandler.c **** 
  18:Generated_Source\PSoC4/BLE_eventHandler.c **** 
  19:Generated_Source\PSoC4/BLE_eventHandler.c **** /***************************************
ARM GAS  C:\Users\TTSS\AppData\Local\Temp\ccwoAHLq.s 			page 2


  20:Generated_Source\PSoC4/BLE_eventHandler.c **** ##Private Function Prototypes
  21:Generated_Source\PSoC4/BLE_eventHandler.c **** ***************************************/
  22:Generated_Source\PSoC4/BLE_eventHandler.c **** 
  23:Generated_Source\PSoC4/BLE_eventHandler.c **** #if (CYBLE_GATT_ROLE_SERVER || CYBLE_GATT_ROLE_CLIENT)
  24:Generated_Source\PSoC4/BLE_eventHandler.c **** 
  25:Generated_Source\PSoC4/BLE_eventHandler.c **** static uint8 CyBle_IsDeviceAddressValid(const CYBLE_GAP_BD_ADDR_T *sflashDeviceAddress);
  26:Generated_Source\PSoC4/BLE_eventHandler.c **** 
  27:Generated_Source\PSoC4/BLE_eventHandler.c **** #endif /* CYBLE_GATT_ROLE_SERVER || CYBLE_GATT_ROLE_CLIENT */
  28:Generated_Source\PSoC4/BLE_eventHandler.c **** 
  29:Generated_Source\PSoC4/BLE_eventHandler.c **** static void CyBle_GattDisconnectEventHandler(void);
  30:Generated_Source\PSoC4/BLE_eventHandler.c **** static void CyBle_TimeOutEventHandler(const CYBLE_TO_REASON_CODE_T *eventParam);
  31:Generated_Source\PSoC4/BLE_eventHandler.c **** static void CyBle_GattConnectReqHandler(void);
  32:Generated_Source\PSoC4/BLE_eventHandler.c **** static void CyBle_L2Cap_ConnParamUpdateRspEventHandler(uint16 response);
  33:Generated_Source\PSoC4/BLE_eventHandler.c **** static void CyBle_GapConnUpdateCompleteEventHandler(const CYBLE_GAP_CONN_PARAM_UPDATED_IN_CONTROLLE
  34:Generated_Source\PSoC4/BLE_eventHandler.c **** 
  35:Generated_Source\PSoC4/BLE_eventHandler.c **** 
  36:Generated_Source\PSoC4/BLE_eventHandler.c **** #if (CYBLE_GATT_ROLE_SERVER)
  37:Generated_Source\PSoC4/BLE_eventHandler.c **** 
  38:Generated_Source\PSoC4/BLE_eventHandler.c **** static void CyBle_WriteReqHandler(CYBLE_GATTS_WRITE_REQ_PARAM_T *eventParam);
  39:Generated_Source\PSoC4/BLE_eventHandler.c **** static void CyBle_ValueConfirmation(const CYBLE_CONN_HANDLE_T *eventParam);
  40:Generated_Source\PSoC4/BLE_eventHandler.c **** 
  41:Generated_Source\PSoC4/BLE_eventHandler.c **** #endif /* CYBLE_GATT_ROLE_SERVER */
  42:Generated_Source\PSoC4/BLE_eventHandler.c **** 
  43:Generated_Source\PSoC4/BLE_eventHandler.c **** #if (CYBLE_GATT_ROLE_CLIENT)
  44:Generated_Source\PSoC4/BLE_eventHandler.c **** 
  45:Generated_Source\PSoC4/BLE_eventHandler.c **** static void CyBle_GapcDiscoverCharacteristicsEventHandler(CYBLE_DISC_CHAR_INFO_T *discCharInfo);
  46:Generated_Source\PSoC4/BLE_eventHandler.c **** static CYBLE_GATT_ATTR_HANDLE_RANGE_T CyBle_GetCharRange(void);
  47:Generated_Source\PSoC4/BLE_eventHandler.c **** static void CyBle_GattcWriteResponseEventHandler(const CYBLE_CONN_HANDLE_T *eventParam);
  48:Generated_Source\PSoC4/BLE_eventHandler.c **** static void CyBle_NotificationEventHandler(CYBLE_GATTC_HANDLE_VALUE_NTF_PARAM_T *eventParam);
  49:Generated_Source\PSoC4/BLE_eventHandler.c **** static void CyBle_IndicationEventHandler(CYBLE_GATTC_HANDLE_VALUE_IND_PARAM_T *eventParam);
  50:Generated_Source\PSoC4/BLE_eventHandler.c **** static void CyBle_ReadResponseEventHandler(CYBLE_GATTC_READ_RSP_PARAM_T *eventParam);
  51:Generated_Source\PSoC4/BLE_eventHandler.c **** 
  52:Generated_Source\PSoC4/BLE_eventHandler.c **** #endif /* CYBLE_GATT_ROLE_CLIENT */
  53:Generated_Source\PSoC4/BLE_eventHandler.c **** 
  54:Generated_Source\PSoC4/BLE_eventHandler.c **** 
  55:Generated_Source\PSoC4/BLE_eventHandler.c **** /***************************************
  56:Generated_Source\PSoC4/BLE_eventHandler.c **** ##Global Variables
  57:Generated_Source\PSoC4/BLE_eventHandler.c **** ***************************************/
  58:Generated_Source\PSoC4/BLE_eventHandler.c **** 
  59:Generated_Source\PSoC4/BLE_eventHandler.c **** /* This global variable is initialized after connection with peer device, 
  60:Generated_Source\PSoC4/BLE_eventHandler.c ****    after CYBLE_EVT_GATT_CONNECT_IND event, and could be used by application code
  61:Generated_Source\PSoC4/BLE_eventHandler.c ****    to send data to peer device. 
  62:Generated_Source\PSoC4/BLE_eventHandler.c **** */
  63:Generated_Source\PSoC4/BLE_eventHandler.c **** CYBLE_CONN_HANDLE_T cyBle_connHandle;
  64:Generated_Source\PSoC4/BLE_eventHandler.c **** 
  65:Generated_Source\PSoC4/BLE_eventHandler.c **** volatile uint8 cyBle_eventHandlerFlag;
  66:Generated_Source\PSoC4/BLE_eventHandler.c **** volatile uint8 cyBle_busyStatus;
  67:Generated_Source\PSoC4/BLE_eventHandler.c **** 
  68:Generated_Source\PSoC4/BLE_eventHandler.c **** #if(CYBLE_GAP_ROLE_PERIPHERAL || CYBLE_GAP_ROLE_BROADCASTER) 
  69:Generated_Source\PSoC4/BLE_eventHandler.c ****     uint8 cyBle_advertisingIntervalType;
  70:Generated_Source\PSoC4/BLE_eventHandler.c **** #endif /* CYBLE_GAP_ROLE_PERIPHERAL || CYBLE_GAP_ROLE_BROADCASTER) */
  71:Generated_Source\PSoC4/BLE_eventHandler.c **** 
  72:Generated_Source\PSoC4/BLE_eventHandler.c **** #if(CYBLE_GAP_ROLE_CENTRAL || CYBLE_GAP_ROLE_OBSERVER) 
  73:Generated_Source\PSoC4/BLE_eventHandler.c ****     uint8 cyBle_scanningIntervalType;
  74:Generated_Source\PSoC4/BLE_eventHandler.c **** #endif /* CYBLE_GAP_ROLE_CENTRAL || CYBLE_GAP_ROLE_OBSERVER */
  75:Generated_Source\PSoC4/BLE_eventHandler.c **** 
  76:Generated_Source\PSoC4/BLE_eventHandler.c **** #if(CYBLE_GATT_ROLE_SERVER)
ARM GAS  C:\Users\TTSS\AppData\Local\Temp\ccwoAHLq.s 			page 3


  77:Generated_Source\PSoC4/BLE_eventHandler.c **** #if defined CYBLE_CTS_SERVER || defined CYBLE_ESS_SERVER
  78:Generated_Source\PSoC4/BLE_eventHandler.c **** CYBLE_GATT_ERR_CODE_T cyBle_gattError;
  79:Generated_Source\PSoC4/BLE_eventHandler.c **** #endif /* defined CYBLE_CTS_SERVER || defined CYBLE_ESS_SERVER */
  80:Generated_Source\PSoC4/BLE_eventHandler.c **** #endif /* CYBLE_GATT_ROLE_SERVER */
  81:Generated_Source\PSoC4/BLE_eventHandler.c **** 
  82:Generated_Source\PSoC4/BLE_eventHandler.c **** #if(CYBLE_GATT_ROLE_CLIENT)
  83:Generated_Source\PSoC4/BLE_eventHandler.c **** uint8 cyBle_disCount; /* Counter for discovery procedures */
  84:Generated_Source\PSoC4/BLE_eventHandler.c **** static CYBLE_GATT_DB_ATTR_HANDLE_T cyBle_charEndHandle;
  85:Generated_Source\PSoC4/BLE_eventHandler.c **** /* Discovery included service information, used for 128-bit UUID read response handle 
  86:Generated_Source\PSoC4/BLE_eventHandler.c ****    and for continue discovery. 
  87:Generated_Source\PSoC4/BLE_eventHandler.c **** */
  88:Generated_Source\PSoC4/BLE_eventHandler.c **** static CYBLE_DISC_INCL_INFO_T cyBle_discInclInfo;
  89:Generated_Source\PSoC4/BLE_eventHandler.c **** #ifdef CYBLE_HIDS_CLIENT
  90:Generated_Source\PSoC4/BLE_eventHandler.c ****     static uint8 disServiceIndex;      /* To discovery descriptors for multiple HID service instanc
  91:Generated_Source\PSoC4/BLE_eventHandler.c **** #endif /* CYBLE_HIDS_CLIENT */
  92:Generated_Source\PSoC4/BLE_eventHandler.c **** 
  93:Generated_Source\PSoC4/BLE_eventHandler.c **** CYBLE_DISC_SRVC_INFO_T cyBle_serverInfo[CYBLE_SRVI_COUNT] = /*3*/
  94:Generated_Source\PSoC4/BLE_eventHandler.c **** {
  95:Generated_Source\PSoC4/BLE_eventHandler.c ****     {{CYBLE_GATT_INVALID_ATTR_HANDLE_VALUE, CYBLE_GATT_INVALID_ATTR_HANDLE_VALUE}, CYBLE_UUID_GAP_S
  96:Generated_Source\PSoC4/BLE_eventHandler.c ****     {{CYBLE_GATT_INVALID_ATTR_HANDLE_VALUE, CYBLE_GATT_INVALID_ATTR_HANDLE_VALUE}, CYBLE_UUID_GATT_
  97:Generated_Source\PSoC4/BLE_eventHandler.c **** #ifdef CYBLE_ANCS_CLIENT
  98:Generated_Source\PSoC4/BLE_eventHandler.c ****     {{CYBLE_GATT_INVALID_ATTR_HANDLE_VALUE, CYBLE_GATT_INVALID_ATTR_HANDLE_VALUE}, 0x0000u},
  99:Generated_Source\PSoC4/BLE_eventHandler.c **** #endif /* CYBLE_ANCS_CLIENT */
 100:Generated_Source\PSoC4/BLE_eventHandler.c **** #ifdef CYBLE_ANS_CLIENT
 101:Generated_Source\PSoC4/BLE_eventHandler.c ****     {{CYBLE_GATT_INVALID_ATTR_HANDLE_VALUE, CYBLE_GATT_INVALID_ATTR_HANDLE_VALUE}, 
 102:Generated_Source\PSoC4/BLE_eventHandler.c ****         CYBLE_UUID_ALERT_NOTIFICATION_SERVICE},
 103:Generated_Source\PSoC4/BLE_eventHandler.c **** #endif /* CYBLE_ANS_CLIENT */
 104:Generated_Source\PSoC4/BLE_eventHandler.c **** #ifdef CYBLE_BAS_CLIENT
 105:Generated_Source\PSoC4/BLE_eventHandler.c ****     {{CYBLE_GATT_INVALID_ATTR_HANDLE_VALUE, CYBLE_GATT_INVALID_ATTR_HANDLE_VALUE}, CYBLE_UUID_BAS_S
 106:Generated_Source\PSoC4/BLE_eventHandler.c ****     #if(CYBLE_BASC_SERVICE_COUNT > 1u) /* Generate it by GUI */
 107:Generated_Source\PSoC4/BLE_eventHandler.c ****         
 108:Generated_Source\PSoC4/BLE_eventHandler.c ****     #endif /* CYBLE_BASC_SERVICE_COUNT > 1u */
 109:Generated_Source\PSoC4/BLE_eventHandler.c **** #endif /* CYBLE_BAS_CLIENT */
 110:Generated_Source\PSoC4/BLE_eventHandler.c **** #ifdef CYBLE_BLS_CLIENT
 111:Generated_Source\PSoC4/BLE_eventHandler.c ****     {{CYBLE_GATT_INVALID_ATTR_HANDLE_VALUE, CYBLE_GATT_INVALID_ATTR_HANDLE_VALUE}, CYBLE_UUID_BLOOD
 112:Generated_Source\PSoC4/BLE_eventHandler.c **** #endif /* CYBLE_BLS_CLIENT */
 113:Generated_Source\PSoC4/BLE_eventHandler.c **** #ifdef CYBLE_BMS_CLIENT
 114:Generated_Source\PSoC4/BLE_eventHandler.c ****     {{CYBLE_GATT_INVALID_ATTR_HANDLE_VALUE, CYBLE_GATT_INVALID_ATTR_HANDLE_VALUE}, CYBLE_UUID_BOND_
 115:Generated_Source\PSoC4/BLE_eventHandler.c **** #endif /* CYBLE_BMS_CLIENT */
 116:Generated_Source\PSoC4/BLE_eventHandler.c **** #ifdef CYBLE_CGMS_CLIENT
 117:Generated_Source\PSoC4/BLE_eventHandler.c ****     {{CYBLE_GATT_INVALID_ATTR_HANDLE_VALUE, CYBLE_GATT_INVALID_ATTR_HANDLE_VALUE}, CYBLE_UUID_CGM_S
 118:Generated_Source\PSoC4/BLE_eventHandler.c **** #endif /* CYBLE_CGMS_CLIENT */
 119:Generated_Source\PSoC4/BLE_eventHandler.c **** #ifdef CYBLE_CPS_CLIENT
 120:Generated_Source\PSoC4/BLE_eventHandler.c ****     {{CYBLE_GATT_INVALID_ATTR_HANDLE_VALUE, CYBLE_GATT_INVALID_ATTR_HANDLE_VALUE}, CYBLE_UUID_CPS_S
 121:Generated_Source\PSoC4/BLE_eventHandler.c **** #endif /* CYBLE_CPS_CLIENT */
 122:Generated_Source\PSoC4/BLE_eventHandler.c **** #ifdef CYBLE_CSCS_CLIENT
 123:Generated_Source\PSoC4/BLE_eventHandler.c ****     {{CYBLE_GATT_INVALID_ATTR_HANDLE_VALUE, CYBLE_GATT_INVALID_ATTR_HANDLE_VALUE}, 
 124:Generated_Source\PSoC4/BLE_eventHandler.c ****         CYBLE_UUID_CYCLING_SPEED_AND_CADENCE_SERVICE},
 125:Generated_Source\PSoC4/BLE_eventHandler.c **** #endif /* CYBLE_CSCS_CLIENT */
 126:Generated_Source\PSoC4/BLE_eventHandler.c **** #ifdef CYBLE_CTS_CLIENT
 127:Generated_Source\PSoC4/BLE_eventHandler.c ****     {{CYBLE_GATT_INVALID_ATTR_HANDLE_VALUE, CYBLE_GATT_INVALID_ATTR_HANDLE_VALUE}, CYBLE_UUID_CURRE
 128:Generated_Source\PSoC4/BLE_eventHandler.c **** #endif /* CYBLE_CTS_CLIENT */
 129:Generated_Source\PSoC4/BLE_eventHandler.c **** #ifdef CYBLE_CUSTOM_CLIENT
 130:Generated_Source\PSoC4/BLE_eventHandler.c ****     
 131:Generated_Source\PSoC4/BLE_eventHandler.c **** #endif /* CYBLE_CUSTOM_CLIENT */
 132:Generated_Source\PSoC4/BLE_eventHandler.c **** #ifdef CYBLE_DIS_CLIENT
 133:Generated_Source\PSoC4/BLE_eventHandler.c ****     {{CYBLE_GATT_INVALID_ATTR_HANDLE_VALUE, CYBLE_GATT_INVALID_ATTR_HANDLE_VALUE}, CYBLE_UUID_DEVIC
ARM GAS  C:\Users\TTSS\AppData\Local\Temp\ccwoAHLq.s 			page 4


 134:Generated_Source\PSoC4/BLE_eventHandler.c **** #endif /* CYBLE_DIS_CLIENT */
 135:Generated_Source\PSoC4/BLE_eventHandler.c **** #ifdef CYBLE_ESS_CLIENT
 136:Generated_Source\PSoC4/BLE_eventHandler.c ****     {{CYBLE_GATT_INVALID_ATTR_HANDLE_VALUE, CYBLE_GATT_INVALID_ATTR_HANDLE_VALUE}, 
 137:Generated_Source\PSoC4/BLE_eventHandler.c ****         CYBLE_UUID_ENVIRONMENTAL_SENSING_SERVICE},
 138:Generated_Source\PSoC4/BLE_eventHandler.c **** #endif /* CYBLE_ESS_CLIENT */
 139:Generated_Source\PSoC4/BLE_eventHandler.c **** #ifdef CYBLE_GLS_CLIENT
 140:Generated_Source\PSoC4/BLE_eventHandler.c ****     {{CYBLE_GATT_INVALID_ATTR_HANDLE_VALUE, CYBLE_GATT_INVALID_ATTR_HANDLE_VALUE}, CYBLE_UUID_GLUCO
 141:Generated_Source\PSoC4/BLE_eventHandler.c **** #endif /* CYBLE_GLS_CLIENT */
 142:Generated_Source\PSoC4/BLE_eventHandler.c **** #ifdef CYBLE_HIDS_CLIENT
 143:Generated_Source\PSoC4/BLE_eventHandler.c ****     {{CYBLE_GATT_INVALID_ATTR_HANDLE_VALUE, CYBLE_GATT_INVALID_ATTR_HANDLE_VALUE}, CYBLE_UUID_HIDS_
 144:Generated_Source\PSoC4/BLE_eventHandler.c ****     #if(CYBLE_HIDSC_SERVICE_COUNT > 1u) /* Generate it by GUI */
 145:Generated_Source\PSoC4/BLE_eventHandler.c ****         
 146:Generated_Source\PSoC4/BLE_eventHandler.c ****     #endif /* CYBLE_HIDSC_SERVICE_COUNT > 1u */
 147:Generated_Source\PSoC4/BLE_eventHandler.c **** #endif /* CYBLE_HIDS_CLIENT */
 148:Generated_Source\PSoC4/BLE_eventHandler.c **** #ifdef CYBLE_HRS_CLIENT
 149:Generated_Source\PSoC4/BLE_eventHandler.c ****     {{CYBLE_GATT_INVALID_ATTR_HANDLE_VALUE, CYBLE_GATT_INVALID_ATTR_HANDLE_VALUE}, CYBLE_UUID_HEART
 150:Generated_Source\PSoC4/BLE_eventHandler.c **** #endif /* CYBLE_HRS_CLIENT */
 151:Generated_Source\PSoC4/BLE_eventHandler.c **** #ifdef CYBLE_HTS_CLIENT
 152:Generated_Source\PSoC4/BLE_eventHandler.c ****     {{CYBLE_GATT_INVALID_ATTR_HANDLE_VALUE, CYBLE_GATT_INVALID_ATTR_HANDLE_VALUE}, CYBLE_UUID_HEALT
 153:Generated_Source\PSoC4/BLE_eventHandler.c **** #endif /* CYBLE_HTS_CLIENT */
 154:Generated_Source\PSoC4/BLE_eventHandler.c **** #ifdef CYBLE_IAS_CLIENT
 155:Generated_Source\PSoC4/BLE_eventHandler.c ****     {{CYBLE_GATT_INVALID_ATTR_HANDLE_VALUE, CYBLE_GATT_INVALID_ATTR_HANDLE_VALUE}, CYBLE_UUID_IMMED
 156:Generated_Source\PSoC4/BLE_eventHandler.c **** #endif /* CYBLE_IAS_CLIENT */
 157:Generated_Source\PSoC4/BLE_eventHandler.c **** #ifdef CYBLE_LLS_CLIENT
 158:Generated_Source\PSoC4/BLE_eventHandler.c ****     {{CYBLE_GATT_INVALID_ATTR_HANDLE_VALUE, CYBLE_GATT_INVALID_ATTR_HANDLE_VALUE}, CYBLE_UUID_LINK_
 159:Generated_Source\PSoC4/BLE_eventHandler.c **** #endif /* CYBLE_LLS_CLIENT */
 160:Generated_Source\PSoC4/BLE_eventHandler.c **** #ifdef CYBLE_LNS_CLIENT
 161:Generated_Source\PSoC4/BLE_eventHandler.c ****     {{CYBLE_GATT_INVALID_ATTR_HANDLE_VALUE, CYBLE_GATT_INVALID_ATTR_HANDLE_VALUE}, CYBLE_UUID_LOCAT
 162:Generated_Source\PSoC4/BLE_eventHandler.c **** #endif /* CYBLE_LNS_CLIENT */
 163:Generated_Source\PSoC4/BLE_eventHandler.c **** #ifdef CYBLE_NDCS_CLIENT
 164:Generated_Source\PSoC4/BLE_eventHandler.c ****     {{CYBLE_GATT_INVALID_ATTR_HANDLE_VALUE, CYBLE_GATT_INVALID_ATTR_HANDLE_VALUE}, CYBLE_UUID_NEXT_
 165:Generated_Source\PSoC4/BLE_eventHandler.c **** #endif /* CYBLE_NDCS_CLIENT */
 166:Generated_Source\PSoC4/BLE_eventHandler.c **** #ifdef CYBLE_IPSS_CLIENT
 167:Generated_Source\PSoC4/BLE_eventHandler.c ****     {{CYBLE_GATT_INVALID_ATTR_HANDLE_VALUE, CYBLE_GATT_INVALID_ATTR_HANDLE_VALUE}, CYBLE_UUID_INTER
 168:Generated_Source\PSoC4/BLE_eventHandler.c **** #endif /* CYBLE_IPSS_CLIENT */
 169:Generated_Source\PSoC4/BLE_eventHandler.c **** #ifdef CYBLE_PASS_CLIENT
 170:Generated_Source\PSoC4/BLE_eventHandler.c ****     {{CYBLE_GATT_INVALID_ATTR_HANDLE_VALUE, CYBLE_GATT_INVALID_ATTR_HANDLE_VALUE}, CYBLE_UUID_PHONE
 171:Generated_Source\PSoC4/BLE_eventHandler.c **** #endif /* CYBLE_PASS_CLIENT */
 172:Generated_Source\PSoC4/BLE_eventHandler.c **** #ifdef CYBLE_RSCS_CLIENT
 173:Generated_Source\PSoC4/BLE_eventHandler.c ****     {{CYBLE_GATT_INVALID_ATTR_HANDLE_VALUE, CYBLE_GATT_INVALID_ATTR_HANDLE_VALUE}, CYBLE_UUID_RUNNI
 174:Generated_Source\PSoC4/BLE_eventHandler.c **** #endif /* CYBLE_RSCS_CLIENT */
 175:Generated_Source\PSoC4/BLE_eventHandler.c **** #ifdef CYBLE_RTUS_CLIENT
 176:Generated_Source\PSoC4/BLE_eventHandler.c ****     {{CYBLE_GATT_INVALID_ATTR_HANDLE_VALUE, CYBLE_GATT_INVALID_ATTR_HANDLE_VALUE}, CYBLE_UUID_REF_T
 177:Generated_Source\PSoC4/BLE_eventHandler.c **** #endif /* CYBLE_RTUS_CLIENT */
 178:Generated_Source\PSoC4/BLE_eventHandler.c **** #ifdef CYBLE_SCPS_CLIENT
 179:Generated_Source\PSoC4/BLE_eventHandler.c ****     {{CYBLE_GATT_INVALID_ATTR_HANDLE_VALUE, CYBLE_GATT_INVALID_ATTR_HANDLE_VALUE}, CYBLE_UUID_SCAN_
 180:Generated_Source\PSoC4/BLE_eventHandler.c **** #endif /* CYBLE_SCPS_CLIENT */
 181:Generated_Source\PSoC4/BLE_eventHandler.c **** #ifdef CYBLE_TPS_CLIENT
 182:Generated_Source\PSoC4/BLE_eventHandler.c ****     {{CYBLE_GATT_INVALID_ATTR_HANDLE_VALUE, CYBLE_GATT_INVALID_ATTR_HANDLE_VALUE}, CYBLE_UUID_TX_PO
 183:Generated_Source\PSoC4/BLE_eventHandler.c **** #endif /* CYBLE_TPS_CLIENT */
 184:Generated_Source\PSoC4/BLE_eventHandler.c **** #ifdef CYBLE_UDS_CLIENT
 185:Generated_Source\PSoC4/BLE_eventHandler.c ****     {{CYBLE_GATT_INVALID_ATTR_HANDLE_VALUE, CYBLE_GATT_INVALID_ATTR_HANDLE_VALUE}, CYBLE_UUID_USER_
 186:Generated_Source\PSoC4/BLE_eventHandler.c **** #endif /* CYBLE_UDS_CLIENT */
 187:Generated_Source\PSoC4/BLE_eventHandler.c **** #ifdef CYBLE_WPTS_CLIENT
 188:Generated_Source\PSoC4/BLE_eventHandler.c ****     {{CYBLE_GATT_INVALID_ATTR_HANDLE_VALUE, CYBLE_GATT_INVALID_ATTR_HANDLE_VALUE}, CYBLE_UUID_WIREL
 189:Generated_Source\PSoC4/BLE_eventHandler.c **** #endif /* CYBLE_WPTS_CLIENT */
 190:Generated_Source\PSoC4/BLE_eventHandler.c **** };
ARM GAS  C:\Users\TTSS\AppData\Local\Temp\ccwoAHLq.s 			page 5


 191:Generated_Source\PSoC4/BLE_eventHandler.c **** 
 192:Generated_Source\PSoC4/BLE_eventHandler.c **** CYBLE_GAPC_T cyBle_gapc;
 193:Generated_Source\PSoC4/BLE_eventHandler.c **** 
 194:Generated_Source\PSoC4/BLE_eventHandler.c **** #endif /* CYBLE_GATT_ROLE_CLIENT */
 195:Generated_Source\PSoC4/BLE_eventHandler.c **** 
 196:Generated_Source\PSoC4/BLE_eventHandler.c **** /* Default device security */
 197:Generated_Source\PSoC4/BLE_eventHandler.c **** CYBLE_GAP_AUTH_INFO_T cyBle_authInfo =
 198:Generated_Source\PSoC4/BLE_eventHandler.c **** {
 199:Generated_Source\PSoC4/BLE_eventHandler.c ****     (CYBLE_GAP_SEC_MODE_1 | CYBLE_GAP_SEC_LEVEL_1 ), /* uint8 security */
 200:Generated_Source\PSoC4/BLE_eventHandler.c ****     CYBLE_GAP_BONDING, /* uint8 bonding */
 201:Generated_Source\PSoC4/BLE_eventHandler.c ****     0x10u,      /* uint8 ekeySize */
 202:Generated_Source\PSoC4/BLE_eventHandler.c ****     CYBLE_GAP_AUTH_ERROR_NONE, /* CYBLE_AUTH_FAILED_REASON_T authErr */
 203:Generated_Source\PSoC4/BLE_eventHandler.c **** };
 204:Generated_Source\PSoC4/BLE_eventHandler.c **** 
 205:Generated_Source\PSoC4/BLE_eventHandler.c **** #if(CYBLE_GATT_ROLE_SERVER)
 206:Generated_Source\PSoC4/BLE_eventHandler.c **** 
 207:Generated_Source\PSoC4/BLE_eventHandler.c **** 
 208:Generated_Source\PSoC4/BLE_eventHandler.c **** /******************************************************************************    
 209:Generated_Source\PSoC4/BLE_eventHandler.c **** ##Function Name: CyBle_WriteReqHandler
 210:Generated_Source\PSoC4/BLE_eventHandler.c **** *******************************************************************************
 211:Generated_Source\PSoC4/BLE_eventHandler.c **** 
 212:Generated_Source\PSoC4/BLE_eventHandler.c **** Summary:
 213:Generated_Source\PSoC4/BLE_eventHandler.c ****  Handles the Write Request event from BLE stack.
 214:Generated_Source\PSoC4/BLE_eventHandler.c **** 
 215:Generated_Source\PSoC4/BLE_eventHandler.c **** Parameters:
 216:Generated_Source\PSoC4/BLE_eventHandler.c ****  CYBLE_GATTS_WRITE_REQ_PARAM_T * eventParam - event parameter
 217:Generated_Source\PSoC4/BLE_eventHandler.c **** 
 218:Generated_Source\PSoC4/BLE_eventHandler.c **** Return:
 219:Generated_Source\PSoC4/BLE_eventHandler.c ****  None
 220:Generated_Source\PSoC4/BLE_eventHandler.c **** 
 221:Generated_Source\PSoC4/BLE_eventHandler.c **** ******************************************************************************/
 222:Generated_Source\PSoC4/BLE_eventHandler.c **** static void CyBle_WriteReqHandler(CYBLE_GATTS_WRITE_REQ_PARAM_T *eventParam)
 223:Generated_Source\PSoC4/BLE_eventHandler.c **** {
  39              		.loc 1 223 0
  40              		.cfi_startproc
  41 0000 90B5     		push	{r4, r7, lr}
  42              		.cfi_def_cfa_offset 12
  43              		.cfi_offset 4, -12
  44              		.cfi_offset 7, -8
  45              		.cfi_offset 14, -4
  46 0002 85B0     		sub	sp, sp, #20
  47              		.cfi_def_cfa_offset 32
  48 0004 00AF     		add	r7, sp, #0
  49              		.cfi_def_cfa_register 7
  50 0006 7860     		str	r0, [r7, #4]
 224:Generated_Source\PSoC4/BLE_eventHandler.c ****     CYBLE_GATT_ERR_CODE_T gattErr;
 225:Generated_Source\PSoC4/BLE_eventHandler.c **** #if defined CYBLE_CTS_SERVER || defined CYBLE_ESS_SERVER
 226:Generated_Source\PSoC4/BLE_eventHandler.c ****     cyBle_gattError = CYBLE_GATT_ERR_NONE;
 227:Generated_Source\PSoC4/BLE_eventHandler.c **** #endif /* defined CYBLE_CTS_SERVER || defined CYBLE_ESS_SERVER */
 228:Generated_Source\PSoC4/BLE_eventHandler.c ****     
 229:Generated_Source\PSoC4/BLE_eventHandler.c ****     gattErr = CyBle_GattsWriteEventHandler(eventParam);
  51              		.loc 1 229 0
  52 0008 0F23     		mov	r3, #15
  53 000a FC18     		add	r4, r7, r3
  54 000c 7B68     		ldr	r3, [r7, #4]
  55 000e 181C     		mov	r0, r3
  56 0010 FFF7FEFF 		bl	CyBle_GattsWriteEventHandler
ARM GAS  C:\Users\TTSS\AppData\Local\Temp\ccwoAHLq.s 			page 6


  57 0014 031C     		mov	r3, r0
  58 0016 2370     		strb	r3, [r4]
 230:Generated_Source\PSoC4/BLE_eventHandler.c **** #ifdef CYBLE_ANCS_SERVER
 231:Generated_Source\PSoC4/BLE_eventHandler.c ****     if(((cyBle_eventHandlerFlag & CYBLE_CALLBACK) != 0u) && (gattErr == CYBLE_GATT_ERR_NONE))
 232:Generated_Source\PSoC4/BLE_eventHandler.c ****     {
 233:Generated_Source\PSoC4/BLE_eventHandler.c ****         gattErr = CyBle_AncssWriteEventHandler(eventParam);
 234:Generated_Source\PSoC4/BLE_eventHandler.c ****     }
 235:Generated_Source\PSoC4/BLE_eventHandler.c **** #endif /* CYBLE_ANCS_SERVER */
 236:Generated_Source\PSoC4/BLE_eventHandler.c **** #ifdef CYBLE_ANS_SERVER
 237:Generated_Source\PSoC4/BLE_eventHandler.c ****     if(((cyBle_eventHandlerFlag & CYBLE_CALLBACK) != 0u) && (gattErr == CYBLE_GATT_ERR_NONE))
 238:Generated_Source\PSoC4/BLE_eventHandler.c ****     {
 239:Generated_Source\PSoC4/BLE_eventHandler.c ****         gattErr = CyBle_AnssWriteEventHandler(eventParam);
 240:Generated_Source\PSoC4/BLE_eventHandler.c ****     }
 241:Generated_Source\PSoC4/BLE_eventHandler.c **** #endif /* CYBLE_ANS_SERVER */
 242:Generated_Source\PSoC4/BLE_eventHandler.c **** #ifdef CYBLE_BAS_SERVER
 243:Generated_Source\PSoC4/BLE_eventHandler.c ****     if(((cyBle_eventHandlerFlag & CYBLE_CALLBACK) != 0u) && (gattErr == CYBLE_GATT_ERR_NONE))
 244:Generated_Source\PSoC4/BLE_eventHandler.c ****     {
 245:Generated_Source\PSoC4/BLE_eventHandler.c ****         gattErr = CyBle_BassWriteEventHandler(eventParam);
 246:Generated_Source\PSoC4/BLE_eventHandler.c ****     }
 247:Generated_Source\PSoC4/BLE_eventHandler.c **** #endif /* CYBLE_BAS_SERVER */
 248:Generated_Source\PSoC4/BLE_eventHandler.c **** #ifdef CYBLE_BLS_SERVER
 249:Generated_Source\PSoC4/BLE_eventHandler.c ****     if(((cyBle_eventHandlerFlag & CYBLE_CALLBACK) != 0u) && (gattErr == CYBLE_GATT_ERR_NONE))
 250:Generated_Source\PSoC4/BLE_eventHandler.c ****     {
 251:Generated_Source\PSoC4/BLE_eventHandler.c ****         gattErr = CyBle_BlssWriteEventHandler(eventParam);
 252:Generated_Source\PSoC4/BLE_eventHandler.c ****     }
 253:Generated_Source\PSoC4/BLE_eventHandler.c **** #endif /* CYBLE_BLS_SERVER */
 254:Generated_Source\PSoC4/BLE_eventHandler.c **** #ifdef CYBLE_BMS_SERVER
 255:Generated_Source\PSoC4/BLE_eventHandler.c ****     if(((cyBle_eventHandlerFlag & CYBLE_CALLBACK) != 0u) && (gattErr == CYBLE_GATT_ERR_NONE))
 256:Generated_Source\PSoC4/BLE_eventHandler.c ****     {
 257:Generated_Source\PSoC4/BLE_eventHandler.c ****         gattErr = CyBle_BmssWriteEventHandler(eventParam);
 258:Generated_Source\PSoC4/BLE_eventHandler.c ****     }
 259:Generated_Source\PSoC4/BLE_eventHandler.c **** #endif /* CYBLE_BMS_SERVER */
 260:Generated_Source\PSoC4/BLE_eventHandler.c **** #ifdef CYBLE_BTS_SERVER
 261:Generated_Source\PSoC4/BLE_eventHandler.c ****     if((cyBle_eventHandlerFlag & CYBLE_CALLBACK) != 0u)
 262:Generated_Source\PSoC4/BLE_eventHandler.c ****     {
 263:Generated_Source\PSoC4/BLE_eventHandler.c ****         gattErr = CyBle_BtsWriteEventHandler(eventParam);
 264:Generated_Source\PSoC4/BLE_eventHandler.c ****     }
 265:Generated_Source\PSoC4/BLE_eventHandler.c **** #endif /* CYBLE_BTS_SERVER */
 266:Generated_Source\PSoC4/BLE_eventHandler.c **** #ifdef CYBLE_CGMS_SERVER
 267:Generated_Source\PSoC4/BLE_eventHandler.c ****     if(((cyBle_eventHandlerFlag & CYBLE_CALLBACK) != 0u) && (gattErr == CYBLE_GATT_ERR_NONE))
 268:Generated_Source\PSoC4/BLE_eventHandler.c ****     {
 269:Generated_Source\PSoC4/BLE_eventHandler.c ****         gattErr = CyBle_CgmssWriteEventHandler(eventParam);
 270:Generated_Source\PSoC4/BLE_eventHandler.c ****     }
 271:Generated_Source\PSoC4/BLE_eventHandler.c **** #endif /* CYBLE_CGMS_SERVER */
 272:Generated_Source\PSoC4/BLE_eventHandler.c **** #ifdef CYBLE_CPS_SERVER
 273:Generated_Source\PSoC4/BLE_eventHandler.c ****     if(((cyBle_eventHandlerFlag & CYBLE_CALLBACK) != 0u) && (gattErr == CYBLE_GATT_ERR_NONE))
 274:Generated_Source\PSoC4/BLE_eventHandler.c ****     {
 275:Generated_Source\PSoC4/BLE_eventHandler.c ****         gattErr = CyBle_CpssWriteEventHandler(eventParam);
 276:Generated_Source\PSoC4/BLE_eventHandler.c ****     }
 277:Generated_Source\PSoC4/BLE_eventHandler.c **** #endif /* CYBLE_CPS_SERVER */
 278:Generated_Source\PSoC4/BLE_eventHandler.c **** #ifdef CYBLE_CSCS_SERVER
 279:Generated_Source\PSoC4/BLE_eventHandler.c ****     if(((cyBle_eventHandlerFlag & CYBLE_CALLBACK) != 0u) && (gattErr == CYBLE_GATT_ERR_NONE))
 280:Generated_Source\PSoC4/BLE_eventHandler.c ****     {
 281:Generated_Source\PSoC4/BLE_eventHandler.c ****         gattErr = CyBle_CscssWriteEventHandler(eventParam);
 282:Generated_Source\PSoC4/BLE_eventHandler.c ****     }
 283:Generated_Source\PSoC4/BLE_eventHandler.c **** #endif /* CYBLE_CSCS_SERVER */
 284:Generated_Source\PSoC4/BLE_eventHandler.c **** #ifdef CYBLE_CTS_SERVER
ARM GAS  C:\Users\TTSS\AppData\Local\Temp\ccwoAHLq.s 			page 7


 285:Generated_Source\PSoC4/BLE_eventHandler.c ****     if(((cyBle_eventHandlerFlag & CYBLE_CALLBACK) != 0u) && (gattErr == CYBLE_GATT_ERR_NONE))
 286:Generated_Source\PSoC4/BLE_eventHandler.c ****     {
 287:Generated_Source\PSoC4/BLE_eventHandler.c ****         gattErr = CyBle_CtssWriteEventHandler(eventParam);
 288:Generated_Source\PSoC4/BLE_eventHandler.c ****     }
 289:Generated_Source\PSoC4/BLE_eventHandler.c **** #endif /* CYBLE_CTS_SERVER */
 290:Generated_Source\PSoC4/BLE_eventHandler.c **** #ifdef CYBLE_ESS_SERVER
 291:Generated_Source\PSoC4/BLE_eventHandler.c ****     if(((cyBle_eventHandlerFlag & CYBLE_CALLBACK) != 0u) && (gattErr == CYBLE_GATT_ERR_NONE))
 292:Generated_Source\PSoC4/BLE_eventHandler.c ****     {
 293:Generated_Source\PSoC4/BLE_eventHandler.c ****         gattErr = CyBle_EsssWriteEventHandler(eventParam);
 294:Generated_Source\PSoC4/BLE_eventHandler.c ****     }
 295:Generated_Source\PSoC4/BLE_eventHandler.c **** #endif /* CYBLE_ESS_SERVER */
 296:Generated_Source\PSoC4/BLE_eventHandler.c **** #ifdef CYBLE_GLS_SERVER
 297:Generated_Source\PSoC4/BLE_eventHandler.c ****     if(((cyBle_eventHandlerFlag & CYBLE_CALLBACK) != 0u) && (gattErr == CYBLE_GATT_ERR_NONE))
 298:Generated_Source\PSoC4/BLE_eventHandler.c ****     {
 299:Generated_Source\PSoC4/BLE_eventHandler.c ****         gattErr = CyBle_GlssWriteEventHandler(eventParam);
 300:Generated_Source\PSoC4/BLE_eventHandler.c ****     }
 301:Generated_Source\PSoC4/BLE_eventHandler.c **** #endif /* CYBLE_GLS_SERVER */
 302:Generated_Source\PSoC4/BLE_eventHandler.c **** #ifdef CYBLE_HIDS_SERVER
 303:Generated_Source\PSoC4/BLE_eventHandler.c ****     if(((cyBle_eventHandlerFlag & CYBLE_CALLBACK) != 0u) && (gattErr == CYBLE_GATT_ERR_NONE))
 304:Generated_Source\PSoC4/BLE_eventHandler.c ****     {
 305:Generated_Source\PSoC4/BLE_eventHandler.c ****         gattErr = CyBle_HidssWriteEventHandler(eventParam);
 306:Generated_Source\PSoC4/BLE_eventHandler.c ****     }
 307:Generated_Source\PSoC4/BLE_eventHandler.c **** #endif /* CYBLE_HIDS_SERVER */
 308:Generated_Source\PSoC4/BLE_eventHandler.c **** #ifdef CYBLE_HRS_SERVER
 309:Generated_Source\PSoC4/BLE_eventHandler.c ****     if(((cyBle_eventHandlerFlag & CYBLE_CALLBACK) != 0u) && (gattErr == CYBLE_GATT_ERR_NONE))
 310:Generated_Source\PSoC4/BLE_eventHandler.c ****     {
 311:Generated_Source\PSoC4/BLE_eventHandler.c ****         gattErr = CyBle_HrssWriteEventHandler(eventParam);
 312:Generated_Source\PSoC4/BLE_eventHandler.c ****     }
 313:Generated_Source\PSoC4/BLE_eventHandler.c **** #endif /* CYBLE_HRS_SERVER */
 314:Generated_Source\PSoC4/BLE_eventHandler.c **** #ifdef CYBLE_HTS_SERVER
 315:Generated_Source\PSoC4/BLE_eventHandler.c ****     if(((cyBle_eventHandlerFlag & CYBLE_CALLBACK) != 0u) && (gattErr == CYBLE_GATT_ERR_NONE))
 316:Generated_Source\PSoC4/BLE_eventHandler.c ****     {
 317:Generated_Source\PSoC4/BLE_eventHandler.c ****         gattErr = CyBle_HtssWriteEventHandler(eventParam);
 318:Generated_Source\PSoC4/BLE_eventHandler.c ****     }
 319:Generated_Source\PSoC4/BLE_eventHandler.c **** #endif /* CYBLE_HTS_SERVER */
 320:Generated_Source\PSoC4/BLE_eventHandler.c **** #ifdef CYBLE_LLS_SERVER
 321:Generated_Source\PSoC4/BLE_eventHandler.c ****     if(((cyBle_eventHandlerFlag & CYBLE_CALLBACK) != 0u) && (gattErr == CYBLE_GATT_ERR_NONE))
 322:Generated_Source\PSoC4/BLE_eventHandler.c ****     {
 323:Generated_Source\PSoC4/BLE_eventHandler.c ****         gattErr = CyBle_LlssWriteEventHandler(eventParam);
 324:Generated_Source\PSoC4/BLE_eventHandler.c ****     }
 325:Generated_Source\PSoC4/BLE_eventHandler.c **** #endif /* CYBLE_LLS_SERVER */
 326:Generated_Source\PSoC4/BLE_eventHandler.c **** #ifdef CYBLE_LNS_SERVER
 327:Generated_Source\PSoC4/BLE_eventHandler.c ****     if(((cyBle_eventHandlerFlag & CYBLE_CALLBACK) != 0u) && (gattErr == CYBLE_GATT_ERR_NONE))
 328:Generated_Source\PSoC4/BLE_eventHandler.c ****     {
 329:Generated_Source\PSoC4/BLE_eventHandler.c ****         gattErr = CyBle_LnssWriteEventHandler(eventParam);
 330:Generated_Source\PSoC4/BLE_eventHandler.c ****     }
 331:Generated_Source\PSoC4/BLE_eventHandler.c **** #endif /* CYBLE_LNS_SERVER */
 332:Generated_Source\PSoC4/BLE_eventHandler.c **** #ifdef CYBLE_PASS_SERVER
 333:Generated_Source\PSoC4/BLE_eventHandler.c ****     if(((cyBle_eventHandlerFlag & CYBLE_CALLBACK) != 0u) && (gattErr == CYBLE_GATT_ERR_NONE))
 334:Generated_Source\PSoC4/BLE_eventHandler.c ****     {
 335:Generated_Source\PSoC4/BLE_eventHandler.c ****         gattErr = CyBle_PasssWriteEventHandler(eventParam);
 336:Generated_Source\PSoC4/BLE_eventHandler.c ****     }
 337:Generated_Source\PSoC4/BLE_eventHandler.c **** #endif /* CYBLE_PASS_SERVER */
 338:Generated_Source\PSoC4/BLE_eventHandler.c **** #ifdef CYBLE_RSCS_SERVER
 339:Generated_Source\PSoC4/BLE_eventHandler.c ****     if(((cyBle_eventHandlerFlag & CYBLE_CALLBACK) != 0u) && (gattErr == CYBLE_GATT_ERR_NONE))
 340:Generated_Source\PSoC4/BLE_eventHandler.c ****     {
 341:Generated_Source\PSoC4/BLE_eventHandler.c ****         gattErr = CyBle_RscssWriteEventHandler(eventParam);
ARM GAS  C:\Users\TTSS\AppData\Local\Temp\ccwoAHLq.s 			page 8


 342:Generated_Source\PSoC4/BLE_eventHandler.c ****     }
 343:Generated_Source\PSoC4/BLE_eventHandler.c **** #endif /* CYBLE_RSCS_SERVER */
 344:Generated_Source\PSoC4/BLE_eventHandler.c **** #ifdef CYBLE_SCPS_SERVER
 345:Generated_Source\PSoC4/BLE_eventHandler.c ****     if(((cyBle_eventHandlerFlag & CYBLE_CALLBACK) != 0u) && (gattErr == CYBLE_GATT_ERR_NONE))
 346:Generated_Source\PSoC4/BLE_eventHandler.c ****     {
 347:Generated_Source\PSoC4/BLE_eventHandler.c ****         gattErr = CyBle_ScpssWriteEventHandler(eventParam);
 348:Generated_Source\PSoC4/BLE_eventHandler.c ****     }
 349:Generated_Source\PSoC4/BLE_eventHandler.c **** #endif /* CYBLE_SCPS_SERVER */
 350:Generated_Source\PSoC4/BLE_eventHandler.c **** #ifdef CYBLE_TPS_SERVER
 351:Generated_Source\PSoC4/BLE_eventHandler.c ****     if(((cyBle_eventHandlerFlag & CYBLE_CALLBACK) != 0u) && (gattErr == CYBLE_GATT_ERR_NONE))
 352:Generated_Source\PSoC4/BLE_eventHandler.c ****     {
 353:Generated_Source\PSoC4/BLE_eventHandler.c ****         gattErr = CyBle_TpssWriteEventHandler(eventParam);
 354:Generated_Source\PSoC4/BLE_eventHandler.c ****     }
 355:Generated_Source\PSoC4/BLE_eventHandler.c **** #endif /* CYBLE_TPS_SERVER */
 356:Generated_Source\PSoC4/BLE_eventHandler.c **** #ifdef CYBLE_UDS_SERVER
 357:Generated_Source\PSoC4/BLE_eventHandler.c ****     if(((cyBle_eventHandlerFlag & CYBLE_CALLBACK) != 0u) && (gattErr == CYBLE_GATT_ERR_NONE))
 358:Generated_Source\PSoC4/BLE_eventHandler.c ****     {
 359:Generated_Source\PSoC4/BLE_eventHandler.c ****         gattErr = CyBle_UdssWriteEventHandler(eventParam);
 360:Generated_Source\PSoC4/BLE_eventHandler.c ****     }
 361:Generated_Source\PSoC4/BLE_eventHandler.c **** #endif /* CYBLE_UDS_SERVER */
 362:Generated_Source\PSoC4/BLE_eventHandler.c **** #ifdef CYBLE_WPTS_SERVER
 363:Generated_Source\PSoC4/BLE_eventHandler.c ****     if(((cyBle_eventHandlerFlag & CYBLE_CALLBACK) != 0u) && (gattErr == CYBLE_GATT_ERR_NONE))
 364:Generated_Source\PSoC4/BLE_eventHandler.c ****     {
 365:Generated_Source\PSoC4/BLE_eventHandler.c ****         gattErr = CyBle_WptssWriteEventHandler(eventParam);
 366:Generated_Source\PSoC4/BLE_eventHandler.c ****     }
 367:Generated_Source\PSoC4/BLE_eventHandler.c **** #endif /* CYBLE_WPTS_SERVER */
 368:Generated_Source\PSoC4/BLE_eventHandler.c **** #ifdef CYBLE_WSS_SERVER
 369:Generated_Source\PSoC4/BLE_eventHandler.c ****     if(((cyBle_eventHandlerFlag & CYBLE_CALLBACK) != 0u) && (gattErr == CYBLE_GATT_ERR_NONE))
 370:Generated_Source\PSoC4/BLE_eventHandler.c ****     {
 371:Generated_Source\PSoC4/BLE_eventHandler.c ****         gattErr = CyBle_WsssWriteEventHandler(eventParam);
 372:Generated_Source\PSoC4/BLE_eventHandler.c ****     }
 373:Generated_Source\PSoC4/BLE_eventHandler.c **** #endif /* CYBLE_WSS_SERVER */
 374:Generated_Source\PSoC4/BLE_eventHandler.c **** 
 375:Generated_Source\PSoC4/BLE_eventHandler.c ****     /* Send response when event was handled by service */
 376:Generated_Source\PSoC4/BLE_eventHandler.c ****     if((cyBle_eventHandlerFlag & CYBLE_CALLBACK) == 0u)
  59              		.loc 1 376 0
  60 0018 144B     		ldr	r3, .L4
  61 001a 1B78     		ldrb	r3, [r3]
  62 001c DBB2     		uxtb	r3, r3
  63 001e 1A1C     		mov	r2, r3
  64 0020 0123     		mov	r3, #1
  65 0022 1340     		and	r3, r2
  66 0024 1FD1     		bne	.L1
 377:Generated_Source\PSoC4/BLE_eventHandler.c ****     {
 378:Generated_Source\PSoC4/BLE_eventHandler.c ****         if(gattErr != CYBLE_GATT_ERR_NONE)
  67              		.loc 1 378 0
  68 0026 0F23     		mov	r3, #15
  69 0028 FB18     		add	r3, r7, r3
  70 002a 1B78     		ldrb	r3, [r3]
  71 002c 002B     		cmp	r3, #0
  72 002e 16D0     		beq	.L3
  73              	.LBB2:
 379:Generated_Source\PSoC4/BLE_eventHandler.c ****         {
 380:Generated_Source\PSoC4/BLE_eventHandler.c ****             CYBLE_GATTS_ERR_PARAM_T err_param;
 381:Generated_Source\PSoC4/BLE_eventHandler.c ****             
 382:Generated_Source\PSoC4/BLE_eventHandler.c ****             err_param.opcode = (uint8) CYBLE_GATT_WRITE_REQ;
  74              		.loc 1 382 0
ARM GAS  C:\Users\TTSS\AppData\Local\Temp\ccwoAHLq.s 			page 9


  75 0030 0823     		mov	r3, #8
  76 0032 FB18     		add	r3, r7, r3
  77 0034 1222     		mov	r2, #18
  78 0036 9A70     		strb	r2, [r3, #2]
 383:Generated_Source\PSoC4/BLE_eventHandler.c ****             err_param.attrHandle = eventParam->handleValPair.attrHandle;
  79              		.loc 1 383 0
  80 0038 7B68     		ldr	r3, [r7, #4]
  81 003a 9A89     		ldrh	r2, [r3, #12]
  82 003c 0823     		mov	r3, #8
  83 003e FB18     		add	r3, r7, r3
  84 0040 1A80     		strh	r2, [r3]
 384:Generated_Source\PSoC4/BLE_eventHandler.c ****             err_param.errorCode = gattErr;
  85              		.loc 1 384 0
  86 0042 0823     		mov	r3, #8
  87 0044 FB18     		add	r3, r7, r3
  88 0046 0F22     		mov	r2, #15
  89 0048 BA18     		add	r2, r7, r2
  90 004a 1278     		ldrb	r2, [r2]
  91 004c DA70     		strb	r2, [r3, #3]
 385:Generated_Source\PSoC4/BLE_eventHandler.c **** 
 386:Generated_Source\PSoC4/BLE_eventHandler.c ****             /* Send Error Response */
 387:Generated_Source\PSoC4/BLE_eventHandler.c ****             (void)CyBle_GattsErrorRsp(eventParam->connHandle, &err_param);
  92              		.loc 1 387 0
  93 004e 7B68     		ldr	r3, [r7, #4]
  94 0050 0822     		mov	r2, #8
  95 0052 BA18     		add	r2, r7, r2
  96 0054 1868     		ldr	r0, [r3]
  97 0056 111C     		mov	r1, r2
  98 0058 FFF7FEFF 		bl	CyBle_GattsErrorRsp
  99              	.LBE2:
 100 005c 03E0     		b	.L1
 101              	.L3:
 388:Generated_Source\PSoC4/BLE_eventHandler.c ****         }
 389:Generated_Source\PSoC4/BLE_eventHandler.c ****         else
 390:Generated_Source\PSoC4/BLE_eventHandler.c ****         {
 391:Generated_Source\PSoC4/BLE_eventHandler.c ****             (void)CyBle_GattsWriteRsp(eventParam->connHandle);
 102              		.loc 1 391 0
 103 005e 7B68     		ldr	r3, [r7, #4]
 104 0060 1868     		ldr	r0, [r3]
 105 0062 FFF7FEFF 		bl	CyBle_GattsWriteRsp
 106              	.L1:
 392:Generated_Source\PSoC4/BLE_eventHandler.c ****         }
 393:Generated_Source\PSoC4/BLE_eventHandler.c ****     }
 394:Generated_Source\PSoC4/BLE_eventHandler.c **** }
 107              		.loc 1 394 0
 108 0066 BD46     		mov	sp, r7
 109 0068 05B0     		add	sp, sp, #20
 110              		@ sp needed
 111 006a 90BD     		pop	{r4, r7, pc}
 112              	.L5:
 113              		.align	2
 114              	.L4:
 115 006c 00000000 		.word	cyBle_eventHandlerFlag
 116              		.cfi_endproc
 117              	.LFE2:
 118              		.size	CyBle_WriteReqHandler, .-CyBle_WriteReqHandler
 119              		.section	.text.CyBle_ValueConfirmation,"ax",%progbits
ARM GAS  C:\Users\TTSS\AppData\Local\Temp\ccwoAHLq.s 			page 10


 120              		.align	2
 121              		.code	16
 122              		.thumb_func
 123              		.type	CyBle_ValueConfirmation, %function
 124              	CyBle_ValueConfirmation:
 125              	.LFB3:
 395:Generated_Source\PSoC4/BLE_eventHandler.c **** 
 396:Generated_Source\PSoC4/BLE_eventHandler.c **** 
 397:Generated_Source\PSoC4/BLE_eventHandler.c **** /****************************************************************************** 
 398:Generated_Source\PSoC4/BLE_eventHandler.c **** ##Function Name: CyBle_ValueConfirmation
 399:Generated_Source\PSoC4/BLE_eventHandler.c **** *******************************************************************************
 400:Generated_Source\PSoC4/BLE_eventHandler.c **** 
 401:Generated_Source\PSoC4/BLE_eventHandler.c **** Summary:
 402:Generated_Source\PSoC4/BLE_eventHandler.c ****  Handles the Value Confirmation request event from the BLE stack.
 403:Generated_Source\PSoC4/BLE_eventHandler.c **** 
 404:Generated_Source\PSoC4/BLE_eventHandler.c **** Parameters:
 405:Generated_Source\PSoC4/BLE_eventHandler.c ****  CYBLE_CONN_HANDLE_T *eventParam - Pointer to a structure
 406:Generated_Source\PSoC4/BLE_eventHandler.c ****     of type 'CYBLE_CONN_HANDLE_T'
 407:Generated_Source\PSoC4/BLE_eventHandler.c **** 
 408:Generated_Source\PSoC4/BLE_eventHandler.c **** Return:
 409:Generated_Source\PSoC4/BLE_eventHandler.c ****  None
 410:Generated_Source\PSoC4/BLE_eventHandler.c **** 
 411:Generated_Source\PSoC4/BLE_eventHandler.c **** ******************************************************************************/
 412:Generated_Source\PSoC4/BLE_eventHandler.c **** static void CyBle_ValueConfirmation(const CYBLE_CONN_HANDLE_T *eventParam)
 413:Generated_Source\PSoC4/BLE_eventHandler.c **** {
 126              		.loc 1 413 0
 127              		.cfi_startproc
 128 0000 80B5     		push	{r7, lr}
 129              		.cfi_def_cfa_offset 8
 130              		.cfi_offset 7, -8
 131              		.cfi_offset 14, -4
 132 0002 82B0     		sub	sp, sp, #8
 133              		.cfi_def_cfa_offset 16
 134 0004 00AF     		add	r7, sp, #0
 135              		.cfi_def_cfa_register 7
 136 0006 7860     		str	r0, [r7, #4]
 414:Generated_Source\PSoC4/BLE_eventHandler.c ****     if(eventParam != NULL)
 415:Generated_Source\PSoC4/BLE_eventHandler.c ****     {
 416:Generated_Source\PSoC4/BLE_eventHandler.c ****     #ifdef CYBLE_BLS_SERVER
 417:Generated_Source\PSoC4/BLE_eventHandler.c ****         CyBle_BlssConfirmationEventHandler(eventParam);
 418:Generated_Source\PSoC4/BLE_eventHandler.c ****     #endif /* CYBLE_BLS_SERVER */
 419:Generated_Source\PSoC4/BLE_eventHandler.c ****     
 420:Generated_Source\PSoC4/BLE_eventHandler.c ****     #ifdef CYBLE_CGMS_SERVER
 421:Generated_Source\PSoC4/BLE_eventHandler.c ****         if((cyBle_eventHandlerFlag & CYBLE_CALLBACK) != 0u)
 422:Generated_Source\PSoC4/BLE_eventHandler.c ****         {
 423:Generated_Source\PSoC4/BLE_eventHandler.c ****             CyBle_CgmssConfirmationEventHandler(eventParam);
 424:Generated_Source\PSoC4/BLE_eventHandler.c ****         }
 425:Generated_Source\PSoC4/BLE_eventHandler.c ****     #endif /* CYBLE_CGMS_SERVER */
 426:Generated_Source\PSoC4/BLE_eventHandler.c ****     
 427:Generated_Source\PSoC4/BLE_eventHandler.c ****     #ifdef CYBLE_CPS_SERVER
 428:Generated_Source\PSoC4/BLE_eventHandler.c ****         if((cyBle_eventHandlerFlag & CYBLE_CALLBACK) != 0u)
 429:Generated_Source\PSoC4/BLE_eventHandler.c ****         {
 430:Generated_Source\PSoC4/BLE_eventHandler.c ****             CyBle_CpssConfirmationEventHandler(eventParam);
 431:Generated_Source\PSoC4/BLE_eventHandler.c ****         }
 432:Generated_Source\PSoC4/BLE_eventHandler.c ****     #endif /* CYBLE_CPS_SERVER */
 433:Generated_Source\PSoC4/BLE_eventHandler.c ****     
 434:Generated_Source\PSoC4/BLE_eventHandler.c ****     #ifdef CYBLE_CSCS_SERVER
ARM GAS  C:\Users\TTSS\AppData\Local\Temp\ccwoAHLq.s 			page 11


 435:Generated_Source\PSoC4/BLE_eventHandler.c ****         if((cyBle_eventHandlerFlag & CYBLE_CALLBACK) != 0u)
 436:Generated_Source\PSoC4/BLE_eventHandler.c ****         {
 437:Generated_Source\PSoC4/BLE_eventHandler.c ****             CyBle_CscssConfirmationEventHandler(eventParam);
 438:Generated_Source\PSoC4/BLE_eventHandler.c ****         }
 439:Generated_Source\PSoC4/BLE_eventHandler.c ****     #endif /* CYBLE_CSCS_SERVER */
 440:Generated_Source\PSoC4/BLE_eventHandler.c ****     
 441:Generated_Source\PSoC4/BLE_eventHandler.c ****     #ifdef CYBLE_ESS_SERVER
 442:Generated_Source\PSoC4/BLE_eventHandler.c ****         if((cyBle_eventHandlerFlag & CYBLE_CALLBACK) != 0u)
 443:Generated_Source\PSoC4/BLE_eventHandler.c ****         {
 444:Generated_Source\PSoC4/BLE_eventHandler.c ****             CyBle_EsssConfirmationEventHandler(eventParam);
 445:Generated_Source\PSoC4/BLE_eventHandler.c ****         }
 446:Generated_Source\PSoC4/BLE_eventHandler.c ****     #endif /* CYBLE_ESS_SERVER */
 447:Generated_Source\PSoC4/BLE_eventHandler.c ****     
 448:Generated_Source\PSoC4/BLE_eventHandler.c ****     #ifdef CYBLE_GLS_SERVER
 449:Generated_Source\PSoC4/BLE_eventHandler.c ****         if((cyBle_eventHandlerFlag & CYBLE_CALLBACK) != 0u)
 450:Generated_Source\PSoC4/BLE_eventHandler.c ****         {
 451:Generated_Source\PSoC4/BLE_eventHandler.c ****             CyBle_GlssConfirmationEventHandler(eventParam);
 452:Generated_Source\PSoC4/BLE_eventHandler.c ****         }
 453:Generated_Source\PSoC4/BLE_eventHandler.c ****     #endif /* CYBLE_GLS_SERVER */
 454:Generated_Source\PSoC4/BLE_eventHandler.c ****     
 455:Generated_Source\PSoC4/BLE_eventHandler.c ****     #ifdef CYBLE_HTS_SERVER
 456:Generated_Source\PSoC4/BLE_eventHandler.c ****         if((cyBle_eventHandlerFlag & CYBLE_CALLBACK) != 0u)
 457:Generated_Source\PSoC4/BLE_eventHandler.c ****         {
 458:Generated_Source\PSoC4/BLE_eventHandler.c ****             CyBle_HtssConfirmationEventHandler(eventParam);
 459:Generated_Source\PSoC4/BLE_eventHandler.c ****         }
 460:Generated_Source\PSoC4/BLE_eventHandler.c ****     #endif /* CYBLE_HTS_SERVER */
 461:Generated_Source\PSoC4/BLE_eventHandler.c **** 
 462:Generated_Source\PSoC4/BLE_eventHandler.c ****     #ifdef CYBLE_LNS_SERVER
 463:Generated_Source\PSoC4/BLE_eventHandler.c ****         if((cyBle_eventHandlerFlag & CYBLE_CALLBACK) != 0u)
 464:Generated_Source\PSoC4/BLE_eventHandler.c ****         {
 465:Generated_Source\PSoC4/BLE_eventHandler.c ****             CyBle_LnssConfirmationEventHandler(eventParam);
 466:Generated_Source\PSoC4/BLE_eventHandler.c ****         }
 467:Generated_Source\PSoC4/BLE_eventHandler.c ****     #endif /* CYBLE_LNS_SERVER */
 468:Generated_Source\PSoC4/BLE_eventHandler.c ****     
 469:Generated_Source\PSoC4/BLE_eventHandler.c ****     #ifdef CYBLE_RSCS_SERVER
 470:Generated_Source\PSoC4/BLE_eventHandler.c ****         if((cyBle_eventHandlerFlag & CYBLE_CALLBACK) != 0u)
 471:Generated_Source\PSoC4/BLE_eventHandler.c ****         {
 472:Generated_Source\PSoC4/BLE_eventHandler.c ****             CyBle_RscssConfirmationEventHandler(eventParam);
 473:Generated_Source\PSoC4/BLE_eventHandler.c ****         }
 474:Generated_Source\PSoC4/BLE_eventHandler.c ****     #endif /* CYBLE_RSCS_SERVER */
 475:Generated_Source\PSoC4/BLE_eventHandler.c ****     
 476:Generated_Source\PSoC4/BLE_eventHandler.c ****     #ifdef CYBLE_UDS_SERVER
 477:Generated_Source\PSoC4/BLE_eventHandler.c ****         if((cyBle_eventHandlerFlag & CYBLE_CALLBACK) != 0u)
 478:Generated_Source\PSoC4/BLE_eventHandler.c ****         {
 479:Generated_Source\PSoC4/BLE_eventHandler.c ****             CyBle_UdssConfirmationEventHandler(eventParam);
 480:Generated_Source\PSoC4/BLE_eventHandler.c ****         }
 481:Generated_Source\PSoC4/BLE_eventHandler.c ****     #endif /* CYBLE_UDS_SERVER */
 482:Generated_Source\PSoC4/BLE_eventHandler.c ****     
 483:Generated_Source\PSoC4/BLE_eventHandler.c ****     #ifdef CYBLE_WPTS_SERVER
 484:Generated_Source\PSoC4/BLE_eventHandler.c ****         if((cyBle_eventHandlerFlag & CYBLE_CALLBACK) != 0u)
 485:Generated_Source\PSoC4/BLE_eventHandler.c ****         {
 486:Generated_Source\PSoC4/BLE_eventHandler.c ****             CyBle_WptssConfirmationEventHandler(eventParam);
 487:Generated_Source\PSoC4/BLE_eventHandler.c ****         }
 488:Generated_Source\PSoC4/BLE_eventHandler.c ****     #endif /* CYBLE_WPTS_SERVER */
 489:Generated_Source\PSoC4/BLE_eventHandler.c ****     
 490:Generated_Source\PSoC4/BLE_eventHandler.c ****     #ifdef CYBLE_WSS_SERVER
 491:Generated_Source\PSoC4/BLE_eventHandler.c ****         if((cyBle_eventHandlerFlag & CYBLE_CALLBACK) != 0u)
ARM GAS  C:\Users\TTSS\AppData\Local\Temp\ccwoAHLq.s 			page 12


 492:Generated_Source\PSoC4/BLE_eventHandler.c ****         {
 493:Generated_Source\PSoC4/BLE_eventHandler.c ****             CyBle_WsssConfirmationEventHandler(eventParam);
 494:Generated_Source\PSoC4/BLE_eventHandler.c ****         }
 495:Generated_Source\PSoC4/BLE_eventHandler.c ****     #endif /* CYBLE_WSS_SERVER */
 496:Generated_Source\PSoC4/BLE_eventHandler.c ****     }
 497:Generated_Source\PSoC4/BLE_eventHandler.c **** }
 137              		.loc 1 497 0
 138 0008 BD46     		mov	sp, r7
 139 000a 02B0     		add	sp, sp, #8
 140              		@ sp needed
 141 000c 80BD     		pop	{r7, pc}
 142              		.cfi_endproc
 143              	.LFE3:
 144              		.size	CyBle_ValueConfirmation, .-CyBle_ValueConfirmation
 145              		.section	.text.CyBle_GattDisconnectEventHandler,"ax",%progbits
 146              		.align	2
 147              		.code	16
 148              		.thumb_func
 149              		.type	CyBle_GattDisconnectEventHandler, %function
 150              	CyBle_GattDisconnectEventHandler:
 151              	.LFB4:
 498:Generated_Source\PSoC4/BLE_eventHandler.c **** 
 499:Generated_Source\PSoC4/BLE_eventHandler.c **** #endif /* CYBLE_GATT_ROLE_SERVER */
 500:Generated_Source\PSoC4/BLE_eventHandler.c **** 
 501:Generated_Source\PSoC4/BLE_eventHandler.c **** 
 502:Generated_Source\PSoC4/BLE_eventHandler.c **** #if (CYBLE_GATT_ROLE_CLIENT)
 503:Generated_Source\PSoC4/BLE_eventHandler.c **** 
 504:Generated_Source\PSoC4/BLE_eventHandler.c **** /****************************************************************************** 
 505:Generated_Source\PSoC4/BLE_eventHandler.c **** ##Function Name: CyBle_GattcWriteResponseEventHandler
 506:Generated_Source\PSoC4/BLE_eventHandler.c **** *******************************************************************************
 507:Generated_Source\PSoC4/BLE_eventHandler.c **** 
 508:Generated_Source\PSoC4/BLE_eventHandler.c **** Summary:
 509:Generated_Source\PSoC4/BLE_eventHandler.c ****  Handles the Write response event from the BLE stack.
 510:Generated_Source\PSoC4/BLE_eventHandler.c **** 
 511:Generated_Source\PSoC4/BLE_eventHandler.c **** Parameters:
 512:Generated_Source\PSoC4/BLE_eventHandler.c ****  CYBLE_CONN_HANDLE_T *eventParam - Pointer to a structure
 513:Generated_Source\PSoC4/BLE_eventHandler.c ****     of type 'CYBLE_CONN_HANDLE_T'
 514:Generated_Source\PSoC4/BLE_eventHandler.c **** 
 515:Generated_Source\PSoC4/BLE_eventHandler.c **** Return:
 516:Generated_Source\PSoC4/BLE_eventHandler.c ****  None
 517:Generated_Source\PSoC4/BLE_eventHandler.c **** 
 518:Generated_Source\PSoC4/BLE_eventHandler.c **** ******************************************************************************/
 519:Generated_Source\PSoC4/BLE_eventHandler.c **** static void CyBle_GattcWriteResponseEventHandler(const CYBLE_CONN_HANDLE_T *eventParam)
 520:Generated_Source\PSoC4/BLE_eventHandler.c **** {
 521:Generated_Source\PSoC4/BLE_eventHandler.c **** #ifdef CYBLE_ANCS_CLIENT
 522:Generated_Source\PSoC4/BLE_eventHandler.c ****     CyBle_AncscWriteResponseEventHandler(eventParam);
 523:Generated_Source\PSoC4/BLE_eventHandler.c **** #endif /* CYBLE_ANCS_CLIENT */
 524:Generated_Source\PSoC4/BLE_eventHandler.c **** 
 525:Generated_Source\PSoC4/BLE_eventHandler.c **** #ifdef CYBLE_ANS_CLIENT
 526:Generated_Source\PSoC4/BLE_eventHandler.c ****     if((cyBle_eventHandlerFlag & CYBLE_CALLBACK) != 0u)
 527:Generated_Source\PSoC4/BLE_eventHandler.c ****     {
 528:Generated_Source\PSoC4/BLE_eventHandler.c ****         CyBle_AnscWriteResponseEventHandler(eventParam);
 529:Generated_Source\PSoC4/BLE_eventHandler.c ****     }
 530:Generated_Source\PSoC4/BLE_eventHandler.c **** #endif /* CYBLE_ANS_CLIENT */
 531:Generated_Source\PSoC4/BLE_eventHandler.c **** 
 532:Generated_Source\PSoC4/BLE_eventHandler.c **** #ifdef CYBLE_BAS_CLIENT
 533:Generated_Source\PSoC4/BLE_eventHandler.c ****     if((cyBle_eventHandlerFlag & CYBLE_CALLBACK) != 0u)
ARM GAS  C:\Users\TTSS\AppData\Local\Temp\ccwoAHLq.s 			page 13


 534:Generated_Source\PSoC4/BLE_eventHandler.c ****     {
 535:Generated_Source\PSoC4/BLE_eventHandler.c ****         CyBle_BascWriteResponseEventHandler(eventParam);
 536:Generated_Source\PSoC4/BLE_eventHandler.c ****     }
 537:Generated_Source\PSoC4/BLE_eventHandler.c **** #endif /* CYBLE_BAS_CLIENT */
 538:Generated_Source\PSoC4/BLE_eventHandler.c **** 
 539:Generated_Source\PSoC4/BLE_eventHandler.c **** #ifdef CYBLE_BLS_CLIENT
 540:Generated_Source\PSoC4/BLE_eventHandler.c ****     if((cyBle_eventHandlerFlag & CYBLE_CALLBACK) != 0u)
 541:Generated_Source\PSoC4/BLE_eventHandler.c ****     {
 542:Generated_Source\PSoC4/BLE_eventHandler.c ****         CyBle_BlscWriteResponseEventHandler(eventParam);
 543:Generated_Source\PSoC4/BLE_eventHandler.c ****     }
 544:Generated_Source\PSoC4/BLE_eventHandler.c **** #endif /* CYBLE_BLS_CLIENT */
 545:Generated_Source\PSoC4/BLE_eventHandler.c **** 
 546:Generated_Source\PSoC4/BLE_eventHandler.c **** #ifdef CYBLE_BMS_CLIENT
 547:Generated_Source\PSoC4/BLE_eventHandler.c ****     if((cyBle_eventHandlerFlag & CYBLE_CALLBACK) != 0u)
 548:Generated_Source\PSoC4/BLE_eventHandler.c ****     {
 549:Generated_Source\PSoC4/BLE_eventHandler.c ****         CyBle_BmscWriteResponseEventHandler(eventParam);
 550:Generated_Source\PSoC4/BLE_eventHandler.c ****     }
 551:Generated_Source\PSoC4/BLE_eventHandler.c **** #endif /* CYBLE_BMS_CLIENT */
 552:Generated_Source\PSoC4/BLE_eventHandler.c **** 
 553:Generated_Source\PSoC4/BLE_eventHandler.c **** #ifdef CYBLE_CGMS_CLIENT
 554:Generated_Source\PSoC4/BLE_eventHandler.c ****     if((cyBle_eventHandlerFlag & CYBLE_CALLBACK) != 0u)
 555:Generated_Source\PSoC4/BLE_eventHandler.c ****     {
 556:Generated_Source\PSoC4/BLE_eventHandler.c ****         CyBle_CgmscWriteResponseEventHandler(eventParam);
 557:Generated_Source\PSoC4/BLE_eventHandler.c ****     }
 558:Generated_Source\PSoC4/BLE_eventHandler.c **** #endif /* CYBLE_CGMS_CLIENT */
 559:Generated_Source\PSoC4/BLE_eventHandler.c **** 
 560:Generated_Source\PSoC4/BLE_eventHandler.c **** #ifdef CYBLE_CPS_CLIENT
 561:Generated_Source\PSoC4/BLE_eventHandler.c ****     if((cyBle_eventHandlerFlag & CYBLE_CALLBACK) != 0u)
 562:Generated_Source\PSoC4/BLE_eventHandler.c ****     {
 563:Generated_Source\PSoC4/BLE_eventHandler.c ****         CyBle_CpscWriteResponseEventHandler(eventParam);
 564:Generated_Source\PSoC4/BLE_eventHandler.c ****     }
 565:Generated_Source\PSoC4/BLE_eventHandler.c **** #endif /* CYBLE_CPS_CLIENT */
 566:Generated_Source\PSoC4/BLE_eventHandler.c **** 
 567:Generated_Source\PSoC4/BLE_eventHandler.c **** #ifdef CYBLE_CSCS_CLIENT
 568:Generated_Source\PSoC4/BLE_eventHandler.c ****     if((cyBle_eventHandlerFlag & CYBLE_CALLBACK) != 0u)
 569:Generated_Source\PSoC4/BLE_eventHandler.c ****     {
 570:Generated_Source\PSoC4/BLE_eventHandler.c ****         CyBle_CscscWriteResponseEventHandler(eventParam);
 571:Generated_Source\PSoC4/BLE_eventHandler.c ****     }
 572:Generated_Source\PSoC4/BLE_eventHandler.c **** #endif /* CYBLE_CSCS_CLIENT */
 573:Generated_Source\PSoC4/BLE_eventHandler.c **** 
 574:Generated_Source\PSoC4/BLE_eventHandler.c **** #ifdef CYBLE_CTS_CLIENT
 575:Generated_Source\PSoC4/BLE_eventHandler.c ****     if((cyBle_eventHandlerFlag & CYBLE_CALLBACK) != 0u)
 576:Generated_Source\PSoC4/BLE_eventHandler.c ****     {
 577:Generated_Source\PSoC4/BLE_eventHandler.c ****         CyBle_CtscWriteResponseEventHandler(eventParam);
 578:Generated_Source\PSoC4/BLE_eventHandler.c ****     }
 579:Generated_Source\PSoC4/BLE_eventHandler.c **** #endif /* CYBLE_CTS_CLIENT */
 580:Generated_Source\PSoC4/BLE_eventHandler.c **** 
 581:Generated_Source\PSoC4/BLE_eventHandler.c **** #ifdef CYBLE_ESS_CLIENT
 582:Generated_Source\PSoC4/BLE_eventHandler.c ****     if((cyBle_eventHandlerFlag & CYBLE_CALLBACK) != 0u)
 583:Generated_Source\PSoC4/BLE_eventHandler.c ****     {
 584:Generated_Source\PSoC4/BLE_eventHandler.c ****         CyBle_EsscWriteResponseEventHandler(eventParam);
 585:Generated_Source\PSoC4/BLE_eventHandler.c ****     }
 586:Generated_Source\PSoC4/BLE_eventHandler.c **** #endif /* CYBLE_ESS_CLIENT */
 587:Generated_Source\PSoC4/BLE_eventHandler.c **** 
 588:Generated_Source\PSoC4/BLE_eventHandler.c **** #ifdef CYBLE_GLS_CLIENT
 589:Generated_Source\PSoC4/BLE_eventHandler.c ****     if((cyBle_eventHandlerFlag & CYBLE_CALLBACK) != 0u)
 590:Generated_Source\PSoC4/BLE_eventHandler.c ****     {
ARM GAS  C:\Users\TTSS\AppData\Local\Temp\ccwoAHLq.s 			page 14


 591:Generated_Source\PSoC4/BLE_eventHandler.c ****         CyBle_GlscWriteResponseEventHandler(eventParam);
 592:Generated_Source\PSoC4/BLE_eventHandler.c ****     }
 593:Generated_Source\PSoC4/BLE_eventHandler.c **** #endif /* CYBLE_GLS_CLIENT */
 594:Generated_Source\PSoC4/BLE_eventHandler.c **** 
 595:Generated_Source\PSoC4/BLE_eventHandler.c **** #ifdef CYBLE_HIDS_CLIENT
 596:Generated_Source\PSoC4/BLE_eventHandler.c ****     if((cyBle_eventHandlerFlag & CYBLE_CALLBACK) != 0u)
 597:Generated_Source\PSoC4/BLE_eventHandler.c ****     {
 598:Generated_Source\PSoC4/BLE_eventHandler.c ****         CyBle_HidscWriteResponseEventHandler(eventParam);
 599:Generated_Source\PSoC4/BLE_eventHandler.c ****     }
 600:Generated_Source\PSoC4/BLE_eventHandler.c **** #endif /* CYBLE_HIDS_CLIENT */
 601:Generated_Source\PSoC4/BLE_eventHandler.c **** 
 602:Generated_Source\PSoC4/BLE_eventHandler.c **** #ifdef CYBLE_HRS_CLIENT
 603:Generated_Source\PSoC4/BLE_eventHandler.c ****     if((cyBle_eventHandlerFlag & CYBLE_CALLBACK) != 0u)
 604:Generated_Source\PSoC4/BLE_eventHandler.c ****     {
 605:Generated_Source\PSoC4/BLE_eventHandler.c ****         CyBle_HrscWriteResponseEventHandler(eventParam);
 606:Generated_Source\PSoC4/BLE_eventHandler.c ****     }
 607:Generated_Source\PSoC4/BLE_eventHandler.c **** #endif /* CYBLE_HRS_CLIENT */
 608:Generated_Source\PSoC4/BLE_eventHandler.c **** 
 609:Generated_Source\PSoC4/BLE_eventHandler.c **** #ifdef CYBLE_HTS_CLIENT
 610:Generated_Source\PSoC4/BLE_eventHandler.c ****     if((cyBle_eventHandlerFlag & CYBLE_CALLBACK) != 0u)
 611:Generated_Source\PSoC4/BLE_eventHandler.c ****     {
 612:Generated_Source\PSoC4/BLE_eventHandler.c ****         CyBle_HtscWriteResponseEventHandler(eventParam);
 613:Generated_Source\PSoC4/BLE_eventHandler.c ****     }
 614:Generated_Source\PSoC4/BLE_eventHandler.c **** #endif /* CYBLE_HTS_CLIENT */
 615:Generated_Source\PSoC4/BLE_eventHandler.c **** 
 616:Generated_Source\PSoC4/BLE_eventHandler.c **** #ifdef CYBLE_LLS_CLIENT
 617:Generated_Source\PSoC4/BLE_eventHandler.c ****     if((cyBle_eventHandlerFlag & CYBLE_CALLBACK) != 0u)
 618:Generated_Source\PSoC4/BLE_eventHandler.c ****     {
 619:Generated_Source\PSoC4/BLE_eventHandler.c ****         CyBle_LlscWriteResponseEventHandler(eventParam);
 620:Generated_Source\PSoC4/BLE_eventHandler.c ****     }
 621:Generated_Source\PSoC4/BLE_eventHandler.c **** #endif /* CYBLE_LLS_CLIENT */
 622:Generated_Source\PSoC4/BLE_eventHandler.c **** 
 623:Generated_Source\PSoC4/BLE_eventHandler.c **** #ifdef CYBLE_LNS_CLIENT
 624:Generated_Source\PSoC4/BLE_eventHandler.c ****     if((cyBle_eventHandlerFlag & CYBLE_CALLBACK) != 0u)
 625:Generated_Source\PSoC4/BLE_eventHandler.c ****     {
 626:Generated_Source\PSoC4/BLE_eventHandler.c ****         CyBle_LnscWriteResponseEventHandler(eventParam);
 627:Generated_Source\PSoC4/BLE_eventHandler.c ****     }
 628:Generated_Source\PSoC4/BLE_eventHandler.c **** #endif /* CYBLE_LNS_CLIENT */
 629:Generated_Source\PSoC4/BLE_eventHandler.c **** 
 630:Generated_Source\PSoC4/BLE_eventHandler.c **** #ifdef CYBLE_PASS_CLIENT
 631:Generated_Source\PSoC4/BLE_eventHandler.c ****     if((cyBle_eventHandlerFlag & CYBLE_CALLBACK) != 0u)
 632:Generated_Source\PSoC4/BLE_eventHandler.c ****     {
 633:Generated_Source\PSoC4/BLE_eventHandler.c ****         CyBle_PasscWriteResponseEventHandler(eventParam);
 634:Generated_Source\PSoC4/BLE_eventHandler.c ****     }
 635:Generated_Source\PSoC4/BLE_eventHandler.c **** #endif /* CYBLE_PASS_CLIENT */
 636:Generated_Source\PSoC4/BLE_eventHandler.c **** 
 637:Generated_Source\PSoC4/BLE_eventHandler.c **** #ifdef CYBLE_RSCS_CLIENT
 638:Generated_Source\PSoC4/BLE_eventHandler.c ****     if((cyBle_eventHandlerFlag & CYBLE_CALLBACK) != 0u)
 639:Generated_Source\PSoC4/BLE_eventHandler.c ****     {
 640:Generated_Source\PSoC4/BLE_eventHandler.c ****         CyBle_RscscWriteResponseEventHandler(eventParam);
 641:Generated_Source\PSoC4/BLE_eventHandler.c ****     }
 642:Generated_Source\PSoC4/BLE_eventHandler.c **** #endif /* CYBLE_RSCS_CLIENT */
 643:Generated_Source\PSoC4/BLE_eventHandler.c **** 
 644:Generated_Source\PSoC4/BLE_eventHandler.c **** #ifdef CYBLE_SCPS_CLIENT
 645:Generated_Source\PSoC4/BLE_eventHandler.c ****     if((cyBle_eventHandlerFlag & CYBLE_CALLBACK) != 0u)
 646:Generated_Source\PSoC4/BLE_eventHandler.c ****     {
 647:Generated_Source\PSoC4/BLE_eventHandler.c ****         CyBle_ScpscWriteResponseEventHandler(eventParam);
ARM GAS  C:\Users\TTSS\AppData\Local\Temp\ccwoAHLq.s 			page 15


 648:Generated_Source\PSoC4/BLE_eventHandler.c ****     }
 649:Generated_Source\PSoC4/BLE_eventHandler.c **** #endif /* CYBLE_SCPS_CLIENT */
 650:Generated_Source\PSoC4/BLE_eventHandler.c **** 
 651:Generated_Source\PSoC4/BLE_eventHandler.c **** #ifdef CYBLE_TPS_CLIENT
 652:Generated_Source\PSoC4/BLE_eventHandler.c ****     if((cyBle_eventHandlerFlag & CYBLE_CALLBACK) != 0u)
 653:Generated_Source\PSoC4/BLE_eventHandler.c ****     {
 654:Generated_Source\PSoC4/BLE_eventHandler.c ****         CyBle_TpscWriteResponseEventHandler(eventParam);
 655:Generated_Source\PSoC4/BLE_eventHandler.c ****     }
 656:Generated_Source\PSoC4/BLE_eventHandler.c **** #endif /* CYBLE_TPS_CLIENT */
 657:Generated_Source\PSoC4/BLE_eventHandler.c **** 
 658:Generated_Source\PSoC4/BLE_eventHandler.c **** #ifdef CYBLE_UDS_CLIENT
 659:Generated_Source\PSoC4/BLE_eventHandler.c ****     if((cyBle_eventHandlerFlag & CYBLE_CALLBACK) != 0u)
 660:Generated_Source\PSoC4/BLE_eventHandler.c ****     {
 661:Generated_Source\PSoC4/BLE_eventHandler.c ****         CyBle_UdscWriteResponseEventHandler(eventParam);
 662:Generated_Source\PSoC4/BLE_eventHandler.c ****     }
 663:Generated_Source\PSoC4/BLE_eventHandler.c **** #endif /* CYBLE_UDS_CLIENT */
 664:Generated_Source\PSoC4/BLE_eventHandler.c **** #ifdef CYBLE_WPTS_CLIENT
 665:Generated_Source\PSoC4/BLE_eventHandler.c ****     if((cyBle_eventHandlerFlag & CYBLE_CALLBACK) != 0u)
 666:Generated_Source\PSoC4/BLE_eventHandler.c ****     {
 667:Generated_Source\PSoC4/BLE_eventHandler.c ****         CyBle_WptscWriteResponseEventHandler(eventParam);
 668:Generated_Source\PSoC4/BLE_eventHandler.c ****     }
 669:Generated_Source\PSoC4/BLE_eventHandler.c **** #endif /* CYBLE_WPTS_CLIENT */
 670:Generated_Source\PSoC4/BLE_eventHandler.c **** #ifdef CYBLE_WSS_CLIENT
 671:Generated_Source\PSoC4/BLE_eventHandler.c ****     if((cyBle_eventHandlerFlag & CYBLE_CALLBACK) != 0u)
 672:Generated_Source\PSoC4/BLE_eventHandler.c ****     {
 673:Generated_Source\PSoC4/BLE_eventHandler.c ****         CyBle_WsscWriteResponseEventHandler(eventParam);
 674:Generated_Source\PSoC4/BLE_eventHandler.c ****     }
 675:Generated_Source\PSoC4/BLE_eventHandler.c **** #endif /* CYBLE_WSS_CLIENT */
 676:Generated_Source\PSoC4/BLE_eventHandler.c **** }
 677:Generated_Source\PSoC4/BLE_eventHandler.c **** 
 678:Generated_Source\PSoC4/BLE_eventHandler.c **** 
 679:Generated_Source\PSoC4/BLE_eventHandler.c **** /******************************************************************************    
 680:Generated_Source\PSoC4/BLE_eventHandler.c **** ##Function Name: CyBle_NotificationEventHandler
 681:Generated_Source\PSoC4/BLE_eventHandler.c **** *******************************************************************************
 682:Generated_Source\PSoC4/BLE_eventHandler.c **** 
 683:Generated_Source\PSoC4/BLE_eventHandler.c **** Summary:
 684:Generated_Source\PSoC4/BLE_eventHandler.c ****  Handles the Notification event from BLE stack.
 685:Generated_Source\PSoC4/BLE_eventHandler.c **** 
 686:Generated_Source\PSoC4/BLE_eventHandler.c **** Parameters:
 687:Generated_Source\PSoC4/BLE_eventHandler.c ****  CYBLE_GATTC_HANDLE_VALUE_NTF_PARAM_T * eventParam - event parameter
 688:Generated_Source\PSoC4/BLE_eventHandler.c **** 
 689:Generated_Source\PSoC4/BLE_eventHandler.c **** Return:
 690:Generated_Source\PSoC4/BLE_eventHandler.c ****  None
 691:Generated_Source\PSoC4/BLE_eventHandler.c **** 
 692:Generated_Source\PSoC4/BLE_eventHandler.c **** ******************************************************************************/
 693:Generated_Source\PSoC4/BLE_eventHandler.c **** static void CyBle_NotificationEventHandler(CYBLE_GATTC_HANDLE_VALUE_NTF_PARAM_T *eventParam)
 694:Generated_Source\PSoC4/BLE_eventHandler.c **** {
 695:Generated_Source\PSoC4/BLE_eventHandler.c **** #ifdef CYBLE_ANCS_CLIENT
 696:Generated_Source\PSoC4/BLE_eventHandler.c ****     CyBle_AncscNotificationEventHandler(eventParam);
 697:Generated_Source\PSoC4/BLE_eventHandler.c **** #endif /* CYBLE_ANCS_CLIENT */
 698:Generated_Source\PSoC4/BLE_eventHandler.c **** #ifdef CYBLE_ANS_CLIENT
 699:Generated_Source\PSoC4/BLE_eventHandler.c ****     if((cyBle_eventHandlerFlag & CYBLE_CALLBACK) != 0u)
 700:Generated_Source\PSoC4/BLE_eventHandler.c ****     {
 701:Generated_Source\PSoC4/BLE_eventHandler.c ****         CyBle_AnscNotificationEventHandler(eventParam);
 702:Generated_Source\PSoC4/BLE_eventHandler.c ****     }
 703:Generated_Source\PSoC4/BLE_eventHandler.c **** #endif /* CYBLE_ANS_CLIENT */
 704:Generated_Source\PSoC4/BLE_eventHandler.c **** #ifdef CYBLE_BAS_CLIENT
ARM GAS  C:\Users\TTSS\AppData\Local\Temp\ccwoAHLq.s 			page 16


 705:Generated_Source\PSoC4/BLE_eventHandler.c ****     if((cyBle_eventHandlerFlag & CYBLE_CALLBACK) != 0u)
 706:Generated_Source\PSoC4/BLE_eventHandler.c ****     {
 707:Generated_Source\PSoC4/BLE_eventHandler.c ****         CyBle_BascNotificationEventHandler(eventParam);
 708:Generated_Source\PSoC4/BLE_eventHandler.c ****     }
 709:Generated_Source\PSoC4/BLE_eventHandler.c **** #endif /* CYBLE_BAS_CLIENT */
 710:Generated_Source\PSoC4/BLE_eventHandler.c **** #ifdef CYBLE_BLS_CLIENT
 711:Generated_Source\PSoC4/BLE_eventHandler.c ****     if((cyBle_eventHandlerFlag & CYBLE_CALLBACK) != 0u)
 712:Generated_Source\PSoC4/BLE_eventHandler.c ****     {
 713:Generated_Source\PSoC4/BLE_eventHandler.c ****         CyBle_BlscNotificationEventHandler(eventParam);
 714:Generated_Source\PSoC4/BLE_eventHandler.c ****     }
 715:Generated_Source\PSoC4/BLE_eventHandler.c **** #endif /* CYBLE_BLS_CLIENT */
 716:Generated_Source\PSoC4/BLE_eventHandler.c **** #ifdef CYBLE_CGMS_CLIENT
 717:Generated_Source\PSoC4/BLE_eventHandler.c ****     if((cyBle_eventHandlerFlag & CYBLE_CALLBACK) != 0u)
 718:Generated_Source\PSoC4/BLE_eventHandler.c ****     {
 719:Generated_Source\PSoC4/BLE_eventHandler.c ****         CyBle_CgmscNotificationEventHandler(eventParam);
 720:Generated_Source\PSoC4/BLE_eventHandler.c ****     }
 721:Generated_Source\PSoC4/BLE_eventHandler.c **** #endif /* CYBLE_CGMS_CLIENT */
 722:Generated_Source\PSoC4/BLE_eventHandler.c **** #ifdef CYBLE_CPS_CLIENT
 723:Generated_Source\PSoC4/BLE_eventHandler.c ****     if((cyBle_eventHandlerFlag & CYBLE_CALLBACK) != 0u)
 724:Generated_Source\PSoC4/BLE_eventHandler.c ****     {
 725:Generated_Source\PSoC4/BLE_eventHandler.c ****         CyBle_CpscNotificationEventHandler(eventParam);
 726:Generated_Source\PSoC4/BLE_eventHandler.c ****     }
 727:Generated_Source\PSoC4/BLE_eventHandler.c **** #endif /* CYBLE_CPS_CLIENT */
 728:Generated_Source\PSoC4/BLE_eventHandler.c **** #ifdef CYBLE_CSCS_CLIENT
 729:Generated_Source\PSoC4/BLE_eventHandler.c ****     if((cyBle_eventHandlerFlag & CYBLE_CALLBACK) != 0u)
 730:Generated_Source\PSoC4/BLE_eventHandler.c ****     {
 731:Generated_Source\PSoC4/BLE_eventHandler.c ****         CyBle_CscscNotificationEventHandler(eventParam);
 732:Generated_Source\PSoC4/BLE_eventHandler.c ****     }
 733:Generated_Source\PSoC4/BLE_eventHandler.c **** #endif /* CYBLE_CSCS_CLIENT */
 734:Generated_Source\PSoC4/BLE_eventHandler.c **** #ifdef CYBLE_CTS_CLIENT
 735:Generated_Source\PSoC4/BLE_eventHandler.c ****     if((cyBle_eventHandlerFlag & CYBLE_CALLBACK) != 0u)
 736:Generated_Source\PSoC4/BLE_eventHandler.c ****     {
 737:Generated_Source\PSoC4/BLE_eventHandler.c ****         CyBle_CtscNotificationEventHandler(eventParam);
 738:Generated_Source\PSoC4/BLE_eventHandler.c ****     }
 739:Generated_Source\PSoC4/BLE_eventHandler.c **** #endif /* CYBLE_CTS_CLIENT */
 740:Generated_Source\PSoC4/BLE_eventHandler.c **** #ifdef CYBLE_ESS_CLIENT
 741:Generated_Source\PSoC4/BLE_eventHandler.c ****     if((cyBle_eventHandlerFlag & CYBLE_CALLBACK) != 0u)
 742:Generated_Source\PSoC4/BLE_eventHandler.c ****     {
 743:Generated_Source\PSoC4/BLE_eventHandler.c ****         CyBle_EsscNotificationEventHandler(eventParam);
 744:Generated_Source\PSoC4/BLE_eventHandler.c ****     }
 745:Generated_Source\PSoC4/BLE_eventHandler.c **** #endif /* CYBLE_ESS_CLIENT */
 746:Generated_Source\PSoC4/BLE_eventHandler.c **** #ifdef CYBLE_GLS_CLIENT
 747:Generated_Source\PSoC4/BLE_eventHandler.c ****     if((cyBle_eventHandlerFlag & CYBLE_CALLBACK) != 0u)
 748:Generated_Source\PSoC4/BLE_eventHandler.c ****     {
 749:Generated_Source\PSoC4/BLE_eventHandler.c ****         CyBle_GlscNotificationEventHandler(eventParam);
 750:Generated_Source\PSoC4/BLE_eventHandler.c ****     }
 751:Generated_Source\PSoC4/BLE_eventHandler.c **** #endif /* CYBLE_GLS_CLIENT */
 752:Generated_Source\PSoC4/BLE_eventHandler.c **** #ifdef CYBLE_HIDS_CLIENT
 753:Generated_Source\PSoC4/BLE_eventHandler.c ****     if((cyBle_eventHandlerFlag & CYBLE_CALLBACK) != 0u)
 754:Generated_Source\PSoC4/BLE_eventHandler.c ****     {
 755:Generated_Source\PSoC4/BLE_eventHandler.c ****         CyBle_HidscNotificationEventHandler(eventParam);
 756:Generated_Source\PSoC4/BLE_eventHandler.c ****     }
 757:Generated_Source\PSoC4/BLE_eventHandler.c **** #endif /* CYBLE_HIDS_CLIENT */
 758:Generated_Source\PSoC4/BLE_eventHandler.c **** #ifdef CYBLE_HRS_CLIENT
 759:Generated_Source\PSoC4/BLE_eventHandler.c ****     if((cyBle_eventHandlerFlag & CYBLE_CALLBACK) != 0u)
 760:Generated_Source\PSoC4/BLE_eventHandler.c ****     {
 761:Generated_Source\PSoC4/BLE_eventHandler.c ****         CyBle_HrscNotificationEventHandler(eventParam);
ARM GAS  C:\Users\TTSS\AppData\Local\Temp\ccwoAHLq.s 			page 17


 762:Generated_Source\PSoC4/BLE_eventHandler.c ****     }
 763:Generated_Source\PSoC4/BLE_eventHandler.c **** #endif /* CYBLE_HRS_CLIENT */
 764:Generated_Source\PSoC4/BLE_eventHandler.c **** #ifdef CYBLE_HTS_CLIENT
 765:Generated_Source\PSoC4/BLE_eventHandler.c ****     if((cyBle_eventHandlerFlag & CYBLE_CALLBACK) != 0u)
 766:Generated_Source\PSoC4/BLE_eventHandler.c ****     {
 767:Generated_Source\PSoC4/BLE_eventHandler.c ****         CyBle_HtscNotificationEventHandler(eventParam);
 768:Generated_Source\PSoC4/BLE_eventHandler.c ****     }
 769:Generated_Source\PSoC4/BLE_eventHandler.c **** #endif /* CYBLE_HTS_CLIENT */
 770:Generated_Source\PSoC4/BLE_eventHandler.c **** #ifdef CYBLE_LNS_CLIENT
 771:Generated_Source\PSoC4/BLE_eventHandler.c ****     if((cyBle_eventHandlerFlag & CYBLE_CALLBACK) != 0u)
 772:Generated_Source\PSoC4/BLE_eventHandler.c ****     {
 773:Generated_Source\PSoC4/BLE_eventHandler.c ****         CyBle_LnscNotificationEventHandler(eventParam);
 774:Generated_Source\PSoC4/BLE_eventHandler.c ****     }
 775:Generated_Source\PSoC4/BLE_eventHandler.c **** #endif /* CYBLE_LNS_CLIENT */
 776:Generated_Source\PSoC4/BLE_eventHandler.c **** #ifdef CYBLE_PASS_CLIENT
 777:Generated_Source\PSoC4/BLE_eventHandler.c ****     if((cyBle_eventHandlerFlag & CYBLE_CALLBACK) != 0u)
 778:Generated_Source\PSoC4/BLE_eventHandler.c ****     {
 779:Generated_Source\PSoC4/BLE_eventHandler.c ****         CyBle_PasscNotificationEventHandler(eventParam);
 780:Generated_Source\PSoC4/BLE_eventHandler.c ****     }
 781:Generated_Source\PSoC4/BLE_eventHandler.c **** #endif /* CYBLE_PASS_CLIENT */
 782:Generated_Source\PSoC4/BLE_eventHandler.c **** #ifdef CYBLE_RSCS_CLIENT
 783:Generated_Source\PSoC4/BLE_eventHandler.c ****     if((cyBle_eventHandlerFlag & CYBLE_CALLBACK) != 0u)
 784:Generated_Source\PSoC4/BLE_eventHandler.c ****     {
 785:Generated_Source\PSoC4/BLE_eventHandler.c ****         CyBle_RscscNotificationEventHandler(eventParam);
 786:Generated_Source\PSoC4/BLE_eventHandler.c ****     }
 787:Generated_Source\PSoC4/BLE_eventHandler.c **** #endif /* CYBLE_RSCS_CLIENT */
 788:Generated_Source\PSoC4/BLE_eventHandler.c **** #ifdef CYBLE_SCPS_CLIENT
 789:Generated_Source\PSoC4/BLE_eventHandler.c ****     if((cyBle_eventHandlerFlag & CYBLE_CALLBACK) != 0u)
 790:Generated_Source\PSoC4/BLE_eventHandler.c ****     {
 791:Generated_Source\PSoC4/BLE_eventHandler.c ****         CyBle_ScpscNotificationEventHandler(eventParam);
 792:Generated_Source\PSoC4/BLE_eventHandler.c ****     }
 793:Generated_Source\PSoC4/BLE_eventHandler.c **** #endif /* CYBLE_SCPS_CLIENT */
 794:Generated_Source\PSoC4/BLE_eventHandler.c **** #ifdef CYBLE_TPS_CLIENT
 795:Generated_Source\PSoC4/BLE_eventHandler.c ****     if((cyBle_eventHandlerFlag & CYBLE_CALLBACK) != 0u)
 796:Generated_Source\PSoC4/BLE_eventHandler.c ****     {
 797:Generated_Source\PSoC4/BLE_eventHandler.c ****         CyBle_TpscNotificationEventHandler(eventParam);
 798:Generated_Source\PSoC4/BLE_eventHandler.c ****     }
 799:Generated_Source\PSoC4/BLE_eventHandler.c **** #endif /* CYBLE_TPS_CLIENT */
 800:Generated_Source\PSoC4/BLE_eventHandler.c **** #ifdef CYBLE_UDS_CLIENT
 801:Generated_Source\PSoC4/BLE_eventHandler.c ****     if((cyBle_eventHandlerFlag & CYBLE_CALLBACK) != 0u)
 802:Generated_Source\PSoC4/BLE_eventHandler.c ****     {
 803:Generated_Source\PSoC4/BLE_eventHandler.c ****         CyBle_UdscNotificationEventHandler(eventParam);
 804:Generated_Source\PSoC4/BLE_eventHandler.c ****     }
 805:Generated_Source\PSoC4/BLE_eventHandler.c **** #endif /* CYBLE_UDS_CLIENT */
 806:Generated_Source\PSoC4/BLE_eventHandler.c **** #ifdef CYBLE_WPTS_CLIENT
 807:Generated_Source\PSoC4/BLE_eventHandler.c ****     if((cyBle_eventHandlerFlag & CYBLE_CALLBACK) != 0u)
 808:Generated_Source\PSoC4/BLE_eventHandler.c ****     {
 809:Generated_Source\PSoC4/BLE_eventHandler.c ****         CyBle_WptscNotificationEventHandler(eventParam);
 810:Generated_Source\PSoC4/BLE_eventHandler.c ****     }
 811:Generated_Source\PSoC4/BLE_eventHandler.c **** #endif /* CYBLE_WPTS_CLIENT */
 812:Generated_Source\PSoC4/BLE_eventHandler.c **** }
 813:Generated_Source\PSoC4/BLE_eventHandler.c **** 
 814:Generated_Source\PSoC4/BLE_eventHandler.c **** 
 815:Generated_Source\PSoC4/BLE_eventHandler.c **** /******************************************************************************    
 816:Generated_Source\PSoC4/BLE_eventHandler.c **** ##Function Name: CyBle_IndicationEventHandler
 817:Generated_Source\PSoC4/BLE_eventHandler.c **** *******************************************************************************
 818:Generated_Source\PSoC4/BLE_eventHandler.c **** 
ARM GAS  C:\Users\TTSS\AppData\Local\Temp\ccwoAHLq.s 			page 18


 819:Generated_Source\PSoC4/BLE_eventHandler.c **** Summary:
 820:Generated_Source\PSoC4/BLE_eventHandler.c ****  Handles the Indication event from BLE stack.
 821:Generated_Source\PSoC4/BLE_eventHandler.c **** 
 822:Generated_Source\PSoC4/BLE_eventHandler.c **** Parameters:
 823:Generated_Source\PSoC4/BLE_eventHandler.c ****  CYBLE_GATTC_HANDLE_VALUE_IND_PARAM_T * eventParam - event parameter
 824:Generated_Source\PSoC4/BLE_eventHandler.c **** 
 825:Generated_Source\PSoC4/BLE_eventHandler.c **** Return:
 826:Generated_Source\PSoC4/BLE_eventHandler.c ****  None
 827:Generated_Source\PSoC4/BLE_eventHandler.c **** 
 828:Generated_Source\PSoC4/BLE_eventHandler.c **** ******************************************************************************/
 829:Generated_Source\PSoC4/BLE_eventHandler.c **** static void CyBle_IndicationEventHandler(CYBLE_GATTC_HANDLE_VALUE_IND_PARAM_T *eventParam)
 830:Generated_Source\PSoC4/BLE_eventHandler.c **** {
 831:Generated_Source\PSoC4/BLE_eventHandler.c **** #ifdef CYBLE_BLS_CLIENT
 832:Generated_Source\PSoC4/BLE_eventHandler.c ****     if((cyBle_eventHandlerFlag & CYBLE_CALLBACK) != 0u)
 833:Generated_Source\PSoC4/BLE_eventHandler.c ****     {
 834:Generated_Source\PSoC4/BLE_eventHandler.c ****         CyBle_BlscIndicationEventHandler(eventParam);
 835:Generated_Source\PSoC4/BLE_eventHandler.c ****     }
 836:Generated_Source\PSoC4/BLE_eventHandler.c **** #endif /* CYBLE_BLS_CLIENT */
 837:Generated_Source\PSoC4/BLE_eventHandler.c **** #ifdef CYBLE_CGMS_CLIENT
 838:Generated_Source\PSoC4/BLE_eventHandler.c ****     if((cyBle_eventHandlerFlag & CYBLE_CALLBACK) != 0u)
 839:Generated_Source\PSoC4/BLE_eventHandler.c ****     {
 840:Generated_Source\PSoC4/BLE_eventHandler.c ****         CyBle_CgmscIndicationEventHandler(eventParam);
 841:Generated_Source\PSoC4/BLE_eventHandler.c ****     }
 842:Generated_Source\PSoC4/BLE_eventHandler.c **** #endif /* CYBLE_CGMS_CLIENT */
 843:Generated_Source\PSoC4/BLE_eventHandler.c **** #ifdef CYBLE_CPS_CLIENT
 844:Generated_Source\PSoC4/BLE_eventHandler.c ****     if((cyBle_eventHandlerFlag & CYBLE_CALLBACK) != 0u)
 845:Generated_Source\PSoC4/BLE_eventHandler.c ****     {
 846:Generated_Source\PSoC4/BLE_eventHandler.c ****         CyBle_CpscIndicationEventHandler(eventParam);
 847:Generated_Source\PSoC4/BLE_eventHandler.c ****     }
 848:Generated_Source\PSoC4/BLE_eventHandler.c **** #endif /* CYBLE_CPS_CLIENT */
 849:Generated_Source\PSoC4/BLE_eventHandler.c **** #ifdef CYBLE_CSCS_CLIENT
 850:Generated_Source\PSoC4/BLE_eventHandler.c ****     if((cyBle_eventHandlerFlag & CYBLE_CALLBACK) != 0u)
 851:Generated_Source\PSoC4/BLE_eventHandler.c ****     {
 852:Generated_Source\PSoC4/BLE_eventHandler.c ****         CyBle_CscscIndicationEventHandler(eventParam);
 853:Generated_Source\PSoC4/BLE_eventHandler.c ****     }
 854:Generated_Source\PSoC4/BLE_eventHandler.c **** #endif /* CYBLE_CSCS_CLIENT */
 855:Generated_Source\PSoC4/BLE_eventHandler.c **** #ifdef CYBLE_ESS_CLIENT
 856:Generated_Source\PSoC4/BLE_eventHandler.c ****     if((cyBle_eventHandlerFlag & CYBLE_CALLBACK) != 0u)
 857:Generated_Source\PSoC4/BLE_eventHandler.c ****     {
 858:Generated_Source\PSoC4/BLE_eventHandler.c ****         CyBle_EsscIndicationEventHandler(eventParam);
 859:Generated_Source\PSoC4/BLE_eventHandler.c ****     }
 860:Generated_Source\PSoC4/BLE_eventHandler.c **** #endif /* CYBLE_ESS_CLIENT */
 861:Generated_Source\PSoC4/BLE_eventHandler.c **** #ifdef CYBLE_GLS_CLIENT
 862:Generated_Source\PSoC4/BLE_eventHandler.c ****     if((cyBle_eventHandlerFlag & CYBLE_CALLBACK) != 0u)
 863:Generated_Source\PSoC4/BLE_eventHandler.c ****     {
 864:Generated_Source\PSoC4/BLE_eventHandler.c ****         CyBle_GlscIndicationEventHandler(eventParam);
 865:Generated_Source\PSoC4/BLE_eventHandler.c ****     }
 866:Generated_Source\PSoC4/BLE_eventHandler.c **** #endif /* CYBLE_GLS_CLIENT */
 867:Generated_Source\PSoC4/BLE_eventHandler.c **** #ifdef CYBLE_HTS_CLIENT
 868:Generated_Source\PSoC4/BLE_eventHandler.c ****     if((cyBle_eventHandlerFlag & CYBLE_CALLBACK) != 0u)
 869:Generated_Source\PSoC4/BLE_eventHandler.c ****     {
 870:Generated_Source\PSoC4/BLE_eventHandler.c ****         CyBle_HtscIndicationEventHandler(eventParam);
 871:Generated_Source\PSoC4/BLE_eventHandler.c ****     }
 872:Generated_Source\PSoC4/BLE_eventHandler.c **** #endif /* CYBLE_HTS_CLIENT */
 873:Generated_Source\PSoC4/BLE_eventHandler.c **** #ifdef CYBLE_LNS_CLIENT
 874:Generated_Source\PSoC4/BLE_eventHandler.c ****     if((cyBle_eventHandlerFlag & CYBLE_CALLBACK) != 0u)
 875:Generated_Source\PSoC4/BLE_eventHandler.c ****     {
ARM GAS  C:\Users\TTSS\AppData\Local\Temp\ccwoAHLq.s 			page 19


 876:Generated_Source\PSoC4/BLE_eventHandler.c ****         CyBle_LnscIndicationEventHandler(eventParam);
 877:Generated_Source\PSoC4/BLE_eventHandler.c ****     }
 878:Generated_Source\PSoC4/BLE_eventHandler.c **** #endif /* CYBLE_LNS_CLIENT */
 879:Generated_Source\PSoC4/BLE_eventHandler.c **** #ifdef CYBLE_RSCS_CLIENT
 880:Generated_Source\PSoC4/BLE_eventHandler.c ****     if((cyBle_eventHandlerFlag & CYBLE_CALLBACK) != 0u)
 881:Generated_Source\PSoC4/BLE_eventHandler.c ****     {
 882:Generated_Source\PSoC4/BLE_eventHandler.c ****         CyBle_RscscIndicationEventHandler(eventParam);
 883:Generated_Source\PSoC4/BLE_eventHandler.c ****     }
 884:Generated_Source\PSoC4/BLE_eventHandler.c **** #endif /* CYBLE_RSCS_CLIENT */
 885:Generated_Source\PSoC4/BLE_eventHandler.c **** #ifdef CYBLE_UDS_CLIENT
 886:Generated_Source\PSoC4/BLE_eventHandler.c ****     if((cyBle_eventHandlerFlag & CYBLE_CALLBACK) != 0u)
 887:Generated_Source\PSoC4/BLE_eventHandler.c ****     {
 888:Generated_Source\PSoC4/BLE_eventHandler.c ****         CyBle_UdscIndicationEventHandler(eventParam);
 889:Generated_Source\PSoC4/BLE_eventHandler.c ****     }
 890:Generated_Source\PSoC4/BLE_eventHandler.c **** #endif /* CYBLE_UDS_CLIENT */
 891:Generated_Source\PSoC4/BLE_eventHandler.c **** #ifdef CYBLE_WPTS_CLIENT
 892:Generated_Source\PSoC4/BLE_eventHandler.c ****     if((cyBle_eventHandlerFlag & CYBLE_CALLBACK) != 0u)
 893:Generated_Source\PSoC4/BLE_eventHandler.c ****     {
 894:Generated_Source\PSoC4/BLE_eventHandler.c ****         CyBle_WptscIndicationEventHandler(eventParam);
 895:Generated_Source\PSoC4/BLE_eventHandler.c ****     }
 896:Generated_Source\PSoC4/BLE_eventHandler.c **** #endif /* CYBLE_WPTS_CLIENT */
 897:Generated_Source\PSoC4/BLE_eventHandler.c **** #ifdef CYBLE_WSS_CLIENT
 898:Generated_Source\PSoC4/BLE_eventHandler.c ****     if((cyBle_eventHandlerFlag & CYBLE_CALLBACK) != 0u)
 899:Generated_Source\PSoC4/BLE_eventHandler.c ****     {
 900:Generated_Source\PSoC4/BLE_eventHandler.c ****         CyBle_WsscIndicationEventHandler(eventParam);
 901:Generated_Source\PSoC4/BLE_eventHandler.c ****     }
 902:Generated_Source\PSoC4/BLE_eventHandler.c **** #endif /* CYBLE_WSS_CLIENT */
 903:Generated_Source\PSoC4/BLE_eventHandler.c **** }
 904:Generated_Source\PSoC4/BLE_eventHandler.c **** 
 905:Generated_Source\PSoC4/BLE_eventHandler.c **** 
 906:Generated_Source\PSoC4/BLE_eventHandler.c **** 
 907:Generated_Source\PSoC4/BLE_eventHandler.c **** /******************************************************************************    
 908:Generated_Source\PSoC4/BLE_eventHandler.c **** ##Function Name: CyBle_ReadResponseEventHandler
 909:Generated_Source\PSoC4/BLE_eventHandler.c **** *******************************************************************************
 910:Generated_Source\PSoC4/BLE_eventHandler.c **** 
 911:Generated_Source\PSoC4/BLE_eventHandler.c **** Summary:
 912:Generated_Source\PSoC4/BLE_eventHandler.c ****  Handles the Read Response event from BLE stack.
 913:Generated_Source\PSoC4/BLE_eventHandler.c **** 
 914:Generated_Source\PSoC4/BLE_eventHandler.c **** Parameters:
 915:Generated_Source\PSoC4/BLE_eventHandler.c ****  CYBLE_GATTC_READ_RSP_PARAM_T * eventParam - event parameter
 916:Generated_Source\PSoC4/BLE_eventHandler.c **** 
 917:Generated_Source\PSoC4/BLE_eventHandler.c **** Return:
 918:Generated_Source\PSoC4/BLE_eventHandler.c ****  None
 919:Generated_Source\PSoC4/BLE_eventHandler.c **** 
 920:Generated_Source\PSoC4/BLE_eventHandler.c **** ******************************************************************************/
 921:Generated_Source\PSoC4/BLE_eventHandler.c **** static void CyBle_ReadResponseEventHandler(CYBLE_GATTC_READ_RSP_PARAM_T *eventParam)
 922:Generated_Source\PSoC4/BLE_eventHandler.c **** {
 923:Generated_Source\PSoC4/BLE_eventHandler.c **** #ifdef CYBLE_CUSTOM_CLIENT
 924:Generated_Source\PSoC4/BLE_eventHandler.c ****     /* Read response with 128-bit included service uuid */
 925:Generated_Source\PSoC4/BLE_eventHandler.c ****     if((CYBLE_CLIENT_STATE_INCL_DISCOVERING == CyBle_GetClientState()) &&
 926:Generated_Source\PSoC4/BLE_eventHandler.c ****        (cyBle_discInclInfo.inclDefHandle != 0u))
 927:Generated_Source\PSoC4/BLE_eventHandler.c ****     {
 928:Generated_Source\PSoC4/BLE_eventHandler.c ****         CYBLE_DISC_SRVC128_INFO_T discServInfo;
 929:Generated_Source\PSoC4/BLE_eventHandler.c **** 
 930:Generated_Source\PSoC4/BLE_eventHandler.c ****         /* Store service range */
 931:Generated_Source\PSoC4/BLE_eventHandler.c ****         discServInfo.range = cyBle_discInclInfo.inclHandleRange;
 932:Generated_Source\PSoC4/BLE_eventHandler.c ****         (void)memcpy((void *) discServInfo.uuid.uuid128.value, (void *)eventParam->value.val, event
ARM GAS  C:\Users\TTSS\AppData\Local\Temp\ccwoAHLq.s 			page 20


 933:Generated_Source\PSoC4/BLE_eventHandler.c ****         CyBle_CustomcDiscoverServiceEventHandler(&discServInfo);
 934:Generated_Source\PSoC4/BLE_eventHandler.c ****         
 935:Generated_Source\PSoC4/BLE_eventHandler.c ****         /* Re-initiate CyBle_GattcFindIncludedServices function, setting the start
 936:Generated_Source\PSoC4/BLE_eventHandler.c ****            handle to the attribute handle which is placed next to the one used in
 937:Generated_Source\PSoC4/BLE_eventHandler.c ****            the above step.
 938:Generated_Source\PSoC4/BLE_eventHandler.c ****         */
 939:Generated_Source\PSoC4/BLE_eventHandler.c ****         discServInfo.range.startHandle = cyBle_discInclInfo.inclDefHandle + 1;
 940:Generated_Source\PSoC4/BLE_eventHandler.c ****         discServInfo.range.endHandle = cyBle_serverInfo[cyBle_disCount].range.endHandle;
 941:Generated_Source\PSoC4/BLE_eventHandler.c ****         if(discServInfo.range.startHandle <= discServInfo.range.endHandle)
 942:Generated_Source\PSoC4/BLE_eventHandler.c ****         {
 943:Generated_Source\PSoC4/BLE_eventHandler.c ****             if(CYBLE_ERROR_OK != CyBle_GattcFindIncludedServices(cyBle_connHandle, &discServInfo.ra
 944:Generated_Source\PSoC4/BLE_eventHandler.c ****             {
 945:Generated_Source\PSoC4/BLE_eventHandler.c ****                 CyBle_ApplCallback(CYBLE_EVT_GATTC_INCL_DISCOVERY_FAILED, NULL);
 946:Generated_Source\PSoC4/BLE_eventHandler.c ****                 cyBle_eventHandlerFlag &= (uint8)~CYBLE_AUTO_DISCOVERY;
 947:Generated_Source\PSoC4/BLE_eventHandler.c ****             }
 948:Generated_Source\PSoC4/BLE_eventHandler.c ****         }
 949:Generated_Source\PSoC4/BLE_eventHandler.c ****         else /* Continue discovery of the following service */
 950:Generated_Source\PSoC4/BLE_eventHandler.c ****         {
 951:Generated_Source\PSoC4/BLE_eventHandler.c ****             CyBle_NextInclDiscovery(CYBLE_DISCOVERY_CONTINUE);
 952:Generated_Source\PSoC4/BLE_eventHandler.c ****         }
 953:Generated_Source\PSoC4/BLE_eventHandler.c ****         
 954:Generated_Source\PSoC4/BLE_eventHandler.c ****         cyBle_eventHandlerFlag &= (uint8)~CYBLE_CALLBACK;
 955:Generated_Source\PSoC4/BLE_eventHandler.c ****         cyBle_discInclInfo.inclDefHandle = 0u;
 956:Generated_Source\PSoC4/BLE_eventHandler.c ****         
 957:Generated_Source\PSoC4/BLE_eventHandler.c ****     }
 958:Generated_Source\PSoC4/BLE_eventHandler.c **** #endif /* CYBLE_CUSTOM_CLIENT */
 959:Generated_Source\PSoC4/BLE_eventHandler.c **** #ifdef CYBLE_ANS_CLIENT
 960:Generated_Source\PSoC4/BLE_eventHandler.c ****     if((cyBle_eventHandlerFlag & CYBLE_CALLBACK) != 0u)
 961:Generated_Source\PSoC4/BLE_eventHandler.c ****     {
 962:Generated_Source\PSoC4/BLE_eventHandler.c ****         CyBle_AnscReadResponseEventHandler(eventParam);
 963:Generated_Source\PSoC4/BLE_eventHandler.c ****     }
 964:Generated_Source\PSoC4/BLE_eventHandler.c **** #endif /* CYBLE_ANS_CLIENT */
 965:Generated_Source\PSoC4/BLE_eventHandler.c **** #ifdef CYBLE_BAS_CLIENT
 966:Generated_Source\PSoC4/BLE_eventHandler.c ****     if((cyBle_eventHandlerFlag & CYBLE_CALLBACK) != 0u)
 967:Generated_Source\PSoC4/BLE_eventHandler.c ****     {
 968:Generated_Source\PSoC4/BLE_eventHandler.c ****         CyBle_BascReadResponseEventHandler(eventParam);
 969:Generated_Source\PSoC4/BLE_eventHandler.c ****     }
 970:Generated_Source\PSoC4/BLE_eventHandler.c **** #endif /* CYBLE_BAS_CLIENT */
 971:Generated_Source\PSoC4/BLE_eventHandler.c **** #ifdef CYBLE_BLS_CLIENT
 972:Generated_Source\PSoC4/BLE_eventHandler.c ****     if((cyBle_eventHandlerFlag & CYBLE_CALLBACK) != 0u)
 973:Generated_Source\PSoC4/BLE_eventHandler.c ****     {
 974:Generated_Source\PSoC4/BLE_eventHandler.c ****         CyBle_BlscReadResponseEventHandler(eventParam);
 975:Generated_Source\PSoC4/BLE_eventHandler.c ****     }
 976:Generated_Source\PSoC4/BLE_eventHandler.c **** #endif /* CYBLE_BLS_CLIENT */
 977:Generated_Source\PSoC4/BLE_eventHandler.c **** #ifdef CYBLE_BMS_CLIENT
 978:Generated_Source\PSoC4/BLE_eventHandler.c ****     if((cyBle_eventHandlerFlag & CYBLE_CALLBACK) != 0u)
 979:Generated_Source\PSoC4/BLE_eventHandler.c ****     {
 980:Generated_Source\PSoC4/BLE_eventHandler.c ****         CyBle_BmscReadResponseEventHandler(eventParam);
 981:Generated_Source\PSoC4/BLE_eventHandler.c ****     }
 982:Generated_Source\PSoC4/BLE_eventHandler.c **** #endif /* CYBLE_BMS_CLIENT */
 983:Generated_Source\PSoC4/BLE_eventHandler.c **** #ifdef CYBLE_CGMS_CLIENT
 984:Generated_Source\PSoC4/BLE_eventHandler.c ****     if((cyBle_eventHandlerFlag & CYBLE_CALLBACK) != 0u)
 985:Generated_Source\PSoC4/BLE_eventHandler.c ****     {
 986:Generated_Source\PSoC4/BLE_eventHandler.c ****         CyBle_CgmscReadResponseEventHandler(eventParam);
 987:Generated_Source\PSoC4/BLE_eventHandler.c ****     }
 988:Generated_Source\PSoC4/BLE_eventHandler.c **** #endif /* CYBLE_CGMS_CLIENT */
 989:Generated_Source\PSoC4/BLE_eventHandler.c **** #ifdef CYBLE_CPS_CLIENT
ARM GAS  C:\Users\TTSS\AppData\Local\Temp\ccwoAHLq.s 			page 21


 990:Generated_Source\PSoC4/BLE_eventHandler.c ****     if((cyBle_eventHandlerFlag & CYBLE_CALLBACK) != 0u)
 991:Generated_Source\PSoC4/BLE_eventHandler.c ****     {
 992:Generated_Source\PSoC4/BLE_eventHandler.c ****         CyBle_CpscReadResponseEventHandler(eventParam);
 993:Generated_Source\PSoC4/BLE_eventHandler.c ****     }
 994:Generated_Source\PSoC4/BLE_eventHandler.c **** #endif /* CYBLE_CPS_CLIENT */
 995:Generated_Source\PSoC4/BLE_eventHandler.c **** #ifdef CYBLE_CSCS_CLIENT
 996:Generated_Source\PSoC4/BLE_eventHandler.c ****     if((cyBle_eventHandlerFlag & CYBLE_CALLBACK) != 0u)
 997:Generated_Source\PSoC4/BLE_eventHandler.c ****     {
 998:Generated_Source\PSoC4/BLE_eventHandler.c ****         CyBle_CscscReadResponseEventHandler(eventParam);
 999:Generated_Source\PSoC4/BLE_eventHandler.c ****     }
1000:Generated_Source\PSoC4/BLE_eventHandler.c **** #endif /* CYBLE_CSCS_CLIENT */
1001:Generated_Source\PSoC4/BLE_eventHandler.c **** #ifdef CYBLE_CTS_CLIENT
1002:Generated_Source\PSoC4/BLE_eventHandler.c ****     if((cyBle_eventHandlerFlag & CYBLE_CALLBACK) != 0u)
1003:Generated_Source\PSoC4/BLE_eventHandler.c ****     {
1004:Generated_Source\PSoC4/BLE_eventHandler.c ****         CyBle_CtscReadResponseEventHandler(eventParam);
1005:Generated_Source\PSoC4/BLE_eventHandler.c ****     }
1006:Generated_Source\PSoC4/BLE_eventHandler.c **** #endif /* CYBLE_BAS_CLIENT */
1007:Generated_Source\PSoC4/BLE_eventHandler.c **** #ifdef CYBLE_DIS_CLIENT
1008:Generated_Source\PSoC4/BLE_eventHandler.c ****     if((cyBle_eventHandlerFlag & CYBLE_CALLBACK) != 0u)
1009:Generated_Source\PSoC4/BLE_eventHandler.c ****     {
1010:Generated_Source\PSoC4/BLE_eventHandler.c ****         CyBle_DiscReadResponseEventHandler(eventParam);
1011:Generated_Source\PSoC4/BLE_eventHandler.c ****     }
1012:Generated_Source\PSoC4/BLE_eventHandler.c **** #endif /* CYBLE_DIS_CLIENT */
1013:Generated_Source\PSoC4/BLE_eventHandler.c **** #ifdef CYBLE_ESS_CLIENT
1014:Generated_Source\PSoC4/BLE_eventHandler.c ****     if((cyBle_eventHandlerFlag & CYBLE_CALLBACK) != 0u)
1015:Generated_Source\PSoC4/BLE_eventHandler.c ****     {
1016:Generated_Source\PSoC4/BLE_eventHandler.c ****         CyBle_EsscReadResponseEventHandler(eventParam);
1017:Generated_Source\PSoC4/BLE_eventHandler.c ****     }
1018:Generated_Source\PSoC4/BLE_eventHandler.c **** #endif /* CYBLE_ESS_CLIENT */
1019:Generated_Source\PSoC4/BLE_eventHandler.c **** #ifdef CYBLE_GLS_CLIENT
1020:Generated_Source\PSoC4/BLE_eventHandler.c ****     if((cyBle_eventHandlerFlag & CYBLE_CALLBACK) != 0u)
1021:Generated_Source\PSoC4/BLE_eventHandler.c ****     {
1022:Generated_Source\PSoC4/BLE_eventHandler.c ****         CyBle_GlscReadResponseEventHandler(eventParam);
1023:Generated_Source\PSoC4/BLE_eventHandler.c ****     }
1024:Generated_Source\PSoC4/BLE_eventHandler.c **** #endif /* CYBLE_GLS_CLIENT */
1025:Generated_Source\PSoC4/BLE_eventHandler.c **** #ifdef CYBLE_HIDS_CLIENT
1026:Generated_Source\PSoC4/BLE_eventHandler.c ****     if((cyBle_eventHandlerFlag & CYBLE_CALLBACK) != 0u)
1027:Generated_Source\PSoC4/BLE_eventHandler.c ****     {
1028:Generated_Source\PSoC4/BLE_eventHandler.c ****         CyBle_HidscReadResponseEventHandler(eventParam);
1029:Generated_Source\PSoC4/BLE_eventHandler.c ****     }
1030:Generated_Source\PSoC4/BLE_eventHandler.c **** #endif /* CYBLE_HIDS_CLIENT */
1031:Generated_Source\PSoC4/BLE_eventHandler.c **** #ifdef CYBLE_HRS_CLIENT
1032:Generated_Source\PSoC4/BLE_eventHandler.c ****     if((cyBle_eventHandlerFlag & CYBLE_CALLBACK) != 0u)
1033:Generated_Source\PSoC4/BLE_eventHandler.c ****     {
1034:Generated_Source\PSoC4/BLE_eventHandler.c ****         CyBle_HrscReadResponseEventHandler(eventParam);
1035:Generated_Source\PSoC4/BLE_eventHandler.c ****     }
1036:Generated_Source\PSoC4/BLE_eventHandler.c **** #endif /* CYBLE_HRS_CLIENT */
1037:Generated_Source\PSoC4/BLE_eventHandler.c **** #ifdef CYBLE_HTS_CLIENT
1038:Generated_Source\PSoC4/BLE_eventHandler.c ****     if((cyBle_eventHandlerFlag & CYBLE_CALLBACK) != 0u)
1039:Generated_Source\PSoC4/BLE_eventHandler.c ****     {
1040:Generated_Source\PSoC4/BLE_eventHandler.c ****         CyBle_HtscReadResponseEventHandler(eventParam);
1041:Generated_Source\PSoC4/BLE_eventHandler.c ****     }
1042:Generated_Source\PSoC4/BLE_eventHandler.c **** #endif /* CYBLE_HTS_CLIENT */
1043:Generated_Source\PSoC4/BLE_eventHandler.c **** #ifdef CYBLE_LLS_CLIENT
1044:Generated_Source\PSoC4/BLE_eventHandler.c ****     if((cyBle_eventHandlerFlag & CYBLE_CALLBACK) != 0u)
1045:Generated_Source\PSoC4/BLE_eventHandler.c ****     {
1046:Generated_Source\PSoC4/BLE_eventHandler.c ****         CyBle_LlscReadResponseEventHandler(eventParam);
ARM GAS  C:\Users\TTSS\AppData\Local\Temp\ccwoAHLq.s 			page 22


1047:Generated_Source\PSoC4/BLE_eventHandler.c ****     }
1048:Generated_Source\PSoC4/BLE_eventHandler.c **** #endif /* CYBLE_LLS_CLIENT */
1049:Generated_Source\PSoC4/BLE_eventHandler.c **** #ifdef CYBLE_LNS_CLIENT
1050:Generated_Source\PSoC4/BLE_eventHandler.c ****     if((cyBle_eventHandlerFlag & CYBLE_CALLBACK) != 0u)
1051:Generated_Source\PSoC4/BLE_eventHandler.c ****     {
1052:Generated_Source\PSoC4/BLE_eventHandler.c ****         CyBle_LnscReadResponseEventHandler(eventParam);
1053:Generated_Source\PSoC4/BLE_eventHandler.c ****     }
1054:Generated_Source\PSoC4/BLE_eventHandler.c **** #endif /* CYBLE_LNS_CLIENT */
1055:Generated_Source\PSoC4/BLE_eventHandler.c **** #ifdef CYBLE_NDCS_CLIENT
1056:Generated_Source\PSoC4/BLE_eventHandler.c ****     if((cyBle_eventHandlerFlag & CYBLE_CALLBACK) != 0u)
1057:Generated_Source\PSoC4/BLE_eventHandler.c ****     {
1058:Generated_Source\PSoC4/BLE_eventHandler.c ****         CyBle_NdcscReadResponseEventHandler(eventParam);
1059:Generated_Source\PSoC4/BLE_eventHandler.c ****     }
1060:Generated_Source\PSoC4/BLE_eventHandler.c **** #endif /* CYBLE_NDCS_CLIENT */
1061:Generated_Source\PSoC4/BLE_eventHandler.c **** #ifdef CYBLE_PASS_CLIENT
1062:Generated_Source\PSoC4/BLE_eventHandler.c ****     if((cyBle_eventHandlerFlag & CYBLE_CALLBACK) != 0u)
1063:Generated_Source\PSoC4/BLE_eventHandler.c ****     {
1064:Generated_Source\PSoC4/BLE_eventHandler.c ****         CyBle_PasscReadResponseEventHandler(eventParam);
1065:Generated_Source\PSoC4/BLE_eventHandler.c ****     }
1066:Generated_Source\PSoC4/BLE_eventHandler.c **** #endif /* CYBLE_PASS_CLIENT */
1067:Generated_Source\PSoC4/BLE_eventHandler.c **** #ifdef CYBLE_RSCS_CLIENT
1068:Generated_Source\PSoC4/BLE_eventHandler.c ****     if((cyBle_eventHandlerFlag & CYBLE_CALLBACK) != 0u)
1069:Generated_Source\PSoC4/BLE_eventHandler.c ****     {
1070:Generated_Source\PSoC4/BLE_eventHandler.c ****         CyBle_RscscReadResponseEventHandler(eventParam);
1071:Generated_Source\PSoC4/BLE_eventHandler.c ****     }
1072:Generated_Source\PSoC4/BLE_eventHandler.c **** #endif /* CYBLE_RSCS_CLIENT */
1073:Generated_Source\PSoC4/BLE_eventHandler.c **** #ifdef CYBLE_RTUS_CLIENT
1074:Generated_Source\PSoC4/BLE_eventHandler.c ****     if((cyBle_eventHandlerFlag & CYBLE_CALLBACK) != 0u)
1075:Generated_Source\PSoC4/BLE_eventHandler.c ****     {
1076:Generated_Source\PSoC4/BLE_eventHandler.c ****         CyBle_RtuscReadResponseEventHandler(eventParam);
1077:Generated_Source\PSoC4/BLE_eventHandler.c ****     }
1078:Generated_Source\PSoC4/BLE_eventHandler.c **** #endif /* CYBLE_RTUS_CLIENT */
1079:Generated_Source\PSoC4/BLE_eventHandler.c **** #ifdef CYBLE_SCPS_CLIENT
1080:Generated_Source\PSoC4/BLE_eventHandler.c ****     if((cyBle_eventHandlerFlag & CYBLE_CALLBACK) != 0u)
1081:Generated_Source\PSoC4/BLE_eventHandler.c ****     {
1082:Generated_Source\PSoC4/BLE_eventHandler.c ****         CyBle_ScpscReadResponseEventHandler(eventParam);
1083:Generated_Source\PSoC4/BLE_eventHandler.c ****     }
1084:Generated_Source\PSoC4/BLE_eventHandler.c **** #endif /* CYBLE_SCPS_CLIENT */
1085:Generated_Source\PSoC4/BLE_eventHandler.c **** #ifdef CYBLE_TPS_CLIENT
1086:Generated_Source\PSoC4/BLE_eventHandler.c ****     if((cyBle_eventHandlerFlag & CYBLE_CALLBACK) != 0u)
1087:Generated_Source\PSoC4/BLE_eventHandler.c ****     {
1088:Generated_Source\PSoC4/BLE_eventHandler.c ****         CyBle_TpscReadResponseEventHandler(eventParam);
1089:Generated_Source\PSoC4/BLE_eventHandler.c ****     }
1090:Generated_Source\PSoC4/BLE_eventHandler.c **** #endif /* CYBLE_TPS_CLIENT */
1091:Generated_Source\PSoC4/BLE_eventHandler.c **** #ifdef CYBLE_UDS_CLIENT
1092:Generated_Source\PSoC4/BLE_eventHandler.c ****     if((cyBle_eventHandlerFlag & CYBLE_CALLBACK) != 0u)
1093:Generated_Source\PSoC4/BLE_eventHandler.c ****     {
1094:Generated_Source\PSoC4/BLE_eventHandler.c ****         CyBle_UdscReadResponseEventHandler(eventParam);
1095:Generated_Source\PSoC4/BLE_eventHandler.c ****     }
1096:Generated_Source\PSoC4/BLE_eventHandler.c **** #endif /* CYBLE_UDS_CLIENT */
1097:Generated_Source\PSoC4/BLE_eventHandler.c **** #ifdef CYBLE_WPTS_CLIENT
1098:Generated_Source\PSoC4/BLE_eventHandler.c ****     if((cyBle_eventHandlerFlag & CYBLE_CALLBACK) != 0u)
1099:Generated_Source\PSoC4/BLE_eventHandler.c ****     {
1100:Generated_Source\PSoC4/BLE_eventHandler.c ****         CyBle_WptscReadResponseEventHandler(eventParam);
1101:Generated_Source\PSoC4/BLE_eventHandler.c ****     }
1102:Generated_Source\PSoC4/BLE_eventHandler.c **** #endif /* CYBLE_WPTS_CLIENT */
1103:Generated_Source\PSoC4/BLE_eventHandler.c **** #ifdef CYBLE_WSS_CLIENT
ARM GAS  C:\Users\TTSS\AppData\Local\Temp\ccwoAHLq.s 			page 23


1104:Generated_Source\PSoC4/BLE_eventHandler.c ****     if((cyBle_eventHandlerFlag & CYBLE_CALLBACK) != 0u)
1105:Generated_Source\PSoC4/BLE_eventHandler.c ****     {
1106:Generated_Source\PSoC4/BLE_eventHandler.c ****         CyBle_WsscReadResponseEventHandler(eventParam);
1107:Generated_Source\PSoC4/BLE_eventHandler.c ****     }
1108:Generated_Source\PSoC4/BLE_eventHandler.c **** #endif /* CYBLE_WSS_CLIENT */
1109:Generated_Source\PSoC4/BLE_eventHandler.c **** }
1110:Generated_Source\PSoC4/BLE_eventHandler.c **** #endif /* CYBLE_GATT_ROLE_CLIENT */
1111:Generated_Source\PSoC4/BLE_eventHandler.c **** 
1112:Generated_Source\PSoC4/BLE_eventHandler.c **** 
1113:Generated_Source\PSoC4/BLE_eventHandler.c **** /****************************************************************************** 
1114:Generated_Source\PSoC4/BLE_eventHandler.c **** ##Function Name: CyBle_DisconnectEventHandler
1115:Generated_Source\PSoC4/BLE_eventHandler.c **** *******************************************************************************
1116:Generated_Source\PSoC4/BLE_eventHandler.c **** 
1117:Generated_Source\PSoC4/BLE_eventHandler.c **** Summary:
1118:Generated_Source\PSoC4/BLE_eventHandler.c ****  Handles the GATT Disconnection event from the BLE stack.
1119:Generated_Source\PSoC4/BLE_eventHandler.c **** 
1120:Generated_Source\PSoC4/BLE_eventHandler.c **** Parameters:
1121:Generated_Source\PSoC4/BLE_eventHandler.c ****  None
1122:Generated_Source\PSoC4/BLE_eventHandler.c **** 
1123:Generated_Source\PSoC4/BLE_eventHandler.c **** Return:
1124:Generated_Source\PSoC4/BLE_eventHandler.c ****  None
1125:Generated_Source\PSoC4/BLE_eventHandler.c **** 
1126:Generated_Source\PSoC4/BLE_eventHandler.c **** ******************************************************************************/
1127:Generated_Source\PSoC4/BLE_eventHandler.c **** static void CyBle_GattDisconnectEventHandler(void)
1128:Generated_Source\PSoC4/BLE_eventHandler.c **** {
 152              		.loc 1 1128 0
 153              		.cfi_startproc
 154 0000 80B5     		push	{r7, lr}
 155              		.cfi_def_cfa_offset 8
 156              		.cfi_offset 7, -8
 157              		.cfi_offset 14, -4
 158 0002 00AF     		add	r7, sp, #0
 159              		.cfi_def_cfa_register 7
1129:Generated_Source\PSoC4/BLE_eventHandler.c ****     cyBle_connHandle.attId = 0u;
 160              		.loc 1 1129 0
 161 0004 034B     		ldr	r3, .L8
 162 0006 0022     		mov	r2, #0
 163 0008 5A70     		strb	r2, [r3, #1]
1130:Generated_Source\PSoC4/BLE_eventHandler.c ****     cyBle_connHandle.bdHandle = 0u;
 164              		.loc 1 1130 0
 165 000a 024B     		ldr	r3, .L8
 166 000c 0022     		mov	r2, #0
 167 000e 1A70     		strb	r2, [r3]
1131:Generated_Source\PSoC4/BLE_eventHandler.c ****     
1132:Generated_Source\PSoC4/BLE_eventHandler.c ****     #if (CYBLE_GATT_ROLE_CLIENT)
1133:Generated_Source\PSoC4/BLE_eventHandler.c ****         if(CYBLE_CLIENT_STATE_DISCOVERED == CyBle_GetClientState())
1134:Generated_Source\PSoC4/BLE_eventHandler.c ****         {
1135:Generated_Source\PSoC4/BLE_eventHandler.c ****             CyBle_SetClientState(CYBLE_CLIENT_STATE_DISCONNECTED_DISCOVERED);
1136:Generated_Source\PSoC4/BLE_eventHandler.c ****         }
1137:Generated_Source\PSoC4/BLE_eventHandler.c ****         else
1138:Generated_Source\PSoC4/BLE_eventHandler.c ****         {
1139:Generated_Source\PSoC4/BLE_eventHandler.c ****             CyBle_SetClientState(CYBLE_CLIENT_STATE_DISCONNECTED);
1140:Generated_Source\PSoC4/BLE_eventHandler.c ****         }
1141:Generated_Source\PSoC4/BLE_eventHandler.c ****     #endif /* CYBLE_GATT_ROLE_CLIENT */
1142:Generated_Source\PSoC4/BLE_eventHandler.c ****         
1143:Generated_Source\PSoC4/BLE_eventHandler.c ****     #ifdef CYBLE_CPS_SERVER
1144:Generated_Source\PSoC4/BLE_eventHandler.c ****         #if CYBLE_GAP_ROLE_BROADCASTER
ARM GAS  C:\Users\TTSS\AppData\Local\Temp\ccwoAHLq.s 			page 24


1145:Generated_Source\PSoC4/BLE_eventHandler.c ****             CyBle_CpssDisconnectEventHandler();
1146:Generated_Source\PSoC4/BLE_eventHandler.c ****         #endif /* CYBLE_GAP_ROLE_BROADCASTER */
1147:Generated_Source\PSoC4/BLE_eventHandler.c ****     #endif /* CYBLE_CPS_SERVER */
1148:Generated_Source\PSoC4/BLE_eventHandler.c **** 
1149:Generated_Source\PSoC4/BLE_eventHandler.c ****     #ifdef CYBLE_CPS_CLIENT
1150:Generated_Source\PSoC4/BLE_eventHandler.c ****         CyBle_CpscDisconnectEventHandler();
1151:Generated_Source\PSoC4/BLE_eventHandler.c ****     #endif /* CYBLE_CPS_CLIENT */
1152:Generated_Source\PSoC4/BLE_eventHandler.c **** 
1153:Generated_Source\PSoC4/BLE_eventHandler.c ****     #ifdef CYBLE_IAS_SERVER
1154:Generated_Source\PSoC4/BLE_eventHandler.c ****         CyBle_IassDisconnectEventHandler();
1155:Generated_Source\PSoC4/BLE_eventHandler.c ****     #endif /* CYBLE_IAS_SERVER */
1156:Generated_Source\PSoC4/BLE_eventHandler.c ****     
1157:Generated_Source\PSoC4/BLE_eventHandler.c ****     #ifdef CYBLE_GLS_SERVER
1158:Generated_Source\PSoC4/BLE_eventHandler.c ****         CyBle_GlsInit();
1159:Generated_Source\PSoC4/BLE_eventHandler.c ****     #endif /* CYBLE_GLS_SERVER */
1160:Generated_Source\PSoC4/BLE_eventHandler.c ****     
1161:Generated_Source\PSoC4/BLE_eventHandler.c ****     #ifdef CYBLE_LNS_SERVER
1162:Generated_Source\PSoC4/BLE_eventHandler.c ****         CyBle_LnsInit();
1163:Generated_Source\PSoC4/BLE_eventHandler.c ****     #endif /* CYBLE_LNS_SERVER */
1164:Generated_Source\PSoC4/BLE_eventHandler.c ****     
1165:Generated_Source\PSoC4/BLE_eventHandler.c ****     #ifdef CYBLE_UDS_SERVER
1166:Generated_Source\PSoC4/BLE_eventHandler.c ****         CyBle_UdsInit();
1167:Generated_Source\PSoC4/BLE_eventHandler.c ****     #endif /* CYBLE_UDS_SERVER */
1168:Generated_Source\PSoC4/BLE_eventHandler.c **** }
 168              		.loc 1 1168 0
 169 0010 BD46     		mov	sp, r7
 170              		@ sp needed
 171 0012 80BD     		pop	{r7, pc}
 172              	.L9:
 173              		.align	2
 174              	.L8:
 175 0014 00000000 		.word	cyBle_connHandle
 176              		.cfi_endproc
 177              	.LFE4:
 178              		.size	CyBle_GattDisconnectEventHandler, .-CyBle_GattDisconnectEventHandler
 179              		.section	.text.CyBle_TimeOutEventHandler,"ax",%progbits
 180              		.align	2
 181              		.code	16
 182              		.thumb_func
 183              		.type	CyBle_TimeOutEventHandler, %function
 184              	CyBle_TimeOutEventHandler:
 185              	.LFB5:
1169:Generated_Source\PSoC4/BLE_eventHandler.c **** 
1170:Generated_Source\PSoC4/BLE_eventHandler.c **** 
1171:Generated_Source\PSoC4/BLE_eventHandler.c **** /****************************************************************************** 
1172:Generated_Source\PSoC4/BLE_eventHandler.c **** ##Function Name: CyBle_TimeOutEventHandler
1173:Generated_Source\PSoC4/BLE_eventHandler.c **** *******************************************************************************
1174:Generated_Source\PSoC4/BLE_eventHandler.c **** 
1175:Generated_Source\PSoC4/BLE_eventHandler.c **** Summary:
1176:Generated_Source\PSoC4/BLE_eventHandler.c ****  Handles the CYBLE_EVT_TIMEOUT event from the BLE stack.
1177:Generated_Source\PSoC4/BLE_eventHandler.c **** 
1178:Generated_Source\PSoC4/BLE_eventHandler.c **** Parameters:
1179:Generated_Source\PSoC4/BLE_eventHandler.c ****  *eventParam - The pointer to a structure of type CYBLE_TO_REASON_CODE_T.
1180:Generated_Source\PSoC4/BLE_eventHandler.c **** 
1181:Generated_Source\PSoC4/BLE_eventHandler.c **** Return:
1182:Generated_Source\PSoC4/BLE_eventHandler.c ****  None
1183:Generated_Source\PSoC4/BLE_eventHandler.c **** 
ARM GAS  C:\Users\TTSS\AppData\Local\Temp\ccwoAHLq.s 			page 25


1184:Generated_Source\PSoC4/BLE_eventHandler.c **** ******************************************************************************/
1185:Generated_Source\PSoC4/BLE_eventHandler.c **** static void CyBle_TimeOutEventHandler(const CYBLE_TO_REASON_CODE_T *eventParam)
1186:Generated_Source\PSoC4/BLE_eventHandler.c **** {
 186              		.loc 1 1186 0
 187              		.cfi_startproc
 188 0000 80B5     		push	{r7, lr}
 189              		.cfi_def_cfa_offset 8
 190              		.cfi_offset 7, -8
 191              		.cfi_offset 14, -4
 192 0002 82B0     		sub	sp, sp, #8
 193              		.cfi_def_cfa_offset 16
 194 0004 00AF     		add	r7, sp, #0
 195              		.cfi_def_cfa_register 7
 196 0006 7860     		str	r0, [r7, #4]
1187:Generated_Source\PSoC4/BLE_eventHandler.c ****     if(*eventParam == CYBLE_GATT_RSP_TO)
1188:Generated_Source\PSoC4/BLE_eventHandler.c ****     {
1189:Generated_Source\PSoC4/BLE_eventHandler.c ****     #if (CYBLE_GATT_ROLE_CLIENT)
1190:Generated_Source\PSoC4/BLE_eventHandler.c ****         if(0u != (cyBle_eventHandlerFlag & CYBLE_AUTO_DISCOVERY))
1191:Generated_Source\PSoC4/BLE_eventHandler.c ****         {
1192:Generated_Source\PSoC4/BLE_eventHandler.c ****             switch(CyBle_GetClientState())
1193:Generated_Source\PSoC4/BLE_eventHandler.c ****             {
1194:Generated_Source\PSoC4/BLE_eventHandler.c ****                 case CYBLE_CLIENT_STATE_SRVC_DISCOVERING:
1195:Generated_Source\PSoC4/BLE_eventHandler.c ****                     CyBle_ApplCallback(CYBLE_EVT_GATTC_SRVC_DISCOVERY_FAILED, NULL);
1196:Generated_Source\PSoC4/BLE_eventHandler.c ****                     break;
1197:Generated_Source\PSoC4/BLE_eventHandler.c ****                 case CYBLE_CLIENT_STATE_INCL_DISCOVERING:
1198:Generated_Source\PSoC4/BLE_eventHandler.c ****                     CyBle_ApplCallback(CYBLE_EVT_GATTC_INCL_DISCOVERY_FAILED, NULL);
1199:Generated_Source\PSoC4/BLE_eventHandler.c ****                     break;
1200:Generated_Source\PSoC4/BLE_eventHandler.c ****                 case CYBLE_CLIENT_STATE_CHAR_DISCOVERING:
1201:Generated_Source\PSoC4/BLE_eventHandler.c ****                     CyBle_ApplCallback(CYBLE_EVT_GATTC_CHAR_DISCOVERY_FAILED, NULL);
1202:Generated_Source\PSoC4/BLE_eventHandler.c ****                     break;
1203:Generated_Source\PSoC4/BLE_eventHandler.c ****                 case CYBLE_CLIENT_STATE_DESCR_DISCOVERING:
1204:Generated_Source\PSoC4/BLE_eventHandler.c ****                     CyBle_ApplCallback(CYBLE_EVT_GATTC_DESCR_DISCOVERY_FAILED, NULL);
1205:Generated_Source\PSoC4/BLE_eventHandler.c ****                     break;
1206:Generated_Source\PSoC4/BLE_eventHandler.c ****                 default:        /* Other states should not be set in Auto discovery mode */
1207:Generated_Source\PSoC4/BLE_eventHandler.c ****                     break;
1208:Generated_Source\PSoC4/BLE_eventHandler.c ****             }
1209:Generated_Source\PSoC4/BLE_eventHandler.c ****             cyBle_eventHandlerFlag &= (uint8)~CYBLE_AUTO_DISCOVERY;
1210:Generated_Source\PSoC4/BLE_eventHandler.c ****             CyBle_SetClientState(CYBLE_CLIENT_STATE_CONNECTED);
1211:Generated_Source\PSoC4/BLE_eventHandler.c ****         }
1212:Generated_Source\PSoC4/BLE_eventHandler.c ****     #endif /* CYBLE_GATT_ROLE_CLIENT */
1213:Generated_Source\PSoC4/BLE_eventHandler.c ****     #ifdef CYBLE_CPS_SERVER
1214:Generated_Source\PSoC4/BLE_eventHandler.c ****         CyBle_CpssTimeOutEventHandler();
1215:Generated_Source\PSoC4/BLE_eventHandler.c ****     #endif /* CYBLE_CPS_SERVER */
1216:Generated_Source\PSoC4/BLE_eventHandler.c ****     }
1217:Generated_Source\PSoC4/BLE_eventHandler.c ****     
1218:Generated_Source\PSoC4/BLE_eventHandler.c ****     /* Connection procedure timeout */
1219:Generated_Source\PSoC4/BLE_eventHandler.c ****     if(*eventParam == CYBLE_GENERIC_TO)
1220:Generated_Source\PSoC4/BLE_eventHandler.c ****     {
1221:Generated_Source\PSoC4/BLE_eventHandler.c ****     #if(CYBLE_GAP_ROLE_CENTRAL)
1222:Generated_Source\PSoC4/BLE_eventHandler.c ****         if(CYBLE_STATE_CONNECTING == CyBle_GetState())
1223:Generated_Source\PSoC4/BLE_eventHandler.c ****         {
1224:Generated_Source\PSoC4/BLE_eventHandler.c ****             (void)CyBle_GapcCancelDeviceConnection();
1225:Generated_Source\PSoC4/BLE_eventHandler.c ****         }
1226:Generated_Source\PSoC4/BLE_eventHandler.c ****     #endif /* CYBLE_GAP_ROLE_CENTRAL */
1227:Generated_Source\PSoC4/BLE_eventHandler.c ****     }
1228:Generated_Source\PSoC4/BLE_eventHandler.c **** }
 197              		.loc 1 1228 0
ARM GAS  C:\Users\TTSS\AppData\Local\Temp\ccwoAHLq.s 			page 26


 198 0008 BD46     		mov	sp, r7
 199 000a 02B0     		add	sp, sp, #8
 200              		@ sp needed
 201 000c 80BD     		pop	{r7, pc}
 202              		.cfi_endproc
 203              	.LFE5:
 204              		.size	CyBle_TimeOutEventHandler, .-CyBle_TimeOutEventHandler
 205              		.section	.text.CyBle_GattConnectReqHandler,"ax",%progbits
 206              		.align	2
 207              		.code	16
 208              		.thumb_func
 209              		.type	CyBle_GattConnectReqHandler, %function
 210              	CyBle_GattConnectReqHandler:
 211              	.LFB6:
1229:Generated_Source\PSoC4/BLE_eventHandler.c **** 
1230:Generated_Source\PSoC4/BLE_eventHandler.c **** 
1231:Generated_Source\PSoC4/BLE_eventHandler.c **** /****************************************************************************** 
1232:Generated_Source\PSoC4/BLE_eventHandler.c **** ##Function Name: CyBle_GattConnectReqHandler
1233:Generated_Source\PSoC4/BLE_eventHandler.c **** *******************************************************************************
1234:Generated_Source\PSoC4/BLE_eventHandler.c **** 
1235:Generated_Source\PSoC4/BLE_eventHandler.c **** Summary:
1236:Generated_Source\PSoC4/BLE_eventHandler.c ****  Handles the GATT connect event from the BLE stack.
1237:Generated_Source\PSoC4/BLE_eventHandler.c **** 
1238:Generated_Source\PSoC4/BLE_eventHandler.c **** Parameters:
1239:Generated_Source\PSoC4/BLE_eventHandler.c ****  None
1240:Generated_Source\PSoC4/BLE_eventHandler.c **** 
1241:Generated_Source\PSoC4/BLE_eventHandler.c **** Return:
1242:Generated_Source\PSoC4/BLE_eventHandler.c ****  None
1243:Generated_Source\PSoC4/BLE_eventHandler.c **** 
1244:Generated_Source\PSoC4/BLE_eventHandler.c **** ******************************************************************************/
1245:Generated_Source\PSoC4/BLE_eventHandler.c **** static void CyBle_GattConnectReqHandler(void)
1246:Generated_Source\PSoC4/BLE_eventHandler.c **** {
 212              		.loc 1 1246 0
 213              		.cfi_startproc
 214 0000 80B5     		push	{r7, lr}
 215              		.cfi_def_cfa_offset 8
 216              		.cfi_offset 7, -8
 217              		.cfi_offset 14, -4
 218 0002 00AF     		add	r7, sp, #0
 219              		.cfi_def_cfa_register 7
1247:Generated_Source\PSoC4/BLE_eventHandler.c ****     #ifdef CYBLE_CGMS_SERVER
1248:Generated_Source\PSoC4/BLE_eventHandler.c ****         CyBle_CgmsInit();
1249:Generated_Source\PSoC4/BLE_eventHandler.c ****     #endif /* CYBLE_CGMS_SERVER */
1250:Generated_Source\PSoC4/BLE_eventHandler.c ****     
1251:Generated_Source\PSoC4/BLE_eventHandler.c ****     #ifdef CYBLE_CPS_SERVER
1252:Generated_Source\PSoC4/BLE_eventHandler.c ****         CyBle_CpssConnectEventHandler();
1253:Generated_Source\PSoC4/BLE_eventHandler.c ****     #endif /* CYBLE_CPS_SERVER */
1254:Generated_Source\PSoC4/BLE_eventHandler.c ****     
1255:Generated_Source\PSoC4/BLE_eventHandler.c ****     #ifdef CYBLE_CSCS_SERVER
1256:Generated_Source\PSoC4/BLE_eventHandler.c ****             CyBle_CscsInit();
1257:Generated_Source\PSoC4/BLE_eventHandler.c ****     #endif /* CYBLE_CSCS_SERVER */
1258:Generated_Source\PSoC4/BLE_eventHandler.c ****     
1259:Generated_Source\PSoC4/BLE_eventHandler.c ****     #ifdef CYBLE_LLS_SERVER
1260:Generated_Source\PSoC4/BLE_eventHandler.c ****         CyBle_LlssConnectEventHandler();
1261:Generated_Source\PSoC4/BLE_eventHandler.c ****     #endif /* CYBLE_LLS_SERVER */
1262:Generated_Source\PSoC4/BLE_eventHandler.c ****     
1263:Generated_Source\PSoC4/BLE_eventHandler.c ****     #ifdef CYBLE_HIDS_SERVER
ARM GAS  C:\Users\TTSS\AppData\Local\Temp\ccwoAHLq.s 			page 27


1264:Generated_Source\PSoC4/BLE_eventHandler.c ****         CyBle_HidssOnDeviceConnected();
1265:Generated_Source\PSoC4/BLE_eventHandler.c ****     #endif /* CYBLE_HIDS_SERVER */
1266:Generated_Source\PSoC4/BLE_eventHandler.c **** 
1267:Generated_Source\PSoC4/BLE_eventHandler.c ****     #ifdef CYBLE_RSCS_SERVER
1268:Generated_Source\PSoC4/BLE_eventHandler.c ****         CyBle_RscsInit();
1269:Generated_Source\PSoC4/BLE_eventHandler.c ****     #endif /* CYBLE_RSCS_SERVER */
1270:Generated_Source\PSoC4/BLE_eventHandler.c **** }
 220              		.loc 1 1270 0
 221 0004 BD46     		mov	sp, r7
 222              		@ sp needed
 223 0006 80BD     		pop	{r7, pc}
 224              		.cfi_endproc
 225              	.LFE6:
 226              		.size	CyBle_GattConnectReqHandler, .-CyBle_GattConnectReqHandler
 227              		.section	.text.CyBle_IsDeviceAddressValid,"ax",%progbits
 228              		.align	2
 229              		.code	16
 230              		.thumb_func
 231              		.type	CyBle_IsDeviceAddressValid, %function
 232              	CyBle_IsDeviceAddressValid:
 233              	.LFB7:
1271:Generated_Source\PSoC4/BLE_eventHandler.c **** 
1272:Generated_Source\PSoC4/BLE_eventHandler.c **** 
1273:Generated_Source\PSoC4/BLE_eventHandler.c **** #if (CYBLE_GATT_ROLE_SERVER || CYBLE_GATT_ROLE_CLIENT)
1274:Generated_Source\PSoC4/BLE_eventHandler.c **** 
1275:Generated_Source\PSoC4/BLE_eventHandler.c **** /****************************************************************************** 
1276:Generated_Source\PSoC4/BLE_eventHandler.c **** ##Function Name: CyBle_IsDeviceAddressValid
1277:Generated_Source\PSoC4/BLE_eventHandler.c **** *******************************************************************************
1278:Generated_Source\PSoC4/BLE_eventHandler.c **** 
1279:Generated_Source\PSoC4/BLE_eventHandler.c **** Summary:
1280:Generated_Source\PSoC4/BLE_eventHandler.c ****  This function verifies that BLE public address has been programmed to SFLASH 
1281:Generated_Source\PSoC4/BLE_eventHandler.c ****  during manufacture.
1282:Generated_Source\PSoC4/BLE_eventHandler.c **** 
1283:Generated_Source\PSoC4/BLE_eventHandler.c **** Parameters:
1284:Generated_Source\PSoC4/BLE_eventHandler.c ****  CYBLE_GAP_BD_ADDR_T *sflashDeviceAddress: the pointer to the BD address of 
1285:Generated_Source\PSoC4/BLE_eventHandler.c ****                                            type CYBLE_GAP_BD_ADDR_T. 
1286:Generated_Source\PSoC4/BLE_eventHandler.c **** 
1287:Generated_Source\PSoC4/BLE_eventHandler.c **** Return:
1288:Generated_Source\PSoC4/BLE_eventHandler.c ****  Non zero value when a device address differs from the default SFLASH content.
1289:Generated_Source\PSoC4/BLE_eventHandler.c **** 
1290:Generated_Source\PSoC4/BLE_eventHandler.c **** ******************************************************************************/
1291:Generated_Source\PSoC4/BLE_eventHandler.c **** static uint8 CyBle_IsDeviceAddressValid(const CYBLE_GAP_BD_ADDR_T *sflashDeviceAddress)
1292:Generated_Source\PSoC4/BLE_eventHandler.c **** {
 234              		.loc 1 1292 0
 235              		.cfi_startproc
 236 0000 80B5     		push	{r7, lr}
 237              		.cfi_def_cfa_offset 8
 238              		.cfi_offset 7, -8
 239              		.cfi_offset 14, -4
 240 0002 84B0     		sub	sp, sp, #16
 241              		.cfi_def_cfa_offset 24
 242 0004 00AF     		add	r7, sp, #0
 243              		.cfi_def_cfa_register 7
 244 0006 7860     		str	r0, [r7, #4]
1293:Generated_Source\PSoC4/BLE_eventHandler.c ****     uint8 i;
1294:Generated_Source\PSoC4/BLE_eventHandler.c ****     uint8 sflashAddressValid = 0u;
 245              		.loc 1 1294 0
ARM GAS  C:\Users\TTSS\AppData\Local\Temp\ccwoAHLq.s 			page 28


 246 0008 0E23     		mov	r3, #14
 247 000a FB18     		add	r3, r7, r3
 248 000c 0022     		mov	r2, #0
 249 000e 1A70     		strb	r2, [r3]
1295:Generated_Source\PSoC4/BLE_eventHandler.c ****     
1296:Generated_Source\PSoC4/BLE_eventHandler.c ****     if(sflashDeviceAddress -> type == CYBLE_GAP_ADDR_TYPE_PUBLIC)  
 250              		.loc 1 1296 0
 251 0010 7B68     		ldr	r3, [r7, #4]
 252 0012 9B79     		ldrb	r3, [r3, #6]
 253 0014 002B     		cmp	r3, #0
 254 0016 1CD1     		bne	.L13
1297:Generated_Source\PSoC4/BLE_eventHandler.c ****     {
1298:Generated_Source\PSoC4/BLE_eventHandler.c ****         for(i = 0u; i < CYBLE_GAP_BD_ADDR_SIZE; i++)
 255              		.loc 1 1298 0
 256 0018 0F23     		mov	r3, #15
 257 001a FB18     		add	r3, r7, r3
 258 001c 0022     		mov	r2, #0
 259 001e 1A70     		strb	r2, [r3]
 260 0020 12E0     		b	.L14
 261              	.L16:
1299:Generated_Source\PSoC4/BLE_eventHandler.c ****         {
1300:Generated_Source\PSoC4/BLE_eventHandler.c ****             if(sflashDeviceAddress->bdAddr[i] != 0u)
 262              		.loc 1 1300 0
 263 0022 0F23     		mov	r3, #15
 264 0024 FB18     		add	r3, r7, r3
 265 0026 1B78     		ldrb	r3, [r3]
 266 0028 7A68     		ldr	r2, [r7, #4]
 267 002a D35C     		ldrb	r3, [r2, r3]
 268 002c 002B     		cmp	r3, #0
 269 002e 04D0     		beq	.L15
1301:Generated_Source\PSoC4/BLE_eventHandler.c ****             {
1302:Generated_Source\PSoC4/BLE_eventHandler.c ****                 sflashAddressValid = 1u;
 270              		.loc 1 1302 0
 271 0030 0E23     		mov	r3, #14
 272 0032 FB18     		add	r3, r7, r3
 273 0034 0122     		mov	r2, #1
 274 0036 1A70     		strb	r2, [r3]
1303:Generated_Source\PSoC4/BLE_eventHandler.c ****                 break;
 275              		.loc 1 1303 0
 276 0038 0BE0     		b	.L13
 277              	.L15:
1298:Generated_Source\PSoC4/BLE_eventHandler.c ****         {
 278              		.loc 1 1298 0 discriminator 2
 279 003a 0F23     		mov	r3, #15
 280 003c FB18     		add	r3, r7, r3
 281 003e 1A78     		ldrb	r2, [r3]
 282 0040 0F23     		mov	r3, #15
 283 0042 FB18     		add	r3, r7, r3
 284 0044 0132     		add	r2, r2, #1
 285 0046 1A70     		strb	r2, [r3]
 286              	.L14:
1298:Generated_Source\PSoC4/BLE_eventHandler.c ****         {
 287              		.loc 1 1298 0 is_stmt 0 discriminator 1
 288 0048 0F23     		mov	r3, #15
 289 004a FB18     		add	r3, r7, r3
 290 004c 1B78     		ldrb	r3, [r3]
 291 004e 052B     		cmp	r3, #5
ARM GAS  C:\Users\TTSS\AppData\Local\Temp\ccwoAHLq.s 			page 29


 292 0050 E7D9     		bls	.L16
 293              	.L13:
1304:Generated_Source\PSoC4/BLE_eventHandler.c ****             }
1305:Generated_Source\PSoC4/BLE_eventHandler.c ****         }
1306:Generated_Source\PSoC4/BLE_eventHandler.c ****     }
1307:Generated_Source\PSoC4/BLE_eventHandler.c ****     return (sflashAddressValid);
 294              		.loc 1 1307 0 is_stmt 1
 295 0052 0E23     		mov	r3, #14
 296 0054 FB18     		add	r3, r7, r3
 297 0056 1B78     		ldrb	r3, [r3]
1308:Generated_Source\PSoC4/BLE_eventHandler.c **** }
 298              		.loc 1 1308 0
 299 0058 181C     		mov	r0, r3
 300 005a BD46     		mov	sp, r7
 301 005c 04B0     		add	sp, sp, #16
 302              		@ sp needed
 303 005e 80BD     		pop	{r7, pc}
 304              		.cfi_endproc
 305              	.LFE7:
 306              		.size	CyBle_IsDeviceAddressValid, .-CyBle_IsDeviceAddressValid
 307              		.section	.text.CyBle_L2Cap_ConnParamUpdateRspEventHandler,"ax",%progbits
 308              		.align	2
 309              		.code	16
 310              		.thumb_func
 311              		.type	CyBle_L2Cap_ConnParamUpdateRspEventHandler, %function
 312              	CyBle_L2Cap_ConnParamUpdateRspEventHandler:
 313              	.LFB8:
1309:Generated_Source\PSoC4/BLE_eventHandler.c **** #endif /* CYBLE_GATT_ROLE_SERVER || CYBLE_GATT_ROLE_CLIENT */
1310:Generated_Source\PSoC4/BLE_eventHandler.c **** 
1311:Generated_Source\PSoC4/BLE_eventHandler.c **** 
1312:Generated_Source\PSoC4/BLE_eventHandler.c **** /****************************************************************************** 
1313:Generated_Source\PSoC4/BLE_eventHandler.c **** ##Function Name: CyBle_L2Cap_ConnParamUpdateRspHandler
1314:Generated_Source\PSoC4/BLE_eventHandler.c **** *******************************************************************************
1315:Generated_Source\PSoC4/BLE_eventHandler.c **** 
1316:Generated_Source\PSoC4/BLE_eventHandler.c **** Summary:
1317:Generated_Source\PSoC4/BLE_eventHandler.c ****  Handles the L2CAP connection parameter response event from
1318:Generated_Source\PSoC4/BLE_eventHandler.c ****  the BLE stack.
1319:Generated_Source\PSoC4/BLE_eventHandler.c **** 
1320:Generated_Source\PSoC4/BLE_eventHandler.c **** Parameters:
1321:Generated_Source\PSoC4/BLE_eventHandler.c ****  uint16 response:
1322:Generated_Source\PSoC4/BLE_eventHandler.c ****      * Accepted = 0x0000
1323:Generated_Source\PSoC4/BLE_eventHandler.c ****      * Rejected = 0x0001
1324:Generated_Source\PSoC4/BLE_eventHandler.c **** 
1325:Generated_Source\PSoC4/BLE_eventHandler.c **** Return:
1326:Generated_Source\PSoC4/BLE_eventHandler.c ****  None
1327:Generated_Source\PSoC4/BLE_eventHandler.c **** 
1328:Generated_Source\PSoC4/BLE_eventHandler.c **** ******************************************************************************/
1329:Generated_Source\PSoC4/BLE_eventHandler.c **** static void CyBle_L2Cap_ConnParamUpdateRspEventHandler(uint16 response)
1330:Generated_Source\PSoC4/BLE_eventHandler.c **** {
 314              		.loc 1 1330 0
 315              		.cfi_startproc
 316 0000 80B5     		push	{r7, lr}
 317              		.cfi_def_cfa_offset 8
 318              		.cfi_offset 7, -8
 319              		.cfi_offset 14, -4
 320 0002 82B0     		sub	sp, sp, #8
 321              		.cfi_def_cfa_offset 16
ARM GAS  C:\Users\TTSS\AppData\Local\Temp\ccwoAHLq.s 			page 30


 322 0004 00AF     		add	r7, sp, #0
 323              		.cfi_def_cfa_register 7
 324 0006 021C     		mov	r2, r0
 325 0008 BB1D     		add	r3, r7, #6
 326 000a 1A80     		strh	r2, [r3]
1331:Generated_Source\PSoC4/BLE_eventHandler.c ****     #ifdef CYBLE_CPS_SERVER
1332:Generated_Source\PSoC4/BLE_eventHandler.c ****         CyBle_CpssConnParamUpdateRspEventHandler(response);
1333:Generated_Source\PSoC4/BLE_eventHandler.c ****     #endif /* CYBLE_CPS_SERVER */
1334:Generated_Source\PSoC4/BLE_eventHandler.c ****     
1335:Generated_Source\PSoC4/BLE_eventHandler.c ****     /* Unreferenced variable warning workaround */
1336:Generated_Source\PSoC4/BLE_eventHandler.c ****     if(response != 0u)
1337:Generated_Source\PSoC4/BLE_eventHandler.c ****     {
1338:Generated_Source\PSoC4/BLE_eventHandler.c ****     }
1339:Generated_Source\PSoC4/BLE_eventHandler.c **** }
 327              		.loc 1 1339 0
 328 000c BD46     		mov	sp, r7
 329 000e 02B0     		add	sp, sp, #8
 330              		@ sp needed
 331 0010 80BD     		pop	{r7, pc}
 332              		.cfi_endproc
 333              	.LFE8:
 334              		.size	CyBle_L2Cap_ConnParamUpdateRspEventHandler, .-CyBle_L2Cap_ConnParamUpdateRspEventHandler
 335 0012 C046     		.section	.text.CyBle_GapConnUpdateCompleteEventHandler,"ax",%progbits
 336              		.align	2
 337              		.code	16
 338              		.thumb_func
 339              		.type	CyBle_GapConnUpdateCompleteEventHandler, %function
 340              	CyBle_GapConnUpdateCompleteEventHandler:
 341              	.LFB9:
1340:Generated_Source\PSoC4/BLE_eventHandler.c **** 
1341:Generated_Source\PSoC4/BLE_eventHandler.c **** 
1342:Generated_Source\PSoC4/BLE_eventHandler.c **** /****************************************************************************** 
1343:Generated_Source\PSoC4/BLE_eventHandler.c **** ##Function Name: CyBle_GapConnUpdateCompleteEventHandler
1344:Generated_Source\PSoC4/BLE_eventHandler.c **** *******************************************************************************
1345:Generated_Source\PSoC4/BLE_eventHandler.c **** 
1346:Generated_Source\PSoC4/BLE_eventHandler.c **** Summary:
1347:Generated_Source\PSoC4/BLE_eventHandler.c ****  Handles the CYBLE_EVT_GAP_CONNECTION_UPDATE_COMPLETE event from
1348:Generated_Source\PSoC4/BLE_eventHandler.c ****  the BLE stack.
1349:Generated_Source\PSoC4/BLE_eventHandler.c **** 
1350:Generated_Source\PSoC4/BLE_eventHandler.c **** Parameters:
1351:Generated_Source\PSoC4/BLE_eventHandler.c ****  *eventParam: The pointer to the data structure specified by the event.
1352:Generated_Source\PSoC4/BLE_eventHandler.c **** 
1353:Generated_Source\PSoC4/BLE_eventHandler.c **** Return:
1354:Generated_Source\PSoC4/BLE_eventHandler.c ****  None
1355:Generated_Source\PSoC4/BLE_eventHandler.c **** 
1356:Generated_Source\PSoC4/BLE_eventHandler.c **** ******************************************************************************/
1357:Generated_Source\PSoC4/BLE_eventHandler.c **** static void CyBle_GapConnUpdateCompleteEventHandler(const CYBLE_GAP_CONN_PARAM_UPDATED_IN_CONTROLLE
1358:Generated_Source\PSoC4/BLE_eventHandler.c **** {
 342              		.loc 1 1358 0
 343              		.cfi_startproc
 344 0000 80B5     		push	{r7, lr}
 345              		.cfi_def_cfa_offset 8
 346              		.cfi_offset 7, -8
 347              		.cfi_offset 14, -4
 348 0002 82B0     		sub	sp, sp, #8
 349              		.cfi_def_cfa_offset 16
 350 0004 00AF     		add	r7, sp, #0
ARM GAS  C:\Users\TTSS\AppData\Local\Temp\ccwoAHLq.s 			page 31


 351              		.cfi_def_cfa_register 7
 352 0006 7860     		str	r0, [r7, #4]
1359:Generated_Source\PSoC4/BLE_eventHandler.c ****     #ifdef CYBLE_CPS_SERVER
1360:Generated_Source\PSoC4/BLE_eventHandler.c ****         CyBle_CpssConnUpdateCompleteEventHandler(eventParam);
1361:Generated_Source\PSoC4/BLE_eventHandler.c ****     #endif /* CYBLE_CPS_SERVER */
1362:Generated_Source\PSoC4/BLE_eventHandler.c ****     
1363:Generated_Source\PSoC4/BLE_eventHandler.c ****     /* Unreferenced variable warning workaround */
1364:Generated_Source\PSoC4/BLE_eventHandler.c ****     if(eventParam != 0u)
1365:Generated_Source\PSoC4/BLE_eventHandler.c ****     {
1366:Generated_Source\PSoC4/BLE_eventHandler.c ****     }
1367:Generated_Source\PSoC4/BLE_eventHandler.c **** }
 353              		.loc 1 1367 0
 354 0008 BD46     		mov	sp, r7
 355 000a 02B0     		add	sp, sp, #8
 356              		@ sp needed
 357 000c 80BD     		pop	{r7, pc}
 358              		.cfi_endproc
 359              	.LFE9:
 360              		.size	CyBle_GapConnUpdateCompleteEventHandler, .-CyBle_GapConnUpdateCompleteEventHandler
 361              		.section	.text.CyBle_EventHandler,"ax",%progbits
 362              		.align	2
 363              		.global	CyBle_EventHandler
 364              		.code	16
 365              		.thumb_func
 366              		.type	CyBle_EventHandler, %function
 367              	CyBle_EventHandler:
 368              	.LFB10:
1368:Generated_Source\PSoC4/BLE_eventHandler.c **** 
1369:Generated_Source\PSoC4/BLE_eventHandler.c **** 
1370:Generated_Source\PSoC4/BLE_eventHandler.c **** /****************************************************************************** 
1371:Generated_Source\PSoC4/BLE_eventHandler.c **** ##Function Name: CyBle_EventHandler
1372:Generated_Source\PSoC4/BLE_eventHandler.c **** *******************************************************************************
1373:Generated_Source\PSoC4/BLE_eventHandler.c **** 
1374:Generated_Source\PSoC4/BLE_eventHandler.c **** Summary:
1375:Generated_Source\PSoC4/BLE_eventHandler.c ****  Handles the events from the BLE stack
1376:Generated_Source\PSoC4/BLE_eventHandler.c **** 
1377:Generated_Source\PSoC4/BLE_eventHandler.c **** Parameters:
1378:Generated_Source\PSoC4/BLE_eventHandler.c ****  eventCode:    the event code
1379:Generated_Source\PSoC4/BLE_eventHandler.c ****  *eventParam:  the event parameters
1380:Generated_Source\PSoC4/BLE_eventHandler.c **** 
1381:Generated_Source\PSoC4/BLE_eventHandler.c **** Return:
1382:Generated_Source\PSoC4/BLE_eventHandler.c ****  None.
1383:Generated_Source\PSoC4/BLE_eventHandler.c **** 
1384:Generated_Source\PSoC4/BLE_eventHandler.c **** ******************************************************************************/
1385:Generated_Source\PSoC4/BLE_eventHandler.c **** void CyBle_EventHandler(uint8 eventCode, void *eventParam)
1386:Generated_Source\PSoC4/BLE_eventHandler.c **** {
 369              		.loc 1 1386 0
 370              		.cfi_startproc
 371 0000 80B5     		push	{r7, lr}
 372              		.cfi_def_cfa_offset 8
 373              		.cfi_offset 7, -8
 374              		.cfi_offset 14, -4
 375 0002 84B0     		sub	sp, sp, #16
 376              		.cfi_def_cfa_offset 24
 377 0004 00AF     		add	r7, sp, #0
 378              		.cfi_def_cfa_register 7
 379 0006 021C     		mov	r2, r0
ARM GAS  C:\Users\TTSS\AppData\Local\Temp\ccwoAHLq.s 			page 32


 380 0008 3960     		str	r1, [r7]
 381 000a FB1D     		add	r3, r7, #7
 382 000c 1A70     		strb	r2, [r3]
1387:Generated_Source\PSoC4/BLE_eventHandler.c ****     cyBle_eventHandlerFlag |= CYBLE_CALLBACK;
 383              		.loc 1 1387 0
 384 000e 984B     		ldr	r3, .L52
 385 0010 1B78     		ldrb	r3, [r3]
 386 0012 DBB2     		uxtb	r3, r3
 387 0014 0122     		mov	r2, #1
 388 0016 1343     		orr	r3, r2
 389 0018 DAB2     		uxtb	r2, r3
 390 001a 954B     		ldr	r3, .L52
 391 001c 1A70     		strb	r2, [r3]
1388:Generated_Source\PSoC4/BLE_eventHandler.c **** 
1389:Generated_Source\PSoC4/BLE_eventHandler.c ****     /* Common Profile event handling */
1390:Generated_Source\PSoC4/BLE_eventHandler.c ****     switch(eventCode)
 392              		.loc 1 1390 0
 393 001e FB1D     		add	r3, r7, #7
 394 0020 1B78     		ldrb	r3, [r3]
 395 0022 712B     		cmp	r3, #113
 396 0024 00D9     		bls	.LCB325
 397 0026 08E1     		b	.L51	@long jump
 398              	.LCB325:
 399 0028 9A00     		lsl	r2, r3, #2
 400 002a 924B     		ldr	r3, .L52+4
 401 002c D318     		add	r3, r2, r3
 402 002e 1B68     		ldr	r3, [r3]
 403 0030 9F46     		mov	pc, r3
 404              		.section	.rodata
 405              		.align	2
 406              	.L23:
 407 0000 3A020000 		.word	.L51
 408 0004 32000000 		.word	.L22
 409 0008 DA000000 		.word	.L24
 410 000c 3A020000 		.word	.L51
 411 0010 3A020000 		.word	.L51
 412 0014 E4000000 		.word	.L25
 413 0018 3A020000 		.word	.L51
 414 001c 3A020000 		.word	.L51
 415 0020 3A020000 		.word	.L51
 416 0024 3A020000 		.word	.L51
 417 0028 3A020000 		.word	.L51
 418 002c 3A020000 		.word	.L51
 419 0030 3A020000 		.word	.L51
 420 0034 3A020000 		.word	.L51
 421 0038 3A020000 		.word	.L51
 422 003c 3A020000 		.word	.L51
 423 0040 3A020000 		.word	.L51
 424 0044 3A020000 		.word	.L51
 425 0048 3A020000 		.word	.L51
 426 004c 3A020000 		.word	.L51
 427 0050 3A020000 		.word	.L51
 428 0054 3A020000 		.word	.L51
 429 0058 3A020000 		.word	.L51
 430 005c 3A020000 		.word	.L51
 431 0060 3A020000 		.word	.L51
 432 0064 3A020000 		.word	.L51
ARM GAS  C:\Users\TTSS\AppData\Local\Temp\ccwoAHLq.s 			page 33


 433 0068 3A020000 		.word	.L51
 434 006c 3A020000 		.word	.L51
 435 0070 3A020000 		.word	.L51
 436 0074 3A020000 		.word	.L51
 437 0078 3A020000 		.word	.L51
 438 007c 3A020000 		.word	.L51
 439 0080 3A020000 		.word	.L51
 440 0084 EE000000 		.word	.L26
 441 0088 3A020000 		.word	.L51
 442 008c 3A020000 		.word	.L51
 443 0090 3A020000 		.word	.L51
 444 0094 3A020000 		.word	.L51
 445 0098 30010000 		.word	.L27
 446 009c 18010000 		.word	.L28
 447 00a0 28010000 		.word	.L29
 448 00a4 3A020000 		.word	.L51
 449 00a8 0E010000 		.word	.L30
 450 00ac 3A020000 		.word	.L51
 451 00b0 3A020000 		.word	.L51
 452 00b4 3A020000 		.word	.L51
 453 00b8 3A020000 		.word	.L51
 454 00bc 3A020000 		.word	.L51
 455 00c0 3A020000 		.word	.L51
 456 00c4 3A020000 		.word	.L51
 457 00c8 3A020000 		.word	.L51
 458 00cc 3A020000 		.word	.L51
 459 00d0 3A020000 		.word	.L51
 460 00d4 3A020000 		.word	.L51
 461 00d8 3A020000 		.word	.L51
 462 00dc 3A020000 		.word	.L51
 463 00e0 3A020000 		.word	.L51
 464 00e4 3A020000 		.word	.L51
 465 00e8 3A020000 		.word	.L51
 466 00ec 3A020000 		.word	.L51
 467 00f0 3A020000 		.word	.L51
 468 00f4 3A020000 		.word	.L51
 469 00f8 3A020000 		.word	.L51
 470 00fc 3A020000 		.word	.L51
 471 0100 3A020000 		.word	.L51
 472 0104 B0010000 		.word	.L31
 473 0108 E6010000 		.word	.L32
 474 010c EC010000 		.word	.L33
 475 0110 3A020000 		.word	.L51
 476 0114 3A020000 		.word	.L51
 477 0118 3A020000 		.word	.L51
 478 011c 3A020000 		.word	.L51
 479 0120 3A020000 		.word	.L51
 480 0124 3A020000 		.word	.L51
 481 0128 3A020000 		.word	.L51
 482 012c 3A020000 		.word	.L51
 483 0130 26020000 		.word	.L34
 484 0134 3A020000 		.word	.L51
 485 0138 3A020000 		.word	.L51
 486 013c 3A020000 		.word	.L51
 487 0140 3A020000 		.word	.L51
 488 0144 3A020000 		.word	.L51
 489 0148 3A020000 		.word	.L51
ARM GAS  C:\Users\TTSS\AppData\Local\Temp\ccwoAHLq.s 			page 34


 490 014c 3A020000 		.word	.L51
 491 0150 30020000 		.word	.L38
 492 0154 3A020000 		.word	.L51
 493 0158 3A020000 		.word	.L51
 494 015c 3A020000 		.word	.L51
 495 0160 3A020000 		.word	.L51
 496 0164 3A020000 		.word	.L51
 497 0168 3A020000 		.word	.L51
 498 016c 3A020000 		.word	.L51
 499 0170 3A020000 		.word	.L51
 500 0174 3A020000 		.word	.L51
 501 0178 3A020000 		.word	.L51
 502 017c 3A020000 		.word	.L51
 503 0180 3A020000 		.word	.L51
 504 0184 3A020000 		.word	.L51
 505 0188 3A020000 		.word	.L51
 506 018c 3A020000 		.word	.L51
 507 0190 3A020000 		.word	.L51
 508 0194 3A020000 		.word	.L51
 509 0198 3A020000 		.word	.L51
 510 019c 3A020000 		.word	.L51
 511 01a0 3A020000 		.word	.L51
 512 01a4 3A020000 		.word	.L51
 513 01a8 3A020000 		.word	.L51
 514 01ac 3A020000 		.word	.L51
 515 01b0 3A020000 		.word	.L51
 516 01b4 3A020000 		.word	.L51
 517 01b8 3A020000 		.word	.L51
 518 01bc 3A020000 		.word	.L51
 519 01c0 3A020000 		.word	.L51
 520 01c4 A4010000 		.word	.L40
 521              		.section	.text.CyBle_EventHandler
 522              	.L22:
 523              	.LBB3:
1391:Generated_Source\PSoC4/BLE_eventHandler.c ****     {
1392:Generated_Source\PSoC4/BLE_eventHandler.c ****         /**********************************************************
1393:Generated_Source\PSoC4/BLE_eventHandler.c ****         ##General events
1394:Generated_Source\PSoC4/BLE_eventHandler.c ****         ***********************************************************/
1395:Generated_Source\PSoC4/BLE_eventHandler.c ****         case CYBLE_EVT_STACK_ON:
1396:Generated_Source\PSoC4/BLE_eventHandler.c ****         #if(CYBLE_MODE_PROFILE)
1397:Generated_Source\PSoC4/BLE_eventHandler.c ****         {
1398:Generated_Source\PSoC4/BLE_eventHandler.c ****             CYBLE_BLESS_PWR_IN_DB_T bleSsPowerLevel;
1399:Generated_Source\PSoC4/BLE_eventHandler.c ****             
1400:Generated_Source\PSoC4/BLE_eventHandler.c ****             /* Set Tx Power Level for advertising and connection channels */
1401:Generated_Source\PSoC4/BLE_eventHandler.c ****             bleSsPowerLevel.blePwrLevelInDbm = CYBLE_TX_POWER_LEVEL_ADV;
 524              		.loc 1 1401 0
 525 0032 0C23     		mov	r3, #12
 526 0034 FB18     		add	r3, r7, r3
 527 0036 0722     		mov	r2, #7
 528 0038 1A70     		strb	r2, [r3]
1402:Generated_Source\PSoC4/BLE_eventHandler.c ****             bleSsPowerLevel.bleSsChId = CYBLE_LL_ADV_CH_TYPE;
 529              		.loc 1 1402 0
 530 003a 0C23     		mov	r3, #12
 531 003c FB18     		add	r3, r7, r3
 532 003e 0022     		mov	r2, #0
 533 0040 5A70     		strb	r2, [r3, #1]
1403:Generated_Source\PSoC4/BLE_eventHandler.c ****             (void) CyBle_SetTxPowerLevel (&bleSsPowerLevel);
ARM GAS  C:\Users\TTSS\AppData\Local\Temp\ccwoAHLq.s 			page 35


 534              		.loc 1 1403 0
 535 0042 0C23     		mov	r3, #12
 536 0044 FB18     		add	r3, r7, r3
 537 0046 181C     		mov	r0, r3
 538 0048 FFF7FEFF 		bl	CyBle_SetTxPowerLevel
1404:Generated_Source\PSoC4/BLE_eventHandler.c ****             bleSsPowerLevel.blePwrLevelInDbm = CYBLE_TX_POWER_LEVEL_CONN;
 539              		.loc 1 1404 0
 540 004c 0C23     		mov	r3, #12
 541 004e FB18     		add	r3, r7, r3
 542 0050 0722     		mov	r2, #7
 543 0052 1A70     		strb	r2, [r3]
1405:Generated_Source\PSoC4/BLE_eventHandler.c ****             bleSsPowerLevel.bleSsChId = CYBLE_LL_CONN_CH_TYPE;
 544              		.loc 1 1405 0
 545 0054 0C23     		mov	r3, #12
 546 0056 FB18     		add	r3, r7, r3
 547 0058 0122     		mov	r2, #1
 548 005a 5A70     		strb	r2, [r3, #1]
1406:Generated_Source\PSoC4/BLE_eventHandler.c ****             (void) CyBle_SetTxPowerLevel (&bleSsPowerLevel);
 549              		.loc 1 1406 0
 550 005c 0C23     		mov	r3, #12
 551 005e FB18     		add	r3, r7, r3
 552 0060 181C     		mov	r0, r3
 553 0062 FFF7FEFF 		bl	CyBle_SetTxPowerLevel
 554              	.LBE3:
1407:Generated_Source\PSoC4/BLE_eventHandler.c ****         }
1408:Generated_Source\PSoC4/BLE_eventHandler.c ****         #endif /* CYBLE_MODE_PROFILE */
1409:Generated_Source\PSoC4/BLE_eventHandler.c ****         #if (CYBLE_GATT_ROLE_SERVER || CYBLE_GATT_ROLE_CLIENT)
1410:Generated_Source\PSoC4/BLE_eventHandler.c ****             /* Set device Address  */
1411:Generated_Source\PSoC4/BLE_eventHandler.c ****             if(CyBle_IsDeviceAddressValid(cyBle_sflashDeviceAddress) != 0u)
 555              		.loc 1 1411 0
 556 0066 844B     		ldr	r3, .L52+8
 557 0068 1B68     		ldr	r3, [r3]
 558 006a 181C     		mov	r0, r3
 559 006c FFF7FEFF 		bl	CyBle_IsDeviceAddressValid
 560 0070 031E     		sub	r3, r0, #0
 561 0072 11D0     		beq	.L41
1412:Generated_Source\PSoC4/BLE_eventHandler.c ****             {
1413:Generated_Source\PSoC4/BLE_eventHandler.c ****                 (void) CyBle_SetDeviceAddress(cyBle_sflashDeviceAddress);
 562              		.loc 1 1413 0
 563 0074 804B     		ldr	r3, .L52+8
 564 0076 1B68     		ldr	r3, [r3]
 565 0078 181C     		mov	r0, r3
 566 007a FFF7FEFF 		bl	CyBle_SetDeviceAddress
1414:Generated_Source\PSoC4/BLE_eventHandler.c ****                 #if(CYBLE_GAP_ROLE_PERIPHERAL || CYBLE_GAP_ROLE_BROADCASTER)
1415:Generated_Source\PSoC4/BLE_eventHandler.c ****                     CyBle_ChangeAdDeviceAddress(cyBle_sflashDeviceAddress, 0u);
 567              		.loc 1 1415 0
 568 007e 7E4B     		ldr	r3, .L52+8
 569 0080 1B68     		ldr	r3, [r3]
 570 0082 181C     		mov	r0, r3
 571 0084 0021     		mov	r1, #0
 572 0086 FFF7FEFF 		bl	CyBle_ChangeAdDeviceAddress
1416:Generated_Source\PSoC4/BLE_eventHandler.c ****                     CyBle_ChangeAdDeviceAddress(cyBle_sflashDeviceAddress, 1u);
 573              		.loc 1 1416 0
 574 008a 7B4B     		ldr	r3, .L52+8
 575 008c 1B68     		ldr	r3, [r3]
 576 008e 181C     		mov	r0, r3
 577 0090 0121     		mov	r1, #1
ARM GAS  C:\Users\TTSS\AppData\Local\Temp\ccwoAHLq.s 			page 36


 578 0092 FFF7FEFF 		bl	CyBle_ChangeAdDeviceAddress
 579 0096 19E0     		b	.L42
 580              	.L41:
1417:Generated_Source\PSoC4/BLE_eventHandler.c ****                 #endif /* CYBLE_GAP_ROLE_PERIPHERAL || CYBLE_GAP_ROLE_BROADCASTER */    
1418:Generated_Source\PSoC4/BLE_eventHandler.c ****             }
1419:Generated_Source\PSoC4/BLE_eventHandler.c ****             else
1420:Generated_Source\PSoC4/BLE_eventHandler.c ****             {
1421:Generated_Source\PSoC4/BLE_eventHandler.c ****             #if (SILICON_GENERATED_DEVICE_ADDRESS != 0u)
1422:Generated_Source\PSoC4/BLE_eventHandler.c ****                 cyBle_deviceAddress.bdAddr[0] = CYBLE_SFLASH_DIE_X_REG;
 581              		.loc 1 1422 0
 582 0098 784B     		ldr	r3, .L52+12
 583 009a 1A78     		ldrb	r2, [r3]
 584 009c 784B     		ldr	r3, .L52+16
 585 009e 1A70     		strb	r2, [r3]
1423:Generated_Source\PSoC4/BLE_eventHandler.c ****                 cyBle_deviceAddress.bdAddr[1] = CYBLE_SFLASH_DIE_Y_REG;
 586              		.loc 1 1423 0
 587 00a0 784B     		ldr	r3, .L52+20
 588 00a2 1A78     		ldrb	r2, [r3]
 589 00a4 764B     		ldr	r3, .L52+16
 590 00a6 5A70     		strb	r2, [r3, #1]
1424:Generated_Source\PSoC4/BLE_eventHandler.c ****                 cyBle_deviceAddress.bdAddr[2] = CYBLE_SFLASH_DIE_WAFER_REG;
 591              		.loc 1 1424 0
 592 00a8 774B     		ldr	r3, .L52+24
 593 00aa 1A78     		ldrb	r2, [r3]
 594 00ac 744B     		ldr	r3, .L52+16
 595 00ae 9A70     		strb	r2, [r3, #2]
1425:Generated_Source\PSoC4/BLE_eventHandler.c ****             #endif /* SILICON_GENERATED_DEVICE_ADDRESS != 0u */
1426:Generated_Source\PSoC4/BLE_eventHandler.c ****                 (void) CyBle_SetDeviceAddress(&cyBle_deviceAddress);
 596              		.loc 1 1426 0
 597 00b0 734B     		ldr	r3, .L52+16
 598 00b2 181C     		mov	r0, r3
 599 00b4 FFF7FEFF 		bl	CyBle_SetDeviceAddress
1427:Generated_Source\PSoC4/BLE_eventHandler.c ****                 #if(CYBLE_GAP_ROLE_PERIPHERAL || CYBLE_GAP_ROLE_BROADCASTER)
1428:Generated_Source\PSoC4/BLE_eventHandler.c ****                     CyBle_ChangeAdDeviceAddress(&cyBle_deviceAddress, 0u);
 600              		.loc 1 1428 0
 601 00b8 714B     		ldr	r3, .L52+16
 602 00ba 181C     		mov	r0, r3
 603 00bc 0021     		mov	r1, #0
 604 00be FFF7FEFF 		bl	CyBle_ChangeAdDeviceAddress
1429:Generated_Source\PSoC4/BLE_eventHandler.c ****                     CyBle_ChangeAdDeviceAddress(&cyBle_deviceAddress, 1u);
 605              		.loc 1 1429 0
 606 00c2 6F4B     		ldr	r3, .L52+16
 607 00c4 181C     		mov	r0, r3
 608 00c6 0121     		mov	r1, #1
 609 00c8 FFF7FEFF 		bl	CyBle_ChangeAdDeviceAddress
 610              	.L42:
1430:Generated_Source\PSoC4/BLE_eventHandler.c ****                 #endif /* CYBLE_GAP_ROLE_PERIPHERAL || CYBLE_GAP_ROLE_BROADCASTER */    
1431:Generated_Source\PSoC4/BLE_eventHandler.c ****             }
1432:Generated_Source\PSoC4/BLE_eventHandler.c ****             /* Set device IO Capability  */
1433:Generated_Source\PSoC4/BLE_eventHandler.c ****             (void) CyBle_GapSetIoCap(CYBLE_IO_CAPABILITY);    
 611              		.loc 1 1433 0
 612 00cc 0020     		mov	r0, #0
 613 00ce FFF7FEFF 		bl	CyBle_GapSetIoCap
1434:Generated_Source\PSoC4/BLE_eventHandler.c ****         #endif /* CYBLE_GATT_ROLE_SERVER || CYBLE_GATT_ROLE_CLIENT */
1435:Generated_Source\PSoC4/BLE_eventHandler.c ****             CyBle_SetState(CYBLE_STATE_DISCONNECTED);
 614              		.loc 1 1435 0
 615 00d2 6E4B     		ldr	r3, .L52+28
ARM GAS  C:\Users\TTSS\AppData\Local\Temp\ccwoAHLq.s 			page 37


 616 00d4 0422     		mov	r2, #4
 617 00d6 1A70     		strb	r2, [r3]
1436:Generated_Source\PSoC4/BLE_eventHandler.c ****             break;
 618              		.loc 1 1436 0
 619 00d8 B0E0     		b	.L43
 620              	.L24:
1437:Generated_Source\PSoC4/BLE_eventHandler.c ****         case CYBLE_EVT_TIMEOUT:
1438:Generated_Source\PSoC4/BLE_eventHandler.c ****             CyBle_TimeOutEventHandler((CYBLE_TO_REASON_CODE_T *)eventParam);
 621              		.loc 1 1438 0
 622 00da 3B68     		ldr	r3, [r7]
 623 00dc 181C     		mov	r0, r3
 624 00de FFF7FEFF 		bl	CyBle_TimeOutEventHandler
1439:Generated_Source\PSoC4/BLE_eventHandler.c ****             break;
 625              		.loc 1 1439 0
 626 00e2 ABE0     		b	.L43
 627              	.L25:
1440:Generated_Source\PSoC4/BLE_eventHandler.c ****     	case CYBLE_EVT_STACK_BUSY_STATUS:
1441:Generated_Source\PSoC4/BLE_eventHandler.c ****             cyBle_busyStatus = *(uint8 *)eventParam;
 628              		.loc 1 1441 0
 629 00e4 3B68     		ldr	r3, [r7]
 630 00e6 1A78     		ldrb	r2, [r3]
 631 00e8 694B     		ldr	r3, .L52+32
 632 00ea 1A70     		strb	r2, [r3]
1442:Generated_Source\PSoC4/BLE_eventHandler.c ****             break;
 633              		.loc 1 1442 0
 634 00ec A6E0     		b	.L43
 635              	.L26:
1443:Generated_Source\PSoC4/BLE_eventHandler.c **** 
1444:Generated_Source\PSoC4/BLE_eventHandler.c ****         /**********************************************************
1445:Generated_Source\PSoC4/BLE_eventHandler.c ****         ##GAP events
1446:Generated_Source\PSoC4/BLE_eventHandler.c ****         ***********************************************************/
1447:Generated_Source\PSoC4/BLE_eventHandler.c ****         case CYBLE_EVT_GAP_AUTH_REQ:
1448:Generated_Source\PSoC4/BLE_eventHandler.c ****         #if(CYBLE_MODE_PROFILE)
1449:Generated_Source\PSoC4/BLE_eventHandler.c ****             if(0u == (cyBle_eventHandlerFlag & CYBLE_DISABLE_AUTOMATIC_AUTH))
 636              		.loc 1 1449 0
 637 00ee 604B     		ldr	r3, .L52
 638 00f0 1B78     		ldrb	r3, [r3]
 639 00f2 DBB2     		uxtb	r3, r3
 640 00f4 1A1C     		mov	r2, r3
 641 00f6 2023     		mov	r3, #32
 642 00f8 1340     		and	r3, r2
 643 00fa 07D1     		bne	.L44
1450:Generated_Source\PSoC4/BLE_eventHandler.c ****             {
1451:Generated_Source\PSoC4/BLE_eventHandler.c ****                 /* If the responding device does not support pairing then the responding 
1452:Generated_Source\PSoC4/BLE_eventHandler.c ****                    device shall respond using the Pairing Failed message with the error 
1453:Generated_Source\PSoC4/BLE_eventHandler.c ****                    code "Pairing Not Supported" otherwise it responds with a Pairing 
1454:Generated_Source\PSoC4/BLE_eventHandler.c ****                    Response message.
1455:Generated_Source\PSoC4/BLE_eventHandler.c ****                 */
1456:Generated_Source\PSoC4/BLE_eventHandler.c ****                 if(cyBle_authInfo.security == (CYBLE_GAP_SEC_MODE_1 | CYBLE_GAP_SEC_LEVEL_1))
 644              		.loc 1 1456 0
 645 00fc 654B     		ldr	r3, .L52+36
 646 00fe 1B78     		ldrb	r3, [r3]
 647 0100 102B     		cmp	r3, #16
 648 0102 03D1     		bne	.L44
1457:Generated_Source\PSoC4/BLE_eventHandler.c ****                 {
1458:Generated_Source\PSoC4/BLE_eventHandler.c ****                     cyBle_authInfo.authErr = CYBLE_GAP_AUTH_ERROR_PAIRING_NOT_SUPPORTED;
 649              		.loc 1 1458 0
ARM GAS  C:\Users\TTSS\AppData\Local\Temp\ccwoAHLq.s 			page 38


 650 0104 634B     		ldr	r3, .L52+36
 651 0106 0522     		mov	r2, #5
 652 0108 DA70     		strb	r2, [r3, #3]
1459:Generated_Source\PSoC4/BLE_eventHandler.c ****                 }    
1460:Generated_Source\PSoC4/BLE_eventHandler.c ****             #if(CYBLE_GAP_ROLE_PERIPHERAL)
1461:Generated_Source\PSoC4/BLE_eventHandler.c ****                 (void)CyBle_GappAuthReqReply(cyBle_connHandle.bdHandle, &cyBle_authInfo);
1462:Generated_Source\PSoC4/BLE_eventHandler.c ****             #endif /* CYBLE_GAP_ROLE_PERIPHERAL */
1463:Generated_Source\PSoC4/BLE_eventHandler.c ****             #if (CYBLE_GAP_ROLE_CENTRAL)
1464:Generated_Source\PSoC4/BLE_eventHandler.c ****                 (void)CyBle_GapAuthReq(cyBle_connHandle.bdHandle, &cyBle_authInfo);
1465:Generated_Source\PSoC4/BLE_eventHandler.c ****             #endif /* CYBLE_GAP_ROLE_CENTRAL */
1466:Generated_Source\PSoC4/BLE_eventHandler.c ****             }
1467:Generated_Source\PSoC4/BLE_eventHandler.c ****         #endif /* CYBLE_MODE_PROFILE */
1468:Generated_Source\PSoC4/BLE_eventHandler.c ****             break;
 653              		.loc 1 1468 0
 654 010a 97E0     		b	.L43
 655              	.L44:
 656 010c 96E0     		b	.L43
 657              	.L30:
1469:Generated_Source\PSoC4/BLE_eventHandler.c **** 
1470:Generated_Source\PSoC4/BLE_eventHandler.c ****         case CYBLE_EVT_GAP_CONNECTION_UPDATE_COMPLETE:
1471:Generated_Source\PSoC4/BLE_eventHandler.c ****             CyBle_GapConnUpdateCompleteEventHandler((const CYBLE_GAP_CONN_PARAM_UPDATED_IN_CONTROLL
 658              		.loc 1 1471 0
 659 010e 3B68     		ldr	r3, [r7]
 660 0110 181C     		mov	r0, r3
 661 0112 FFF7FEFF 		bl	CyBle_GapConnUpdateCompleteEventHandler
1472:Generated_Source\PSoC4/BLE_eventHandler.c ****             break;
 662              		.loc 1 1472 0
 663 0116 91E0     		b	.L43
 664              	.L28:
1473:Generated_Source\PSoC4/BLE_eventHandler.c ****             
1474:Generated_Source\PSoC4/BLE_eventHandler.c ****         case CYBLE_EVT_GAP_DEVICE_CONNECTED:
1475:Generated_Source\PSoC4/BLE_eventHandler.c ****             CyBle_GapConnUpdateCompleteEventHandler((const CYBLE_GAP_CONN_PARAM_UPDATED_IN_CONTROLL
 665              		.loc 1 1475 0
 666 0118 3B68     		ldr	r3, [r7]
 667 011a 181C     		mov	r0, r3
 668 011c FFF7FEFF 		bl	CyBle_GapConnUpdateCompleteEventHandler
1476:Generated_Source\PSoC4/BLE_eventHandler.c ****             #if(CYBLE_GAP_ROLE_CENTRAL)
1477:Generated_Source\PSoC4/BLE_eventHandler.c ****                 if(cyBle_connectingTimeout != 0u)
1478:Generated_Source\PSoC4/BLE_eventHandler.c ****                 {
1479:Generated_Source\PSoC4/BLE_eventHandler.c ****                    (void)CyBle_StopTimer();
1480:Generated_Source\PSoC4/BLE_eventHandler.c ****                 }
1481:Generated_Source\PSoC4/BLE_eventHandler.c ****             #endif /* CYBLE_GAP_ROLE_CENTRAL */
1482:Generated_Source\PSoC4/BLE_eventHandler.c ****             CyBle_SetState(CYBLE_STATE_CONNECTED);
 669              		.loc 1 1482 0
 670 0120 5A4B     		ldr	r3, .L52+28
 671 0122 0222     		mov	r2, #2
 672 0124 1A70     		strb	r2, [r3]
1483:Generated_Source\PSoC4/BLE_eventHandler.c ****             break;
 673              		.loc 1 1483 0
 674 0126 89E0     		b	.L43
 675              	.L29:
1484:Generated_Source\PSoC4/BLE_eventHandler.c **** 
1485:Generated_Source\PSoC4/BLE_eventHandler.c ****         case CYBLE_EVT_GAP_DEVICE_DISCONNECTED:
1486:Generated_Source\PSoC4/BLE_eventHandler.c ****             CyBle_SetState(CYBLE_STATE_DISCONNECTED);
 676              		.loc 1 1486 0
 677 0128 584B     		ldr	r3, .L52+28
 678 012a 0422     		mov	r2, #4
ARM GAS  C:\Users\TTSS\AppData\Local\Temp\ccwoAHLq.s 			page 39


 679 012c 1A70     		strb	r2, [r3]
1487:Generated_Source\PSoC4/BLE_eventHandler.c ****             break;
 680              		.loc 1 1487 0
 681 012e 85E0     		b	.L43
 682              	.L27:
1488:Generated_Source\PSoC4/BLE_eventHandler.c ****         #if(CYBLE_GAP_ROLE_PERIPHERAL || CYBLE_GAP_ROLE_BROADCASTER)
1489:Generated_Source\PSoC4/BLE_eventHandler.c ****             
1490:Generated_Source\PSoC4/BLE_eventHandler.c ****         case CYBLE_EVT_GAPP_ADVERTISEMENT_START_STOP:
1491:Generated_Source\PSoC4/BLE_eventHandler.c ****             #ifdef CYBLE_CPS_SERVER
1492:Generated_Source\PSoC4/BLE_eventHandler.c ****                 #if(CYBLE_GAP_ROLE_BROADCASTER)
1493:Generated_Source\PSoC4/BLE_eventHandler.c ****                     CyBle_CpssAdvertisementStartStopEventHandler();
1494:Generated_Source\PSoC4/BLE_eventHandler.c ****                 #endif /* CYBLE_GAP_ROLE_BROADCASTER */
1495:Generated_Source\PSoC4/BLE_eventHandler.c ****             #endif /* CYBLE_CPS_SERVER */
1496:Generated_Source\PSoC4/BLE_eventHandler.c ****             
1497:Generated_Source\PSoC4/BLE_eventHandler.c ****             if((CYBLE_STATE_CONNECTED != CyBle_GetState()) && ((cyBle_eventHandlerFlag & CYBLE_CALL
 683              		.loc 1 1497 0
 684 0130 564B     		ldr	r3, .L52+28
 685 0132 1B78     		ldrb	r3, [r3]
 686 0134 022B     		cmp	r3, #2
 687 0136 34D0     		beq	.L45
 688              		.loc 1 1497 0 is_stmt 0 discriminator 1
 689 0138 4D4B     		ldr	r3, .L52
 690 013a 1B78     		ldrb	r3, [r3]
 691 013c DBB2     		uxtb	r3, r3
 692 013e 1A1C     		mov	r2, r3
 693 0140 0123     		mov	r3, #1
 694 0142 1340     		and	r3, r2
 695 0144 2DD0     		beq	.L45
1498:Generated_Source\PSoC4/BLE_eventHandler.c ****             {
1499:Generated_Source\PSoC4/BLE_eventHandler.c ****                 /* After CyBle_GappStartAdvertisement first event indicates that advertising has be
1500:Generated_Source\PSoC4/BLE_eventHandler.c ****                 if(0u != (cyBle_eventHandlerFlag & CYBLE_START_FLAG))
 696              		.loc 1 1500 0 is_stmt 1
 697 0146 4A4B     		ldr	r3, .L52
 698 0148 1B78     		ldrb	r3, [r3]
 699 014a DBB2     		uxtb	r3, r3
 700 014c 1A1C     		mov	r2, r3
 701 014e 0423     		mov	r3, #4
 702 0150 1340     		and	r3, r2
 703 0152 0BD0     		beq	.L46
1501:Generated_Source\PSoC4/BLE_eventHandler.c ****                 {
1502:Generated_Source\PSoC4/BLE_eventHandler.c ****                     CyBle_SetState(CYBLE_STATE_ADVERTISING);
 704              		.loc 1 1502 0
 705 0154 4D4B     		ldr	r3, .L52+28
 706 0156 0322     		mov	r2, #3
 707 0158 1A70     		strb	r2, [r3]
1503:Generated_Source\PSoC4/BLE_eventHandler.c ****                     cyBle_eventHandlerFlag &= (uint8)~CYBLE_START_FLAG;
 708              		.loc 1 1503 0
 709 015a 454B     		ldr	r3, .L52
 710 015c 1B78     		ldrb	r3, [r3]
 711 015e DBB2     		uxtb	r3, r3
 712 0160 0422     		mov	r2, #4
 713 0162 9343     		bic	r3, r2
 714 0164 DAB2     		uxtb	r2, r3
 715 0166 424B     		ldr	r3, .L52
 716 0168 1A70     		strb	r2, [r3]
 717 016a 1AE0     		b	.L45
 718              	.L46:
ARM GAS  C:\Users\TTSS\AppData\Local\Temp\ccwoAHLq.s 			page 40


1504:Generated_Source\PSoC4/BLE_eventHandler.c ****                 }
1505:Generated_Source\PSoC4/BLE_eventHandler.c ****                 /* When application initiated stop advertisement */
1506:Generated_Source\PSoC4/BLE_eventHandler.c ****                 else if(0u != (cyBle_eventHandlerFlag & CYBLE_STOP_FLAG))
 719              		.loc 1 1506 0
 720 016c 404B     		ldr	r3, .L52
 721 016e 1B78     		ldrb	r3, [r3]
 722 0170 DBB2     		uxtb	r3, r3
 723 0172 1A1C     		mov	r2, r3
 724 0174 0823     		mov	r3, #8
 725 0176 1340     		and	r3, r2
 726 0178 0BD0     		beq	.L47
1507:Generated_Source\PSoC4/BLE_eventHandler.c ****                 {
1508:Generated_Source\PSoC4/BLE_eventHandler.c ****                     CyBle_SetState(CYBLE_STATE_DISCONNECTED);  
 727              		.loc 1 1508 0
 728 017a 444B     		ldr	r3, .L52+28
 729 017c 0422     		mov	r2, #4
 730 017e 1A70     		strb	r2, [r3]
1509:Generated_Source\PSoC4/BLE_eventHandler.c ****                     cyBle_eventHandlerFlag &= (uint8)~CYBLE_STOP_FLAG;
 731              		.loc 1 1509 0
 732 0180 3B4B     		ldr	r3, .L52
 733 0182 1B78     		ldrb	r3, [r3]
 734 0184 DBB2     		uxtb	r3, r3
 735 0186 0822     		mov	r2, #8
 736 0188 9343     		bic	r3, r2
 737 018a DAB2     		uxtb	r2, r3
 738 018c 384B     		ldr	r3, .L52
 739 018e 1A70     		strb	r2, [r3]
 740 0190 07E0     		b	.L45
 741              	.L47:
1510:Generated_Source\PSoC4/BLE_eventHandler.c ****                 }
1511:Generated_Source\PSoC4/BLE_eventHandler.c ****                 else /* Following event indicates that advertising has been stopped */
1512:Generated_Source\PSoC4/BLE_eventHandler.c ****                 {
1513:Generated_Source\PSoC4/BLE_eventHandler.c ****                     if(CYBLE_STATE_ADVERTISING == CyBle_GetState())
 742              		.loc 1 1513 0
 743 0192 3E4B     		ldr	r3, .L52+28
 744 0194 1B78     		ldrb	r3, [r3]
 745 0196 032B     		cmp	r3, #3
 746 0198 03D1     		bne	.L45
1514:Generated_Source\PSoC4/BLE_eventHandler.c ****                     {
1515:Generated_Source\PSoC4/BLE_eventHandler.c ****                         CyBle_SetState(CYBLE_STATE_DISCONNECTED);
 747              		.loc 1 1515 0
 748 019a 3C4B     		ldr	r3, .L52+28
 749 019c 0422     		mov	r2, #4
 750 019e 1A70     		strb	r2, [r3]
1516:Generated_Source\PSoC4/BLE_eventHandler.c ****                     #if ((CYBLE_SLOW_ADV_ENABLED != 0u) && (CYBLE_FAST_ADV_TIMEOUT != 0u))
1517:Generated_Source\PSoC4/BLE_eventHandler.c ****                         if(cyBle_advertisingIntervalType == CYBLE_ADVERTISING_FAST)
1518:Generated_Source\PSoC4/BLE_eventHandler.c ****                         {
1519:Generated_Source\PSoC4/BLE_eventHandler.c ****                             /* When fast advertising time out occur: Start slow advertising */
1520:Generated_Source\PSoC4/BLE_eventHandler.c ****                             if(CYBLE_ERROR_OK == CyBle_GappStartAdvertisement(CYBLE_ADVERTISING_SLO
1521:Generated_Source\PSoC4/BLE_eventHandler.c ****                             {
1522:Generated_Source\PSoC4/BLE_eventHandler.c ****                                 CyBle_SetState(CYBLE_STATE_ADVERTISING);
1523:Generated_Source\PSoC4/BLE_eventHandler.c ****                             }
1524:Generated_Source\PSoC4/BLE_eventHandler.c ****                         }
1525:Generated_Source\PSoC4/BLE_eventHandler.c ****                     #endif /* CYBLE_SLOW_ADV_ENABLED */
1526:Generated_Source\PSoC4/BLE_eventHandler.c ****                     }
1527:Generated_Source\PSoC4/BLE_eventHandler.c ****                 }
1528:Generated_Source\PSoC4/BLE_eventHandler.c ****             }
ARM GAS  C:\Users\TTSS\AppData\Local\Temp\ccwoAHLq.s 			page 41


1529:Generated_Source\PSoC4/BLE_eventHandler.c ****             break;
 751              		.loc 1 1529 0
 752 01a0 4CE0     		b	.L43
 753              	.L45:
 754 01a2 4BE0     		b	.L43
 755              	.L40:
1530:Generated_Source\PSoC4/BLE_eventHandler.c ****         #endif /* CYBLE_GAP_ROLE_PERIPHERAL || CYBLE_GAP_ROLE_BROADCASTER */
1531:Generated_Source\PSoC4/BLE_eventHandler.c ****         
1532:Generated_Source\PSoC4/BLE_eventHandler.c ****         #if(CYBLE_GAP_ROLE_CENTRAL || CYBLE_GAP_ROLE_OBSERVER)    
1533:Generated_Source\PSoC4/BLE_eventHandler.c ****         case CYBLE_EVT_GAPC_SCAN_START_STOP:
1534:Generated_Source\PSoC4/BLE_eventHandler.c ****             #ifdef CYBLE_CPS_CLIENT
1535:Generated_Source\PSoC4/BLE_eventHandler.c ****                 CyBle_CpscScanStartStopEventHandler();
1536:Generated_Source\PSoC4/BLE_eventHandler.c ****             #endif /* CYBLE_CPS_CLIENT */
1537:Generated_Source\PSoC4/BLE_eventHandler.c ****             
1538:Generated_Source\PSoC4/BLE_eventHandler.c ****             if((CYBLE_STATE_CONNECTED != CyBle_GetState()) && ((cyBle_eventHandlerFlag & CYBLE_CALL
1539:Generated_Source\PSoC4/BLE_eventHandler.c ****             {
1540:Generated_Source\PSoC4/BLE_eventHandler.c ****                 /* After CyBle_GapcStartScan first event indicates that scanning has been started *
1541:Generated_Source\PSoC4/BLE_eventHandler.c ****                 if(0u != (cyBle_eventHandlerFlag & CYBLE_START_FLAG))
1542:Generated_Source\PSoC4/BLE_eventHandler.c ****                 {
1543:Generated_Source\PSoC4/BLE_eventHandler.c ****                     CyBle_SetState(CYBLE_STATE_SCANNING);
1544:Generated_Source\PSoC4/BLE_eventHandler.c ****                     cyBle_eventHandlerFlag &= (uint8)~CYBLE_START_FLAG;
1545:Generated_Source\PSoC4/BLE_eventHandler.c ****                 }
1546:Generated_Source\PSoC4/BLE_eventHandler.c ****                 /* When application initiated stop scanning */
1547:Generated_Source\PSoC4/BLE_eventHandler.c ****                 else if(0u != (cyBle_eventHandlerFlag & CYBLE_STOP_FLAG))
1548:Generated_Source\PSoC4/BLE_eventHandler.c ****                 {
1549:Generated_Source\PSoC4/BLE_eventHandler.c ****                     CyBle_SetState(CYBLE_STATE_DISCONNECTED);  
1550:Generated_Source\PSoC4/BLE_eventHandler.c ****                     cyBle_eventHandlerFlag &= (uint8)~CYBLE_STOP_FLAG;
1551:Generated_Source\PSoC4/BLE_eventHandler.c ****                 }
1552:Generated_Source\PSoC4/BLE_eventHandler.c ****                 else /* Following event indicates that scanning has been stopped by stack */
1553:Generated_Source\PSoC4/BLE_eventHandler.c ****                 {
1554:Generated_Source\PSoC4/BLE_eventHandler.c ****                     if(CYBLE_STATE_SCANNING == CyBle_GetState())
1555:Generated_Source\PSoC4/BLE_eventHandler.c ****                     {
1556:Generated_Source\PSoC4/BLE_eventHandler.c ****                         CyBle_SetState(CYBLE_STATE_DISCONNECTED);  
1557:Generated_Source\PSoC4/BLE_eventHandler.c ****                     #if ((CYBLE_SLOW_SCAN_ENABLED != 0u) && (CYBLE_FAST_SCAN_TIMEOUT != 0u))
1558:Generated_Source\PSoC4/BLE_eventHandler.c ****                         if(cyBle_scanningIntervalType == CYBLE_SCANNING_FAST)
1559:Generated_Source\PSoC4/BLE_eventHandler.c ****                         {
1560:Generated_Source\PSoC4/BLE_eventHandler.c ****                             /* When fast scanning time out occur: Start slow scanning */
1561:Generated_Source\PSoC4/BLE_eventHandler.c ****                             if(CYBLE_ERROR_OK == CyBle_GapcStartScan(CYBLE_SCANNING_SLOW))
1562:Generated_Source\PSoC4/BLE_eventHandler.c ****                             {
1563:Generated_Source\PSoC4/BLE_eventHandler.c ****                                 CyBle_SetState(CYBLE_STATE_SCANNING);
1564:Generated_Source\PSoC4/BLE_eventHandler.c ****                             }
1565:Generated_Source\PSoC4/BLE_eventHandler.c ****                         }
1566:Generated_Source\PSoC4/BLE_eventHandler.c ****                     #endif /* CYBLE_SLOW_SCAN_ENABLED */
1567:Generated_Source\PSoC4/BLE_eventHandler.c ****                     }
1568:Generated_Source\PSoC4/BLE_eventHandler.c ****                 }
1569:Generated_Source\PSoC4/BLE_eventHandler.c ****             }
1570:Generated_Source\PSoC4/BLE_eventHandler.c ****             break;
1571:Generated_Source\PSoC4/BLE_eventHandler.c ****         #endif /* CYBLE_GAP_ROLE_CENTRAL || CYBLE_GAP_ROLE_OBSERVER */
1572:Generated_Source\PSoC4/BLE_eventHandler.c **** 
1573:Generated_Source\PSoC4/BLE_eventHandler.c ****         /**********************************************************
1574:Generated_Source\PSoC4/BLE_eventHandler.c ****         ##L2AP events 
1575:Generated_Source\PSoC4/BLE_eventHandler.c ****         ***********************************************************/
1576:Generated_Source\PSoC4/BLE_eventHandler.c ****         case CYBLE_EVT_L2CAP_CONN_PARAM_UPDATE_RSP:
1577:Generated_Source\PSoC4/BLE_eventHandler.c ****             CyBle_L2Cap_ConnParamUpdateRspEventHandler(*(uint16 *)eventParam);
 756              		.loc 1 1577 0
 757 01a4 3B68     		ldr	r3, [r7]
 758 01a6 1B88     		ldrh	r3, [r3]
ARM GAS  C:\Users\TTSS\AppData\Local\Temp\ccwoAHLq.s 			page 42


 759 01a8 181C     		mov	r0, r3
 760 01aa FFF7FEFF 		bl	CyBle_L2Cap_ConnParamUpdateRspEventHandler
1578:Generated_Source\PSoC4/BLE_eventHandler.c ****             break;
 761              		.loc 1 1578 0
 762 01ae 45E0     		b	.L43
 763              	.L31:
1579:Generated_Source\PSoC4/BLE_eventHandler.c ****         
1580:Generated_Source\PSoC4/BLE_eventHandler.c ****         /**********************************************************
1581:Generated_Source\PSoC4/BLE_eventHandler.c ****         ##GATT events
1582:Generated_Source\PSoC4/BLE_eventHandler.c ****         ***********************************************************/        
1583:Generated_Source\PSoC4/BLE_eventHandler.c ****         case CYBLE_EVT_GATT_CONNECT_IND:
1584:Generated_Source\PSoC4/BLE_eventHandler.c ****             cyBle_connHandle = *(CYBLE_CONN_HANDLE_T *)eventParam;
 764              		.loc 1 1584 0
 765 01b0 394A     		ldr	r2, .L52+40
 766 01b2 3B68     		ldr	r3, [r7]
 767 01b4 111C     		mov	r1, r2
 768 01b6 1A1C     		mov	r2, r3
 769 01b8 0223     		mov	r3, #2
 770 01ba 081C     		mov	r0, r1
 771 01bc 111C     		mov	r1, r2
 772 01be 1A1C     		mov	r2, r3
 773 01c0 FFF7FEFF 		bl	memcpy
1585:Generated_Source\PSoC4/BLE_eventHandler.c ****             
1586:Generated_Source\PSoC4/BLE_eventHandler.c ****         #if((CYBLE_GATT_ROLE_SERVER) && (CYBLE_GATT_DB_CCCD_COUNT != 0u))
1587:Generated_Source\PSoC4/BLE_eventHandler.c ****             /* Init CCCD values in RAM */
1588:Generated_Source\PSoC4/BLE_eventHandler.c ****         	(void) memcpy (cyBle_attValuesCCCD, cyBle_attValuesCCCDFlashMemory[cyBle_connHandle.bdHand
 774              		.loc 1 1588 0
 775 01c4 344B     		ldr	r3, .L52+40
 776 01c6 1B78     		ldrb	r3, [r3]
 777 01c8 5A00     		lsl	r2, r3, #1
 778 01ca 344B     		ldr	r3, .L52+44
 779 01cc D318     		add	r3, r2, r3
 780 01ce 344A     		ldr	r2, .L52+48
 781 01d0 111C     		mov	r1, r2
 782 01d2 1A1C     		mov	r2, r3
 783 01d4 0223     		mov	r3, #2
 784 01d6 081C     		mov	r0, r1
 785 01d8 111C     		mov	r1, r2
 786 01da 1A1C     		mov	r2, r3
 787 01dc FFF7FEFF 		bl	memcpy
1589:Generated_Source\PSoC4/BLE_eventHandler.c ****                             CYBLE_GATT_DB_CCCD_COUNT);
1590:Generated_Source\PSoC4/BLE_eventHandler.c ****         #endif /* CYBLE_GATT_ROLE_SERVER */
1591:Generated_Source\PSoC4/BLE_eventHandler.c ****         
1592:Generated_Source\PSoC4/BLE_eventHandler.c ****         #if (CYBLE_GATT_ROLE_CLIENT)
1593:Generated_Source\PSoC4/BLE_eventHandler.c ****             CyBle_SetClientState(CYBLE_CLIENT_STATE_CONNECTED);
1594:Generated_Source\PSoC4/BLE_eventHandler.c ****         #endif /* CYBLE_GATT_ROLE_CLIENT */
1595:Generated_Source\PSoC4/BLE_eventHandler.c ****         
1596:Generated_Source\PSoC4/BLE_eventHandler.c ****             CyBle_GattConnectReqHandler();
 788              		.loc 1 1596 0
 789 01e0 FFF7FEFF 		bl	CyBle_GattConnectReqHandler
1597:Generated_Source\PSoC4/BLE_eventHandler.c ****             break;
 790              		.loc 1 1597 0
 791 01e4 2AE0     		b	.L43
 792              	.L32:
1598:Generated_Source\PSoC4/BLE_eventHandler.c **** 
1599:Generated_Source\PSoC4/BLE_eventHandler.c ****         case CYBLE_EVT_GATT_DISCONNECT_IND:
1600:Generated_Source\PSoC4/BLE_eventHandler.c ****             CyBle_GattDisconnectEventHandler();
ARM GAS  C:\Users\TTSS\AppData\Local\Temp\ccwoAHLq.s 			page 43


 793              		.loc 1 1600 0
 794 01e6 FFF7FEFF 		bl	CyBle_GattDisconnectEventHandler
1601:Generated_Source\PSoC4/BLE_eventHandler.c ****             break;
 795              		.loc 1 1601 0
 796 01ea 27E0     		b	.L43
 797              	.L33:
 798              	.LBB4:
1602:Generated_Source\PSoC4/BLE_eventHandler.c **** 
1603:Generated_Source\PSoC4/BLE_eventHandler.c ****     #if((CYBLE_GATT_ROLE_SERVER) || (CYBLE_GATT_ROLE_CLIENT))
1604:Generated_Source\PSoC4/BLE_eventHandler.c ****         case CYBLE_EVT_GATTS_XCNHG_MTU_REQ:
1605:Generated_Source\PSoC4/BLE_eventHandler.c ****             {
1606:Generated_Source\PSoC4/BLE_eventHandler.c ****                 uint16 cyBle_mtuSize;
1607:Generated_Source\PSoC4/BLE_eventHandler.c ****                 if(CYBLE_GATT_MTU > ((CYBLE_GATT_XCHG_MTU_PARAM_T *)eventParam)->mtu)
 799              		.loc 1 1607 0
 800 01ec 3B68     		ldr	r3, [r7]
 801 01ee 5B88     		ldrh	r3, [r3, #2]
 802 01f0 162B     		cmp	r3, #22
 803 01f2 05D8     		bhi	.L48
1608:Generated_Source\PSoC4/BLE_eventHandler.c ****                 {
1609:Generated_Source\PSoC4/BLE_eventHandler.c ****                     cyBle_mtuSize = ((CYBLE_GATT_XCHG_MTU_PARAM_T *)eventParam)->mtu;
 804              		.loc 1 1609 0
 805 01f4 0E23     		mov	r3, #14
 806 01f6 FB18     		add	r3, r7, r3
 807 01f8 3A68     		ldr	r2, [r7]
 808 01fa 5288     		ldrh	r2, [r2, #2]
 809 01fc 1A80     		strh	r2, [r3]
 810 01fe 03E0     		b	.L49
 811              	.L48:
1610:Generated_Source\PSoC4/BLE_eventHandler.c ****                 }
1611:Generated_Source\PSoC4/BLE_eventHandler.c ****                 else
1612:Generated_Source\PSoC4/BLE_eventHandler.c ****                 {
1613:Generated_Source\PSoC4/BLE_eventHandler.c ****                     cyBle_mtuSize = CYBLE_GATT_MTU;
 812              		.loc 1 1613 0
 813 0200 0E23     		mov	r3, #14
 814 0202 FB18     		add	r3, r7, r3
 815 0204 1722     		mov	r2, #23
 816 0206 1A80     		strh	r2, [r3]
 817              	.L49:
1614:Generated_Source\PSoC4/BLE_eventHandler.c ****                 }
1615:Generated_Source\PSoC4/BLE_eventHandler.c ****                 (void)CyBle_GattsExchangeMtuRsp(((CYBLE_GATT_XCHG_MTU_PARAM_T *)eventParam)->connHa
 818              		.loc 1 1615 0
 819 0208 3B68     		ldr	r3, [r7]
 820 020a 0E22     		mov	r2, #14
 821 020c BA18     		add	r2, r7, r2
 822 020e 1188     		ldrh	r1, [r2]
 823 0210 1A88     		ldrh	r2, [r3]
 824 0212 0023     		mov	r3, #0
 825 0214 1204     		lsl	r2, r2, #16
 826 0216 120C     		lsr	r2, r2, #16
 827 0218 1B0C     		lsr	r3, r3, #16
 828 021a 1B04     		lsl	r3, r3, #16
 829 021c 1343     		orr	r3, r2
 830 021e 181C     		mov	r0, r3
 831 0220 FFF7FEFF 		bl	CyBle_GattsExchangeMtuRsp
 832              	.LBE4:
1616:Generated_Source\PSoC4/BLE_eventHandler.c ****             }
1617:Generated_Source\PSoC4/BLE_eventHandler.c ****             break;
ARM GAS  C:\Users\TTSS\AppData\Local\Temp\ccwoAHLq.s 			page 44


 833              		.loc 1 1617 0
 834 0224 0AE0     		b	.L43
 835              	.L34:
1618:Generated_Source\PSoC4/BLE_eventHandler.c ****     #endif /* CYBLE_GATT_ROLE_SERVER || CYBLE_GATT_ROLE_CLIENT */
1619:Generated_Source\PSoC4/BLE_eventHandler.c ****     
1620:Generated_Source\PSoC4/BLE_eventHandler.c ****     #if (CYBLE_GATT_ROLE_CLIENT)
1621:Generated_Source\PSoC4/BLE_eventHandler.c ****         case CYBLE_EVT_GAPC_SCAN_PROGRESS_RESULT:
1622:Generated_Source\PSoC4/BLE_eventHandler.c ****         #ifdef CYBLE_CPS_CLIENT
1623:Generated_Source\PSoC4/BLE_eventHandler.c ****                 CyBle_CpscScanProcessEventHandler((CYBLE_GAPC_ADV_REPORT_T *)eventParam);
1624:Generated_Source\PSoC4/BLE_eventHandler.c ****         #endif /* CYBLE_CPS_CLIENT */
1625:Generated_Source\PSoC4/BLE_eventHandler.c ****             break;
1626:Generated_Source\PSoC4/BLE_eventHandler.c ****     #endif /* CYBLE_GATT_ROLE_CLIENT */
1627:Generated_Source\PSoC4/BLE_eventHandler.c **** 
1628:Generated_Source\PSoC4/BLE_eventHandler.c ****     #if(CYBLE_GATT_ROLE_SERVER)
1629:Generated_Source\PSoC4/BLE_eventHandler.c ****         case CYBLE_EVT_GATTS_WRITE_REQ:
1630:Generated_Source\PSoC4/BLE_eventHandler.c ****             CyBle_WriteReqHandler((CYBLE_GATTS_WRITE_REQ_PARAM_T *)eventParam);
 836              		.loc 1 1630 0
 837 0226 3B68     		ldr	r3, [r7]
 838 0228 181C     		mov	r0, r3
 839 022a FFF7FEFF 		bl	CyBle_WriteReqHandler
1631:Generated_Source\PSoC4/BLE_eventHandler.c ****             break;
 840              		.loc 1 1631 0
 841 022e 05E0     		b	.L43
 842              	.L38:
1632:Generated_Source\PSoC4/BLE_eventHandler.c **** 
1633:Generated_Source\PSoC4/BLE_eventHandler.c ****         case CYBLE_EVT_GATTS_WRITE_CMD_REQ:
1634:Generated_Source\PSoC4/BLE_eventHandler.c ****         #ifdef CYBLE_IAS_SERVER
1635:Generated_Source\PSoC4/BLE_eventHandler.c ****             if((cyBle_eventHandlerFlag & CYBLE_CALLBACK) != 0u)
1636:Generated_Source\PSoC4/BLE_eventHandler.c ****             {
1637:Generated_Source\PSoC4/BLE_eventHandler.c ****                 (void)CyBle_IassWriteCmdEventHandler((CYBLE_GATTS_WRITE_REQ_PARAM_T *)eventParam);
1638:Generated_Source\PSoC4/BLE_eventHandler.c ****             }
1639:Generated_Source\PSoC4/BLE_eventHandler.c ****         #endif /* CYBLE_IAS_SERVER */
1640:Generated_Source\PSoC4/BLE_eventHandler.c ****         #ifdef CYBLE_HIDS_SERVER
1641:Generated_Source\PSoC4/BLE_eventHandler.c ****             if((cyBle_eventHandlerFlag & CYBLE_CALLBACK) != 0u)
1642:Generated_Source\PSoC4/BLE_eventHandler.c ****             {
1643:Generated_Source\PSoC4/BLE_eventHandler.c ****                 (void)CyBle_HidssWriteEventHandler((CYBLE_GATTS_WRITE_REQ_PARAM_T *)eventParam);
1644:Generated_Source\PSoC4/BLE_eventHandler.c ****             }
1645:Generated_Source\PSoC4/BLE_eventHandler.c ****         #endif /* CYBLE_HIDS_SERVER */
1646:Generated_Source\PSoC4/BLE_eventHandler.c ****         #ifdef CYBLE_PASS_SERVER
1647:Generated_Source\PSoC4/BLE_eventHandler.c ****             if((cyBle_eventHandlerFlag & CYBLE_CALLBACK) != 0u)
1648:Generated_Source\PSoC4/BLE_eventHandler.c ****             {
1649:Generated_Source\PSoC4/BLE_eventHandler.c ****                 (void)CyBle_PasssWriteCmdEventHandler((CYBLE_GATTS_WRITE_REQ_PARAM_T *)eventParam);
1650:Generated_Source\PSoC4/BLE_eventHandler.c ****             }
1651:Generated_Source\PSoC4/BLE_eventHandler.c ****         #endif /* CYBLE_PASS_SERVER */
1652:Generated_Source\PSoC4/BLE_eventHandler.c ****         #ifdef CYBLE_RTUS_SERVER
1653:Generated_Source\PSoC4/BLE_eventHandler.c ****             if((cyBle_eventHandlerFlag & CYBLE_CALLBACK) != 0u)
1654:Generated_Source\PSoC4/BLE_eventHandler.c ****             {
1655:Generated_Source\PSoC4/BLE_eventHandler.c ****                 (void)CyBle_RtussWriteCmdEventHandler((CYBLE_GATTS_WRITE_REQ_PARAM_T *)eventParam);
1656:Generated_Source\PSoC4/BLE_eventHandler.c ****             }
1657:Generated_Source\PSoC4/BLE_eventHandler.c ****         #endif /* CYBLE_RTUS_SERVER */
1658:Generated_Source\PSoC4/BLE_eventHandler.c ****         #ifdef CYBLE_SCPS_SERVER
1659:Generated_Source\PSoC4/BLE_eventHandler.c ****             if((cyBle_eventHandlerFlag & CYBLE_CALLBACK) != 0u)
1660:Generated_Source\PSoC4/BLE_eventHandler.c ****             {
1661:Generated_Source\PSoC4/BLE_eventHandler.c ****                 (void)CyBle_ScpssWriteEventHandler((CYBLE_GATTS_WRITE_REQ_PARAM_T *)eventParam);
1662:Generated_Source\PSoC4/BLE_eventHandler.c ****             }
1663:Generated_Source\PSoC4/BLE_eventHandler.c ****         #endif /* CYBLE_SCPS_SERVER */
1664:Generated_Source\PSoC4/BLE_eventHandler.c ****             break;
ARM GAS  C:\Users\TTSS\AppData\Local\Temp\ccwoAHLq.s 			page 45


1665:Generated_Source\PSoC4/BLE_eventHandler.c ****         
1666:Generated_Source\PSoC4/BLE_eventHandler.c ****         case CYBLE_EVT_GATTS_PREP_WRITE_REQ:
1667:Generated_Source\PSoC4/BLE_eventHandler.c ****         #ifdef CYBLE_BMS_SERVER
1668:Generated_Source\PSoC4/BLE_eventHandler.c ****             CyBle_BmssPrepareWriteRequestEventHandler((CYBLE_GATTS_PREP_WRITE_REQ_PARAM_T *)eventPa
1669:Generated_Source\PSoC4/BLE_eventHandler.c ****         #endif /* CYBLE_BMS_SERVER */
1670:Generated_Source\PSoC4/BLE_eventHandler.c ****         #ifdef CYBLE_BTS_SERVER
1671:Generated_Source\PSoC4/BLE_eventHandler.c ****             if((cyBle_eventHandlerFlag & CYBLE_CALLBACK) != 0u)
1672:Generated_Source\PSoC4/BLE_eventHandler.c ****             {
1673:Generated_Source\PSoC4/BLE_eventHandler.c ****                 CyBle_BtssPrepareWriteRequestEventHandler((CYBLE_GATTS_PREP_WRITE_REQ_PARAM_T *)eve
1674:Generated_Source\PSoC4/BLE_eventHandler.c ****             }
1675:Generated_Source\PSoC4/BLE_eventHandler.c ****         #endif /* CYBLE_BTS_SERVER */
1676:Generated_Source\PSoC4/BLE_eventHandler.c ****         #ifdef CYBLE_ESS_SERVER
1677:Generated_Source\PSoC4/BLE_eventHandler.c ****             if((cyBle_eventHandlerFlag & CYBLE_CALLBACK) != 0u)
1678:Generated_Source\PSoC4/BLE_eventHandler.c ****             {
1679:Generated_Source\PSoC4/BLE_eventHandler.c ****                 CyBle_EsssPrepareWriteRequestEventHandler((CYBLE_GATTS_PREP_WRITE_REQ_PARAM_T *)eve
1680:Generated_Source\PSoC4/BLE_eventHandler.c ****             }
1681:Generated_Source\PSoC4/BLE_eventHandler.c ****         #endif /* CYBLE_ESS_SERVER */
1682:Generated_Source\PSoC4/BLE_eventHandler.c **** 		#ifdef CYBLE_UDS_SERVER
1683:Generated_Source\PSoC4/BLE_eventHandler.c ****             if((cyBle_eventHandlerFlag & CYBLE_CALLBACK) != 0u)
1684:Generated_Source\PSoC4/BLE_eventHandler.c ****             {
1685:Generated_Source\PSoC4/BLE_eventHandler.c ****                 CyBle_UdssPrepareWriteRequestEventHandler((CYBLE_GATTS_PREP_WRITE_REQ_PARAM_T *)eve
1686:Generated_Source\PSoC4/BLE_eventHandler.c ****             }
1687:Generated_Source\PSoC4/BLE_eventHandler.c ****         #endif /* CYBLE_UDS_SERVER */
1688:Generated_Source\PSoC4/BLE_eventHandler.c ****             break;
1689:Generated_Source\PSoC4/BLE_eventHandler.c **** 
1690:Generated_Source\PSoC4/BLE_eventHandler.c ****         case CYBLE_EVT_GATTS_EXEC_WRITE_REQ:
1691:Generated_Source\PSoC4/BLE_eventHandler.c ****         #ifdef CYBLE_BMS_SERVER
1692:Generated_Source\PSoC4/BLE_eventHandler.c ****             CyBle_BmssExecuteWriteRequestEventHandler((CYBLE_GATTS_EXEC_WRITE_REQ_T *)eventParam);
1693:Generated_Source\PSoC4/BLE_eventHandler.c ****         #endif /* CYBLE_BMS_SERVER */
1694:Generated_Source\PSoC4/BLE_eventHandler.c ****         #ifdef CYBLE_BTS_SERVER
1695:Generated_Source\PSoC4/BLE_eventHandler.c ****             if((cyBle_eventHandlerFlag & CYBLE_CALLBACK) != 0u)
1696:Generated_Source\PSoC4/BLE_eventHandler.c ****             {
1697:Generated_Source\PSoC4/BLE_eventHandler.c ****                 CyBle_BtssExecuteWriteRequestEventHandler((CYBLE_GATTS_EXEC_WRITE_REQ_T *)eventPara
1698:Generated_Source\PSoC4/BLE_eventHandler.c ****             }
1699:Generated_Source\PSoC4/BLE_eventHandler.c ****         #endif /* CYBLE_BTS_SERVER */
1700:Generated_Source\PSoC4/BLE_eventHandler.c ****         #ifdef CYBLE_ESS_SERVER
1701:Generated_Source\PSoC4/BLE_eventHandler.c ****             if((cyBle_eventHandlerFlag & CYBLE_CALLBACK) != 0u)
1702:Generated_Source\PSoC4/BLE_eventHandler.c ****             {
1703:Generated_Source\PSoC4/BLE_eventHandler.c ****                 CyBle_EsssExecuteWriteRequestEventHandler((CYBLE_GATTS_EXEC_WRITE_REQ_T *)eventPara
1704:Generated_Source\PSoC4/BLE_eventHandler.c ****             }
1705:Generated_Source\PSoC4/BLE_eventHandler.c ****         #endif /* CYBLE_ESS_SERVER */
1706:Generated_Source\PSoC4/BLE_eventHandler.c **** 		#ifdef CYBLE_UDS_SERVER
1707:Generated_Source\PSoC4/BLE_eventHandler.c ****             if((cyBle_eventHandlerFlag & CYBLE_CALLBACK) != 0u)
1708:Generated_Source\PSoC4/BLE_eventHandler.c ****             {
1709:Generated_Source\PSoC4/BLE_eventHandler.c ****                 CyBle_UdssExecuteWriteRequestEventHandler((CYBLE_GATTS_EXEC_WRITE_REQ_T *)eventPara
1710:Generated_Source\PSoC4/BLE_eventHandler.c ****             }
1711:Generated_Source\PSoC4/BLE_eventHandler.c ****         #endif /* CYBLE_UDS_SERVER */
1712:Generated_Source\PSoC4/BLE_eventHandler.c ****             break;
1713:Generated_Source\PSoC4/BLE_eventHandler.c ****         
1714:Generated_Source\PSoC4/BLE_eventHandler.c ****         case CYBLE_EVT_GATTS_HANDLE_VALUE_CNF:
1715:Generated_Source\PSoC4/BLE_eventHandler.c ****             CyBle_ValueConfirmation((CYBLE_CONN_HANDLE_T *)eventParam);
 843              		.loc 1 1715 0
 844 0230 3B68     		ldr	r3, [r7]
 845 0232 181C     		mov	r0, r3
 846 0234 FFF7FEFF 		bl	CyBle_ValueConfirmation
1716:Generated_Source\PSoC4/BLE_eventHandler.c ****             break;
 847              		.loc 1 1716 0
ARM GAS  C:\Users\TTSS\AppData\Local\Temp\ccwoAHLq.s 			page 46


 848 0238 00E0     		b	.L43
 849              	.L51:
1717:Generated_Source\PSoC4/BLE_eventHandler.c ****             
1718:Generated_Source\PSoC4/BLE_eventHandler.c ****         case CYBLE_EVT_GATTS_READ_CHAR_VAL_ACCESS_REQ:
1719:Generated_Source\PSoC4/BLE_eventHandler.c ****         #ifdef CYBLE_UDS_SERVER
1720:Generated_Source\PSoC4/BLE_eventHandler.c ****             CyBle_UdssReadRequestEventHandler((CYBLE_GATTS_CHAR_VAL_READ_REQ_T *)eventParam);
1721:Generated_Source\PSoC4/BLE_eventHandler.c ****         #endif /* CYBLE_UDS_SERVER */
1722:Generated_Source\PSoC4/BLE_eventHandler.c ****             break;
1723:Generated_Source\PSoC4/BLE_eventHandler.c ****             
1724:Generated_Source\PSoC4/BLE_eventHandler.c ****     #endif /* CYBLE_GATT_ROLE_SERVER */
1725:Generated_Source\PSoC4/BLE_eventHandler.c **** 
1726:Generated_Source\PSoC4/BLE_eventHandler.c ****     #if (CYBLE_GATT_ROLE_CLIENT)
1727:Generated_Source\PSoC4/BLE_eventHandler.c ****         
1728:Generated_Source\PSoC4/BLE_eventHandler.c ****         case CYBLE_EVT_GATTC_READ_BY_GROUP_TYPE_RSP:
1729:Generated_Source\PSoC4/BLE_eventHandler.c ****             CyBle_ReadByGroupEventHandler((CYBLE_GATTC_READ_BY_GRP_RSP_PARAM_T *)eventParam);
1730:Generated_Source\PSoC4/BLE_eventHandler.c ****             break;
1731:Generated_Source\PSoC4/BLE_eventHandler.c **** 
1732:Generated_Source\PSoC4/BLE_eventHandler.c ****         case CYBLE_EVT_GATTC_READ_BY_TYPE_RSP:
1733:Generated_Source\PSoC4/BLE_eventHandler.c ****             CyBle_ReadByTypeEventHandler((CYBLE_GATTC_READ_BY_TYPE_RSP_PARAM_T *)eventParam);
1734:Generated_Source\PSoC4/BLE_eventHandler.c ****             break;
1735:Generated_Source\PSoC4/BLE_eventHandler.c **** 
1736:Generated_Source\PSoC4/BLE_eventHandler.c ****         case CYBLE_EVT_GATTC_READ_BLOB_RSP:
1737:Generated_Source\PSoC4/BLE_eventHandler.c ****         #ifdef CYBLE_ESS_CLIENT
1738:Generated_Source\PSoC4/BLE_eventHandler.c ****             CyBle_EsscReadLongRespEventHandler((CYBLE_GATTC_READ_RSP_PARAM_T *)eventParam);
1739:Generated_Source\PSoC4/BLE_eventHandler.c ****         #endif /* CYBLE_ESS_CLIENT */
1740:Generated_Source\PSoC4/BLE_eventHandler.c ****             break;
1741:Generated_Source\PSoC4/BLE_eventHandler.c ****         
1742:Generated_Source\PSoC4/BLE_eventHandler.c ****         case CYBLE_EVT_GATTC_FIND_INFO_RSP:
1743:Generated_Source\PSoC4/BLE_eventHandler.c ****             CyBle_FindInfoEventHandler((CYBLE_GATTC_FIND_INFO_RSP_PARAM_T *)eventParam);
1744:Generated_Source\PSoC4/BLE_eventHandler.c ****             break;
1745:Generated_Source\PSoC4/BLE_eventHandler.c **** 
1746:Generated_Source\PSoC4/BLE_eventHandler.c ****         case CYBLE_EVT_GATTC_ERROR_RSP:
1747:Generated_Source\PSoC4/BLE_eventHandler.c ****             CyBle_ErrorResponseEventHandler((CYBLE_GATTC_ERR_RSP_PARAM_T *)eventParam);
1748:Generated_Source\PSoC4/BLE_eventHandler.c ****             break;
1749:Generated_Source\PSoC4/BLE_eventHandler.c **** 
1750:Generated_Source\PSoC4/BLE_eventHandler.c ****         case CYBLE_EVT_GATTC_HANDLE_VALUE_NTF:
1751:Generated_Source\PSoC4/BLE_eventHandler.c ****             CyBle_NotificationEventHandler((CYBLE_GATTC_HANDLE_VALUE_NTF_PARAM_T *)eventParam);
1752:Generated_Source\PSoC4/BLE_eventHandler.c ****             break;
1753:Generated_Source\PSoC4/BLE_eventHandler.c **** 
1754:Generated_Source\PSoC4/BLE_eventHandler.c ****         case CYBLE_EVT_GATTC_HANDLE_VALUE_IND:
1755:Generated_Source\PSoC4/BLE_eventHandler.c ****             CyBle_GattcIndicationEventHandler((CYBLE_GATTC_HANDLE_VALUE_IND_PARAM_T *)eventParam);
1756:Generated_Source\PSoC4/BLE_eventHandler.c ****             CyBle_IndicationEventHandler((CYBLE_GATTC_HANDLE_VALUE_IND_PARAM_T *)eventParam);
1757:Generated_Source\PSoC4/BLE_eventHandler.c ****         
1758:Generated_Source\PSoC4/BLE_eventHandler.c ****             /* Respond with a Handle Value Confirmation when request handled */
1759:Generated_Source\PSoC4/BLE_eventHandler.c ****             if((cyBle_eventHandlerFlag & CYBLE_CALLBACK) == 0u)
1760:Generated_Source\PSoC4/BLE_eventHandler.c ****             {
1761:Generated_Source\PSoC4/BLE_eventHandler.c ****                 (void)CyBle_GattcConfirmation(((CYBLE_GATTC_HANDLE_VALUE_IND_PARAM_T *)eventParam)-
1762:Generated_Source\PSoC4/BLE_eventHandler.c ****             }
1763:Generated_Source\PSoC4/BLE_eventHandler.c ****             break;
1764:Generated_Source\PSoC4/BLE_eventHandler.c ****         
1765:Generated_Source\PSoC4/BLE_eventHandler.c ****         case CYBLE_EVT_GATTC_READ_RSP:
1766:Generated_Source\PSoC4/BLE_eventHandler.c ****             CyBle_ReadResponseEventHandler((CYBLE_GATTC_READ_RSP_PARAM_T *)eventParam);
1767:Generated_Source\PSoC4/BLE_eventHandler.c ****             break;
1768:Generated_Source\PSoC4/BLE_eventHandler.c **** 
1769:Generated_Source\PSoC4/BLE_eventHandler.c ****         case CYBLE_EVT_GATTC_WRITE_RSP:
1770:Generated_Source\PSoC4/BLE_eventHandler.c ****             CyBle_GattcWriteResponseEventHandler((CYBLE_CONN_HANDLE_T *)eventParam);
1771:Generated_Source\PSoC4/BLE_eventHandler.c ****             break;
ARM GAS  C:\Users\TTSS\AppData\Local\Temp\ccwoAHLq.s 			page 47


1772:Generated_Source\PSoC4/BLE_eventHandler.c ****             
1773:Generated_Source\PSoC4/BLE_eventHandler.c ****         case CYBLE_EVT_GATTC_EXEC_WRITE_RSP:
1774:Generated_Source\PSoC4/BLE_eventHandler.c ****         #ifdef CYBLE_BMS_CLIENT
1775:Generated_Source\PSoC4/BLE_eventHandler.c ****             CyBle_BmscExecuteWriteResponseEventHandler((CYBLE_GATTC_EXEC_WRITE_RSP_T *)eventParam);
1776:Generated_Source\PSoC4/BLE_eventHandler.c ****         #endif /* CYBLE_BMS_CLIENT */
1777:Generated_Source\PSoC4/BLE_eventHandler.c ****         #ifdef CYBLE_ESS_CLIENT
1778:Generated_Source\PSoC4/BLE_eventHandler.c ****             if((cyBle_eventHandlerFlag & CYBLE_CALLBACK) != 0u)
1779:Generated_Source\PSoC4/BLE_eventHandler.c ****             {
1780:Generated_Source\PSoC4/BLE_eventHandler.c ****                 CyBle_EsscExecuteWriteResponseEventHandler((CYBLE_GATTC_EXEC_WRITE_RSP_T *)eventPar
1781:Generated_Source\PSoC4/BLE_eventHandler.c ****             }
1782:Generated_Source\PSoC4/BLE_eventHandler.c ****         #endif /* CYBLE_ESS_CLIENT */
1783:Generated_Source\PSoC4/BLE_eventHandler.c ****             break;
1784:Generated_Source\PSoC4/BLE_eventHandler.c ****             
1785:Generated_Source\PSoC4/BLE_eventHandler.c ****     #endif /* CYBLE_GATT_ROLE_CLIENT */
1786:Generated_Source\PSoC4/BLE_eventHandler.c **** 
1787:Generated_Source\PSoC4/BLE_eventHandler.c ****     #if((CYBLE_GAP_ROLE_PERIPHERAL || CYBLE_GAP_ROLE_CENTRAL) && (CYBLE_BONDING_REQUIREMENT == CYBL
1788:Generated_Source\PSoC4/BLE_eventHandler.c **** 
1789:Generated_Source\PSoC4/BLE_eventHandler.c ****         case CYBLE_EVT_PENDING_FLASH_WRITE:
1790:Generated_Source\PSoC4/BLE_eventHandler.c ****             cyBle_pendingFlashWrite |= CYBLE_PENDING_STACK_FLASH_WRITE_BIT;
1791:Generated_Source\PSoC4/BLE_eventHandler.c ****             break;
1792:Generated_Source\PSoC4/BLE_eventHandler.c ****         
1793:Generated_Source\PSoC4/BLE_eventHandler.c ****     #endif  /* (CYBLE_BONDING_REQUIREMENT == CYBLE_BONDING_YES) */
1794:Generated_Source\PSoC4/BLE_eventHandler.c ****     
1795:Generated_Source\PSoC4/BLE_eventHandler.c ****         default:
1796:Generated_Source\PSoC4/BLE_eventHandler.c ****             break;
 850              		.loc 1 1796 0
 851 023a C046     		mov	r8, r8
 852              	.L43:
1797:Generated_Source\PSoC4/BLE_eventHandler.c ****     }
1798:Generated_Source\PSoC4/BLE_eventHandler.c **** 
1799:Generated_Source\PSoC4/BLE_eventHandler.c ****     if(0u != (cyBle_eventHandlerFlag & (CYBLE_CALLBACK | CYBLE_ENABLE_ALL_EVENTS))) 
 853              		.loc 1 1799 0
 854 023c 0C4B     		ldr	r3, .L52
 855 023e 1B78     		ldrb	r3, [r3]
 856 0240 DBB2     		uxtb	r3, r3
 857 0242 1A1C     		mov	r2, r3
 858 0244 1123     		mov	r3, #17
 859 0246 1340     		and	r3, r2
 860 0248 0FD0     		beq	.L20
1800:Generated_Source\PSoC4/BLE_eventHandler.c ****     {
1801:Generated_Source\PSoC4/BLE_eventHandler.c ****         cyBle_eventHandlerFlag &= (uint8)~CYBLE_CALLBACK;
 861              		.loc 1 1801 0
 862 024a 094B     		ldr	r3, .L52
 863 024c 1B78     		ldrb	r3, [r3]
 864 024e DBB2     		uxtb	r3, r3
 865 0250 0122     		mov	r2, #1
 866 0252 9343     		bic	r3, r2
 867 0254 DAB2     		uxtb	r2, r3
 868 0256 064B     		ldr	r3, .L52
 869 0258 1A70     		strb	r2, [r3]
1802:Generated_Source\PSoC4/BLE_eventHandler.c ****         CyBle_ApplCallback((uint32)eventCode, eventParam);
 870              		.loc 1 1802 0
 871 025a 124B     		ldr	r3, .L52+52
 872 025c 1B68     		ldr	r3, [r3]
 873 025e FA1D     		add	r2, r7, #7
 874 0260 1178     		ldrb	r1, [r2]
 875 0262 3A68     		ldr	r2, [r7]
ARM GAS  C:\Users\TTSS\AppData\Local\Temp\ccwoAHLq.s 			page 48


 876 0264 081C     		mov	r0, r1
 877 0266 111C     		mov	r1, r2
 878 0268 9847     		blx	r3
 879              	.L20:
1803:Generated_Source\PSoC4/BLE_eventHandler.c ****     }
1804:Generated_Source\PSoC4/BLE_eventHandler.c **** 
1805:Generated_Source\PSoC4/BLE_eventHandler.c **** }
 880              		.loc 1 1805 0
 881 026a BD46     		mov	sp, r7
 882 026c 04B0     		add	sp, sp, #16
 883              		@ sp needed
 884 026e 80BD     		pop	{r7, pc}
 885              	.L53:
 886              		.align	2
 887              	.L52:
 888 0270 00000000 		.word	cyBle_eventHandlerFlag
 889 0274 00000000 		.word	.L23
 890 0278 00000000 		.word	cyBle_sflashDeviceAddress
 891 027c 7CF1FF0F 		.word	268431740
 892 0280 00000000 		.word	cyBle_deviceAddress
 893 0284 7DF1FF0F 		.word	268431741
 894 0288 7BF1FF0F 		.word	268431739
 895 028c 00000000 		.word	cyBle_state
 896 0290 00000000 		.word	cyBle_busyStatus
 897 0294 00000000 		.word	cyBle_authInfo
 898 0298 00000000 		.word	cyBle_connHandle
 899 029c 00000000 		.word	cyBle_attValuesCCCDFlashMemory
 900 02a0 00000000 		.word	cyBle_attValuesCCCD
 901 02a4 00000000 		.word	CyBle_ApplCallback
 902              		.cfi_endproc
 903              	.LFE10:
 904              		.size	CyBle_EventHandler, .-CyBle_EventHandler
 905              		.text
 906              	.Letext0:
 907              		.file 2 "Generated_Source\\PSoC4\\cytypes.h"
 908              		.file 3 "Generated_Source\\PSoC4\\BLE_Stack.h"
 909              		.file 4 "Generated_Source\\PSoC4\\BLE_StackHostMain.h"
 910              		.file 5 "Generated_Source\\PSoC4\\BLE_StackGap.h"
 911              		.file 6 "Generated_Source\\PSoC4\\BLE_StackGatt.h"
 912              		.file 7 "Generated_Source\\PSoC4\\BLE_StackGattServer.h"
 913              		.file 8 "Generated_Source\\PSoC4\\BLE.h"
 914              		.file 9 "Generated_Source\\PSoC4\\BLE_eventHandler.h"
 915              		.file 10 "Generated_Source\\PSoC4\\BLE_gatt.h"
 916              		.section	.debug_info,"",%progbits
 917              	.Ldebug_info0:
 918 0000 6F0A0000 		.4byte	0xa6f
 919 0004 0400     		.2byte	0x4
 920 0006 00000000 		.4byte	.Ldebug_abbrev0
 921 000a 04       		.byte	0x4
 922 000b 01       		.uleb128 0x1
 923 000c FB170000 		.4byte	.LASF243
 924 0010 01       		.byte	0x1
 925 0011 39190000 		.4byte	.LASF244
 926 0015 35050000 		.4byte	.LASF245
 927 0019 00000000 		.4byte	.Ldebug_ranges0+0
 928 001d 00000000 		.4byte	0
 929 0021 00000000 		.4byte	.Ldebug_line0
ARM GAS  C:\Users\TTSS\AppData\Local\Temp\ccwoAHLq.s 			page 49


 930 0025 02       		.uleb128 0x2
 931 0026 01       		.byte	0x1
 932 0027 06       		.byte	0x6
 933 0028 44040000 		.4byte	.LASF0
 934 002c 02       		.uleb128 0x2
 935 002d 01       		.byte	0x1
 936 002e 08       		.byte	0x8
 937 002f 77110000 		.4byte	.LASF1
 938 0033 02       		.uleb128 0x2
 939 0034 02       		.byte	0x2
 940 0035 05       		.byte	0x5
 941 0036 17120000 		.4byte	.LASF2
 942 003a 02       		.uleb128 0x2
 943 003b 02       		.byte	0x2
 944 003c 07       		.byte	0x7
 945 003d 2F150000 		.4byte	.LASF3
 946 0041 02       		.uleb128 0x2
 947 0042 04       		.byte	0x4
 948 0043 05       		.byte	0x5
 949 0044 8A020000 		.4byte	.LASF4
 950 0048 02       		.uleb128 0x2
 951 0049 04       		.byte	0x4
 952 004a 07       		.byte	0x7
 953 004b DE090000 		.4byte	.LASF5
 954 004f 02       		.uleb128 0x2
 955 0050 08       		.byte	0x8
 956 0051 05       		.byte	0x5
 957 0052 36040000 		.4byte	.LASF6
 958 0056 02       		.uleb128 0x2
 959 0057 08       		.byte	0x8
 960 0058 07       		.byte	0x7
 961 0059 63040000 		.4byte	.LASF7
 962 005d 03       		.uleb128 0x3
 963 005e 04       		.byte	0x4
 964 005f 05       		.byte	0x5
 965 0060 696E7400 		.ascii	"int\000"
 966 0064 02       		.uleb128 0x2
 967 0065 04       		.byte	0x4
 968 0066 07       		.byte	0x7
 969 0067 23140000 		.4byte	.LASF8
 970 006b 04       		.uleb128 0x4
 971 006c 49060000 		.4byte	.LASF9
 972 0070 02       		.byte	0x2
 973 0071 3801     		.2byte	0x138
 974 0073 2C000000 		.4byte	0x2c
 975 0077 04       		.uleb128 0x4
 976 0078 85110000 		.4byte	.LASF10
 977 007c 02       		.byte	0x2
 978 007d 3901     		.2byte	0x139
 979 007f 3A000000 		.4byte	0x3a
 980 0083 04       		.uleb128 0x4
 981 0084 95070000 		.4byte	.LASF11
 982 0088 02       		.byte	0x2
 983 0089 3A01     		.2byte	0x13a
 984 008b 48000000 		.4byte	0x48
 985 008f 02       		.uleb128 0x2
 986 0090 04       		.byte	0x4
ARM GAS  C:\Users\TTSS\AppData\Local\Temp\ccwoAHLq.s 			page 50


 987 0091 04       		.byte	0x4
 988 0092 D8100000 		.4byte	.LASF12
 989 0096 02       		.uleb128 0x2
 990 0097 08       		.byte	0x8
 991 0098 04       		.byte	0x4
 992 0099 B1060000 		.4byte	.LASF13
 993 009d 02       		.uleb128 0x2
 994 009e 01       		.byte	0x1
 995 009f 08       		.byte	0x8
 996 00a0 F2130000 		.4byte	.LASF14
 997 00a4 05       		.uleb128 0x5
 998 00a5 6B000000 		.4byte	0x6b
 999 00a9 02       		.uleb128 0x2
 1000 00aa 04       		.byte	0x4
 1001 00ab 07       		.byte	0x7
 1002 00ac 670E0000 		.4byte	.LASF15
 1003 00b0 06       		.uleb128 0x6
 1004 00b1 04       		.byte	0x4
 1005 00b2 07       		.uleb128 0x7
 1006 00b3 01       		.byte	0x1
 1007 00b4 03       		.byte	0x3
 1008 00b5 7A       		.byte	0x7a
 1009 00b6 37020000 		.4byte	0x237
 1010 00ba 08       		.uleb128 0x8
 1011 00bb 1B0B0000 		.4byte	.LASF16
 1012 00bf 00       		.sleb128 0
 1013 00c0 08       		.uleb128 0x8
 1014 00c1 50040000 		.4byte	.LASF17
 1015 00c5 01       		.sleb128 1
 1016 00c6 08       		.uleb128 0x8
 1017 00c7 78020000 		.4byte	.LASF18
 1018 00cb 02       		.sleb128 2
 1019 00cc 08       		.uleb128 0x8
 1020 00cd 16150000 		.4byte	.LASF19
 1021 00d1 03       		.sleb128 3
 1022 00d2 08       		.uleb128 0x8
 1023 00d3 FE020000 		.4byte	.LASF20
 1024 00d7 04       		.sleb128 4
 1025 00d8 08       		.uleb128 0x8
 1026 00d9 23000000 		.4byte	.LASF21
 1027 00dd 05       		.sleb128 5
 1028 00de 08       		.uleb128 0x8
 1029 00df 8F0D0000 		.4byte	.LASF22
 1030 00e3 20       		.sleb128 32
 1031 00e4 08       		.uleb128 0x8
 1032 00e5 BF040000 		.4byte	.LASF23
 1033 00e9 21       		.sleb128 33
 1034 00ea 08       		.uleb128 0x8
 1035 00eb DF0B0000 		.4byte	.LASF24
 1036 00ef 22       		.sleb128 34
 1037 00f0 08       		.uleb128 0x8
 1038 00f1 C3140000 		.4byte	.LASF25
 1039 00f5 23       		.sleb128 35
 1040 00f6 08       		.uleb128 0x8
 1041 00f7 DF0F0000 		.4byte	.LASF26
 1042 00fb 24       		.sleb128 36
 1043 00fc 08       		.uleb128 0x8
ARM GAS  C:\Users\TTSS\AppData\Local\Temp\ccwoAHLq.s 			page 51


 1044 00fd E90E0000 		.4byte	.LASF27
 1045 0101 25       		.sleb128 37
 1046 0102 08       		.uleb128 0x8
 1047 0103 FC050000 		.4byte	.LASF28
 1048 0107 26       		.sleb128 38
 1049 0108 08       		.uleb128 0x8
 1050 0109 030C0000 		.4byte	.LASF29
 1051 010d 27       		.sleb128 39
 1052 010e 08       		.uleb128 0x8
 1053 010f F7130000 		.4byte	.LASF30
 1054 0113 28       		.sleb128 40
 1055 0114 08       		.uleb128 0x8
 1056 0115 97030000 		.4byte	.LASF31
 1057 0119 29       		.sleb128 41
 1058 011a 08       		.uleb128 0x8
 1059 011b F0000000 		.4byte	.LASF32
 1060 011f 2A       		.sleb128 42
 1061 0120 08       		.uleb128 0x8
 1062 0121 7A040000 		.4byte	.LASF33
 1063 0125 2B       		.sleb128 43
 1064 0126 08       		.uleb128 0x8
 1065 0127 B0180000 		.4byte	.LASF34
 1066 012b 2C       		.sleb128 44
 1067 012c 08       		.uleb128 0x8
 1068 012d 69150000 		.4byte	.LASF35
 1069 0131 C000     		.sleb128 64
 1070 0133 08       		.uleb128 0x8
 1071 0134 E70C0000 		.4byte	.LASF36
 1072 0138 C100     		.sleb128 65
 1073 013a 08       		.uleb128 0x8
 1074 013b 7F190000 		.4byte	.LASF37
 1075 013f C200     		.sleb128 66
 1076 0141 08       		.uleb128 0x8
 1077 0142 48160000 		.4byte	.LASF38
 1078 0146 C300     		.sleb128 67
 1079 0148 08       		.uleb128 0x8
 1080 0149 4B0A0000 		.4byte	.LASF39
 1081 014d C400     		.sleb128 68
 1082 014f 08       		.uleb128 0x8
 1083 0150 B1100000 		.4byte	.LASF40
 1084 0154 C500     		.sleb128 69
 1085 0156 08       		.uleb128 0x8
 1086 0157 150E0000 		.4byte	.LASF41
 1087 015b C600     		.sleb128 70
 1088 015d 08       		.uleb128 0x8
 1089 015e BF130000 		.4byte	.LASF42
 1090 0162 C700     		.sleb128 71
 1091 0164 08       		.uleb128 0x8
 1092 0165 89180000 		.4byte	.LASF43
 1093 0169 C800     		.sleb128 72
 1094 016b 08       		.uleb128 0x8
 1095 016c D6040000 		.4byte	.LASF44
 1096 0170 C900     		.sleb128 73
 1097 0172 08       		.uleb128 0x8
 1098 0173 F3160000 		.4byte	.LASF45
 1099 0177 CA00     		.sleb128 74
 1100 0179 08       		.uleb128 0x8
ARM GAS  C:\Users\TTSS\AppData\Local\Temp\ccwoAHLq.s 			page 52


 1101 017a CD010000 		.4byte	.LASF46
 1102 017e CB00     		.sleb128 75
 1103 0180 08       		.uleb128 0x8
 1104 0181 3E0C0000 		.4byte	.LASF47
 1105 0185 CC00     		.sleb128 76
 1106 0187 08       		.uleb128 0x8
 1107 0188 140F0000 		.4byte	.LASF48
 1108 018c CD00     		.sleb128 77
 1109 018e 08       		.uleb128 0x8
 1110 018f 90050000 		.4byte	.LASF49
 1111 0193 CE00     		.sleb128 78
 1112 0195 08       		.uleb128 0x8
 1113 0196 C1120000 		.4byte	.LASF50
 1114 019a CF00     		.sleb128 79
 1115 019c 08       		.uleb128 0x8
 1116 019d EC010000 		.4byte	.LASF51
 1117 01a1 D000     		.sleb128 80
 1118 01a3 08       		.uleb128 0x8
 1119 01a4 92060000 		.4byte	.LASF52
 1120 01a8 D100     		.sleb128 81
 1121 01aa 08       		.uleb128 0x8
 1122 01ab 3C100000 		.4byte	.LASF53
 1123 01af D200     		.sleb128 82
 1124 01b1 08       		.uleb128 0x8
 1125 01b2 21120000 		.4byte	.LASF54
 1126 01b6 D300     		.sleb128 83
 1127 01b8 08       		.uleb128 0x8
 1128 01b9 F3120000 		.4byte	.LASF55
 1129 01bd D400     		.sleb128 84
 1130 01bf 08       		.uleb128 0x8
 1131 01c0 690A0000 		.4byte	.LASF56
 1132 01c4 D500     		.sleb128 85
 1133 01c6 08       		.uleb128 0x8
 1134 01c7 DF080000 		.4byte	.LASF57
 1135 01cb D600     		.sleb128 86
 1136 01cd 08       		.uleb128 0x8
 1137 01ce 30140000 		.4byte	.LASF58
 1138 01d2 D700     		.sleb128 87
 1139 01d4 08       		.uleb128 0x8
 1140 01d5 71030000 		.4byte	.LASF59
 1141 01d9 F000     		.sleb128 112
 1142 01db 08       		.uleb128 0x8
 1143 01dc FB180000 		.4byte	.LASF60
 1144 01e0 F100     		.sleb128 113
 1145 01e2 08       		.uleb128 0x8
 1146 01e3 3C0D0000 		.4byte	.LASF61
 1147 01e7 F200     		.sleb128 114
 1148 01e9 08       		.uleb128 0x8
 1149 01ea F70D0000 		.4byte	.LASF62
 1150 01ee F300     		.sleb128 115
 1151 01f0 08       		.uleb128 0x8
 1152 01f1 93100000 		.4byte	.LASF63
 1153 01f5 F400     		.sleb128 116
 1154 01f7 08       		.uleb128 0x8
 1155 01f8 B8060000 		.4byte	.LASF64
 1156 01fc F500     		.sleb128 117
 1157 01fe 08       		.uleb128 0x8
ARM GAS  C:\Users\TTSS\AppData\Local\Temp\ccwoAHLq.s 			page 53


 1158 01ff 19010000 		.4byte	.LASF65
 1159 0203 F600     		.sleb128 118
 1160 0205 08       		.uleb128 0x8
 1161 0206 6F000000 		.4byte	.LASF66
 1162 020a F700     		.sleb128 119
 1163 020c 08       		.uleb128 0x8
 1164 020d 00000000 		.4byte	.LASF67
 1165 0211 F800     		.sleb128 120
 1166 0213 08       		.uleb128 0x8
 1167 0214 74140000 		.4byte	.LASF68
 1168 0218 F900     		.sleb128 121
 1169 021a 08       		.uleb128 0x8
 1170 021b 9C070000 		.4byte	.LASF69
 1171 021f FA00     		.sleb128 122
 1172 0221 08       		.uleb128 0x8
 1173 0222 DD180000 		.4byte	.LASF70
 1174 0226 FA01     		.sleb128 250
 1175 0228 08       		.uleb128 0x8
 1176 0229 41090000 		.4byte	.LASF71
 1177 022d FB01     		.sleb128 251
 1178 022f 08       		.uleb128 0x8
 1179 0230 1C080000 		.4byte	.LASF72
 1180 0234 FF01     		.sleb128 255
 1181 0236 00       		.byte	0
 1182 0237 09       		.uleb128 0x9
 1183 0238 01       		.byte	0x1
 1184 0239 03       		.byte	0x3
 1185 023a 6002     		.2byte	0x260
 1186 023c 77020000 		.4byte	0x277
 1187 0240 08       		.uleb128 0x8
 1188 0241 B20C0000 		.4byte	.LASF73
 1189 0245 01       		.sleb128 1
 1190 0246 08       		.uleb128 0x8
 1191 0247 42120000 		.4byte	.LASF74
 1192 024b 02       		.sleb128 2
 1193 024c 08       		.uleb128 0x8
 1194 024d 59140000 		.4byte	.LASF75
 1195 0251 03       		.sleb128 3
 1196 0252 08       		.uleb128 0x8
 1197 0253 300A0000 		.4byte	.LASF76
 1198 0257 04       		.sleb128 4
 1199 0258 08       		.uleb128 0x8
 1200 0259 46130000 		.4byte	.LASF77
 1201 025d 05       		.sleb128 5
 1202 025e 08       		.uleb128 0x8
 1203 025f 40110000 		.4byte	.LASF78
 1204 0263 06       		.sleb128 6
 1205 0264 08       		.uleb128 0x8
 1206 0265 7C100000 		.4byte	.LASF79
 1207 0269 07       		.sleb128 7
 1208 026a 08       		.uleb128 0x8
 1209 026b 020D0000 		.4byte	.LASF80
 1210 026f 08       		.sleb128 8
 1211 0270 08       		.uleb128 0x8
 1212 0271 40020000 		.4byte	.LASF81
 1213 0275 09       		.sleb128 9
 1214 0276 00       		.byte	0
ARM GAS  C:\Users\TTSS\AppData\Local\Temp\ccwoAHLq.s 			page 54


 1215 0277 04       		.uleb128 0x4
 1216 0278 3E080000 		.4byte	.LASF82
 1217 027c 03       		.byte	0x3
 1218 027d 6A02     		.2byte	0x26a
 1219 027f 37020000 		.4byte	0x237
 1220 0283 09       		.uleb128 0x9
 1221 0284 01       		.byte	0x1
 1222 0285 03       		.byte	0x3
 1223 0286 6E02     		.2byte	0x26e
 1224 0288 9F020000 		.4byte	0x29f
 1225 028c 08       		.uleb128 0x8
 1226 028d E20D0000 		.4byte	.LASF83
 1227 0291 00       		.sleb128 0
 1228 0292 08       		.uleb128 0x8
 1229 0293 71160000 		.4byte	.LASF84
 1230 0297 01       		.sleb128 1
 1231 0298 08       		.uleb128 0x8
 1232 0299 11170000 		.4byte	.LASF85
 1233 029d 02       		.sleb128 2
 1234 029e 00       		.byte	0
 1235 029f 04       		.uleb128 0x4
 1236 02a0 FD190000 		.4byte	.LASF86
 1237 02a4 03       		.byte	0x3
 1238 02a5 7502     		.2byte	0x275
 1239 02a7 83020000 		.4byte	0x283
 1240 02ab 0A       		.uleb128 0xa
 1241 02ac 02       		.byte	0x2
 1242 02ad 03       		.byte	0x3
 1243 02ae 7802     		.2byte	0x278
 1244 02b0 CF020000 		.4byte	0x2cf
 1245 02b4 0B       		.uleb128 0xb
 1246 02b5 9E0B0000 		.4byte	.LASF87
 1247 02b9 03       		.byte	0x3
 1248 02ba 7B02     		.2byte	0x27b
 1249 02bc 77020000 		.4byte	0x277
 1250 02c0 00       		.byte	0
 1251 02c1 0B       		.uleb128 0xb
 1252 02c2 19140000 		.4byte	.LASF88
 1253 02c6 03       		.byte	0x3
 1254 02c7 7D02     		.2byte	0x27d
 1255 02c9 9F020000 		.4byte	0x29f
 1256 02cd 01       		.byte	0x1
 1257 02ce 00       		.byte	0
 1258 02cf 04       		.uleb128 0x4
 1259 02d0 21190000 		.4byte	.LASF89
 1260 02d4 03       		.byte	0x3
 1261 02d5 7E02     		.2byte	0x27e
 1262 02d7 AB020000 		.4byte	0x2ab
 1263 02db 0A       		.uleb128 0xa
 1264 02dc 07       		.byte	0x7
 1265 02dd 03       		.byte	0x3
 1266 02de B002     		.2byte	0x2b0
 1267 02e0 FF020000 		.4byte	0x2ff
 1268 02e4 0B       		.uleb128 0xb
 1269 02e5 AF0B0000 		.4byte	.LASF90
 1270 02e9 03       		.byte	0x3
 1271 02ea B202     		.2byte	0x2b2
ARM GAS  C:\Users\TTSS\AppData\Local\Temp\ccwoAHLq.s 			page 55


 1272 02ec FF020000 		.4byte	0x2ff
 1273 02f0 00       		.byte	0
 1274 02f1 0B       		.uleb128 0xb
 1275 02f2 55020000 		.4byte	.LASF91
 1276 02f6 03       		.byte	0x3
 1277 02f7 B302     		.2byte	0x2b3
 1278 02f9 6B000000 		.4byte	0x6b
 1279 02fd 06       		.byte	0x6
 1280 02fe 00       		.byte	0
 1281 02ff 0C       		.uleb128 0xc
 1282 0300 6B000000 		.4byte	0x6b
 1283 0304 0F030000 		.4byte	0x30f
 1284 0308 0D       		.uleb128 0xd
 1285 0309 A9000000 		.4byte	0xa9
 1286 030d 05       		.byte	0x5
 1287 030e 00       		.byte	0
 1288 030f 04       		.uleb128 0x4
 1289 0310 5D030000 		.4byte	.LASF92
 1290 0314 03       		.byte	0x3
 1291 0315 B402     		.2byte	0x2b4
 1292 0317 DB020000 		.4byte	0x2db
 1293 031b 07       		.uleb128 0x7
 1294 031c 01       		.byte	0x1
 1295 031d 04       		.byte	0x4
 1296 031e 45       		.byte	0x45
 1297 031f 3C030000 		.4byte	0x33c
 1298 0323 08       		.uleb128 0x8
 1299 0324 510E0000 		.4byte	.LASF93
 1300 0328 01       		.sleb128 1
 1301 0329 08       		.uleb128 0x8
 1302 032a 2C0C0000 		.4byte	.LASF94
 1303 032e 02       		.sleb128 2
 1304 032f 08       		.uleb128 0x8
 1305 0330 C0070000 		.4byte	.LASF95
 1306 0334 03       		.sleb128 3
 1307 0335 08       		.uleb128 0x8
 1308 0336 CC0A0000 		.4byte	.LASF96
 1309 033a 04       		.sleb128 4
 1310 033b 00       		.byte	0
 1311 033c 0E       		.uleb128 0xe
 1312 033d 7B060000 		.4byte	.LASF97
 1313 0341 04       		.byte	0x4
 1314 0342 52       		.byte	0x52
 1315 0343 1B030000 		.4byte	0x31b
 1316 0347 07       		.uleb128 0x7
 1317 0348 01       		.byte	0x1
 1318 0349 05       		.byte	0x5
 1319 034a B2       		.byte	0xb2
 1320 034b 68030000 		.4byte	0x368
 1321 034f 08       		.uleb128 0x8
 1322 0350 2E0F0000 		.4byte	.LASF98
 1323 0354 00       		.sleb128 0
 1324 0355 08       		.uleb128 0x8
 1325 0356 440F0000 		.4byte	.LASF99
 1326 035a 01       		.sleb128 1
 1327 035b 08       		.uleb128 0x8
 1328 035c 5A0F0000 		.4byte	.LASF100
ARM GAS  C:\Users\TTSS\AppData\Local\Temp\ccwoAHLq.s 			page 56


 1329 0360 02       		.sleb128 2
 1330 0361 08       		.uleb128 0x8
 1331 0362 8C0F0000 		.4byte	.LASF101
 1332 0366 0F       		.sleb128 15
 1333 0367 00       		.byte	0
 1334 0368 07       		.uleb128 0x7
 1335 0369 01       		.byte	0x1
 1336 036a 05       		.byte	0x5
 1337 036b CC       		.byte	0xcc
 1338 036c 8F030000 		.4byte	0x38f
 1339 0370 08       		.uleb128 0x8
 1340 0371 04040000 		.4byte	.LASF102
 1341 0375 00       		.sleb128 0
 1342 0376 08       		.uleb128 0x8
 1343 0377 5A020000 		.4byte	.LASF103
 1344 037b 01       		.sleb128 1
 1345 037c 08       		.uleb128 0x8
 1346 037d B9190000 		.4byte	.LASF104
 1347 0381 02       		.sleb128 2
 1348 0382 08       		.uleb128 0x8
 1349 0383 AC010000 		.4byte	.LASF105
 1350 0387 03       		.sleb128 3
 1351 0388 08       		.uleb128 0x8
 1352 0389 87160000 		.4byte	.LASF106
 1353 038d 04       		.sleb128 4
 1354 038e 00       		.byte	0
 1355 038f 07       		.uleb128 0x7
 1356 0390 01       		.byte	0x1
 1357 0391 05       		.byte	0x5
 1358 0392 E2       		.byte	0xe2
 1359 0393 E6030000 		.4byte	0x3e6
 1360 0397 08       		.uleb128 0x8
 1361 0398 9B020000 		.4byte	.LASF107
 1362 039c 00       		.sleb128 0
 1363 039d 08       		.uleb128 0x8
 1364 039e BD170000 		.4byte	.LASF108
 1365 03a2 01       		.sleb128 1
 1366 03a3 08       		.uleb128 0x8
 1367 03a4 5D0B0000 		.4byte	.LASF109
 1368 03a8 02       		.sleb128 2
 1369 03a9 08       		.uleb128 0x8
 1370 03aa 07160000 		.4byte	.LASF110
 1371 03ae 03       		.sleb128 3
 1372 03af 08       		.uleb128 0x8
 1373 03b0 26170000 		.4byte	.LASF111
 1374 03b4 04       		.sleb128 4
 1375 03b5 08       		.uleb128 0x8
 1376 03b6 0A050000 		.4byte	.LASF112
 1377 03ba 05       		.sleb128 5
 1378 03bb 08       		.uleb128 0x8
 1379 03bc 76010000 		.4byte	.LASF113
 1380 03c0 06       		.sleb128 6
 1381 03c1 08       		.uleb128 0x8
 1382 03c2 320B0000 		.4byte	.LASF114
 1383 03c6 07       		.sleb128 7
 1384 03c7 08       		.uleb128 0x8
 1385 03c8 4E010000 		.4byte	.LASF115
ARM GAS  C:\Users\TTSS\AppData\Local\Temp\ccwoAHLq.s 			page 57


 1386 03cc 08       		.sleb128 8
 1387 03cd 08       		.uleb128 0x8
 1388 03ce D2070000 		.4byte	.LASF116
 1389 03d2 09       		.sleb128 9
 1390 03d3 08       		.uleb128 0x8
 1391 03d4 DC110000 		.4byte	.LASF117
 1392 03d8 0A       		.sleb128 10
 1393 03d9 08       		.uleb128 0x8
 1394 03da 4F060000 		.4byte	.LASF118
 1395 03de 15       		.sleb128 21
 1396 03df 08       		.uleb128 0x8
 1397 03e0 42150000 		.4byte	.LASF119
 1398 03e4 18       		.sleb128 24
 1399 03e5 00       		.byte	0
 1400 03e6 04       		.uleb128 0x4
 1401 03e7 2E070000 		.4byte	.LASF120
 1402 03eb 05       		.byte	0x5
 1403 03ec 0E01     		.2byte	0x10e
 1404 03ee 8F030000 		.4byte	0x38f
 1405 03f2 0A       		.uleb128 0xa
 1406 03f3 04       		.byte	0x4
 1407 03f4 05       		.byte	0x5
 1408 03f5 2701     		.2byte	0x127
 1409 03f7 30040000 		.4byte	0x430
 1410 03fb 0B       		.uleb128 0xb
 1411 03fc 8C070000 		.4byte	.LASF121
 1412 0400 05       		.byte	0x5
 1413 0401 3001     		.2byte	0x130
 1414 0403 6B000000 		.4byte	0x6b
 1415 0407 00       		.byte	0
 1416 0408 0B       		.uleb128 0xb
 1417 0409 93020000 		.4byte	.LASF122
 1418 040d 05       		.byte	0x5
 1419 040e 3601     		.2byte	0x136
 1420 0410 6B000000 		.4byte	0x6b
 1421 0414 01       		.byte	0x1
 1422 0415 0B       		.uleb128 0xb
 1423 0416 DA050000 		.4byte	.LASF123
 1424 041a 05       		.byte	0x5
 1425 041b 3C01     		.2byte	0x13c
 1426 041d 6B000000 		.4byte	0x6b
 1427 0421 02       		.byte	0x2
 1428 0422 0B       		.uleb128 0xb
 1429 0423 24060000 		.4byte	.LASF124
 1430 0427 05       		.byte	0x5
 1431 0428 4001     		.2byte	0x140
 1432 042a E6030000 		.4byte	0x3e6
 1433 042e 03       		.byte	0x3
 1434 042f 00       		.byte	0
 1435 0430 04       		.uleb128 0x4
 1436 0431 26100000 		.4byte	.LASF125
 1437 0435 05       		.byte	0x5
 1438 0436 4201     		.2byte	0x142
 1439 0438 F2030000 		.4byte	0x3f2
 1440 043c 0F       		.uleb128 0xf
 1441 043d 04       		.byte	0x4
 1442 043e 6B000000 		.4byte	0x6b
ARM GAS  C:\Users\TTSS\AppData\Local\Temp\ccwoAHLq.s 			page 58


 1443 0442 0A       		.uleb128 0xa
 1444 0443 08       		.byte	0x8
 1445 0444 05       		.byte	0x5
 1446 0445 AE02     		.2byte	0x2ae
 1447 0447 80040000 		.4byte	0x480
 1448 044b 0B       		.uleb128 0xb
 1449 044c A8160000 		.4byte	.LASF126
 1450 0450 05       		.byte	0x5
 1451 0451 B202     		.2byte	0x2b2
 1452 0453 6B000000 		.4byte	0x6b
 1453 0457 00       		.byte	0
 1454 0458 0B       		.uleb128 0xb
 1455 0459 B8120000 		.4byte	.LASF127
 1456 045d 05       		.byte	0x5
 1457 045e B802     		.2byte	0x2b8
 1458 0460 77000000 		.4byte	0x77
 1459 0464 02       		.byte	0x2
 1460 0465 0B       		.uleb128 0xb
 1461 0466 191A0000 		.4byte	.LASF128
 1462 046a 05       		.byte	0x5
 1463 046b BD02     		.2byte	0x2bd
 1464 046d 77000000 		.4byte	0x77
 1465 0471 04       		.byte	0x4
 1466 0472 0B       		.uleb128 0xb
 1467 0473 8D0A0000 		.4byte	.LASF129
 1468 0477 05       		.byte	0x5
 1469 0478 C302     		.2byte	0x2c3
 1470 047a 77000000 		.4byte	0x77
 1471 047e 06       		.byte	0x6
 1472 047f 00       		.byte	0
 1473 0480 04       		.uleb128 0x4
 1474 0481 01090000 		.4byte	.LASF130
 1475 0485 05       		.byte	0x5
 1476 0486 C502     		.2byte	0x2c5
 1477 0488 42040000 		.4byte	0x442
 1478 048c 07       		.uleb128 0x7
 1479 048d 01       		.byte	0x1
 1480 048e 06       		.byte	0x6
 1481 048f 48       		.byte	0x48
 1482 0490 46050000 		.4byte	0x546
 1483 0494 08       		.uleb128 0x8
 1484 0495 DD130000 		.4byte	.LASF131
 1485 0499 01       		.sleb128 1
 1486 049a 08       		.uleb128 0x8
 1487 049b 82120000 		.4byte	.LASF132
 1488 049f 02       		.sleb128 2
 1489 04a0 08       		.uleb128 0x8
 1490 04a1 73070000 		.4byte	.LASF133
 1491 04a5 03       		.sleb128 3
 1492 04a6 08       		.uleb128 0x8
 1493 04a7 CE0C0000 		.4byte	.LASF134
 1494 04ab 04       		.sleb128 4
 1495 04ac 08       		.uleb128 0x8
 1496 04ad 76080000 		.4byte	.LASF135
 1497 04b1 05       		.sleb128 5
 1498 04b2 08       		.uleb128 0x8
 1499 04b3 B5020000 		.4byte	.LASF136
ARM GAS  C:\Users\TTSS\AppData\Local\Temp\ccwoAHLq.s 			page 59


 1500 04b7 06       		.sleb128 6
 1501 04b8 08       		.uleb128 0x8
 1502 04b9 85170000 		.4byte	.LASF137
 1503 04bd 07       		.sleb128 7
 1504 04be 08       		.uleb128 0x8
 1505 04bf 24110000 		.4byte	.LASF138
 1506 04c3 08       		.sleb128 8
 1507 04c4 08       		.uleb128 0x8
 1508 04c5 9D190000 		.4byte	.LASF139
 1509 04c9 09       		.sleb128 9
 1510 04ca 08       		.uleb128 0x8
 1511 04cb D7020000 		.4byte	.LASF140
 1512 04cf 0A       		.sleb128 10
 1513 04d0 08       		.uleb128 0x8
 1514 04d1 E7170000 		.4byte	.LASF141
 1515 04d5 0B       		.sleb128 11
 1516 04d6 08       		.uleb128 0x8
 1517 04d7 0B020000 		.4byte	.LASF142
 1518 04db 0C       		.sleb128 12
 1519 04dc 08       		.uleb128 0x8
 1520 04dd DA160000 		.4byte	.LASF143
 1521 04e1 0D       		.sleb128 13
 1522 04e2 08       		.uleb128 0x8
 1523 04e3 130A0000 		.4byte	.LASF144
 1524 04e7 0E       		.sleb128 14
 1525 04e8 08       		.uleb128 0x8
 1526 04e9 AE050000 		.4byte	.LASF145
 1527 04ed 0F       		.sleb128 15
 1528 04ee 08       		.uleb128 0x8
 1529 04ef 190D0000 		.4byte	.LASF146
 1530 04f3 10       		.sleb128 16
 1531 04f4 08       		.uleb128 0x8
 1532 04f5 9B120000 		.4byte	.LASF147
 1533 04f9 11       		.sleb128 17
 1534 04fa 08       		.uleb128 0x8
 1535 04fb 890B0000 		.4byte	.LASF148
 1536 04ff 12       		.sleb128 18
 1537 0500 08       		.uleb128 0x8
 1538 0501 D9060000 		.4byte	.LASF149
 1539 0505 13       		.sleb128 19
 1540 0506 08       		.uleb128 0x8
 1541 0507 21040000 		.4byte	.LASF150
 1542 050b D200     		.sleb128 82
 1543 050d 08       		.uleb128 0x8
 1544 050e 9B0A0000 		.4byte	.LASF151
 1545 0512 16       		.sleb128 22
 1546 0513 08       		.uleb128 0x8
 1547 0514 2C060000 		.4byte	.LASF152
 1548 0518 17       		.sleb128 23
 1549 0519 08       		.uleb128 0x8
 1550 051a CC0E0000 		.4byte	.LASF153
 1551 051e 18       		.sleb128 24
 1552 051f 08       		.uleb128 0x8
 1553 0520 AF160000 		.4byte	.LASF154
 1554 0524 19       		.sleb128 25
 1555 0525 08       		.uleb128 0x8
 1556 0526 24020000 		.4byte	.LASF155
ARM GAS  C:\Users\TTSS\AppData\Local\Temp\ccwoAHLq.s 			page 60


 1557 052a 1B       		.sleb128 27
 1558 052b 08       		.uleb128 0x8
 1559 052c 99040000 		.4byte	.LASF156
 1560 0530 1D       		.sleb128 29
 1561 0531 08       		.uleb128 0x8
 1562 0532 4D070000 		.4byte	.LASF157
 1563 0536 1E       		.sleb128 30
 1564 0537 08       		.uleb128 0x8
 1565 0538 3F000000 		.4byte	.LASF158
 1566 053c D201     		.sleb128 210
 1567 053e 08       		.uleb128 0x8
 1568 053f 60090000 		.4byte	.LASF159
 1569 0543 FF01     		.sleb128 255
 1570 0545 00       		.byte	0
 1571 0546 07       		.uleb128 0x7
 1572 0547 01       		.byte	0x1
 1573 0548 06       		.byte	0x6
 1574 0549 A4       		.byte	0xa4
 1575 054a 1D060000 		.4byte	0x61d
 1576 054e 08       		.uleb128 0x8
 1577 054f 2A080000 		.4byte	.LASF160
 1578 0553 00       		.sleb128 0
 1579 0554 08       		.uleb128 0x8
 1580 0555 D2000000 		.4byte	.LASF161
 1581 0559 01       		.sleb128 1
 1582 055a 08       		.uleb128 0x8
 1583 055b 54080000 		.4byte	.LASF162
 1584 055f 02       		.sleb128 2
 1585 0560 08       		.uleb128 0x8
 1586 0561 F9070000 		.4byte	.LASF163
 1587 0565 03       		.sleb128 3
 1588 0566 08       		.uleb128 0x8
 1589 0567 EF040000 		.4byte	.LASF164
 1590 056b 04       		.sleb128 4
 1591 056c 08       		.uleb128 0x8
 1592 056d D9030000 		.4byte	.LASF165
 1593 0571 05       		.sleb128 5
 1594 0572 08       		.uleb128 0x8
 1595 0573 AD000000 		.4byte	.LASF166
 1596 0577 06       		.sleb128 6
 1597 0578 08       		.uleb128 0x8
 1598 0579 53170000 		.4byte	.LASF167
 1599 057d 07       		.sleb128 7
 1600 057e 08       		.uleb128 0x8
 1601 057f B50F0000 		.4byte	.LASF168
 1602 0583 08       		.sleb128 8
 1603 0584 08       		.uleb128 0x8
 1604 0585 DE100000 		.4byte	.LASF169
 1605 0589 09       		.sleb128 9
 1606 058a 08       		.uleb128 0x8
 1607 058b F0090000 		.4byte	.LASF170
 1608 058f 0A       		.sleb128 10
 1609 0590 08       		.uleb128 0x8
 1610 0591 F90A0000 		.4byte	.LASF171
 1611 0595 0B       		.sleb128 11
 1612 0596 08       		.uleb128 0x8
 1613 0597 B60B0000 		.4byte	.LASF172
ARM GAS  C:\Users\TTSS\AppData\Local\Temp\ccwoAHLq.s 			page 61


 1614 059b 0C       		.sleb128 12
 1615 059c 08       		.uleb128 0x8
 1616 059d 8C110000 		.4byte	.LASF173
 1617 05a1 0D       		.sleb128 13
 1618 05a2 08       		.uleb128 0x8
 1619 05a3 97140000 		.4byte	.LASF174
 1620 05a7 0E       		.sleb128 14
 1621 05a8 08       		.uleb128 0x8
 1622 05a9 E0150000 		.4byte	.LASF175
 1623 05ad 0F       		.sleb128 15
 1624 05ae 08       		.uleb128 0x8
 1625 05af EE060000 		.4byte	.LASF176
 1626 05b3 10       		.sleb128 16
 1627 05b4 08       		.uleb128 0x8
 1628 05b5 700E0000 		.4byte	.LASF177
 1629 05b9 11       		.sleb128 17
 1630 05ba 08       		.uleb128 0x8
 1631 05bb 61130000 		.4byte	.LASF178
 1632 05bf 8001     		.sleb128 128
 1633 05c1 08       		.uleb128 0x8
 1634 05c2 B2150000 		.4byte	.LASF179
 1635 05c6 8001     		.sleb128 128
 1636 05c8 08       		.uleb128 0x8
 1637 05c9 580D0000 		.4byte	.LASF180
 1638 05cd 8001     		.sleb128 128
 1639 05cf 08       		.uleb128 0x8
 1640 05d0 860C0000 		.4byte	.LASF181
 1641 05d4 8001     		.sleb128 128
 1642 05d6 08       		.uleb128 0x8
 1643 05d7 96090000 		.4byte	.LASF182
 1644 05db 8001     		.sleb128 128
 1645 05dd 08       		.uleb128 0x8
 1646 05de B4030000 		.4byte	.LASF183
 1647 05e2 8001     		.sleb128 128
 1648 05e4 08       		.uleb128 0x8
 1649 05e5 5E120000 		.4byte	.LASF184
 1650 05e9 8001     		.sleb128 128
 1651 05eb 08       		.uleb128 0x8
 1652 05ec B1110000 		.4byte	.LASF185
 1653 05f0 8101     		.sleb128 129
 1654 05f2 08       		.uleb128 0x8
 1655 05f3 13030000 		.4byte	.LASF186
 1656 05f7 8101     		.sleb128 129
 1657 05f9 08       		.uleb128 0x8
 1658 05fa 7B090000 		.4byte	.LASF187
 1659 05fe 8101     		.sleb128 129
 1660 0600 08       		.uleb128 0x8
 1661 0601 B0080000 		.4byte	.LASF188
 1662 0605 A001     		.sleb128 160
 1663 0607 08       		.uleb128 0x8
 1664 0608 14130000 		.4byte	.LASF189
 1665 060c FD01     		.sleb128 253
 1666 060e 08       		.uleb128 0x8
 1667 060f E9140000 		.4byte	.LASF190
 1668 0613 FE01     		.sleb128 254
 1669 0615 08       		.uleb128 0x8
 1670 0616 5B110000 		.4byte	.LASF191
ARM GAS  C:\Users\TTSS\AppData\Local\Temp\ccwoAHLq.s 			page 62


 1671 061a FF01     		.sleb128 255
 1672 061c 00       		.byte	0
 1673 061d 04       		.uleb128 0x4
 1674 061e 580C0000 		.4byte	.LASF192
 1675 0622 06       		.byte	0x6
 1676 0623 4001     		.2byte	0x140
 1677 0625 46050000 		.4byte	0x546
 1678 0629 04       		.uleb128 0x4
 1679 062a 63190000 		.4byte	.LASF193
 1680 062e 06       		.byte	0x6
 1681 062f 6201     		.2byte	0x162
 1682 0631 77000000 		.4byte	0x77
 1683 0635 0A       		.uleb128 0xa
 1684 0636 02       		.byte	0x2
 1685 0637 06       		.byte	0x6
 1686 0638 6501     		.2byte	0x165
 1687 063a 59060000 		.4byte	0x659
 1688 063e 0B       		.uleb128 0xb
 1689 063f D4180000 		.4byte	.LASF194
 1690 0643 06       		.byte	0x6
 1691 0644 6C01     		.2byte	0x16c
 1692 0646 6B000000 		.4byte	0x6b
 1693 064a 00       		.byte	0
 1694 064b 0B       		.uleb128 0xb
 1695 064c 360D0000 		.4byte	.LASF195
 1696 0650 06       		.byte	0x6
 1697 0651 7201     		.2byte	0x172
 1698 0653 6B000000 		.4byte	0x6b
 1699 0657 01       		.byte	0x1
 1700 0658 00       		.byte	0
 1701 0659 04       		.uleb128 0x4
 1702 065a 8E000000 		.4byte	.LASF196
 1703 065e 06       		.byte	0x6
 1704 065f 7401     		.2byte	0x174
 1705 0661 35060000 		.4byte	0x635
 1706 0665 0A       		.uleb128 0xa
 1707 0666 08       		.byte	0x8
 1708 0667 06       		.byte	0x6
 1709 0668 8901     		.2byte	0x189
 1710 066a 96060000 		.4byte	0x696
 1711 066e 10       		.uleb128 0x10
 1712 066f 76616C00 		.ascii	"val\000"
 1713 0673 06       		.byte	0x6
 1714 0674 8C01     		.2byte	0x18c
 1715 0676 3C040000 		.4byte	0x43c
 1716 067a 00       		.byte	0
 1717 067b 10       		.uleb128 0x10
 1718 067c 6C656E00 		.ascii	"len\000"
 1719 0680 06       		.byte	0x6
 1720 0681 8F01     		.2byte	0x18f
 1721 0683 77000000 		.4byte	0x77
 1722 0687 04       		.byte	0x4
 1723 0688 0B       		.uleb128 0xb
 1724 0689 B5040000 		.4byte	.LASF197
 1725 068d 06       		.byte	0x6
 1726 068e 9601     		.2byte	0x196
 1727 0690 77000000 		.4byte	0x77
ARM GAS  C:\Users\TTSS\AppData\Local\Temp\ccwoAHLq.s 			page 63


 1728 0694 06       		.byte	0x6
 1729 0695 00       		.byte	0
 1730 0696 04       		.uleb128 0x4
 1731 0697 EB020000 		.4byte	.LASF198
 1732 069b 06       		.byte	0x6
 1733 069c 9801     		.2byte	0x198
 1734 069e 65060000 		.4byte	0x665
 1735 06a2 0A       		.uleb128 0xa
 1736 06a3 0C       		.byte	0xc
 1737 06a4 06       		.byte	0x6
 1738 06a5 9B01     		.2byte	0x19b
 1739 06a7 C6060000 		.4byte	0x6c6
 1740 06ab 0B       		.uleb128 0xb
 1741 06ac D9080000 		.4byte	.LASF199
 1742 06b0 06       		.byte	0x6
 1743 06b1 9E01     		.2byte	0x19e
 1744 06b3 96060000 		.4byte	0x696
 1745 06b7 00       		.byte	0
 1746 06b8 0B       		.uleb128 0xb
 1747 06b9 A5080000 		.4byte	.LASF200
 1748 06bd 06       		.byte	0x6
 1749 06be A101     		.2byte	0x1a1
 1750 06c0 29060000 		.4byte	0x629
 1751 06c4 08       		.byte	0x8
 1752 06c5 00       		.byte	0
 1753 06c6 04       		.uleb128 0x4
 1754 06c7 5D100000 		.4byte	.LASF201
 1755 06cb 06       		.byte	0x6
 1756 06cc A301     		.2byte	0x1a3
 1757 06ce A2060000 		.4byte	0x6a2
 1758 06d2 0A       		.uleb128 0xa
 1759 06d3 04       		.byte	0x4
 1760 06d4 06       		.byte	0x6
 1761 06d5 B101     		.2byte	0x1b1
 1762 06d7 F6060000 		.4byte	0x6f6
 1763 06db 0B       		.uleb128 0xb
 1764 06dc A2000000 		.4byte	.LASF202
 1765 06e0 06       		.byte	0x6
 1766 06e1 B401     		.2byte	0x1b4
 1767 06e3 59060000 		.4byte	0x659
 1768 06e7 00       		.byte	0
 1769 06e8 10       		.uleb128 0x10
 1770 06e9 6D747500 		.ascii	"mtu\000"
 1771 06ed 06       		.byte	0x6
 1772 06ee B701     		.2byte	0x1b7
 1773 06f0 77000000 		.4byte	0x77
 1774 06f4 02       		.byte	0x2
 1775 06f5 00       		.byte	0
 1776 06f6 04       		.uleb128 0x4
 1777 06f7 DD0A0000 		.4byte	.LASF203
 1778 06fb 06       		.byte	0x6
 1779 06fc B901     		.2byte	0x1b9
 1780 06fe D2060000 		.4byte	0x6d2
 1781 0702 11       		.uleb128 0x11
 1782 0703 04       		.byte	0x4
 1783 0704 07       		.byte	0x7
 1784 0705 33       		.byte	0x33
ARM GAS  C:\Users\TTSS\AppData\Local\Temp\ccwoAHLq.s 			page 64


 1785 0706 2F070000 		.4byte	0x72f
 1786 070a 12       		.uleb128 0x12
 1787 070b A5080000 		.4byte	.LASF200
 1788 070f 07       		.byte	0x7
 1789 0710 36       		.byte	0x36
 1790 0711 29060000 		.4byte	0x629
 1791 0715 00       		.byte	0
 1792 0716 12       		.uleb128 0x12
 1793 0717 D7190000 		.4byte	.LASF204
 1794 071b 07       		.byte	0x7
 1795 071c 3C       		.byte	0x3c
 1796 071d 6B000000 		.4byte	0x6b
 1797 0721 02       		.byte	0x2
 1798 0722 12       		.uleb128 0x12
 1799 0723 86050000 		.4byte	.LASF205
 1800 0727 07       		.byte	0x7
 1801 0728 3F       		.byte	0x3f
 1802 0729 1D060000 		.4byte	0x61d
 1803 072d 03       		.byte	0x3
 1804 072e 00       		.byte	0
 1805 072f 0E       		.uleb128 0xe
 1806 0730 CA0D0000 		.4byte	.LASF206
 1807 0734 07       		.byte	0x7
 1808 0735 41       		.byte	0x41
 1809 0736 02070000 		.4byte	0x702
 1810 073a 11       		.uleb128 0x11
 1811 073b 10       		.byte	0x10
 1812 073c 07       		.byte	0x7
 1813 073d 83       		.byte	0x83
 1814 073e 5B070000 		.4byte	0x75b
 1815 0742 12       		.uleb128 0x12
 1816 0743 A2000000 		.4byte	.LASF202
 1817 0747 07       		.byte	0x7
 1818 0748 86       		.byte	0x86
 1819 0749 59060000 		.4byte	0x659
 1820 074d 00       		.byte	0
 1821 074e 12       		.uleb128 0x12
 1822 074f 83150000 		.4byte	.LASF207
 1823 0753 07       		.byte	0x7
 1824 0754 89       		.byte	0x89
 1825 0755 C6060000 		.4byte	0x6c6
 1826 0759 04       		.byte	0x4
 1827 075a 00       		.byte	0
 1828 075b 0E       		.uleb128 0xe
 1829 075c 950E0000 		.4byte	.LASF208
 1830 0760 07       		.byte	0x7
 1831 0761 8B       		.byte	0x8b
 1832 0762 3A070000 		.4byte	0x73a
 1833 0766 04       		.uleb128 0x4
 1834 0767 37160000 		.4byte	.LASF209
 1835 076b 08       		.byte	0x8
 1836 076c 2301     		.2byte	0x123
 1837 076e 72070000 		.4byte	0x772
 1838 0772 0F       		.uleb128 0xf
 1839 0773 04       		.byte	0x4
 1840 0774 78070000 		.4byte	0x778
 1841 0778 13       		.uleb128 0x13
ARM GAS  C:\Users\TTSS\AppData\Local\Temp\ccwoAHLq.s 			page 65


 1842 0779 88070000 		.4byte	0x788
 1843 077d 14       		.uleb128 0x14
 1844 077e 83000000 		.4byte	0x83
 1845 0782 14       		.uleb128 0x14
 1846 0783 B0000000 		.4byte	0xb0
 1847 0787 00       		.byte	0
 1848 0788 09       		.uleb128 0x9
 1849 0789 01       		.byte	0x1
 1850 078a 09       		.byte	0x9
 1851 078b 1907     		.2byte	0x719
 1852 078d B0070000 		.4byte	0x7b0
 1853 0791 08       		.uleb128 0x8
 1854 0792 5B000000 		.4byte	.LASF210
 1855 0796 00       		.sleb128 0
 1856 0797 08       		.uleb128 0x8
 1857 0798 B30E0000 		.4byte	.LASF211
 1858 079c 01       		.sleb128 1
 1859 079d 08       		.uleb128 0x8
 1860 079e A7170000 		.4byte	.LASF212
 1861 07a2 02       		.sleb128 2
 1862 07a3 08       		.uleb128 0x8
 1863 07a4 45030000 		.4byte	.LASF213
 1864 07a8 03       		.sleb128 3
 1865 07a9 08       		.uleb128 0x8
 1866 07aa E3050000 		.4byte	.LASF214
 1867 07ae 04       		.sleb128 4
 1868 07af 00       		.byte	0
 1869 07b0 04       		.uleb128 0x4
 1870 07b1 CC160000 		.4byte	.LASF215
 1871 07b5 09       		.byte	0x9
 1872 07b6 2707     		.2byte	0x727
 1873 07b8 88070000 		.4byte	0x788
 1874 07bc 15       		.uleb128 0x15
 1875 07bd 8F080000 		.4byte	.LASF218
 1876 07c1 01       		.byte	0x1
 1877 07c2 DE       		.byte	0xde
 1878 07c3 00000000 		.4byte	.LFB2
 1879 07c7 70000000 		.4byte	.LFE2-.LFB2
 1880 07cb 01       		.uleb128 0x1
 1881 07cc 9C       		.byte	0x9c
 1882 07cd 07080000 		.4byte	0x807
 1883 07d1 16       		.uleb128 0x16
 1884 07d2 66160000 		.4byte	.LASF220
 1885 07d6 01       		.byte	0x1
 1886 07d7 DE       		.byte	0xde
 1887 07d8 07080000 		.4byte	0x807
 1888 07dc 02       		.uleb128 0x2
 1889 07dd 91       		.byte	0x91
 1890 07de 64       		.sleb128 -28
 1891 07df 17       		.uleb128 0x17
 1892 07e0 3E130000 		.4byte	.LASF216
 1893 07e4 01       		.byte	0x1
 1894 07e5 E0       		.byte	0xe0
 1895 07e6 1D060000 		.4byte	0x61d
 1896 07ea 02       		.uleb128 0x2
 1897 07eb 91       		.byte	0x91
 1898 07ec 6F       		.sleb128 -17
ARM GAS  C:\Users\TTSS\AppData\Local\Temp\ccwoAHLq.s 			page 66


 1899 07ed 18       		.uleb128 0x18
 1900 07ee 30000000 		.4byte	.LBB2
 1901 07f2 2C000000 		.4byte	.LBE2-.LBB2
 1902 07f6 19       		.uleb128 0x19
 1903 07f7 220C0000 		.4byte	.LASF217
 1904 07fb 01       		.byte	0x1
 1905 07fc 7C01     		.2byte	0x17c
 1906 07fe 2F070000 		.4byte	0x72f
 1907 0802 02       		.uleb128 0x2
 1908 0803 91       		.byte	0x91
 1909 0804 68       		.sleb128 -24
 1910 0805 00       		.byte	0
 1911 0806 00       		.byte	0
 1912 0807 0F       		.uleb128 0xf
 1913 0808 04       		.byte	0x4
 1914 0809 5B070000 		.4byte	0x75b
 1915 080d 1A       		.uleb128 0x1a
 1916 080e 6E0C0000 		.4byte	.LASF219
 1917 0812 01       		.byte	0x1
 1918 0813 9C01     		.2byte	0x19c
 1919 0815 00000000 		.4byte	.LFB3
 1920 0819 0E000000 		.4byte	.LFE3-.LFB3
 1921 081d 01       		.uleb128 0x1
 1922 081e 9C       		.byte	0x9c
 1923 081f 33080000 		.4byte	0x833
 1924 0823 1B       		.uleb128 0x1b
 1925 0824 66160000 		.4byte	.LASF220
 1926 0828 01       		.byte	0x1
 1927 0829 9C01     		.2byte	0x19c
 1928 082b 33080000 		.4byte	0x833
 1929 082f 02       		.uleb128 0x2
 1930 0830 91       		.byte	0x91
 1931 0831 74       		.sleb128 -12
 1932 0832 00       		.byte	0
 1933 0833 0F       		.uleb128 0xf
 1934 0834 04       		.byte	0x4
 1935 0835 39080000 		.4byte	0x839
 1936 0839 1C       		.uleb128 0x1c
 1937 083a 59060000 		.4byte	0x659
 1938 083e 1D       		.uleb128 0x1d
 1939 083f 91150000 		.4byte	.LASF222
 1940 0843 01       		.byte	0x1
 1941 0844 6704     		.2byte	0x467
 1942 0846 00000000 		.4byte	.LFB4
 1943 084a 18000000 		.4byte	.LFE4-.LFB4
 1944 084e 01       		.uleb128 0x1
 1945 084f 9C       		.byte	0x9c
 1946 0850 1A       		.uleb128 0x1a
 1947 0851 C4090000 		.4byte	.LASF221
 1948 0855 01       		.byte	0x1
 1949 0856 A104     		.2byte	0x4a1
 1950 0858 00000000 		.4byte	.LFB5
 1951 085c 0E000000 		.4byte	.LFE5-.LFB5
 1952 0860 01       		.uleb128 0x1
 1953 0861 9C       		.byte	0x9c
 1954 0862 76080000 		.4byte	0x876
 1955 0866 1B       		.uleb128 0x1b
ARM GAS  C:\Users\TTSS\AppData\Local\Temp\ccwoAHLq.s 			page 67


 1956 0867 66160000 		.4byte	.LASF220
 1957 086b 01       		.byte	0x1
 1958 086c A104     		.2byte	0x4a1
 1959 086e 76080000 		.4byte	0x876
 1960 0872 02       		.uleb128 0x2
 1961 0873 91       		.byte	0x91
 1962 0874 74       		.sleb128 -12
 1963 0875 00       		.byte	0
 1964 0876 0F       		.uleb128 0xf
 1965 0877 04       		.byte	0x4
 1966 0878 7C080000 		.4byte	0x87c
 1967 087c 1C       		.uleb128 0x1c
 1968 087d 3C030000 		.4byte	0x33c
 1969 0881 1D       		.uleb128 0x1d
 1970 0882 700F0000 		.4byte	.LASF223
 1971 0886 01       		.byte	0x1
 1972 0887 DD04     		.2byte	0x4dd
 1973 0889 00000000 		.4byte	.LFB6
 1974 088d 08000000 		.4byte	.LFE6-.LFB6
 1975 0891 01       		.uleb128 0x1
 1976 0892 9C       		.byte	0x9c
 1977 0893 1E       		.uleb128 0x1e
 1978 0894 360E0000 		.4byte	.LASF246
 1979 0898 01       		.byte	0x1
 1980 0899 0B05     		.2byte	0x50b
 1981 089b 6B000000 		.4byte	0x6b
 1982 089f 00000000 		.4byte	.LFB7
 1983 08a3 60000000 		.4byte	.LFE7-.LFB7
 1984 08a7 01       		.uleb128 0x1
 1985 08a8 9C       		.byte	0x9c
 1986 08a9 D9080000 		.4byte	0x8d9
 1987 08ad 1B       		.uleb128 0x1b
 1988 08ae 3A010000 		.4byte	.LASF224
 1989 08b2 01       		.byte	0x1
 1990 08b3 0B05     		.2byte	0x50b
 1991 08b5 D9080000 		.4byte	0x8d9
 1992 08b9 02       		.uleb128 0x2
 1993 08ba 91       		.byte	0x91
 1994 08bb 6C       		.sleb128 -20
 1995 08bc 1F       		.uleb128 0x1f
 1996 08bd 6900     		.ascii	"i\000"
 1997 08bf 01       		.byte	0x1
 1998 08c0 0D05     		.2byte	0x50d
 1999 08c2 6B000000 		.4byte	0x6b
 2000 08c6 02       		.uleb128 0x2
 2001 08c7 91       		.byte	0x91
 2002 08c8 77       		.sleb128 -9
 2003 08c9 19       		.uleb128 0x19
 2004 08ca 04120000 		.4byte	.LASF225
 2005 08ce 01       		.byte	0x1
 2006 08cf 0E05     		.2byte	0x50e
 2007 08d1 6B000000 		.4byte	0x6b
 2008 08d5 02       		.uleb128 0x2
 2009 08d6 91       		.byte	0x91
 2010 08d7 76       		.sleb128 -10
 2011 08d8 00       		.byte	0
 2012 08d9 0F       		.uleb128 0xf
ARM GAS  C:\Users\TTSS\AppData\Local\Temp\ccwoAHLq.s 			page 68


 2013 08da 04       		.byte	0x4
 2014 08db DF080000 		.4byte	0x8df
 2015 08df 1C       		.uleb128 0x1c
 2016 08e0 0F030000 		.4byte	0x30f
 2017 08e4 1A       		.uleb128 0x1a
 2018 08e5 FB0F0000 		.4byte	.LASF226
 2019 08e9 01       		.byte	0x1
 2020 08ea 3105     		.2byte	0x531
 2021 08ec 00000000 		.4byte	.LFB8
 2022 08f0 12000000 		.4byte	.LFE8-.LFB8
 2023 08f4 01       		.uleb128 0x1
 2024 08f5 9C       		.byte	0x9c
 2025 08f6 0A090000 		.4byte	0x90a
 2026 08fa 1B       		.uleb128 0x1b
 2027 08fb 79120000 		.4byte	.LASF227
 2028 08ff 01       		.byte	0x1
 2029 0900 3105     		.2byte	0x531
 2030 0902 77000000 		.4byte	0x77
 2031 0906 02       		.uleb128 0x2
 2032 0907 91       		.byte	0x91
 2033 0908 76       		.sleb128 -10
 2034 0909 00       		.byte	0
 2035 090a 1A       		.uleb128 0x1a
 2036 090b 97130000 		.4byte	.LASF228
 2037 090f 01       		.byte	0x1
 2038 0910 4D05     		.2byte	0x54d
 2039 0912 00000000 		.4byte	.LFB9
 2040 0916 0E000000 		.4byte	.LFE9-.LFB9
 2041 091a 01       		.uleb128 0x1
 2042 091b 9C       		.byte	0x9c
 2043 091c 30090000 		.4byte	0x930
 2044 0920 1B       		.uleb128 0x1b
 2045 0921 66160000 		.4byte	.LASF220
 2046 0925 01       		.byte	0x1
 2047 0926 4D05     		.2byte	0x54d
 2048 0928 30090000 		.4byte	0x930
 2049 092c 02       		.uleb128 0x2
 2050 092d 91       		.byte	0x91
 2051 092e 74       		.sleb128 -12
 2052 092f 00       		.byte	0
 2053 0930 0F       		.uleb128 0xf
 2054 0931 04       		.byte	0x4
 2055 0932 36090000 		.4byte	0x936
 2056 0936 1C       		.uleb128 0x1c
 2057 0937 80040000 		.4byte	0x480
 2058 093b 20       		.uleb128 0x20
 2059 093c 2E090000 		.4byte	.LASF247
 2060 0940 01       		.byte	0x1
 2061 0941 6905     		.2byte	0x569
 2062 0943 00000000 		.4byte	.LFB10
 2063 0947 A8020000 		.4byte	.LFE10-.LFB10
 2064 094b 01       		.uleb128 0x1
 2065 094c 9C       		.byte	0x9c
 2066 094d A6090000 		.4byte	0x9a6
 2067 0951 1B       		.uleb128 0x1b
 2068 0952 69070000 		.4byte	.LASF229
 2069 0956 01       		.byte	0x1
ARM GAS  C:\Users\TTSS\AppData\Local\Temp\ccwoAHLq.s 			page 69


 2070 0957 6905     		.2byte	0x569
 2071 0959 6B000000 		.4byte	0x6b
 2072 095d 02       		.uleb128 0x2
 2073 095e 91       		.byte	0x91
 2074 095f 6F       		.sleb128 -17
 2075 0960 1B       		.uleb128 0x1b
 2076 0961 66160000 		.4byte	.LASF220
 2077 0965 01       		.byte	0x1
 2078 0966 6905     		.2byte	0x569
 2079 0968 B0000000 		.4byte	0xb0
 2080 096c 02       		.uleb128 0x2
 2081 096d 91       		.byte	0x91
 2082 096e 68       		.sleb128 -24
 2083 096f 21       		.uleb128 0x21
 2084 0970 32000000 		.4byte	.LBB3
 2085 0974 34000000 		.4byte	.LBE3-.LBB3
 2086 0978 8C090000 		.4byte	0x98c
 2087 097c 19       		.uleb128 0x19
 2088 097d A50F0000 		.4byte	.LASF230
 2089 0981 01       		.byte	0x1
 2090 0982 7605     		.2byte	0x576
 2091 0984 CF020000 		.4byte	0x2cf
 2092 0988 02       		.uleb128 0x2
 2093 0989 91       		.byte	0x91
 2094 098a 74       		.sleb128 -12
 2095 098b 00       		.byte	0
 2096 098c 18       		.uleb128 0x18
 2097 098d EC010000 		.4byte	.LBB4
 2098 0991 38000000 		.4byte	.LBE4-.LBB4
 2099 0995 19       		.uleb128 0x19
 2100 0996 B5140000 		.4byte	.LASF231
 2101 099a 01       		.byte	0x1
 2102 099b 4606     		.2byte	0x646
 2103 099d 77000000 		.4byte	0x77
 2104 09a1 02       		.uleb128 0x2
 2105 09a2 91       		.byte	0x91
 2106 09a3 76       		.sleb128 -10
 2107 09a4 00       		.byte	0
 2108 09a5 00       		.byte	0
 2109 09a6 22       		.uleb128 0x22
 2110 09a7 E0120000 		.4byte	.LASF232
 2111 09ab 08       		.byte	0x8
 2112 09ac 9401     		.2byte	0x194
 2113 09ae 66070000 		.4byte	0x766
 2114 09b2 23       		.uleb128 0x23
 2115 09b3 B30D0000 		.4byte	.LASF233
 2116 09b7 01       		.byte	0x1
 2117 09b8 41       		.byte	0x41
 2118 09b9 A4000000 		.4byte	0xa4
 2119 09bd 05       		.uleb128 0x5
 2120 09be 03       		.byte	0x3
 2121 09bf 00000000 		.4byte	cyBle_eventHandlerFlag
 2122 09c3 22       		.uleb128 0x22
 2123 09c4 71170000 		.4byte	.LASF234
 2124 09c8 08       		.byte	0x8
 2125 09c9 9801     		.2byte	0x198
 2126 09cb 0F030000 		.4byte	0x30f
ARM GAS  C:\Users\TTSS\AppData\Local\Temp\ccwoAHLq.s 			page 70


 2127 09cf 22       		.uleb128 0x22
 2128 09d0 14070000 		.4byte	.LASF235
 2129 09d4 08       		.byte	0x8
 2130 09d5 9901     		.2byte	0x199
 2131 09d7 DB090000 		.4byte	0x9db
 2132 09db 0F       		.uleb128 0xf
 2133 09dc 04       		.byte	0x4
 2134 09dd 0F030000 		.4byte	0x30f
 2135 09e1 23       		.uleb128 0x23
 2136 09e2 CB050000 		.4byte	.LASF236
 2137 09e6 01       		.byte	0x1
 2138 09e7 C5       		.byte	0xc5
 2139 09e8 30040000 		.4byte	0x430
 2140 09ec 05       		.uleb128 0x5
 2141 09ed 03       		.byte	0x3
 2142 09ee 00000000 		.4byte	cyBle_authInfo
 2143 09f2 0C       		.uleb128 0xc
 2144 09f3 6B000000 		.4byte	0x6b
 2145 09f7 020A0000 		.4byte	0xa02
 2146 09fb 0D       		.uleb128 0xd
 2147 09fc A9000000 		.4byte	0xa9
 2148 0a00 01       		.byte	0x1
 2149 0a01 00       		.byte	0
 2150 0a02 24       		.uleb128 0x24
 2151 0a03 B80A0000 		.4byte	.LASF237
 2152 0a07 0A       		.byte	0xa
 2153 0a08 BD       		.byte	0xbd
 2154 0a09 F2090000 		.4byte	0x9f2
 2155 0a0d 0C       		.uleb128 0xc
 2156 0a0e 6B000000 		.4byte	0x6b
 2157 0a12 230A0000 		.4byte	0xa23
 2158 0a16 0D       		.uleb128 0xd
 2159 0a17 A9000000 		.4byte	0xa9
 2160 0a1b 04       		.byte	0x4
 2161 0a1c 0D       		.uleb128 0xd
 2162 0a1d A9000000 		.4byte	0xa9
 2163 0a21 01       		.byte	0x1
 2164 0a22 00       		.byte	0
 2165 0a23 24       		.uleb128 0x24
 2166 0a24 DE190000 		.4byte	.LASF238
 2167 0a28 0A       		.byte	0xa
 2168 0a29 BF       		.byte	0xbf
 2169 0a2a 2E0A0000 		.4byte	0xa2e
 2170 0a2e 1C       		.uleb128 0x1c
 2171 0a2f 0D0A0000 		.4byte	0xa0d
 2172 0a33 22       		.uleb128 0x22
 2173 0a34 A60C0000 		.4byte	.LASF239
 2174 0a38 09       		.byte	0x9
 2175 0a39 0009     		.2byte	0x900
 2176 0a3b B0070000 		.4byte	0x7b0
 2177 0a3f 23       		.uleb128 0x23
 2178 0a40 030F0000 		.4byte	.LASF240
 2179 0a44 01       		.byte	0x1
 2180 0a45 3F       		.byte	0x3f
 2181 0a46 59060000 		.4byte	0x659
 2182 0a4a 05       		.uleb128 0x5
 2183 0a4b 03       		.byte	0x3
ARM GAS  C:\Users\TTSS\AppData\Local\Temp\ccwoAHLq.s 			page 71


 2184 0a4c 00000000 		.4byte	cyBle_connHandle
 2185 0a50 23       		.uleb128 0x23
 2186 0a51 34030000 		.4byte	.LASF241
 2187 0a55 01       		.byte	0x1
 2188 0a56 42       		.byte	0x42
 2189 0a57 A4000000 		.4byte	0xa4
 2190 0a5b 05       		.uleb128 0x5
 2191 0a5c 03       		.byte	0x3
 2192 0a5d 00000000 		.4byte	cyBle_busyStatus
 2193 0a61 23       		.uleb128 0x23
 2194 0a62 06110000 		.4byte	.LASF242
 2195 0a66 01       		.byte	0x1
 2196 0a67 45       		.byte	0x45
 2197 0a68 6B000000 		.4byte	0x6b
 2198 0a6c 05       		.uleb128 0x5
 2199 0a6d 03       		.byte	0x3
 2200 0a6e 00000000 		.4byte	cyBle_advertisingIntervalType
 2201 0a72 00       		.byte	0
 2202              		.section	.debug_abbrev,"",%progbits
 2203              	.Ldebug_abbrev0:
 2204 0000 01       		.uleb128 0x1
 2205 0001 11       		.uleb128 0x11
 2206 0002 01       		.byte	0x1
 2207 0003 25       		.uleb128 0x25
 2208 0004 0E       		.uleb128 0xe
 2209 0005 13       		.uleb128 0x13
 2210 0006 0B       		.uleb128 0xb
 2211 0007 03       		.uleb128 0x3
 2212 0008 0E       		.uleb128 0xe
 2213 0009 1B       		.uleb128 0x1b
 2214 000a 0E       		.uleb128 0xe
 2215 000b 55       		.uleb128 0x55
 2216 000c 17       		.uleb128 0x17
 2217 000d 11       		.uleb128 0x11
 2218 000e 01       		.uleb128 0x1
 2219 000f 10       		.uleb128 0x10
 2220 0010 17       		.uleb128 0x17
 2221 0011 00       		.byte	0
 2222 0012 00       		.byte	0
 2223 0013 02       		.uleb128 0x2
 2224 0014 24       		.uleb128 0x24
 2225 0015 00       		.byte	0
 2226 0016 0B       		.uleb128 0xb
 2227 0017 0B       		.uleb128 0xb
 2228 0018 3E       		.uleb128 0x3e
 2229 0019 0B       		.uleb128 0xb
 2230 001a 03       		.uleb128 0x3
 2231 001b 0E       		.uleb128 0xe
 2232 001c 00       		.byte	0
 2233 001d 00       		.byte	0
 2234 001e 03       		.uleb128 0x3
 2235 001f 24       		.uleb128 0x24
 2236 0020 00       		.byte	0
 2237 0021 0B       		.uleb128 0xb
 2238 0022 0B       		.uleb128 0xb
 2239 0023 3E       		.uleb128 0x3e
 2240 0024 0B       		.uleb128 0xb
ARM GAS  C:\Users\TTSS\AppData\Local\Temp\ccwoAHLq.s 			page 72


 2241 0025 03       		.uleb128 0x3
 2242 0026 08       		.uleb128 0x8
 2243 0027 00       		.byte	0
 2244 0028 00       		.byte	0
 2245 0029 04       		.uleb128 0x4
 2246 002a 16       		.uleb128 0x16
 2247 002b 00       		.byte	0
 2248 002c 03       		.uleb128 0x3
 2249 002d 0E       		.uleb128 0xe
 2250 002e 3A       		.uleb128 0x3a
 2251 002f 0B       		.uleb128 0xb
 2252 0030 3B       		.uleb128 0x3b
 2253 0031 05       		.uleb128 0x5
 2254 0032 49       		.uleb128 0x49
 2255 0033 13       		.uleb128 0x13
 2256 0034 00       		.byte	0
 2257 0035 00       		.byte	0
 2258 0036 05       		.uleb128 0x5
 2259 0037 35       		.uleb128 0x35
 2260 0038 00       		.byte	0
 2261 0039 49       		.uleb128 0x49
 2262 003a 13       		.uleb128 0x13
 2263 003b 00       		.byte	0
 2264 003c 00       		.byte	0
 2265 003d 06       		.uleb128 0x6
 2266 003e 0F       		.uleb128 0xf
 2267 003f 00       		.byte	0
 2268 0040 0B       		.uleb128 0xb
 2269 0041 0B       		.uleb128 0xb
 2270 0042 00       		.byte	0
 2271 0043 00       		.byte	0
 2272 0044 07       		.uleb128 0x7
 2273 0045 04       		.uleb128 0x4
 2274 0046 01       		.byte	0x1
 2275 0047 0B       		.uleb128 0xb
 2276 0048 0B       		.uleb128 0xb
 2277 0049 3A       		.uleb128 0x3a
 2278 004a 0B       		.uleb128 0xb
 2279 004b 3B       		.uleb128 0x3b
 2280 004c 0B       		.uleb128 0xb
 2281 004d 01       		.uleb128 0x1
 2282 004e 13       		.uleb128 0x13
 2283 004f 00       		.byte	0
 2284 0050 00       		.byte	0
 2285 0051 08       		.uleb128 0x8
 2286 0052 28       		.uleb128 0x28
 2287 0053 00       		.byte	0
 2288 0054 03       		.uleb128 0x3
 2289 0055 0E       		.uleb128 0xe
 2290 0056 1C       		.uleb128 0x1c
 2291 0057 0D       		.uleb128 0xd
 2292 0058 00       		.byte	0
 2293 0059 00       		.byte	0
 2294 005a 09       		.uleb128 0x9
 2295 005b 04       		.uleb128 0x4
 2296 005c 01       		.byte	0x1
 2297 005d 0B       		.uleb128 0xb
ARM GAS  C:\Users\TTSS\AppData\Local\Temp\ccwoAHLq.s 			page 73


 2298 005e 0B       		.uleb128 0xb
 2299 005f 3A       		.uleb128 0x3a
 2300 0060 0B       		.uleb128 0xb
 2301 0061 3B       		.uleb128 0x3b
 2302 0062 05       		.uleb128 0x5
 2303 0063 01       		.uleb128 0x1
 2304 0064 13       		.uleb128 0x13
 2305 0065 00       		.byte	0
 2306 0066 00       		.byte	0
 2307 0067 0A       		.uleb128 0xa
 2308 0068 13       		.uleb128 0x13
 2309 0069 01       		.byte	0x1
 2310 006a 0B       		.uleb128 0xb
 2311 006b 0B       		.uleb128 0xb
 2312 006c 3A       		.uleb128 0x3a
 2313 006d 0B       		.uleb128 0xb
 2314 006e 3B       		.uleb128 0x3b
 2315 006f 05       		.uleb128 0x5
 2316 0070 01       		.uleb128 0x1
 2317 0071 13       		.uleb128 0x13
 2318 0072 00       		.byte	0
 2319 0073 00       		.byte	0
 2320 0074 0B       		.uleb128 0xb
 2321 0075 0D       		.uleb128 0xd
 2322 0076 00       		.byte	0
 2323 0077 03       		.uleb128 0x3
 2324 0078 0E       		.uleb128 0xe
 2325 0079 3A       		.uleb128 0x3a
 2326 007a 0B       		.uleb128 0xb
 2327 007b 3B       		.uleb128 0x3b
 2328 007c 05       		.uleb128 0x5
 2329 007d 49       		.uleb128 0x49
 2330 007e 13       		.uleb128 0x13
 2331 007f 38       		.uleb128 0x38
 2332 0080 0B       		.uleb128 0xb
 2333 0081 00       		.byte	0
 2334 0082 00       		.byte	0
 2335 0083 0C       		.uleb128 0xc
 2336 0084 01       		.uleb128 0x1
 2337 0085 01       		.byte	0x1
 2338 0086 49       		.uleb128 0x49
 2339 0087 13       		.uleb128 0x13
 2340 0088 01       		.uleb128 0x1
 2341 0089 13       		.uleb128 0x13
 2342 008a 00       		.byte	0
 2343 008b 00       		.byte	0
 2344 008c 0D       		.uleb128 0xd
 2345 008d 21       		.uleb128 0x21
 2346 008e 00       		.byte	0
 2347 008f 49       		.uleb128 0x49
 2348 0090 13       		.uleb128 0x13
 2349 0091 2F       		.uleb128 0x2f
 2350 0092 0B       		.uleb128 0xb
 2351 0093 00       		.byte	0
 2352 0094 00       		.byte	0
 2353 0095 0E       		.uleb128 0xe
 2354 0096 16       		.uleb128 0x16
ARM GAS  C:\Users\TTSS\AppData\Local\Temp\ccwoAHLq.s 			page 74


 2355 0097 00       		.byte	0
 2356 0098 03       		.uleb128 0x3
 2357 0099 0E       		.uleb128 0xe
 2358 009a 3A       		.uleb128 0x3a
 2359 009b 0B       		.uleb128 0xb
 2360 009c 3B       		.uleb128 0x3b
 2361 009d 0B       		.uleb128 0xb
 2362 009e 49       		.uleb128 0x49
 2363 009f 13       		.uleb128 0x13
 2364 00a0 00       		.byte	0
 2365 00a1 00       		.byte	0
 2366 00a2 0F       		.uleb128 0xf
 2367 00a3 0F       		.uleb128 0xf
 2368 00a4 00       		.byte	0
 2369 00a5 0B       		.uleb128 0xb
 2370 00a6 0B       		.uleb128 0xb
 2371 00a7 49       		.uleb128 0x49
 2372 00a8 13       		.uleb128 0x13
 2373 00a9 00       		.byte	0
 2374 00aa 00       		.byte	0
 2375 00ab 10       		.uleb128 0x10
 2376 00ac 0D       		.uleb128 0xd
 2377 00ad 00       		.byte	0
 2378 00ae 03       		.uleb128 0x3
 2379 00af 08       		.uleb128 0x8
 2380 00b0 3A       		.uleb128 0x3a
 2381 00b1 0B       		.uleb128 0xb
 2382 00b2 3B       		.uleb128 0x3b
 2383 00b3 05       		.uleb128 0x5
 2384 00b4 49       		.uleb128 0x49
 2385 00b5 13       		.uleb128 0x13
 2386 00b6 38       		.uleb128 0x38
 2387 00b7 0B       		.uleb128 0xb
 2388 00b8 00       		.byte	0
 2389 00b9 00       		.byte	0
 2390 00ba 11       		.uleb128 0x11
 2391 00bb 13       		.uleb128 0x13
 2392 00bc 01       		.byte	0x1
 2393 00bd 0B       		.uleb128 0xb
 2394 00be 0B       		.uleb128 0xb
 2395 00bf 3A       		.uleb128 0x3a
 2396 00c0 0B       		.uleb128 0xb
 2397 00c1 3B       		.uleb128 0x3b
 2398 00c2 0B       		.uleb128 0xb
 2399 00c3 01       		.uleb128 0x1
 2400 00c4 13       		.uleb128 0x13
 2401 00c5 00       		.byte	0
 2402 00c6 00       		.byte	0
 2403 00c7 12       		.uleb128 0x12
 2404 00c8 0D       		.uleb128 0xd
 2405 00c9 00       		.byte	0
 2406 00ca 03       		.uleb128 0x3
 2407 00cb 0E       		.uleb128 0xe
 2408 00cc 3A       		.uleb128 0x3a
 2409 00cd 0B       		.uleb128 0xb
 2410 00ce 3B       		.uleb128 0x3b
 2411 00cf 0B       		.uleb128 0xb
ARM GAS  C:\Users\TTSS\AppData\Local\Temp\ccwoAHLq.s 			page 75


 2412 00d0 49       		.uleb128 0x49
 2413 00d1 13       		.uleb128 0x13
 2414 00d2 38       		.uleb128 0x38
 2415 00d3 0B       		.uleb128 0xb
 2416 00d4 00       		.byte	0
 2417 00d5 00       		.byte	0
 2418 00d6 13       		.uleb128 0x13
 2419 00d7 15       		.uleb128 0x15
 2420 00d8 01       		.byte	0x1
 2421 00d9 27       		.uleb128 0x27
 2422 00da 19       		.uleb128 0x19
 2423 00db 01       		.uleb128 0x1
 2424 00dc 13       		.uleb128 0x13
 2425 00dd 00       		.byte	0
 2426 00de 00       		.byte	0
 2427 00df 14       		.uleb128 0x14
 2428 00e0 05       		.uleb128 0x5
 2429 00e1 00       		.byte	0
 2430 00e2 49       		.uleb128 0x49
 2431 00e3 13       		.uleb128 0x13
 2432 00e4 00       		.byte	0
 2433 00e5 00       		.byte	0
 2434 00e6 15       		.uleb128 0x15
 2435 00e7 2E       		.uleb128 0x2e
 2436 00e8 01       		.byte	0x1
 2437 00e9 03       		.uleb128 0x3
 2438 00ea 0E       		.uleb128 0xe
 2439 00eb 3A       		.uleb128 0x3a
 2440 00ec 0B       		.uleb128 0xb
 2441 00ed 3B       		.uleb128 0x3b
 2442 00ee 0B       		.uleb128 0xb
 2443 00ef 27       		.uleb128 0x27
 2444 00f0 19       		.uleb128 0x19
 2445 00f1 11       		.uleb128 0x11
 2446 00f2 01       		.uleb128 0x1
 2447 00f3 12       		.uleb128 0x12
 2448 00f4 06       		.uleb128 0x6
 2449 00f5 40       		.uleb128 0x40
 2450 00f6 18       		.uleb128 0x18
 2451 00f7 9642     		.uleb128 0x2116
 2452 00f9 19       		.uleb128 0x19
 2453 00fa 01       		.uleb128 0x1
 2454 00fb 13       		.uleb128 0x13
 2455 00fc 00       		.byte	0
 2456 00fd 00       		.byte	0
 2457 00fe 16       		.uleb128 0x16
 2458 00ff 05       		.uleb128 0x5
 2459 0100 00       		.byte	0
 2460 0101 03       		.uleb128 0x3
 2461 0102 0E       		.uleb128 0xe
 2462 0103 3A       		.uleb128 0x3a
 2463 0104 0B       		.uleb128 0xb
 2464 0105 3B       		.uleb128 0x3b
 2465 0106 0B       		.uleb128 0xb
 2466 0107 49       		.uleb128 0x49
 2467 0108 13       		.uleb128 0x13
 2468 0109 02       		.uleb128 0x2
ARM GAS  C:\Users\TTSS\AppData\Local\Temp\ccwoAHLq.s 			page 76


 2469 010a 18       		.uleb128 0x18
 2470 010b 00       		.byte	0
 2471 010c 00       		.byte	0
 2472 010d 17       		.uleb128 0x17
 2473 010e 34       		.uleb128 0x34
 2474 010f 00       		.byte	0
 2475 0110 03       		.uleb128 0x3
 2476 0111 0E       		.uleb128 0xe
 2477 0112 3A       		.uleb128 0x3a
 2478 0113 0B       		.uleb128 0xb
 2479 0114 3B       		.uleb128 0x3b
 2480 0115 0B       		.uleb128 0xb
 2481 0116 49       		.uleb128 0x49
 2482 0117 13       		.uleb128 0x13
 2483 0118 02       		.uleb128 0x2
 2484 0119 18       		.uleb128 0x18
 2485 011a 00       		.byte	0
 2486 011b 00       		.byte	0
 2487 011c 18       		.uleb128 0x18
 2488 011d 0B       		.uleb128 0xb
 2489 011e 01       		.byte	0x1
 2490 011f 11       		.uleb128 0x11
 2491 0120 01       		.uleb128 0x1
 2492 0121 12       		.uleb128 0x12
 2493 0122 06       		.uleb128 0x6
 2494 0123 00       		.byte	0
 2495 0124 00       		.byte	0
 2496 0125 19       		.uleb128 0x19
 2497 0126 34       		.uleb128 0x34
 2498 0127 00       		.byte	0
 2499 0128 03       		.uleb128 0x3
 2500 0129 0E       		.uleb128 0xe
 2501 012a 3A       		.uleb128 0x3a
 2502 012b 0B       		.uleb128 0xb
 2503 012c 3B       		.uleb128 0x3b
 2504 012d 05       		.uleb128 0x5
 2505 012e 49       		.uleb128 0x49
 2506 012f 13       		.uleb128 0x13
 2507 0130 02       		.uleb128 0x2
 2508 0131 18       		.uleb128 0x18
 2509 0132 00       		.byte	0
 2510 0133 00       		.byte	0
 2511 0134 1A       		.uleb128 0x1a
 2512 0135 2E       		.uleb128 0x2e
 2513 0136 01       		.byte	0x1
 2514 0137 03       		.uleb128 0x3
 2515 0138 0E       		.uleb128 0xe
 2516 0139 3A       		.uleb128 0x3a
 2517 013a 0B       		.uleb128 0xb
 2518 013b 3B       		.uleb128 0x3b
 2519 013c 05       		.uleb128 0x5
 2520 013d 27       		.uleb128 0x27
 2521 013e 19       		.uleb128 0x19
 2522 013f 11       		.uleb128 0x11
 2523 0140 01       		.uleb128 0x1
 2524 0141 12       		.uleb128 0x12
 2525 0142 06       		.uleb128 0x6
ARM GAS  C:\Users\TTSS\AppData\Local\Temp\ccwoAHLq.s 			page 77


 2526 0143 40       		.uleb128 0x40
 2527 0144 18       		.uleb128 0x18
 2528 0145 9742     		.uleb128 0x2117
 2529 0147 19       		.uleb128 0x19
 2530 0148 01       		.uleb128 0x1
 2531 0149 13       		.uleb128 0x13
 2532 014a 00       		.byte	0
 2533 014b 00       		.byte	0
 2534 014c 1B       		.uleb128 0x1b
 2535 014d 05       		.uleb128 0x5
 2536 014e 00       		.byte	0
 2537 014f 03       		.uleb128 0x3
 2538 0150 0E       		.uleb128 0xe
 2539 0151 3A       		.uleb128 0x3a
 2540 0152 0B       		.uleb128 0xb
 2541 0153 3B       		.uleb128 0x3b
 2542 0154 05       		.uleb128 0x5
 2543 0155 49       		.uleb128 0x49
 2544 0156 13       		.uleb128 0x13
 2545 0157 02       		.uleb128 0x2
 2546 0158 18       		.uleb128 0x18
 2547 0159 00       		.byte	0
 2548 015a 00       		.byte	0
 2549 015b 1C       		.uleb128 0x1c
 2550 015c 26       		.uleb128 0x26
 2551 015d 00       		.byte	0
 2552 015e 49       		.uleb128 0x49
 2553 015f 13       		.uleb128 0x13
 2554 0160 00       		.byte	0
 2555 0161 00       		.byte	0
 2556 0162 1D       		.uleb128 0x1d
 2557 0163 2E       		.uleb128 0x2e
 2558 0164 00       		.byte	0
 2559 0165 03       		.uleb128 0x3
 2560 0166 0E       		.uleb128 0xe
 2561 0167 3A       		.uleb128 0x3a
 2562 0168 0B       		.uleb128 0xb
 2563 0169 3B       		.uleb128 0x3b
 2564 016a 05       		.uleb128 0x5
 2565 016b 27       		.uleb128 0x27
 2566 016c 19       		.uleb128 0x19
 2567 016d 11       		.uleb128 0x11
 2568 016e 01       		.uleb128 0x1
 2569 016f 12       		.uleb128 0x12
 2570 0170 06       		.uleb128 0x6
 2571 0171 40       		.uleb128 0x40
 2572 0172 18       		.uleb128 0x18
 2573 0173 9742     		.uleb128 0x2117
 2574 0175 19       		.uleb128 0x19
 2575 0176 00       		.byte	0
 2576 0177 00       		.byte	0
 2577 0178 1E       		.uleb128 0x1e
 2578 0179 2E       		.uleb128 0x2e
 2579 017a 01       		.byte	0x1
 2580 017b 03       		.uleb128 0x3
 2581 017c 0E       		.uleb128 0xe
 2582 017d 3A       		.uleb128 0x3a
ARM GAS  C:\Users\TTSS\AppData\Local\Temp\ccwoAHLq.s 			page 78


 2583 017e 0B       		.uleb128 0xb
 2584 017f 3B       		.uleb128 0x3b
 2585 0180 05       		.uleb128 0x5
 2586 0181 27       		.uleb128 0x27
 2587 0182 19       		.uleb128 0x19
 2588 0183 49       		.uleb128 0x49
 2589 0184 13       		.uleb128 0x13
 2590 0185 11       		.uleb128 0x11
 2591 0186 01       		.uleb128 0x1
 2592 0187 12       		.uleb128 0x12
 2593 0188 06       		.uleb128 0x6
 2594 0189 40       		.uleb128 0x40
 2595 018a 18       		.uleb128 0x18
 2596 018b 9742     		.uleb128 0x2117
 2597 018d 19       		.uleb128 0x19
 2598 018e 01       		.uleb128 0x1
 2599 018f 13       		.uleb128 0x13
 2600 0190 00       		.byte	0
 2601 0191 00       		.byte	0
 2602 0192 1F       		.uleb128 0x1f
 2603 0193 34       		.uleb128 0x34
 2604 0194 00       		.byte	0
 2605 0195 03       		.uleb128 0x3
 2606 0196 08       		.uleb128 0x8
 2607 0197 3A       		.uleb128 0x3a
 2608 0198 0B       		.uleb128 0xb
 2609 0199 3B       		.uleb128 0x3b
 2610 019a 05       		.uleb128 0x5
 2611 019b 49       		.uleb128 0x49
 2612 019c 13       		.uleb128 0x13
 2613 019d 02       		.uleb128 0x2
 2614 019e 18       		.uleb128 0x18
 2615 019f 00       		.byte	0
 2616 01a0 00       		.byte	0
 2617 01a1 20       		.uleb128 0x20
 2618 01a2 2E       		.uleb128 0x2e
 2619 01a3 01       		.byte	0x1
 2620 01a4 3F       		.uleb128 0x3f
 2621 01a5 19       		.uleb128 0x19
 2622 01a6 03       		.uleb128 0x3
 2623 01a7 0E       		.uleb128 0xe
 2624 01a8 3A       		.uleb128 0x3a
 2625 01a9 0B       		.uleb128 0xb
 2626 01aa 3B       		.uleb128 0x3b
 2627 01ab 05       		.uleb128 0x5
 2628 01ac 27       		.uleb128 0x27
 2629 01ad 19       		.uleb128 0x19
 2630 01ae 11       		.uleb128 0x11
 2631 01af 01       		.uleb128 0x1
 2632 01b0 12       		.uleb128 0x12
 2633 01b1 06       		.uleb128 0x6
 2634 01b2 40       		.uleb128 0x40
 2635 01b3 18       		.uleb128 0x18
 2636 01b4 9642     		.uleb128 0x2116
 2637 01b6 19       		.uleb128 0x19
 2638 01b7 01       		.uleb128 0x1
 2639 01b8 13       		.uleb128 0x13
ARM GAS  C:\Users\TTSS\AppData\Local\Temp\ccwoAHLq.s 			page 79


 2640 01b9 00       		.byte	0
 2641 01ba 00       		.byte	0
 2642 01bb 21       		.uleb128 0x21
 2643 01bc 0B       		.uleb128 0xb
 2644 01bd 01       		.byte	0x1
 2645 01be 11       		.uleb128 0x11
 2646 01bf 01       		.uleb128 0x1
 2647 01c0 12       		.uleb128 0x12
 2648 01c1 06       		.uleb128 0x6
 2649 01c2 01       		.uleb128 0x1
 2650 01c3 13       		.uleb128 0x13
 2651 01c4 00       		.byte	0
 2652 01c5 00       		.byte	0
 2653 01c6 22       		.uleb128 0x22
 2654 01c7 34       		.uleb128 0x34
 2655 01c8 00       		.byte	0
 2656 01c9 03       		.uleb128 0x3
 2657 01ca 0E       		.uleb128 0xe
 2658 01cb 3A       		.uleb128 0x3a
 2659 01cc 0B       		.uleb128 0xb
 2660 01cd 3B       		.uleb128 0x3b
 2661 01ce 05       		.uleb128 0x5
 2662 01cf 49       		.uleb128 0x49
 2663 01d0 13       		.uleb128 0x13
 2664 01d1 3F       		.uleb128 0x3f
 2665 01d2 19       		.uleb128 0x19
 2666 01d3 3C       		.uleb128 0x3c
 2667 01d4 19       		.uleb128 0x19
 2668 01d5 00       		.byte	0
 2669 01d6 00       		.byte	0
 2670 01d7 23       		.uleb128 0x23
 2671 01d8 34       		.uleb128 0x34
 2672 01d9 00       		.byte	0
 2673 01da 03       		.uleb128 0x3
 2674 01db 0E       		.uleb128 0xe
 2675 01dc 3A       		.uleb128 0x3a
 2676 01dd 0B       		.uleb128 0xb
 2677 01de 3B       		.uleb128 0x3b
 2678 01df 0B       		.uleb128 0xb
 2679 01e0 49       		.uleb128 0x49
 2680 01e1 13       		.uleb128 0x13
 2681 01e2 3F       		.uleb128 0x3f
 2682 01e3 19       		.uleb128 0x19
 2683 01e4 02       		.uleb128 0x2
 2684 01e5 18       		.uleb128 0x18
 2685 01e6 00       		.byte	0
 2686 01e7 00       		.byte	0
 2687 01e8 24       		.uleb128 0x24
 2688 01e9 34       		.uleb128 0x34
 2689 01ea 00       		.byte	0
 2690 01eb 03       		.uleb128 0x3
 2691 01ec 0E       		.uleb128 0xe
 2692 01ed 3A       		.uleb128 0x3a
 2693 01ee 0B       		.uleb128 0xb
 2694 01ef 3B       		.uleb128 0x3b
 2695 01f0 0B       		.uleb128 0xb
 2696 01f1 49       		.uleb128 0x49
ARM GAS  C:\Users\TTSS\AppData\Local\Temp\ccwoAHLq.s 			page 80


 2697 01f2 13       		.uleb128 0x13
 2698 01f3 3F       		.uleb128 0x3f
 2699 01f4 19       		.uleb128 0x19
 2700 01f5 3C       		.uleb128 0x3c
 2701 01f6 19       		.uleb128 0x19
 2702 01f7 00       		.byte	0
 2703 01f8 00       		.byte	0
 2704 01f9 00       		.byte	0
 2705              		.section	.debug_aranges,"",%progbits
 2706 0000 5C000000 		.4byte	0x5c
 2707 0004 0200     		.2byte	0x2
 2708 0006 00000000 		.4byte	.Ldebug_info0
 2709 000a 04       		.byte	0x4
 2710 000b 00       		.byte	0
 2711 000c 0000     		.2byte	0
 2712 000e 0000     		.2byte	0
 2713 0010 00000000 		.4byte	.LFB2
 2714 0014 70000000 		.4byte	.LFE2-.LFB2
 2715 0018 00000000 		.4byte	.LFB3
 2716 001c 0E000000 		.4byte	.LFE3-.LFB3
 2717 0020 00000000 		.4byte	.LFB4
 2718 0024 18000000 		.4byte	.LFE4-.LFB4
 2719 0028 00000000 		.4byte	.LFB5
 2720 002c 0E000000 		.4byte	.LFE5-.LFB5
 2721 0030 00000000 		.4byte	.LFB6
 2722 0034 08000000 		.4byte	.LFE6-.LFB6
 2723 0038 00000000 		.4byte	.LFB7
 2724 003c 60000000 		.4byte	.LFE7-.LFB7
 2725 0040 00000000 		.4byte	.LFB8
 2726 0044 12000000 		.4byte	.LFE8-.LFB8
 2727 0048 00000000 		.4byte	.LFB9
 2728 004c 0E000000 		.4byte	.LFE9-.LFB9
 2729 0050 00000000 		.4byte	.LFB10
 2730 0054 A8020000 		.4byte	.LFE10-.LFB10
 2731 0058 00000000 		.4byte	0
 2732 005c 00000000 		.4byte	0
 2733              		.section	.debug_ranges,"",%progbits
 2734              	.Ldebug_ranges0:
 2735 0000 00000000 		.4byte	.LFB2
 2736 0004 70000000 		.4byte	.LFE2
 2737 0008 00000000 		.4byte	.LFB3
 2738 000c 0E000000 		.4byte	.LFE3
 2739 0010 00000000 		.4byte	.LFB4
 2740 0014 18000000 		.4byte	.LFE4
 2741 0018 00000000 		.4byte	.LFB5
 2742 001c 0E000000 		.4byte	.LFE5
 2743 0020 00000000 		.4byte	.LFB6
 2744 0024 08000000 		.4byte	.LFE6
 2745 0028 00000000 		.4byte	.LFB7
 2746 002c 60000000 		.4byte	.LFE7
 2747 0030 00000000 		.4byte	.LFB8
 2748 0034 12000000 		.4byte	.LFE8
 2749 0038 00000000 		.4byte	.LFB9
 2750 003c 0E000000 		.4byte	.LFE9
 2751 0040 00000000 		.4byte	.LFB10
 2752 0044 A8020000 		.4byte	.LFE10
 2753 0048 00000000 		.4byte	0
ARM GAS  C:\Users\TTSS\AppData\Local\Temp\ccwoAHLq.s 			page 81


 2754 004c 00000000 		.4byte	0
 2755              		.section	.debug_line,"",%progbits
 2756              	.Ldebug_line0:
 2757 0000 08020000 		.section	.debug_str,"MS",%progbits,1
 2757      0200DE00 
 2757      00000201 
 2757      FB0E0D00 
 2757      01010101 
 2758              	.LASF67:
 2759 0000 4359424C 		.ascii	"CYBLE_EVT_L2CAP_CBFC_RX_CREDIT_IND\000"
 2759      455F4556 
 2759      545F4C32 
 2759      4341505F 
 2759      43424643 
 2760              	.LASF21:
 2761 0023 4359424C 		.ascii	"CYBLE_EVT_STACK_BUSY_STATUS\000"
 2761      455F4556 
 2761      545F5354 
 2761      41434B5F 
 2761      42555359 
 2762              	.LASF158:
 2763 003f 4359424C 		.ascii	"CYBLE_GATT_SIGNED_WRITE_CMD\000"
 2763      455F4741 
 2763      54545F53 
 2763      49474E45 
 2763      445F5752 
 2764              	.LASF210:
 2765 005b 4359424C 		.ascii	"CYBLE_STATE_STOPPED\000"
 2765      455F5354 
 2765      4154455F 
 2765      53544F50 
 2765      50454400 
 2766              	.LASF66:
 2767 006f 4359424C 		.ascii	"CYBLE_EVT_L2CAP_CBFC_DATA_READ\000"
 2767      455F4556 
 2767      545F4C32 
 2767      4341505F 
 2767      43424643 
 2768              	.LASF196:
 2769 008e 4359424C 		.ascii	"CYBLE_CONN_HANDLE_T\000"
 2769      455F434F 
 2769      4E4E5F48 
 2769      414E444C 
 2769      455F5400 
 2770              	.LASF202:
 2771 00a2 636F6E6E 		.ascii	"connHandle\000"
 2771      48616E64 
 2771      6C6500
 2772              	.LASF166:
 2773 00ad 4359424C 		.ascii	"CYBLE_GATT_ERR_REQUEST_NOT_SUPPORTED\000"
 2773      455F4741 
 2773      54545F45 
 2773      52525F52 
 2773      45515545 
 2774              	.LASF161:
 2775 00d2 4359424C 		.ascii	"CYBLE_GATT_ERR_INVALID_HANDLE\000"
 2775      455F4741 
ARM GAS  C:\Users\TTSS\AppData\Local\Temp\ccwoAHLq.s 			page 82


 2775      54545F45 
 2775      52525F49 
 2775      4E56414C 
 2776              	.LASF32:
 2777 00f0 4359424C 		.ascii	"CYBLE_EVT_GAP_CONNECTION_UPDATE_COMPLETE\000"
 2777      455F4556 
 2777      545F4741 
 2777      505F434F 
 2777      4E4E4543 
 2778              	.LASF65:
 2779 0119 4359424C 		.ascii	"CYBLE_EVT_L2CAP_CBFC_DISCONN_CNF\000"
 2779      455F4556 
 2779      545F4C32 
 2779      4341505F 
 2779      43424643 
 2780              	.LASF224:
 2781 013a 73666C61 		.ascii	"sflashDeviceAddress\000"
 2781      73684465 
 2781      76696365 
 2781      41646472 
 2781      65737300 
 2782              	.LASF115:
 2783 014e 4359424C 		.ascii	"CYBLE_GAP_AUTH_ERROR_UNSPECIFIED_REASON\000"
 2783      455F4741 
 2783      505F4155 
 2783      54485F45 
 2783      52524F52 
 2784              	.LASF113:
 2785 0176 4359424C 		.ascii	"CYBLE_GAP_AUTH_ERROR_INSUFFICIENT_ENCRYPTION_KEY_SI"
 2785      455F4741 
 2785      505F4155 
 2785      54485F45 
 2785      52524F52 
 2786 01a9 5A4500   		.ascii	"ZE\000"
 2787              	.LASF105:
 2788 01ac 4359424C 		.ascii	"CYBLE_GAP_IOCAP_NOINPUT_NOOUTPUT\000"
 2788      455F4741 
 2788      505F494F 
 2788      4341505F 
 2788      4E4F494E 
 2789              	.LASF46:
 2790 01cd 4359424C 		.ascii	"CYBLE_EVT_GATTC_READ_MULTI_RSP\000"
 2790      455F4556 
 2790      545F4741 
 2790      5454435F 
 2790      52454144 
 2791              	.LASF51:
 2792 01ec 4359424C 		.ascii	"CYBLE_EVT_GATTS_EXEC_WRITE_REQ\000"
 2792      455F4556 
 2792      545F4741 
 2792      5454535F 
 2792      45584543 
 2793              	.LASF142:
 2794 020b 4359424C 		.ascii	"CYBLE_GATT_READ_BLOB_REQ\000"
 2794      455F4741 
 2794      54545F52 
 2794      4541445F 
ARM GAS  C:\Users\TTSS\AppData\Local\Temp\ccwoAHLq.s 			page 83


 2794      424C4F42 
 2795              	.LASF155:
 2796 0224 4359424C 		.ascii	"CYBLE_GATT_HANDLE_VALUE_NTF\000"
 2796      455F4741 
 2796      54545F48 
 2796      414E444C 
 2796      455F5641 
 2797              	.LASF81:
 2798 0240 4359424C 		.ascii	"CYBLE_LL_PWR_LVL_MAX\000"
 2798      455F4C4C 
 2798      5F505752 
 2798      5F4C564C 
 2798      5F4D4158 
 2799              	.LASF91:
 2800 0255 74797065 		.ascii	"type\000"
 2800      00
 2801              	.LASF103:
 2802 025a 4359424C 		.ascii	"CYBLE_GAP_IOCAP_DISPLAY_YESNO\000"
 2802      455F4741 
 2802      505F494F 
 2802      4341505F 
 2802      44495350 
 2803              	.LASF18:
 2804 0278 4359424C 		.ascii	"CYBLE_EVT_TIMEOUT\000"
 2804      455F4556 
 2804      545F5449 
 2804      4D454F55 
 2804      5400
 2805              	.LASF4:
 2806 028a 6C6F6E67 		.ascii	"long int\000"
 2806      20696E74 
 2806      00
 2807              	.LASF122:
 2808 0293 626F6E64 		.ascii	"bonding\000"
 2808      696E6700 
 2809              	.LASF107:
 2810 029b 4359424C 		.ascii	"CYBLE_GAP_AUTH_ERROR_NONE\000"
 2810      455F4741 
 2810      505F4155 
 2810      54485F45 
 2810      52524F52 
 2811              	.LASF136:
 2812 02b5 4359424C 		.ascii	"CYBLE_GATT_FIND_BY_TYPE_VALUE_REQ\000"
 2812      455F4741 
 2812      54545F46 
 2812      494E445F 
 2812      42595F54 
 2813              	.LASF140:
 2814 02d7 4359424C 		.ascii	"CYBLE_GATT_READ_REQ\000"
 2814      455F4741 
 2814      54545F52 
 2814      4541445F 
 2814      52455100 
 2815              	.LASF198:
 2816 02eb 4359424C 		.ascii	"CYBLE_GATT_VALUE_T\000"
 2816      455F4741 
 2816      54545F56 
ARM GAS  C:\Users\TTSS\AppData\Local\Temp\ccwoAHLq.s 			page 84


 2816      414C5545 
 2816      5F5400
 2817              	.LASF20:
 2818 02fe 4359424C 		.ascii	"CYBLE_EVT_HCI_STATUS\000"
 2818      455F4556 
 2818      545F4843 
 2818      495F5354 
 2818      41545553 
 2819              	.LASF186:
 2820 0313 4359424C 		.ascii	"CYBLE_GATTS_ERR_OPERATION_FAILED\000"
 2820      455F4741 
 2820      5454535F 
 2820      4552525F 
 2820      4F504552 
 2821              	.LASF241:
 2822 0334 6379426C 		.ascii	"cyBle_busyStatus\000"
 2822      655F6275 
 2822      73795374 
 2822      61747573 
 2822      00
 2823              	.LASF213:
 2824 0345 4359424C 		.ascii	"CYBLE_STATE_ADVERTISING\000"
 2824      455F5354 
 2824      4154455F 
 2824      41445645 
 2824      52544953 
 2825              	.LASF92:
 2826 035d 4359424C 		.ascii	"CYBLE_GAP_BD_ADDR_T\000"
 2826      455F4741 
 2826      505F4244 
 2826      5F414444 
 2826      525F5400 
 2827              	.LASF59:
 2828 0371 4359424C 		.ascii	"CYBLE_EVT_L2CAP_CONN_PARAM_UPDATE_REQ\000"
 2828      455F4556 
 2828      545F4C32 
 2828      4341505F 
 2828      434F4E4E 
 2829              	.LASF31:
 2830 0397 4359424C 		.ascii	"CYBLE_EVT_GAP_ENCRYPT_CHANGE\000"
 2830      455F4556 
 2830      545F4741 
 2830      505F454E 
 2830      43525950 
 2831              	.LASF183:
 2832 03b4 4359424C 		.ascii	"CYBLE_GATT_ERR_OP_CODE_NOT_SUPPORTED\000"
 2832      455F4741 
 2832      54545F45 
 2832      52525F4F 
 2832      505F434F 
 2833              	.LASF165:
 2834 03d9 4359424C 		.ascii	"CYBLE_GATT_ERR_INSUFFICIENT_AUTHENTICATION\000"
 2834      455F4741 
 2834      54545F45 
 2834      52525F49 
 2834      4E535546 
 2835              	.LASF102:
ARM GAS  C:\Users\TTSS\AppData\Local\Temp\ccwoAHLq.s 			page 85


 2836 0404 4359424C 		.ascii	"CYBLE_GAP_IOCAP_DISPLAY_ONLY\000"
 2836      455F4741 
 2836      505F494F 
 2836      4341505F 
 2836      44495350 
 2837              	.LASF150:
 2838 0421 4359424C 		.ascii	"CYBLE_GATT_WRITE_CMD\000"
 2838      455F4741 
 2838      54545F57 
 2838      52495445 
 2838      5F434D44 
 2839              	.LASF6:
 2840 0436 6C6F6E67 		.ascii	"long long int\000"
 2840      206C6F6E 
 2840      6720696E 
 2840      7400
 2841              	.LASF0:
 2842 0444 7369676E 		.ascii	"signed char\000"
 2842      65642063 
 2842      68617200 
 2843              	.LASF17:
 2844 0450 4359424C 		.ascii	"CYBLE_EVT_STACK_ON\000"
 2844      455F4556 
 2844      545F5354 
 2844      41434B5F 
 2844      4F4E00
 2845              	.LASF7:
 2846 0463 6C6F6E67 		.ascii	"long long unsigned int\000"
 2846      206C6F6E 
 2846      6720756E 
 2846      7369676E 
 2846      65642069 
 2847              	.LASF33:
 2848 047a 4359424C 		.ascii	"CYBLE_EVT_GAPC_SCAN_START_STOP\000"
 2848      455F4556 
 2848      545F4741 
 2848      50435F53 
 2848      43414E5F 
 2849              	.LASF156:
 2850 0499 4359424C 		.ascii	"CYBLE_GATT_HANDLE_VALUE_IND\000"
 2850      455F4741 
 2850      54545F48 
 2850      414E444C 
 2850      455F5641 
 2851              	.LASF197:
 2852 04b5 61637475 		.ascii	"actualLen\000"
 2852      616C4C65 
 2852      6E00
 2853              	.LASF23:
 2854 04bf 4359424C 		.ascii	"CYBLE_EVT_GAP_AUTH_REQ\000"
 2854      455F4556 
 2854      545F4741 
 2854      505F4155 
 2854      54485F52 
 2855              	.LASF44:
 2856 04d6 4359424C 		.ascii	"CYBLE_EVT_GATTC_READ_RSP\000"
 2856      455F4556 
ARM GAS  C:\Users\TTSS\AppData\Local\Temp\ccwoAHLq.s 			page 86


 2856      545F4741 
 2856      5454435F 
 2856      52454144 
 2857              	.LASF164:
 2858 04ef 4359424C 		.ascii	"CYBLE_GATT_ERR_INVALID_PDU\000"
 2858      455F4741 
 2858      54545F45 
 2858      52525F49 
 2858      4E56414C 
 2859              	.LASF112:
 2860 050a 4359424C 		.ascii	"CYBLE_GAP_AUTH_ERROR_PAIRING_NOT_SUPPORTED\000"
 2860      455F4741 
 2860      505F4155 
 2860      54485F45 
 2860      52524F52 
 2861              	.LASF245:
 2862 0535 433A5C55 		.ascii	"C:\\Users\\TTSS\\Dropbox\\Projects\\hackAIR\\AirQua"
 2862      73657273 
 2862      5C545453 
 2862      535C4472 
 2862      6F70626F 
 2863 0562 6C697479 		.ascii	"lityBeacons\\SerialLaserSensor.cydsn\000"
 2863      42656163 
 2863      6F6E735C 
 2863      53657269 
 2863      616C4C61 
 2864              	.LASF205:
 2865 0586 6572726F 		.ascii	"errorCode\000"
 2865      72436F64 
 2865      6500
 2866              	.LASF49:
 2867 0590 4359424C 		.ascii	"CYBLE_EVT_GATTS_WRITE_CMD_REQ\000"
 2867      455F4556 
 2867      545F4741 
 2867      5454535F 
 2867      57524954 
 2868              	.LASF145:
 2869 05ae 4359424C 		.ascii	"CYBLE_GATT_READ_MULTIPLE_RSP\000"
 2869      455F4741 
 2869      54545F52 
 2869      4541445F 
 2869      4D554C54 
 2870              	.LASF236:
 2871 05cb 6379426C 		.ascii	"cyBle_authInfo\000"
 2871      655F6175 
 2871      7468496E 
 2871      666F00
 2872              	.LASF123:
 2873 05da 656B6579 		.ascii	"ekeySize\000"
 2873      53697A65 
 2873      00
 2874              	.LASF214:
 2875 05e3 4359424C 		.ascii	"CYBLE_STATE_DISCONNECTED\000"
 2875      455F5354 
 2875      4154455F 
 2875      44495343 
 2875      4F4E4E45 
ARM GAS  C:\Users\TTSS\AppData\Local\Temp\ccwoAHLq.s 			page 87


 2876              	.LASF28:
 2877 05fc 4359424C 		.ascii	"CYBLE_EVT_GAPP_ADVERTISEMENT_START_STOP\000"
 2877      455F4556 
 2877      545F4741 
 2877      50505F41 
 2877      44564552 
 2878              	.LASF124:
 2879 0624 61757468 		.ascii	"authErr\000"
 2879      45727200 
 2880              	.LASF152:
 2881 062c 4359424C 		.ascii	"CYBLE_GATT_PREPARE_WRITE_RSP\000"
 2881      455F4741 
 2881      54545F50 
 2881      52455041 
 2881      52455F57 
 2882              	.LASF9:
 2883 0649 75696E74 		.ascii	"uint8\000"
 2883      3800
 2884              	.LASF118:
 2885 064f 4359424C 		.ascii	"CYBLE_GAP_AUTH_ERROR_AUTHENTICATION_TIMEOUT\000"
 2885      455F4741 
 2885      505F4155 
 2885      54485F45 
 2885      52524F52 
 2886              	.LASF97:
 2887 067b 4359424C 		.ascii	"CYBLE_TO_REASON_CODE_T\000"
 2887      455F544F 
 2887      5F524541 
 2887      534F4E5F 
 2887      434F4445 
 2888              	.LASF52:
 2889 0692 4359424C 		.ascii	"CYBLE_EVT_GATTC_EXEC_WRITE_RSP\000"
 2889      455F4556 
 2889      545F4741 
 2889      5454435F 
 2889      45584543 
 2890              	.LASF13:
 2891 06b1 646F7562 		.ascii	"double\000"
 2891      6C6500
 2892              	.LASF64:
 2893 06b8 4359424C 		.ascii	"CYBLE_EVT_L2CAP_CBFC_DISCONN_IND\000"
 2893      455F4556 
 2893      545F4C32 
 2893      4341505F 
 2893      43424643 
 2894              	.LASF149:
 2895 06d9 4359424C 		.ascii	"CYBLE_GATT_WRITE_RSP\000"
 2895      455F4741 
 2895      54545F57 
 2895      52495445 
 2895      5F525350 
 2896              	.LASF176:
 2897 06ee 4359424C 		.ascii	"CYBLE_GATT_ERR_UNSUPPORTED_GROUP_TYPE\000"
 2897      455F4741 
 2897      54545F45 
 2897      52525F55 
 2897      4E535550 
ARM GAS  C:\Users\TTSS\AppData\Local\Temp\ccwoAHLq.s 			page 88


 2898              	.LASF235:
 2899 0714 6379426C 		.ascii	"cyBle_sflashDeviceAddress\000"
 2899      655F7366 
 2899      6C617368 
 2899      44657669 
 2899      63654164 
 2900              	.LASF120:
 2901 072e 4359424C 		.ascii	"CYBLE_GAP_AUTH_FAILED_REASON_T\000"
 2901      455F4741 
 2901      505F4155 
 2901      54485F46 
 2901      41494C45 
 2902              	.LASF157:
 2903 074d 4359424C 		.ascii	"CYBLE_GATT_HANDLE_VALUE_CNF\000"
 2903      455F4741 
 2903      54545F48 
 2903      414E444C 
 2903      455F5641 
 2904              	.LASF229:
 2905 0769 6576656E 		.ascii	"eventCode\000"
 2905      74436F64 
 2905      6500
 2906              	.LASF133:
 2907 0773 4359424C 		.ascii	"CYBLE_GATT_XCHNG_MTU_RSP\000"
 2907      455F4741 
 2907      54545F58 
 2907      43484E47 
 2907      5F4D5455 
 2908              	.LASF121:
 2909 078c 73656375 		.ascii	"security\000"
 2909      72697479 
 2909      00
 2910              	.LASF11:
 2911 0795 75696E74 		.ascii	"uint32\000"
 2911      333200
 2912              	.LASF69:
 2913 079c 4359424C 		.ascii	"CYBLE_EVT_L2CAP_CBFC_DATA_WRITE_IND\000"
 2913      455F4556 
 2913      545F4C32 
 2913      4341505F 
 2913      43424643 
 2914              	.LASF95:
 2915 07c0 4359424C 		.ascii	"CYBLE_GATT_RSP_TO\000"
 2915      455F4741 
 2915      54545F52 
 2915      53505F54 
 2915      4F00
 2916              	.LASF116:
 2917 07d2 4359424C 		.ascii	"CYBLE_GAP_AUTH_ERROR_REPEATED_ATTEMPTS\000"
 2917      455F4741 
 2917      505F4155 
 2917      54485F45 
 2917      52524F52 
 2918              	.LASF163:
 2919 07f9 4359424C 		.ascii	"CYBLE_GATT_ERR_WRITE_NOT_PERMITTED\000"
 2919      455F4741 
 2919      54545F45 
ARM GAS  C:\Users\TTSS\AppData\Local\Temp\ccwoAHLq.s 			page 89


 2919      52525F57 
 2919      52495445 
 2920              	.LASF72:
 2921 081c 4359424C 		.ascii	"CYBLE_EVT_MAX\000"
 2921      455F4556 
 2921      545F4D41 
 2921      5800
 2922              	.LASF160:
 2923 082a 4359424C 		.ascii	"CYBLE_GATT_ERR_NONE\000"
 2923      455F4741 
 2923      54545F45 
 2923      52525F4E 
 2923      4F4E4500 
 2924              	.LASF82:
 2925 083e 4359424C 		.ascii	"CYBLE_BLESS_PWR_LVL_T\000"
 2925      455F424C 
 2925      4553535F 
 2925      5057525F 
 2925      4C564C5F 
 2926              	.LASF162:
 2927 0854 4359424C 		.ascii	"CYBLE_GATT_ERR_READ_NOT_PERMITTED\000"
 2927      455F4741 
 2927      54545F45 
 2927      52525F52 
 2927      4541445F 
 2928              	.LASF135:
 2929 0876 4359424C 		.ascii	"CYBLE_GATT_FIND_INFO_RSP\000"
 2929      455F4741 
 2929      54545F46 
 2929      494E445F 
 2929      494E464F 
 2930              	.LASF218:
 2931 088f 4379426C 		.ascii	"CyBle_WriteReqHandler\000"
 2931      655F5772 
 2931      69746552 
 2931      65714861 
 2931      6E646C65 
 2932              	.LASF200:
 2933 08a5 61747472 		.ascii	"attrHandle\000"
 2933      48616E64 
 2933      6C6500
 2934              	.LASF188:
 2935 08b0 4359424C 		.ascii	"CYBLE_GATT_ERR_ANS_COMMAND_NOT_SUPPORTED\000"
 2935      455F4741 
 2935      54545F45 
 2935      52525F41 
 2935      4E535F43 
 2936              	.LASF199:
 2937 08d9 76616C75 		.ascii	"value\000"
 2937      6500
 2938              	.LASF57:
 2939 08df 4359424C 		.ascii	"CYBLE_EVT_GATTC_STOP_CMD_COMPLETE\000"
 2939      455F4556 
 2939      545F4741 
 2939      5454435F 
 2939      53544F50 
 2940              	.LASF130:
ARM GAS  C:\Users\TTSS\AppData\Local\Temp\ccwoAHLq.s 			page 90


 2941 0901 4359424C 		.ascii	"CYBLE_GAP_CONN_PARAM_UPDATED_IN_CONTROLLER_T\000"
 2941      455F4741 
 2941      505F434F 
 2941      4E4E5F50 
 2941      4152414D 
 2942              	.LASF247:
 2943 092e 4379426C 		.ascii	"CyBle_EventHandler\000"
 2943      655F4576 
 2943      656E7448 
 2943      616E646C 
 2943      657200
 2944              	.LASF71:
 2945 0941 4359424C 		.ascii	"CYBLE_EVT_LE_PING_AUTH_TIMEOUT\000"
 2945      455F4556 
 2945      545F4C45 
 2945      5F50494E 
 2945      475F4155 
 2946              	.LASF159:
 2947 0960 4359424C 		.ascii	"CYBLE_GATT_UNKNOWN_PDU_IND\000"
 2947      455F4741 
 2947      54545F55 
 2947      4E4B4E4F 
 2947      574E5F50 
 2948              	.LASF187:
 2949 097b 4359424C 		.ascii	"CYBLE_GATT_ERR_INVALID_CRC\000"
 2949      455F4741 
 2949      54545F45 
 2949      52525F49 
 2949      4E56414C 
 2950              	.LASF182:
 2951 0996 4359424C 		.ascii	"CYBLE_GATTS_ERR_PROCEDURE_ALREADY_IN_PROGRESS\000"
 2951      455F4741 
 2951      5454535F 
 2951      4552525F 
 2951      50524F43 
 2952              	.LASF221:
 2953 09c4 4379426C 		.ascii	"CyBle_TimeOutEventHandler\000"
 2953      655F5469 
 2953      6D654F75 
 2953      74457665 
 2953      6E744861 
 2954              	.LASF5:
 2955 09de 6C6F6E67 		.ascii	"long unsigned int\000"
 2955      20756E73 
 2955      69676E65 
 2955      6420696E 
 2955      7400
 2956              	.LASF170:
 2957 09f0 4359424C 		.ascii	"CYBLE_GATT_ERR_ATTRIBUTE_NOT_FOUND\000"
 2957      455F4741 
 2957      54545F45 
 2957      52525F41 
 2957      54545249 
 2958              	.LASF144:
 2959 0a13 4359424C 		.ascii	"CYBLE_GATT_READ_MULTIPLE_REQ\000"
 2959      455F4741 
 2959      54545F52 
ARM GAS  C:\Users\TTSS\AppData\Local\Temp\ccwoAHLq.s 			page 91


 2959      4541445F 
 2959      4D554C54 
 2960              	.LASF76:
 2961 0a30 4359424C 		.ascii	"CYBLE_LL_PWR_LVL_NEG_3_DBM\000"
 2961      455F4C4C 
 2961      5F505752 
 2961      5F4C564C 
 2961      5F4E4547 
 2962              	.LASF39:
 2963 0a4b 4359424C 		.ascii	"CYBLE_EVT_GATTC_XCHNG_MTU_RSP\000"
 2963      455F4556 
 2963      545F4741 
 2963      5454435F 
 2963      5843484E 
 2964              	.LASF56:
 2965 0a69 4359424C 		.ascii	"CYBLE_EVT_GATTS_DATA_SIGNED_CMD_REQ\000"
 2965      455F4556 
 2965      545F4741 
 2965      5454535F 
 2965      44415441 
 2966              	.LASF129:
 2967 0a8d 73757065 		.ascii	"supervisionTO\000"
 2967      72766973 
 2967      696F6E54 
 2967      4F00
 2968              	.LASF151:
 2969 0a9b 4359424C 		.ascii	"CYBLE_GATT_PREPARE_WRITE_REQ\000"
 2969      455F4741 
 2969      54545F50 
 2969      52455041 
 2969      52455F57 
 2970              	.LASF237:
 2971 0ab8 6379426C 		.ascii	"cyBle_attValuesCCCD\000"
 2971      655F6174 
 2971      7456616C 
 2971      75657343 
 2971      43434400 
 2972              	.LASF96:
 2973 0acc 4359424C 		.ascii	"CYBLE_GENERIC_TO\000"
 2973      455F4745 
 2973      4E455249 
 2973      435F544F 
 2973      00
 2974              	.LASF203:
 2975 0add 4359424C 		.ascii	"CYBLE_GATT_XCHG_MTU_PARAM_T\000"
 2975      455F4741 
 2975      54545F58 
 2975      4348475F 
 2975      4D54555F 
 2976              	.LASF171:
 2977 0af9 4359424C 		.ascii	"CYBLE_GATT_ERR_ATTRIBUTE_NOT_LONG\000"
 2977      455F4741 
 2977      54545F45 
 2977      52525F41 
 2977      54545249 
 2978              	.LASF16:
 2979 0b1b 4359424C 		.ascii	"CYBLE_EVT_HOST_INVALID\000"
ARM GAS  C:\Users\TTSS\AppData\Local\Temp\ccwoAHLq.s 			page 92


 2979      455F4556 
 2979      545F484F 
 2979      53545F49 
 2979      4E56414C 
 2980              	.LASF114:
 2981 0b32 4359424C 		.ascii	"CYBLE_GAP_AUTH_ERROR_COMMAND_NOT_SUPPORTED\000"
 2981      455F4741 
 2981      505F4155 
 2981      54485F45 
 2981      52524F52 
 2982              	.LASF109:
 2983 0b5d 4359424C 		.ascii	"CYBLE_GAP_AUTH_ERROR_OOB_DATA_NOT_AVAILABLE\000"
 2983      455F4741 
 2983      505F4155 
 2983      54485F45 
 2983      52524F52 
 2984              	.LASF148:
 2985 0b89 4359424C 		.ascii	"CYBLE_GATT_WRITE_REQ\000"
 2985      455F4741 
 2985      54545F57 
 2985      52495445 
 2985      5F524551 
 2986              	.LASF87:
 2987 0b9e 626C6550 		.ascii	"blePwrLevelInDbm\000"
 2987      77724C65 
 2987      76656C49 
 2987      6E44626D 
 2987      00
 2988              	.LASF90:
 2989 0baf 62644164 		.ascii	"bdAddr\000"
 2989      647200
 2990              	.LASF172:
 2991 0bb6 4359424C 		.ascii	"CYBLE_GATT_ERR_INSUFFICIENT_ENC_KEY_SIZE\000"
 2991      455F4741 
 2991      54545F45 
 2991      52525F49 
 2991      4E535546 
 2992              	.LASF24:
 2993 0bdf 4359424C 		.ascii	"CYBLE_EVT_GAP_PASSKEY_ENTRY_REQUEST\000"
 2993      455F4556 
 2993      545F4741 
 2993      505F5041 
 2993      53534B45 
 2994              	.LASF29:
 2995 0c03 4359424C 		.ascii	"CYBLE_EVT_GAP_DEVICE_CONNECTED\000"
 2995      455F4556 
 2995      545F4741 
 2995      505F4445 
 2995      56494345 
 2996              	.LASF217:
 2997 0c22 6572725F 		.ascii	"err_param\000"
 2997      70617261 
 2997      6D00
 2998              	.LASF94:
 2999 0c2c 4359424C 		.ascii	"CYBLE_GAP_SCAN_TO\000"
 2999      455F4741 
 2999      505F5343 
ARM GAS  C:\Users\TTSS\AppData\Local\Temp\ccwoAHLq.s 			page 93


 2999      414E5F54 
 2999      4F00
 3000              	.LASF47:
 3001 0c3e 4359424C 		.ascii	"CYBLE_EVT_GATTS_WRITE_REQ\000"
 3001      455F4556 
 3001      545F4741 
 3001      5454535F 
 3001      57524954 
 3002              	.LASF192:
 3003 0c58 4359424C 		.ascii	"CYBLE_GATT_ERR_CODE_T\000"
 3003      455F4741 
 3003      54545F45 
 3003      52525F43 
 3003      4F44455F 
 3004              	.LASF219:
 3005 0c6e 4379426C 		.ascii	"CyBle_ValueConfirmation\000"
 3005      655F5661 
 3005      6C756543 
 3005      6F6E6669 
 3005      726D6174 
 3006              	.LASF181:
 3007 0c86 4359424C 		.ascii	"CYBLE_GATT_ERR_HTS_OUT_OF_RANGE\000"
 3007      455F4741 
 3007      54545F45 
 3007      52525F48 
 3007      54535F4F 
 3008              	.LASF239:
 3009 0ca6 6379426C 		.ascii	"cyBle_state\000"
 3009      655F7374 
 3009      61746500 
 3010              	.LASF73:
 3011 0cb2 4359424C 		.ascii	"CYBLE_LL_PWR_LVL_NEG_18_DBM\000"
 3011      455F4C4C 
 3011      5F505752 
 3011      5F4C564C 
 3011      5F4E4547 
 3012              	.LASF134:
 3013 0cce 4359424C 		.ascii	"CYBLE_GATT_FIND_INFO_REQ\000"
 3013      455F4741 
 3013      54545F46 
 3013      494E445F 
 3013      494E464F 
 3014              	.LASF36:
 3015 0ce7 4359424C 		.ascii	"CYBLE_EVT_GATT_CONNECT_IND\000"
 3015      455F4556 
 3015      545F4741 
 3015      54545F43 
 3015      4F4E4E45 
 3016              	.LASF80:
 3017 0d02 4359424C 		.ascii	"CYBLE_LL_PWR_LVL_3_DBM\000"
 3017      455F4C4C 
 3017      5F505752 
 3017      5F4C564C 
 3017      5F335F44 
 3018              	.LASF146:
 3019 0d19 4359424C 		.ascii	"CYBLE_GATT_READ_BY_GROUP_REQ\000"
 3019      455F4741 
ARM GAS  C:\Users\TTSS\AppData\Local\Temp\ccwoAHLq.s 			page 94


 3019      54545F52 
 3019      4541445F 
 3019      42595F47 
 3020              	.LASF195:
 3021 0d36 61747449 		.ascii	"attId\000"
 3021      6400
 3022              	.LASF61:
 3023 0d3c 4359424C 		.ascii	"CYBLE_EVT_L2CAP_COMMAND_REJ\000"
 3023      455F4556 
 3023      545F4C32 
 3023      4341505F 
 3023      434F4D4D 
 3024              	.LASF180:
 3025 0d58 4359424C 		.ascii	"CYBLE_GATT_ERR_CPS_INAPPROPRIATE_CONNECTION_PARAMET"
 3025      455F4741 
 3025      54545F45 
 3025      52525F43 
 3025      50535F49 
 3026 0d8b 45525300 		.ascii	"ERS\000"
 3027              	.LASF22:
 3028 0d8f 4359424C 		.ascii	"CYBLE_EVT_GAPC_SCAN_PROGRESS_RESULT\000"
 3028      455F4556 
 3028      545F4741 
 3028      50435F53 
 3028      43414E5F 
 3029              	.LASF233:
 3030 0db3 6379426C 		.ascii	"cyBle_eventHandlerFlag\000"
 3030      655F6576 
 3030      656E7448 
 3030      616E646C 
 3030      6572466C 
 3031              	.LASF206:
 3032 0dca 4359424C 		.ascii	"CYBLE_GATTS_ERR_PARAM_T\000"
 3032      455F4741 
 3032      5454535F 
 3032      4552525F 
 3032      50415241 
 3033              	.LASF83:
 3034 0de2 4359424C 		.ascii	"CYBLE_LL_ADV_CH_TYPE\000"
 3034      455F4C4C 
 3034      5F414456 
 3034      5F43485F 
 3034      54595045 
 3035              	.LASF62:
 3036 0df7 4359424C 		.ascii	"CYBLE_EVT_L2CAP_CBFC_CONN_IND\000"
 3036      455F4556 
 3036      545F4C32 
 3036      4341505F 
 3036      43424643 
 3037              	.LASF41:
 3038 0e15 4359424C 		.ascii	"CYBLE_EVT_GATTC_READ_BY_TYPE_RSP\000"
 3038      455F4556 
 3038      545F4741 
 3038      5454435F 
 3038      52454144 
 3039              	.LASF246:
 3040 0e36 4379426C 		.ascii	"CyBle_IsDeviceAddressValid\000"
ARM GAS  C:\Users\TTSS\AppData\Local\Temp\ccwoAHLq.s 			page 95


 3040      655F4973 
 3040      44657669 
 3040      63654164 
 3040      64726573 
 3041              	.LASF93:
 3042 0e51 4359424C 		.ascii	"CYBLE_GAP_ADV_MODE_TO\000"
 3042      455F4741 
 3042      505F4144 
 3042      565F4D4F 
 3042      44455F54 
 3043              	.LASF15:
 3044 0e67 73697A65 		.ascii	"sizetype\000"
 3044      74797065 
 3044      00
 3045              	.LASF177:
 3046 0e70 4359424C 		.ascii	"CYBLE_GATT_ERR_INSUFFICIENT_RESOURCE\000"
 3046      455F4741 
 3046      54545F45 
 3046      52525F49 
 3046      4E535546 
 3047              	.LASF208:
 3048 0e95 4359424C 		.ascii	"CYBLE_GATTS_WRITE_REQ_PARAM_T\000"
 3048      455F4741 
 3048      5454535F 
 3048      57524954 
 3048      455F5245 
 3049              	.LASF211:
 3050 0eb3 4359424C 		.ascii	"CYBLE_STATE_INITIALIZING\000"
 3050      455F5354 
 3050      4154455F 
 3050      494E4954 
 3050      49414C49 
 3051              	.LASF153:
 3052 0ecc 4359424C 		.ascii	"CYBLE_GATT_EXECUTE_WRITE_REQ\000"
 3052      455F4741 
 3052      54545F45 
 3052      58454355 
 3052      54455F57 
 3053              	.LASF27:
 3054 0ee9 4359424C 		.ascii	"CYBLE_EVT_GAP_AUTH_FAILED\000"
 3054      455F4556 
 3054      545F4741 
 3054      505F4155 
 3054      54485F46 
 3055              	.LASF240:
 3056 0f03 6379426C 		.ascii	"cyBle_connHandle\000"
 3056      655F636F 
 3056      6E6E4861 
 3056      6E646C65 
 3056      00
 3057              	.LASF48:
 3058 0f14 4359424C 		.ascii	"CYBLE_EVT_GATTC_WRITE_RSP\000"
 3058      455F4556 
 3058      545F4741 
 3058      5454435F 
 3058      57524954 
 3059              	.LASF98:
ARM GAS  C:\Users\TTSS\AppData\Local\Temp\ccwoAHLq.s 			page 96


 3060 0f2e 4359424C 		.ascii	"CYBLE_GAP_SEC_LEVEL_1\000"
 3060      455F4741 
 3060      505F5345 
 3060      435F4C45 
 3060      56454C5F 
 3061              	.LASF99:
 3062 0f44 4359424C 		.ascii	"CYBLE_GAP_SEC_LEVEL_2\000"
 3062      455F4741 
 3062      505F5345 
 3062      435F4C45 
 3062      56454C5F 
 3063              	.LASF100:
 3064 0f5a 4359424C 		.ascii	"CYBLE_GAP_SEC_LEVEL_3\000"
 3064      455F4741 
 3064      505F5345 
 3064      435F4C45 
 3064      56454C5F 
 3065              	.LASF223:
 3066 0f70 4379426C 		.ascii	"CyBle_GattConnectReqHandler\000"
 3066      655F4761 
 3066      7474436F 
 3066      6E6E6563 
 3066      74526571 
 3067              	.LASF101:
 3068 0f8c 4359424C 		.ascii	"CYBLE_GAP_SEC_LEVEL_MASK\000"
 3068      455F4741 
 3068      505F5345 
 3068      435F4C45 
 3068      56454C5F 
 3069              	.LASF230:
 3070 0fa5 626C6553 		.ascii	"bleSsPowerLevel\000"
 3070      73506F77 
 3070      65724C65 
 3070      76656C00 
 3071              	.LASF168:
 3072 0fb5 4359424C 		.ascii	"CYBLE_GATT_ERR_INSUFFICIENT_AUTHORIZATION\000"
 3072      455F4741 
 3072      54545F45 
 3072      52525F49 
 3072      4E535546 
 3073              	.LASF26:
 3074 0fdf 4359424C 		.ascii	"CYBLE_EVT_GAP_AUTH_COMPLETE\000"
 3074      455F4556 
 3074      545F4741 
 3074      505F4155 
 3074      54485F43 
 3075              	.LASF226:
 3076 0ffb 4379426C 		.ascii	"CyBle_L2Cap_ConnParamUpdateRspEventHandler\000"
 3076      655F4C32 
 3076      4361705F 
 3076      436F6E6E 
 3076      50617261 
 3077              	.LASF125:
 3078 1026 4359424C 		.ascii	"CYBLE_GAP_AUTH_INFO_T\000"
 3078      455F4741 
 3078      505F4155 
 3078      54485F49 
ARM GAS  C:\Users\TTSS\AppData\Local\Temp\ccwoAHLq.s 			page 97


 3078      4E464F5F 
 3079              	.LASF53:
 3080 103c 4359424C 		.ascii	"CYBLE_EVT_GATTC_HANDLE_VALUE_NTF\000"
 3080      455F4556 
 3080      545F4741 
 3080      5454435F 
 3080      48414E44 
 3081              	.LASF201:
 3082 105d 4359424C 		.ascii	"CYBLE_GATT_HANDLE_VALUE_PAIR_T\000"
 3082      455F4741 
 3082      54545F48 
 3082      414E444C 
 3082      455F5641 
 3083              	.LASF79:
 3084 107c 4359424C 		.ascii	"CYBLE_LL_PWR_LVL_0_DBM\000"
 3084      455F4C4C 
 3084      5F505752 
 3084      5F4C564C 
 3084      5F305F44 
 3085              	.LASF63:
 3086 1093 4359424C 		.ascii	"CYBLE_EVT_L2CAP_CBFC_CONN_CNF\000"
 3086      455F4556 
 3086      545F4C32 
 3086      4341505F 
 3086      43424643 
 3087              	.LASF40:
 3088 10b1 4359424C 		.ascii	"CYBLE_EVT_GATTC_READ_BY_GROUP_TYPE_RSP\000"
 3088      455F4556 
 3088      545F4741 
 3088      5454435F 
 3088      52454144 
 3089              	.LASF12:
 3090 10d8 666C6F61 		.ascii	"float\000"
 3090      7400
 3091              	.LASF169:
 3092 10de 4359424C 		.ascii	"CYBLE_GATT_ERR_PREPARE_WRITE_QUEUE_FULL\000"
 3092      455F4741 
 3092      54545F45 
 3092      52525F50 
 3092      52455041 
 3093              	.LASF242:
 3094 1106 6379426C 		.ascii	"cyBle_advertisingIntervalType\000"
 3094      655F6164 
 3094      76657274 
 3094      6973696E 
 3094      67496E74 
 3095              	.LASF138:
 3096 1124 4359424C 		.ascii	"CYBLE_GATT_READ_BY_TYPE_REQ\000"
 3096      455F4741 
 3096      54545F52 
 3096      4541445F 
 3096      42595F54 
 3097              	.LASF78:
 3098 1140 4359424C 		.ascii	"CYBLE_LL_PWR_LVL_NEG_1_DBM\000"
 3098      455F4C4C 
 3098      5F505752 
 3098      5F4C564C 
ARM GAS  C:\Users\TTSS\AppData\Local\Temp\ccwoAHLq.s 			page 98


 3098      5F4E4547 
 3099              	.LASF191:
 3100 115b 4359424C 		.ascii	"CYBLE_GATT_ERR_OUT_OF_RANGE\000"
 3100      455F4741 
 3100      54545F45 
 3100      52525F4F 
 3100      55545F4F 
 3101              	.LASF1:
 3102 1177 756E7369 		.ascii	"unsigned char\000"
 3102      676E6564 
 3102      20636861 
 3102      7200
 3103              	.LASF10:
 3104 1185 75696E74 		.ascii	"uint16\000"
 3104      313600
 3105              	.LASF173:
 3106 118c 4359424C 		.ascii	"CYBLE_GATT_ERR_INVALID_ATTRIBUTE_LEN\000"
 3106      455F4741 
 3106      54545F45 
 3106      52525F49 
 3106      4E56414C 
 3107              	.LASF185:
 3108 11b1 4359424C 		.ascii	"CYBLE_GATTS_ERR_CCCD_IMPROPERLY_CONFIGURED\000"
 3108      455F4741 
 3108      5454535F 
 3108      4552525F 
 3108      43434344 
 3109              	.LASF117:
 3110 11dc 4359424C 		.ascii	"CYBLE_GAP_AUTH_ERROR_INVALID_PARAMETERS\000"
 3110      455F4741 
 3110      505F4155 
 3110      54485F45 
 3110      52524F52 
 3111              	.LASF225:
 3112 1204 73666C61 		.ascii	"sflashAddressValid\000"
 3112      73684164 
 3112      64726573 
 3112      7356616C 
 3112      696400
 3113              	.LASF2:
 3114 1217 73686F72 		.ascii	"short int\000"
 3114      7420696E 
 3114      7400
 3115              	.LASF54:
 3116 1221 4359424C 		.ascii	"CYBLE_EVT_GATTC_HANDLE_VALUE_IND\000"
 3116      455F4556 
 3116      545F4741 
 3116      5454435F 
 3116      48414E44 
 3117              	.LASF74:
 3118 1242 4359424C 		.ascii	"CYBLE_LL_PWR_LVL_NEG_12_DBM\000"
 3118      455F4C4C 
 3118      5F505752 
 3118      5F4C564C 
 3118      5F4E4547 
 3119              	.LASF184:
 3120 125e 4359424C 		.ascii	"CYBLE_GATT_ERR_MISSING_CRC\000"
ARM GAS  C:\Users\TTSS\AppData\Local\Temp\ccwoAHLq.s 			page 99


 3120      455F4741 
 3120      54545F45 
 3120      52525F4D 
 3120      49535349 
 3121              	.LASF227:
 3122 1279 72657370 		.ascii	"response\000"
 3122      6F6E7365 
 3122      00
 3123              	.LASF132:
 3124 1282 4359424C 		.ascii	"CYBLE_GATT_XCNHG_MTU_REQ\000"
 3124      455F4741 
 3124      54545F58 
 3124      434E4847 
 3124      5F4D5455 
 3125              	.LASF147:
 3126 129b 4359424C 		.ascii	"CYBLE_GATT_READ_BY_GROUP_RSP\000"
 3126      455F4741 
 3126      54545F52 
 3126      4541445F 
 3126      42595F47 
 3127              	.LASF127:
 3128 12b8 636F6E6E 		.ascii	"connIntv\000"
 3128      496E7476 
 3128      00
 3129              	.LASF50:
 3130 12c1 4359424C 		.ascii	"CYBLE_EVT_GATTS_PREP_WRITE_REQ\000"
 3130      455F4556 
 3130      545F4741 
 3130      5454535F 
 3130      50524550 
 3131              	.LASF232:
 3132 12e0 4379426C 		.ascii	"CyBle_ApplCallback\000"
 3132      655F4170 
 3132      706C4361 
 3132      6C6C6261 
 3132      636B00
 3133              	.LASF55:
 3134 12f3 4359424C 		.ascii	"CYBLE_EVT_GATTS_HANDLE_VALUE_CNF\000"
 3134      455F4556 
 3134      545F4741 
 3134      5454535F 
 3134      48414E44 
 3135              	.LASF189:
 3136 1314 4359424C 		.ascii	"CYBLE_GATT_ERR_CCCD_IMPROPERLY_CONFIGURED\000"
 3136      455F4741 
 3136      54545F45 
 3136      52525F43 
 3136      4343445F 
 3137              	.LASF216:
 3138 133e 67617474 		.ascii	"gattErr\000"
 3138      45727200 
 3139              	.LASF77:
 3140 1346 4359424C 		.ascii	"CYBLE_LL_PWR_LVL_NEG_2_DBM\000"
 3140      455F4C4C 
 3140      5F505752 
 3140      5F4C564C 
 3140      5F4E4547 
ARM GAS  C:\Users\TTSS\AppData\Local\Temp\ccwoAHLq.s 			page 100


 3141              	.LASF178:
 3142 1361 4359424C 		.ascii	"CYBLE_GATT_ERR_HEART_RATE_CONTROL_POINT_NOT_SUPPORT"
 3142      455F4741 
 3142      54545F45 
 3142      52525F48 
 3142      45415254 
 3143 1394 454400   		.ascii	"ED\000"
 3144              	.LASF228:
 3145 1397 4379426C 		.ascii	"CyBle_GapConnUpdateCompleteEventHandler\000"
 3145      655F4761 
 3145      70436F6E 
 3145      6E557064 
 3145      61746543 
 3146              	.LASF42:
 3147 13bf 4359424C 		.ascii	"CYBLE_EVT_GATTC_FIND_INFO_RSP\000"
 3147      455F4556 
 3147      545F4741 
 3147      5454435F 
 3147      46494E44 
 3148              	.LASF131:
 3149 13dd 4359424C 		.ascii	"CYBLE_GATT_ERROR_RSP\000"
 3149      455F4741 
 3149      54545F45 
 3149      52524F52 
 3149      5F525350 
 3150              	.LASF14:
 3151 13f2 63686172 		.ascii	"char\000"
 3151      00
 3152              	.LASF30:
 3153 13f7 4359424C 		.ascii	"CYBLE_EVT_GAP_DEVICE_DISCONNECTED\000"
 3153      455F4556 
 3153      545F4741 
 3153      505F4445 
 3153      56494345 
 3154              	.LASF88:
 3155 1419 626C6553 		.ascii	"bleSsChId\000"
 3155      73436849 
 3155      6400
 3156              	.LASF8:
 3157 1423 756E7369 		.ascii	"unsigned int\000"
 3157      676E6564 
 3157      20696E74 
 3157      00
 3158              	.LASF58:
 3159 1430 4359424C 		.ascii	"CYBLE_EVT_GATTS_READ_CHAR_VAL_ACCESS_REQ\000"
 3159      455F4556 
 3159      545F4741 
 3159      5454535F 
 3159      52454144 
 3160              	.LASF75:
 3161 1459 4359424C 		.ascii	"CYBLE_LL_PWR_LVL_NEG_6_DBM\000"
 3161      455F4C4C 
 3161      5F505752 
 3161      5F4C564C 
 3161      5F4E4547 
 3162              	.LASF68:
 3163 1474 4359424C 		.ascii	"CYBLE_EVT_L2CAP_CBFC_TX_CREDIT_IND\000"
ARM GAS  C:\Users\TTSS\AppData\Local\Temp\ccwoAHLq.s 			page 101


 3163      455F4556 
 3163      545F4C32 
 3163      4341505F 
 3163      43424643 
 3164              	.LASF174:
 3165 1497 4359424C 		.ascii	"CYBLE_GATT_ERR_UNLIKELY_ERROR\000"
 3165      455F4741 
 3165      54545F45 
 3165      52525F55 
 3165      4E4C494B 
 3166              	.LASF231:
 3167 14b5 6379426C 		.ascii	"cyBle_mtuSize\000"
 3167      655F6D74 
 3167      7553697A 
 3167      6500
 3168              	.LASF25:
 3169 14c3 4359424C 		.ascii	"CYBLE_EVT_GAP_PASSKEY_DISPLAY_REQUEST\000"
 3169      455F4556 
 3169      545F4741 
 3169      505F5041 
 3169      53534B45 
 3170              	.LASF190:
 3171 14e9 4359424C 		.ascii	"CYBLE_GATT_ERR_PROCEDURE_ALREADY_IN_PROGRESS\000"
 3171      455F4741 
 3171      54545F45 
 3171      52525F50 
 3171      524F4345 
 3172              	.LASF19:
 3173 1516 4359424C 		.ascii	"CYBLE_EVT_HARDWARE_ERROR\000"
 3173      455F4556 
 3173      545F4841 
 3173      52445741 
 3173      52455F45 
 3174              	.LASF3:
 3175 152f 73686F72 		.ascii	"short unsigned int\000"
 3175      7420756E 
 3175      7369676E 
 3175      65642069 
 3175      6E7400
 3176              	.LASF119:
 3177 1542 4359424C 		.ascii	"CYBLE_GAP_AUTH_ERROR_LINK_DISCONNECTED\000"
 3177      455F4741 
 3177      505F4155 
 3177      54485F45 
 3177      52524F52 
 3178              	.LASF35:
 3179 1569 4359424C 		.ascii	"CYBLE_EVT_GATTC_ERROR_RSP\000"
 3179      455F4556 
 3179      545F4741 
 3179      5454435F 
 3179      4552524F 
 3180              	.LASF207:
 3181 1583 68616E64 		.ascii	"handleValPair\000"
 3181      6C655661 
 3181      6C506169 
 3181      7200
 3182              	.LASF222:
ARM GAS  C:\Users\TTSS\AppData\Local\Temp\ccwoAHLq.s 			page 102


 3183 1591 4379426C 		.ascii	"CyBle_GattDisconnectEventHandler\000"
 3183      655F4761 
 3183      74744469 
 3183      73636F6E 
 3183      6E656374 
 3184              	.LASF179:
 3185 15b2 4359424C 		.ascii	"CYBLE_GATT_ERR_USER_DATA_ACCESS_NOT_PERMITTED\000"
 3185      455F4741 
 3185      54545F45 
 3185      52525F55 
 3185      5345525F 
 3186              	.LASF175:
 3187 15e0 4359424C 		.ascii	"CYBLE_GATT_ERR_INSUFFICIENT_ENCRYPTION\000"
 3187      455F4741 
 3187      54545F45 
 3187      52525F49 
 3187      4E535546 
 3188              	.LASF110:
 3189 1607 4359424C 		.ascii	"CYBLE_GAP_AUTH_ERROR_AUTHENTICATION_REQ_NOT_MET\000"
 3189      455F4741 
 3189      505F4155 
 3189      54485F45 
 3189      52524F52 
 3190              	.LASF209:
 3191 1637 4359424C 		.ascii	"CYBLE_CALLBACK_T\000"
 3191      455F4341 
 3191      4C4C4241 
 3191      434B5F54 
 3191      00
 3192              	.LASF38:
 3193 1648 4359424C 		.ascii	"CYBLE_EVT_GATTS_XCNHG_MTU_REQ\000"
 3193      455F4556 
 3193      545F4741 
 3193      5454535F 
 3193      58434E48 
 3194              	.LASF220:
 3195 1666 6576656E 		.ascii	"eventParam\000"
 3195      74506172 
 3195      616D00
 3196              	.LASF84:
 3197 1671 4359424C 		.ascii	"CYBLE_LL_CONN_CH_TYPE\000"
 3197      455F4C4C 
 3197      5F434F4E 
 3197      4E5F4348 
 3197      5F545950 
 3198              	.LASF106:
 3199 1687 4359424C 		.ascii	"CYBLE_GAP_IOCAP_KEYBOARD_DISPLAY\000"
 3199      455F4741 
 3199      505F494F 
 3199      4341505F 
 3199      4B455942 
 3200              	.LASF126:
 3201 16a8 73746174 		.ascii	"status\000"
 3201      757300
 3202              	.LASF154:
 3203 16af 4359424C 		.ascii	"CYBLE_GATT_EXECUTE_WRITE_RSP\000"
 3203      455F4741 
ARM GAS  C:\Users\TTSS\AppData\Local\Temp\ccwoAHLq.s 			page 103


 3203      54545F45 
 3203      58454355 
 3203      54455F57 
 3204              	.LASF215:
 3205 16cc 4359424C 		.ascii	"CYBLE_STATE_T\000"
 3205      455F5354 
 3205      4154455F 
 3205      5400
 3206              	.LASF143:
 3207 16da 4359424C 		.ascii	"CYBLE_GATT_READ_BLOB_RSP\000"
 3207      455F4741 
 3207      54545F52 
 3207      4541445F 
 3207      424C4F42 
 3208              	.LASF45:
 3209 16f3 4359424C 		.ascii	"CYBLE_EVT_GATTC_READ_BLOB_RSP\000"
 3209      455F4556 
 3209      545F4741 
 3209      5454435F 
 3209      52454144 
 3210              	.LASF85:
 3211 1711 4359424C 		.ascii	"CYBLE_LL_MAX_CH_TYPE\000"
 3211      455F4C4C 
 3211      5F4D4158 
 3211      5F43485F 
 3211      54595045 
 3212              	.LASF111:
 3213 1726 4359424C 		.ascii	"CYBLE_GAP_AUTH_ERROR_CONFIRM_VALUE_NOT_MATCH\000"
 3213      455F4741 
 3213      505F4155 
 3213      54485F45 
 3213      52524F52 
 3214              	.LASF167:
 3215 1753 4359424C 		.ascii	"CYBLE_GATT_ERR_INVALID_OFFSET\000"
 3215      455F4741 
 3215      54545F45 
 3215      52525F49 
 3215      4E56414C 
 3216              	.LASF234:
 3217 1771 6379426C 		.ascii	"cyBle_deviceAddress\000"
 3217      655F6465 
 3217      76696365 
 3217      41646472 
 3217      65737300 
 3218              	.LASF137:
 3219 1785 4359424C 		.ascii	"CYBLE_GATT_FIND_BY_TYPE_VALUE_RSP\000"
 3219      455F4741 
 3219      54545F46 
 3219      494E445F 
 3219      42595F54 
 3220              	.LASF212:
 3221 17a7 4359424C 		.ascii	"CYBLE_STATE_CONNECTED\000"
 3221      455F5354 
 3221      4154455F 
 3221      434F4E4E 
 3221      45435445 
 3222              	.LASF108:
ARM GAS  C:\Users\TTSS\AppData\Local\Temp\ccwoAHLq.s 			page 104


 3223 17bd 4359424C 		.ascii	"CYBLE_GAP_AUTH_ERROR_PASSKEY_ENTRY_FAILED\000"
 3223      455F4741 
 3223      505F4155 
 3223      54485F45 
 3223      52524F52 
 3224              	.LASF141:
 3225 17e7 4359424C 		.ascii	"CYBLE_GATT_READ_RSP\000"
 3225      455F4741 
 3225      54545F52 
 3225      4541445F 
 3225      52535000 
 3226              	.LASF243:
 3227 17fb 474E5520 		.ascii	"GNU C 4.9.3 20150303 (release) [ARM/embedded-4_9-br"
 3227      4320342E 
 3227      392E3320 
 3227      32303135 
 3227      30333033 
 3228 182e 616E6368 		.ascii	"anch revision 221220] -mcpu=cortex-m0 -mthumb -g -O"
 3228      20726576 
 3228      6973696F 
 3228      6E203232 
 3228      31323230 
 3229 1861 30202D66 		.ascii	"0 -ffunction-sections -ffat-lto-objects\000"
 3229      66756E63 
 3229      74696F6E 
 3229      2D736563 
 3229      74696F6E 
 3230              	.LASF43:
 3231 1889 4359424C 		.ascii	"CYBLE_EVT_GATTC_FIND_BY_TYPE_VALUE_RSP\000"
 3231      455F4556 
 3231      545F4741 
 3231      5454435F 
 3231      46494E44 
 3232              	.LASF34:
 3233 18b0 4359424C 		.ascii	"CYBLE_EVT_GAP_KEYINFO_EXCHNGE_CMPLT\000"
 3233      455F4556 
 3233      545F4741 
 3233      505F4B45 
 3233      59494E46 
 3234              	.LASF194:
 3235 18d4 62644861 		.ascii	"bdHandle\000"
 3235      6E646C65 
 3235      00
 3236              	.LASF70:
 3237 18dd 4359424C 		.ascii	"CYBLE_EVT_PENDING_FLASH_WRITE\000"
 3237      455F4556 
 3237      545F5045 
 3237      4E44494E 
 3237      475F464C 
 3238              	.LASF60:
 3239 18fb 4359424C 		.ascii	"CYBLE_EVT_L2CAP_CONN_PARAM_UPDATE_RSP\000"
 3239      455F4556 
 3239      545F4C32 
 3239      4341505F 
 3239      434F4E4E 
 3240              	.LASF89:
 3241 1921 4359424C 		.ascii	"CYBLE_BLESS_PWR_IN_DB_T\000"
ARM GAS  C:\Users\TTSS\AppData\Local\Temp\ccwoAHLq.s 			page 105


 3241      455F424C 
 3241      4553535F 
 3241      5057525F 
 3241      494E5F44 
 3242              	.LASF244:
 3243 1939 47656E65 		.ascii	"Generated_Source\\PSoC4\\BLE_eventHandler.c\000"
 3243      72617465 
 3243      645F536F 
 3243      75726365 
 3243      5C50536F 
 3244              	.LASF193:
 3245 1963 4359424C 		.ascii	"CYBLE_GATT_DB_ATTR_HANDLE_T\000"
 3245      455F4741 
 3245      54545F44 
 3245      425F4154 
 3245      54525F48 
 3246              	.LASF37:
 3247 197f 4359424C 		.ascii	"CYBLE_EVT_GATT_DISCONNECT_IND\000"
 3247      455F4556 
 3247      545F4741 
 3247      54545F44 
 3247      4953434F 
 3248              	.LASF139:
 3249 199d 4359424C 		.ascii	"CYBLE_GATT_READ_BY_TYPE_RSP\000"
 3249      455F4741 
 3249      54545F52 
 3249      4541445F 
 3249      42595F54 
 3250              	.LASF104:
 3251 19b9 4359424C 		.ascii	"CYBLE_GAP_IOCAP_KEYBOARD_ONLY\000"
 3251      455F4741 
 3251      505F494F 
 3251      4341505F 
 3251      4B455942 
 3252              	.LASF204:
 3253 19d7 6F70636F 		.ascii	"opcode\000"
 3253      646500
 3254              	.LASF238:
 3255 19de 6379426C 		.ascii	"cyBle_attValuesCCCDFlashMemory\000"
 3255      655F6174 
 3255      7456616C 
 3255      75657343 
 3255      43434446 
 3256              	.LASF86:
 3257 19fd 4359424C 		.ascii	"CYBLE_BLESS_PHY_CH_GRP_ID_T\000"
 3257      455F424C 
 3257      4553535F 
 3257      5048595F 
 3257      43485F47 
 3258              	.LASF128:
 3259 1a19 636F6E6E 		.ascii	"connLatency\000"
 3259      4C617465 
 3259      6E637900 
 3260              		.ident	"GCC: (GNU Tools for ARM Embedded Processors) 4.9.3 20150303 (release) [ARM/embedded-4_9-br
