ARM GAS  C:\Users\TTSS\AppData\Local\Temp\ccwoAHLq.s 			page 1


   1              		.cpu cortex-m0
   2              		.fpu softvfp
   3              		.eabi_attribute 20, 1
   4              		.eabi_attribute 21, 1
   5              		.eabi_attribute 23, 3
   6              		.eabi_attribute 24, 1
   7              		.eabi_attribute 25, 1
   8              		.eabi_attribute 26, 1
   9              		.eabi_attribute 30, 6
  10              		.eabi_attribute 34, 0
  11              		.eabi_attribute 18, 4
  12              		.code	16
  13              		.file	"BLE_eventHandler.c"
  14              		.text
  15              	.Ltext0:
  16              		.cfi_sections	.debug_frame
  17              		.comm	cyBle_connHandle,2,4
  18              		.comm	cyBle_eventHandlerFlag,1,1
  19              		.comm	cyBle_busyStatus,1,1
  20              		.comm	cyBle_advertisingIntervalType,1,1
  21              		.global	cyBle_authInfo
  22              		.data
  23              		.align	2
  24              		.type	cyBle_authInfo, %object
  25              		.size	cyBle_authInfo, 4
  26              	cyBle_authInfo:
  27 0000 10       		.byte	16
  28 0001 01       		.byte	1
  29 0002 10       		.byte	16
  30 0003 00       		.byte	0
  31              		.section	.text.CyBle_WriteReqHandler,"ax",%progbits
  32              		.align	2
  33              		.code	16
  34              		.thumb_func
  35              		.type	CyBle_WriteReqHandler, %function
  36              	CyBle_WriteReqHandler:
  37              	.LFB2:
  38              		.file 1 "Generated_Source\\PSoC4\\BLE_eventHandler.c"
   1:Generated_Source\PSoC4/BLE_eventHandler.c **** /*******************************************************************************
   2:Generated_Source\PSoC4/BLE_eventHandler.c **** File Name: CYBLE_eventHandler.c
   3:Generated_Source\PSoC4/BLE_eventHandler.c **** Version 2.0
   4:Generated_Source\PSoC4/BLE_eventHandler.c **** 
   5:Generated_Source\PSoC4/BLE_eventHandler.c **** Description:
   6:Generated_Source\PSoC4/BLE_eventHandler.c ****  This file contains the source code for the Event Handler State Machine
   7:Generated_Source\PSoC4/BLE_eventHandler.c ****  of the BLE Component.
   8:Generated_Source\PSoC4/BLE_eventHandler.c **** 
   9:Generated_Source\PSoC4/BLE_eventHandler.c **** ********************************************************************************
  10:Generated_Source\PSoC4/BLE_eventHandler.c **** Copyright 2014-2015, Cypress Semiconductor Corporation.  All rights reserved.
  11:Generated_Source\PSoC4/BLE_eventHandler.c **** You may use this file only in accordance with the license, terms, conditions,
  12:Generated_Source\PSoC4/BLE_eventHandler.c **** disclaimers, and limitations in the end user license agreement accompanying
  13:Generated_Source\PSoC4/BLE_eventHandler.c **** the software package with which this file was provided.
  14:Generated_Source\PSoC4/BLE_eventHandler.c **** *******************************************************************************/
  15:Generated_Source\PSoC4/BLE_eventHandler.c **** 
  16:Generated_Source\PSoC4/BLE_eventHandler.c **** #include "BLE_eventHandler.h"
  17:Generated_Source\PSoC4/BLE_eventHandler.c **** 
  18:Generated_Source\PSoC4/BLE_eventHandler.c **** 
  19:Generated_Source\PSoC4/BLE_eventHandler.c **** /***************************************
ARM GAS  C:\Users\TTSS\AppData\Local\Temp\ccwoAHLq.s 			page 2


  20:Generated_Source\PSoC4/BLE_eventHandler.c **** ##Private Function Prototypes
  21:Generated_Source\PSoC4/BLE_eventHandler.c **** ***************************************/
  22:Generated_Source\PSoC4/BLE_eventHandler.c **** 
  23:Generated_Source\PSoC4/BLE_eventHandler.c **** #if (CYBLE_GATT_ROLE_SERVER || CYBLE_GATT_ROLE_CLIENT)
  24:Generated_Source\PSoC4/BLE_eventHandler.c **** 
  25:Generated_Source\PSoC4/BLE_eventHandler.c **** static uint8 CyBle_IsDeviceAddressValid(const CYBLE_GAP_BD_ADDR_T *sflashDeviceAddress);
  26:Generated_Source\PSoC4/BLE_eventHandler.c **** 
  27:Generated_Source\PSoC4/BLE_eventHandler.c **** #endif /* CYBLE_GATT_ROLE_SERVER || CYBLE_GATT_ROLE_CLIENT */
  28:Generated_Source\PSoC4/BLE_eventHandler.c **** 
  29:Generated_Source\PSoC4/BLE_eventHandler.c **** static void CyBle_GattDisconnectEventHandler(void);
  30:Generated_Source\PSoC4/BLE_eventHandler.c **** static void CyBle_TimeOutEventHandler(const CYBLE_TO_REASON_CODE_T *eventParam);
  31:Generated_Source\PSoC4/BLE_eventHandler.c **** static void CyBle_GattConnectReqHandler(void);
  32:Generated_Source\PSoC4/BLE_eventHandler.c **** static void CyBle_L2Cap_ConnParamUpdateRspEventHandler(uint16 response);
  33:Generated_Source\PSoC4/BLE_eventHandler.c **** static void CyBle_GapConnUpdateCompleteEventHandler(const CYBLE_GAP_CONN_PARAM_UPDATED_IN_CONTROLLE
  34:Generated_Source\PSoC4/BLE_eventHandler.c **** 
  35:Generated_Source\PSoC4/BLE_eventHandler.c **** 
  36:Generated_Source\PSoC4/BLE_eventHandler.c **** #if (CYBLE_GATT_ROLE_SERVER)
  37:Generated_Source\PSoC4/BLE_eventHandler.c **** 
  38:Generated_Source\PSoC4/BLE_eventHandler.c **** static void CyBle_WriteReqHandler(CYBLE_GATTS_WRITE_REQ_PARAM_T *eventParam);
  39:Generated_Source\PSoC4/BLE_eventHandler.c **** static void CyBle_ValueConfirmation(const CYBLE_CONN_HANDLE_T *eventParam);
  40:Generated_Source\PSoC4/BLE_eventHandler.c **** 
  41:Generated_Source\PSoC4/BLE_eventHandler.c **** #endif /* CYBLE_GATT_ROLE_SERVER */
  42:Generated_Source\PSoC4/BLE_eventHandler.c **** 
  43:Generated_Source\PSoC4/BLE_eventHandler.c **** #if (CYBLE_GATT_ROLE_CLIENT)
  44:Generated_Source\PSoC4/BLE_eventHandler.c **** 
  45:Generated_Source\PSoC4/BLE_eventHandler.c **** static void CyBle_GapcDiscoverCharacteristicsEventHandler(CYBLE_DISC_CHAR_INFO_T *discCharInfo);
  46:Generated_Source\PSoC4/BLE_eventHandler.c **** static CYBLE_GATT_ATTR_HANDLE_RANGE_T CyBle_GetCharRange(void);
  47:Generated_Source\PSoC4/BLE_eventHandler.c **** static void CyBle_GattcWriteResponseEventHandler(const CYBLE_CONN_HANDLE_T *eventParam);
  48:Generated_Source\PSoC4/BLE_eventHandler.c **** static void CyBle_NotificationEventHandler(CYBLE_GATTC_HANDLE_VALUE_NTF_PARAM_T *eventParam);
  49:Generated_Source\PSoC4/BLE_eventHandler.c **** static void CyBle_IndicationEventHandler(CYBLE_GATTC_HANDLE_VALUE_IND_PARAM_T *eventParam);
  50:Generated_Source\PSoC4/BLE_eventHandler.c **** static void CyBle_ReadResponseEventHandler(CYBLE_GATTC_READ_RSP_PARAM_T *eventParam);
  51:Generated_Source\PSoC4/BLE_eventHandler.c **** 
  52:Generated_Source\PSoC4/BLE_eventHandler.c **** #endif /* CYBLE_GATT_ROLE_CLIENT */
  53:Generated_Source\PSoC4/BLE_eventHandler.c **** 
  54:Generated_Source\PSoC4/BLE_eventHandler.c **** 
  55:Generated_Source\PSoC4/BLE_eventHandler.c **** /***************************************
  56:Generated_Source\PSoC4/BLE_eventHandler.c **** ##Global Variables
  57:Generated_Source\PSoC4/BLE_eventHandler.c **** ***************************************/
  58:Generated_Source\PSoC4/BLE_eventHandler.c **** 
  59:Generated_Source\PSoC4/BLE_eventHandler.c **** /* This global variable is initialized after connection with peer device, 
  60:Generated_Source\PSoC4/BLE_eventHandler.c ****    after CYBLE_EVT_GATT_CONNECT_IND event, and could be used by application code
  61:Generated_Source\PSoC4/BLE_eventHandler.c ****    to send data to peer device. 
  62:Generated_Source\PSoC4/BLE_eventHandler.c **** */
  63:Generated_Source\PSoC4/BLE_eventHandler.c **** CYBLE_CONN_HANDLE_T cyBle_connHandle;
  64:Generated_Source\PSoC4/BLE_eventHandler.c **** 
  65:Generated_Source\PSoC4/BLE_eventHandler.c **** volatile uint8 cyBle_eventHandlerFlag;
  66:Generated_Source\PSoC4/BLE_eventHandler.c **** volatile uint8 cyBle_busyStatus;
  67:Generated_Source\PSoC4/BLE_eventHandler.c **** 
  68:Generated_Source\PSoC4/BLE_eventHandler.c **** #if(CYBLE_GAP_ROLE_PERIPHERAL || CYBLE_GAP_ROLE_BROADCASTER) 
  69:Generated_Source\PSoC4/BLE_eventHandler.c ****     uint8 cyBle_advertisingIntervalType;
  70:Generated_Source\PSoC4/BLE_eventHandler.c **** #endif /* CYBLE_GAP_ROLE_PERIPHERAL || CYBLE_GAP_ROLE_BROADCASTER) */
  71:Generated_Source\PSoC4/BLE_eventHandler.c **** 
  72:Generated_Source\PSoC4/BLE_eventHandler.c **** #if(CYBLE_GAP_ROLE_CENTRAL || CYBLE_GAP_ROLE_OBSERVER) 
  73:Generated_Source\PSoC4/BLE_eventHandler.c ****     uint8 cyBle_scanningIntervalType;
  74:Generated_Source\PSoC4/BLE_eventHandler.c **** #endif /* CYBLE_GAP_ROLE_CENTRAL || CYBLE_GAP_ROLE_OBSERVER */
  75:Generated_Source\PSoC4/BLE_eventHandler.c **** 
  76:Generated_Source\PSoC4/BLE_eventHandler.c **** #if(CYBLE_GATT_ROLE_SERVER)
ARM GAS  C:\Users\TTSS\AppData\Local\Temp\ccwoAHLq.s 			page 3


  77:Generated_Source\PSoC4/BLE_eventHandler.c **** #if defined CYBLE_CTS_SERVER || defined CYBLE_ESS_SERVER
  78:Generated_Source\PSoC4/BLE_eventHandler.c **** CYBLE_GATT_ERR_CODE_T cyBle_gattError;
  79:Generated_Source\PSoC4/BLE_eventHandler.c **** #endif /* defined CYBLE_CTS_SERVER || defined CYBLE_ESS_SERVER */
  80:Generated_Source\PSoC4/BLE_eventHandler.c **** #endif /* CYBLE_GATT_ROLE_SERVER */
  81:Generated_Source\PSoC4/BLE_eventHandler.c **** 
  82:Generated_Source\PSoC4/BLE_eventHandler.c **** #if(CYBLE_GATT_ROLE_CLIENT)
  83:Generated_Source\PSoC4/BLE_eventHandler.c **** uint8 cyBle_disCount; /* Counter for discovery procedures */
  84:Generated_Source\PSoC4/BLE_eventHandler.c **** static CYBLE_GATT_DB_ATTR_HANDLE_T cyBle_charEndHandle;
  85:Generated_Source\PSoC4/BLE_eventHandler.c **** /* Discovery included service information, used for 128-bit UUID read response handle 
  86:Generated_Source\PSoC4/BLE_eventHandler.c ****    and for continue discovery. 
  87:Generated_Source\PSoC4/BLE_eventHandler.c **** */
  88:Generated_Source\PSoC4/BLE_eventHandler.c **** static CYBLE_DISC_INCL_INFO_T cyBle_discInclInfo;
  89:Generated_Source\PSoC4/BLE_eventHandler.c **** #ifdef CYBLE_HIDS_CLIENT
  90:Generated_Source\PSoC4/BLE_eventHandler.c ****     static uint8 disServiceIndex;      /* To discovery descriptors for multiple HID service instanc
  91:Generated_Source\PSoC4/BLE_eventHandler.c **** #endif /* CYBLE_HIDS_CLIENT */
  92:Generated_Source\PSoC4/BLE_eventHandler.c **** 
  93:Generated_Source\PSoC4/BLE_eventHandler.c **** CYBLE_DISC_SRVC_INFO_T cyBle_serverInfo[CYBLE_SRVI_COUNT] = /*3*/
  94:Generated_Source\PSoC4/BLE_eventHandler.c **** {
  95:Generated_Source\PSoC4/BLE_eventHandler.c ****     {{CYBLE_GATT_INVALID_ATTR_HANDLE_VALUE, CYBLE_GATT_INVALID_ATTR_HANDLE_VALUE}, CYBLE_UUID_GAP_S
  96:Generated_Source\PSoC4/BLE_eventHandler.c ****     {{CYBLE_GATT_INVALID_ATTR_HANDLE_VALUE, CYBLE_GATT_INVALID_ATTR_HANDLE_VALUE}, CYBLE_UUID_GATT_
  97:Generated_Source\PSoC4/BLE_eventHandler.c **** #ifdef CYBLE_ANCS_CLIENT
  98:Generated_Source\PSoC4/BLE_eventHandler.c ****     {{CYBLE_GATT_INVALID_ATTR_HANDLE_VALUE, CYBLE_GATT_INVALID_ATTR_HANDLE_VALUE}, 0x0000u},
  99:Generated_Source\PSoC4/BLE_eventHandler.c **** #endif /* CYBLE_ANCS_CLIENT */
 100:Generated_Source\PSoC4/BLE_eventHandler.c **** #ifdef CYBLE_ANS_CLIENT
 101:Generated_Source\PSoC4/BLE_eventHandler.c ****     {{CYBLE_GATT_INVALID_ATTR_HANDLE_VALUE, CYBLE_GATT_INVALID_ATTR_HANDLE_VALUE}, 
 102:Generated_Source\PSoC4/BLE_eventHandler.c ****         CYBLE_UUID_ALERT_NOTIFICATION_SERVICE},
 103:Generated_Source\PSoC4/BLE_eventHandler.c **** #endif /* CYBLE_ANS_CLIENT */
 104:Generated_Source\PSoC4/BLE_eventHandler.c **** #ifdef CYBLE_BAS_CLIENT
 105:Generated_Source\PSoC4/BLE_eventHandler.c ****     {{CYBLE_GATT_INVALID_ATTR_HANDLE_VALUE, CYBLE_GATT_INVALID_ATTR_HANDLE_VALUE}, CYBLE_UUID_BAS_S
 106:Generated_Source\PSoC4/BLE_eventHandler.c ****     #if(CYBLE_BASC_SERVICE_COUNT > 1u) /* Generate it by GUI */
 107:Generated_Source\PSoC4/BLE_eventHandler.c ****         
 108:Generated_Source\PSoC4/BLE_eventHandler.c ****     #endif /* CYBLE_BASC_SERVICE_COUNT > 1u */
 109:Generated_Source\PSoC4/BLE_eventHandler.c **** #endif /* CYBLE_BAS_CLIENT */
 110:Generated_Source\PSoC4/BLE_eventHandler.c **** #ifdef CYBLE_BLS_CLIENT
 111:Generated_Source\PSoC4/BLE_eventHandler.c ****     {{CYBLE_GATT_INVALID_ATTR_HANDLE_VALUE, CYBLE_GATT_INVALID_ATTR_HANDLE_VALUE}, CYBLE_UUID_BLOOD
 112:Generated_Source\PSoC4/BLE_eventHandler.c **** #endif /* CYBLE_BLS_CLIENT */
 113:Generated_Source\PSoC4/BLE_eventHandler.c **** #ifdef CYBLE_BMS_CLIENT
 114:Generated_Source\PSoC4/BLE_eventHandler.c ****     {{CYBLE_GATT_INVALID_ATTR_HANDLE_VALUE, CYBLE_GATT_INVALID_ATTR_HANDLE_VALUE}, CYBLE_UUID_BOND_
 115:Generated_Source\PSoC4/BLE_eventHandler.c **** #endif /* CYBLE_BMS_CLIENT */
 116:Generated_Source\PSoC4/BLE_eventHandler.c **** #ifdef CYBLE_CGMS_CLIENT
 117:Generated_Source\PSoC4/BLE_eventHandler.c ****     {{CYBLE_GATT_INVALID_ATTR_HANDLE_VALUE, CYBLE_GATT_INVALID_ATTR_HANDLE_VALUE}, CYBLE_UUID_CGM_S
 118:Generated_Source\PSoC4/BLE_eventHandler.c **** #endif /* CYBLE_CGMS_CLIENT */
 119:Generated_Source\PSoC4/BLE_eventHandler.c **** #ifdef CYBLE_CPS_CLIENT
 120:Generated_Source\PSoC4/BLE_eventHandler.c ****     {{CYBLE_GATT_INVALID_ATTR_HANDLE_VALUE, CYBLE_GATT_INVALID_ATTR_HANDLE_VALUE}, CYBLE_UUID_CPS_S
 121:Generated_Source\PSoC4/BLE_eventHandler.c **** #endif /* CYBLE_CPS_CLIENT */
 122:Generated_Source\PSoC4/BLE_eventHandler.c **** #ifdef CYBLE_CSCS_CLIENT
 123:Generated_Source\PSoC4/BLE_eventHandler.c ****     {{CYBLE_GATT_INVALID_ATTR_HANDLE_VALUE, CYBLE_GATT_INVALID_ATTR_HANDLE_VALUE}, 
 124:Generated_Source\PSoC4/BLE_eventHandler.c ****         CYBLE_UUID_CYCLING_SPEED_AND_CADENCE_SERVICE},
 125:Generated_Source\PSoC4/BLE_eventHandler.c **** #endif /* CYBLE_CSCS_CLIENT */
 126:Generated_Source\PSoC4/BLE_eventHandler.c **** #ifdef CYBLE_CTS_CLIENT
 127:Generated_Source\PSoC4/BLE_eventHandler.c ****     {{CYBLE_GATT_INVALID_ATTR_HANDLE_VALUE, CYBLE_GATT_INVALID_ATTR_HANDLE_VALUE}, CYBLE_UUID_CURRE
 128:Generated_Source\PSoC4/BLE_eventHandler.c **** #endif /* CYBLE_CTS_CLIENT */
 129:Generated_Source\PSoC4/BLE_eventHandler.c **** #ifdef CYBLE_CUSTOM_CLIENT
 130:Generated_Source\PSoC4/BLE_eventHandler.c ****     
 131:Generated_Source\PSoC4/BLE_eventHandler.c **** #endif /* CYBLE_CUSTOM_CLIENT */
 132:Generated_Source\PSoC4/BLE_eventHandler.c **** #ifdef CYBLE_DIS_CLIENT
 133:Generated_Source\PSoC4/BLE_eventHandler.c ****     {{CYBLE_GATT_INVALID_ATTR_HANDLE_VALUE, CYBLE_GATT_INVALID_ATTR_HANDLE_VALUE}, CYBLE_UUID_DEVIC
ARM GAS  C:\Users\TTSS\AppData\Local\Temp\ccwoAHLq.s 			page 4


 134:Generated_Source\PSoC4/BLE_eventHandler.c **** #endif /* CYBLE_DIS_CLIENT */
 135:Generated_Source\PSoC4/BLE_eventHandler.c **** #ifdef CYBLE_ESS_CLIENT
 136:Generated_Source\PSoC4/BLE_eventHandler.c ****     {{CYBLE_GATT_INVALID_ATTR_HANDLE_VALUE, CYBLE_GATT_INVALID_ATTR_HANDLE_VALUE}, 
 137:Generated_Source\PSoC4/BLE_eventHandler.c ****         CYBLE_UUID_ENVIRONMENTAL_SENSING_SERVICE},
 138:Generated_Source\PSoC4/BLE_eventHandler.c **** #endif /* CYBLE_ESS_CLIENT */
 139:Generated_Source\PSoC4/BLE_eventHandler.c **** #ifdef CYBLE_GLS_CLIENT
 140:Generated_Source\PSoC4/BLE_eventHandler.c ****     {{CYBLE_GATT_INVALID_ATTR_HANDLE_VALUE, CYBLE_GATT_INVALID_ATTR_HANDLE_VALUE}, CYBLE_UUID_GLUCO
 141:Generated_Source\PSoC4/BLE_eventHandler.c **** #endif /* CYBLE_GLS_CLIENT */
 142:Generated_Source\PSoC4/BLE_eventHandler.c **** #ifdef CYBLE_HIDS_CLIENT
 143:Generated_Source\PSoC4/BLE_eventHandler.c ****     {{CYBLE_GATT_INVALID_ATTR_HANDLE_VALUE, CYBLE_GATT_INVALID_ATTR_HANDLE_VALUE}, CYBLE_UUID_HIDS_
 144:Generated_Source\PSoC4/BLE_eventHandler.c ****     #if(CYBLE_HIDSC_SERVICE_COUNT > 1u) /* Generate it by GUI */
 145:Generated_Source\PSoC4/BLE_eventHandler.c ****         
 146:Generated_Source\PSoC4/BLE_eventHandler.c ****     #endif /* CYBLE_HIDSC_SERVICE_COUNT > 1u */
 147:Generated_Source\PSoC4/BLE_eventHandler.c **** #endif /* CYBLE_HIDS_CLIENT */
 148:Generated_Source\PSoC4/BLE_eventHandler.c **** #ifdef CYBLE_HRS_CLIENT
 149:Generated_Source\PSoC4/BLE_eventHandler.c ****     {{CYBLE_GATT_INVALID_ATTR_HANDLE_VALUE, CYBLE_GATT_INVALID_ATTR_HANDLE_VALUE}, CYBLE_UUID_HEART
 150:Generated_Source\PSoC4/BLE_eventHandler.c **** #endif /* CYBLE_HRS_CLIENT */
 151:Generated_Source\PSoC4/BLE_eventHandler.c **** #ifdef CYBLE_HTS_CLIENT
 152:Generated_Source\PSoC4/BLE_eventHandler.c ****     {{CYBLE_GATT_INVALID_ATTR_HANDLE_VALUE, CYBLE_GATT_INVALID_ATTR_HANDLE_VALUE}, CYBLE_UUID_HEALT
 153:Generated_Source\PSoC4/BLE_eventHandler.c **** #endif /* CYBLE_HTS_CLIENT */
 154:Generated_Source\PSoC4/BLE_eventHandler.c **** #ifdef CYBLE_IAS_CLIENT
 155:Generated_Source\PSoC4/BLE_eventHandler.c ****     {{CYBLE_GATT_INVALID_ATTR_HANDLE_VALUE, CYBLE_GATT_INVALID_ATTR_HANDLE_VALUE}, CYBLE_UUID_IMMED
 156:Generated_Source\PSoC4/BLE_eventHandler.c **** #endif /* CYBLE_IAS_CLIENT */
 157:Generated_Source\PSoC4/BLE_eventHandler.c **** #ifdef CYBLE_LLS_CLIENT
 158:Generated_Source\PSoC4/BLE_eventHandler.c ****     {{CYBLE_GATT_INVALID_ATTR_HANDLE_VALUE, CYBLE_GATT_INVALID_ATTR_HANDLE_VALUE}, CYBLE_UUID_LINK_
 159:Generated_Source\PSoC4/BLE_eventHandler.c **** #endif /* CYBLE_LLS_CLIENT */
 160:Generated_Source\PSoC4/BLE_eventHandler.c **** #ifdef CYBLE_LNS_CLIENT
 161:Generated_Source\PSoC4/BLE_eventHandler.c ****     {{CYBLE_GATT_INVALID_ATTR_HANDLE_VALUE, CYBLE_GATT_INVALID_ATTR_HANDLE_VALUE}, CYBLE_UUID_LOCAT
 162:Generated_Source\PSoC4/BLE_eventHandler.c **** #endif /* CYBLE_LNS_CLIENT */
 163:Generated_Source\PSoC4/BLE_eventHandler.c **** #ifdef CYBLE_NDCS_CLIENT
 164:Generated_Source\PSoC4/BLE_eventHandler.c ****     {{CYBLE_GATT_INVALID_ATTR_HANDLE_VALUE, CYBLE_GATT_INVALID_ATTR_HANDLE_VALUE}, CYBLE_UUID_NEXT_
 165:Generated_Source\PSoC4/BLE_eventHandler.c **** #endif /* CYBLE_NDCS_CLIENT */
 166:Generated_Source\PSoC4/BLE_eventHandler.c **** #ifdef CYBLE_IPSS_CLIENT
 167:Generated_Source\PSoC4/BLE_eventHandler.c ****     {{CYBLE_GATT_INVALID_ATTR_HANDLE_VALUE, CYBLE_GATT_INVALID_ATTR_HANDLE_VALUE}, CYBLE_UUID_INTER
 168:Generated_Source\PSoC4/BLE_eventHandler.c **** #endif /* CYBLE_IPSS_CLIENT */
 169:Generated_Source\PSoC4/BLE_eventHandler.c **** #ifdef CYBLE_PASS_CLIENT
 170:Generated_Source\PSoC4/BLE_eventHandler.c ****     {{CYBLE_GATT_INVALID_ATTR_HANDLE_VALUE, CYBLE_GATT_INVALID_ATTR_HANDLE_VALUE}, CYBLE_UUID_PHONE
 171:Generated_Source\PSoC4/BLE_eventHandler.c **** #endif /* CYBLE_PASS_CLIENT */
 172:Generated_Source\PSoC4/BLE_eventHandler.c **** #ifdef CYBLE_RSCS_CLIENT
 173:Generated_Source\PSoC4/BLE_eventHandler.c ****     {{CYBLE_GATT_INVALID_ATTR_HANDLE_VALUE, CYBLE_GATT_INVALID_ATTR_HANDLE_VALUE}, CYBLE_UUID_RUNNI
 174:Generated_Source\PSoC4/BLE_eventHandler.c **** #endif /* CYBLE_RSCS_CLIENT */
 175:Generated_Source\PSoC4/BLE_eventHandler.c **** #ifdef CYBLE_RTUS_CLIENT
 176:Generated_Source\PSoC4/BLE_eventHandler.c ****     {{CYBLE_GATT_INVALID_ATTR_HANDLE_VALUE, CYBLE_GATT_INVALID_ATTR_HANDLE_VALUE}, CYBLE_UUID_REF_T
 177:Generated_Source\PSoC4/BLE_eventHandler.c **** #endif /* CYBLE_RTUS_CLIENT */
 178:Generated_Source\PSoC4/BLE_eventHandler.c **** #ifdef CYBLE_SCPS_CLIENT
 179:Generated_Source\PSoC4/BLE_eventHandler.c ****     {{CYBLE_GATT_INVALID_ATTR_HANDLE_VALUE, CYBLE_GATT_INVALID_ATTR_HANDLE_VALUE}, CYBLE_UUID_SCAN_
 180:Generated_Source\PSoC4/BLE_eventHandler.c **** #endif /* CYBLE_SCPS_CLIENT */
 181:Generated_Source\PSoC4/BLE_eventHandler.c **** #ifdef CYBLE_TPS_CLIENT
 182:Generated_Source\PSoC4/BLE_eventHandler.c ****     {{CYBLE_GATT_INVALID_ATTR_HANDLE_VALUE, CYBLE_GATT_INVALID_ATTR_HANDLE_VALUE}, CYBLE_UUID_TX_PO
 183:Generated_Source\PSoC4/BLE_eventHandler.c **** #endif /* CYBLE_TPS_CLIENT */
 184:Generated_Source\PSoC4/BLE_eventHandler.c **** #ifdef CYBLE_UDS_CLIENT
 185:Generated_Source\PSoC4/BLE_eventHandler.c ****     {{CYBLE_GATT_INVALID_ATTR_HANDLE_VALUE, CYBLE_GATT_INVALID_ATTR_HANDLE_VALUE}, CYBLE_UUID_USER_
 186:Generated_Source\PSoC4/BLE_eventHandler.c **** #endif /* CYBLE_UDS_CLIENT */
 187:Generated_Source\PSoC4/BLE_eventHandler.c **** #ifdef CYBLE_WPTS_CLIENT
 188:Generated_Source\PSoC4/BLE_eventHandler.c ****     {{CYBLE_GATT_INVALID_ATTR_HANDLE_VALUE, CYBLE_GATT_INVALID_ATTR_HANDLE_VALUE}, CYBLE_UUID_WIREL
 189:Generated_Source\PSoC4/BLE_eventHandler.c **** #endif /* CYBLE_WPTS_CLIENT */
 190:Generated_Source\PSoC4/BLE_eventHandler.c **** };
ARM GAS  C:\Users\TTSS\AppData\Local\Temp\ccwoAHLq.s 			page 5


 191:Generated_Source\PSoC4/BLE_eventHandler.c **** 
 192:Generated_Source\PSoC4/BLE_eventHandler.c **** CYBLE_GAPC_T cyBle_gapc;
 193:Generated_Source\PSoC4/BLE_eventHandler.c **** 
 194:Generated_Source\PSoC4/BLE_eventHandler.c **** #endif /* CYBLE_GATT_ROLE_CLIENT */
 195:Generated_Source\PSoC4/BLE_eventHandler.c **** 
 196:Generated_Source\PSoC4/BLE_eventHandler.c **** /* Default device security */
 197:Generated_Source\PSoC4/BLE_eventHandler.c **** CYBLE_GAP_AUTH_INFO_T cyBle_authInfo =
 198:Generated_Source\PSoC4/BLE_eventHandler.c **** {
 199:Generated_Source\PSoC4/BLE_eventHandler.c ****     (CYBLE_GAP_SEC_MODE_1 | CYBLE_GAP_SEC_LEVEL_1 ), /* uint8 security */
 200:Generated_Source\PSoC4/BLE_eventHandler.c ****     CYBLE_GAP_BONDING, /* uint8 bonding */
 201:Generated_Source\PSoC4/BLE_eventHandler.c ****     0x10u,      /* uint8 ekeySize */
 202:Generated_Source\PSoC4/BLE_eventHandler.c ****     CYBLE_GAP_AUTH_ERROR_NONE, /* CYBLE_AUTH_FAILED_REASON_T authErr */
 203:Generated_Source\PSoC4/BLE_eventHandler.c **** };
 204:Generated_Source\PSoC4/BLE_eventHandler.c **** 
 205:Generated_Source\PSoC4/BLE_eventHandler.c **** #if(CYBLE_GATT_ROLE_SERVER)
 206:Generated_Source\PSoC4/BLE_eventHandler.c **** 
 207:Generated_Source\PSoC4/BLE_eventHandler.c **** 
 208:Generated_Source\PSoC4/BLE_eventHandler.c **** /******************************************************************************    
 209:Generated_Source\PSoC4/BLE_eventHandler.c **** ##Function Name: CyBle_WriteReqHandler
 210:Generated_Source\PSoC4/BLE_eventHandler.c **** *******************************************************************************
 211:Generated_Source\PSoC4/BLE_eventHandler.c **** 
 212:Generated_Source\PSoC4/BLE_eventHandler.c **** Summary:
 213:Generated_Source\PSoC4/BLE_eventHandler.c ****  Handles the Write Request event from BLE stack.
 214:Generated_Source\PSoC4/BLE_eventHandler.c **** 
 215:Generated_Source\PSoC4/BLE_eventHandler.c **** Parameters:
 216:Generated_Source\PSoC4/BLE_eventHandler.c ****  CYBLE_GATTS_WRITE_REQ_PARAM_T * eventParam - event parameter
 217:Generated_Source\PSoC4/BLE_eventHandler.c **** 
 218:Generated_Source\PSoC4/BLE_eventHandler.c **** Return:
 219:Generated_Source\PSoC4/BLE_eventHandler.c ****  None
 220:Generated_Source\PSoC4/BLE_eventHandler.c **** 
 221:Generated_Source\PSoC4/BLE_eventHandler.c **** ******************************************************************************/
 222:Generated_Source\PSoC4/BLE_eventHandler.c **** static void CyBle_WriteReqHandler(CYBLE_GATTS_WRITE_REQ_PARAM_T *eventParam)
 223:Generated_Source\PSoC4/BLE_eventHandler.c **** {
  39              		.loc 1 223 0
  40              		.cfi_startproc
  41 0000 90B5     		push	{r4, r7, lr}
  42              		.cfi_def_cfa_offset 12
  43              		.cfi_offset 4, -12
  44              		.cfi_offset 7, -8
  45              		.cfi_offset 14, -4
  46 0002 85B0     		sub	sp, sp, #20
  47              		.cfi_def_cfa_offset 32
  48 0004 00AF     		add	r7, sp, #0
  49              		.cfi_def_cfa_register 7
  50 0006 7860     		str	r0, [r7, #4]
 224:Generated_Source\PSoC4/BLE_eventHandler.c ****     CYBLE_GATT_ERR_CODE_T gattErr;
 225:Generated_Source\PSoC4/BLE_eventHandler.c **** #if defined CYBLE_CTS_SERVER || defined CYBLE_ESS_SERVER
 226:Generated_Source\PSoC4/BLE_eventHandler.c ****     cyBle_gattError = CYBLE_GATT_ERR_NONE;
 227:Generated_Source\PSoC4/BLE_eventHandler.c **** #endif /* defined CYBLE_CTS_SERVER || defined CYBLE_ESS_SERVER */
 228:Generated_Source\PSoC4/BLE_eventHandler.c ****     
 229:Generated_Source\PSoC4/BLE_eventHandler.c ****     gattErr = CyBle_GattsWriteEventHandler(eventParam);
  51              		.loc 1 229 0
  52 0008 0F23     		mov	r3, #15
  53 000a FC18     		add	r4, r7, r3
  54 000c 7B68     		ldr	r3, [r7, #4]
  55 000e 181C     		mov	r0, r3
  56 0010 FFF7FEFF 		bl	CyBle_GattsWriteEventHandler
ARM GAS  C:\Users\TTSS\AppData\Local\Temp\ccwoAHLq.s 			page 6


  57 0014 031C     		mov	r3, r0
  58 0016 2370     		strb	r3, [r4]
 230:Generated_Source\PSoC4/BLE_eventHandler.c **** #ifdef CYBLE_ANCS_SERVER
 231:Generated_Source\PSoC4/BLE_eventHandler.c ****     if(((cyBle_eventHandlerFlag & CYBLE_CALLBACK) != 0u) && (gattErr == CYBLE_GATT_ERR_NONE))
 232:Generated_Source\PSoC4/BLE_eventHandler.c ****     {
 233:Generated_Source\PSoC4/BLE_eventHandler.c ****         gattErr = CyBle_AncssWriteEventHandler(eventParam);
 234:Generated_Source\PSoC4/BLE_eventHandler.c ****     }
 235:Generated_Source\PSoC4/BLE_eventHandler.c **** #endif /* CYBLE_ANCS_SERVER */
 236:Generated_Source\PSoC4/BLE_eventHandler.c **** #ifdef CYBLE_ANS_SERVER
 237:Generated_Source\PSoC4/BLE_eventHandler.c ****     if(((cyBle_eventHandlerFlag & CYBLE_CALLBACK) != 0u) && (gattErr == CYBLE_GATT_ERR_NONE))
 238:Generated_Source\PSoC4/BLE_eventHandler.c ****     {
 239:Generated_Source\PSoC4/BLE_eventHandler.c ****         gattErr = CyBle_AnssWriteEventHandler(eventParam);
 240:Generated_Source\PSoC4/BLE_eventHandler.c ****     }
 241:Generated_Source\PSoC4/BLE_eventHandler.c **** #endif /* CYBLE_ANS_SERVER */
 242:Generated_Source\PSoC4/BLE_eventHandler.c **** #ifdef CYBLE_BAS_SERVER
 243:Generated_Source\PSoC4/BLE_eventHandler.c ****     if(((cyBle_eventHandlerFlag & CYBLE_CALLBACK) != 0u) && (gattErr == CYBLE_GATT_ERR_NONE))
 244:Generated_Source\PSoC4/BLE_eventHandler.c ****     {
 245:Generated_Source\PSoC4/BLE_eventHandler.c ****         gattErr = CyBle_BassWriteEventHandler(eventParam);
 246:Generated_Source\PSoC4/BLE_eventHandler.c ****     }
 247:Generated_Source\PSoC4/BLE_eventHandler.c **** #endif /* CYBLE_BAS_SERVER */
 248:Generated_Source\PSoC4/BLE_eventHandler.c **** #ifdef CYBLE_BLS_SERVER
 249:Generated_Source\PSoC4/BLE_eventHandler.c ****     if(((cyBle_eventHandlerFlag & CYBLE_CALLBACK) != 0u) && (gattErr == CYBLE_GATT_ERR_NONE))
 250:Generated_Source\PSoC4/BLE_eventHandler.c ****     {
 251:Generated_Source\PSoC4/BLE_eventHandler.c ****         gattErr = CyBle_BlssWriteEventHandler(eventParam);
 252:Generated_Source\PSoC4/BLE_eventHandler.c ****     }
 253:Generated_Source\PSoC4/BLE_eventHandler.c **** #endif /* CYBLE_BLS_SERVER */
 254:Generated_Source\PSoC4/BLE_eventHandler.c **** #ifdef CYBLE_BMS_SERVER
 255:Generated_Source\PSoC4/BLE_eventHandler.c ****     if(((cyBle_eventHandlerFlag & CYBLE_CALLBACK) != 0u) && (gattErr == CYBLE_GATT_ERR_NONE))
 256:Generated_Source\PSoC4/BLE_eventHandler.c ****     {
 257:Generated_Source\PSoC4/BLE_eventHandler.c ****         gattErr = CyBle_BmssWriteEventHandler(eventParam);
 258:Generated_Source\PSoC4/BLE_eventHandler.c ****     }
 259:Generated_Source\PSoC4/BLE_eventHandler.c **** #endif /* CYBLE_BMS_SERVER */
 260:Generated_Source\PSoC4/BLE_eventHandler.c **** #ifdef CYBLE_BTS_SERVER
 261:Generated_Source\PSoC4/BLE_eventHandler.c ****     if((cyBle_eventHandlerFlag & CYBLE_CALLBACK) != 0u)
 262:Generated_Source\PSoC4/BLE_eventHandler.c ****     {
 263:Generated_Source\PSoC4/BLE_eventHandler.c ****         gattErr = CyBle_BtsWriteEventHandler(eventParam);
 264:Generated_Source\PSoC4/BLE_eventHandler.c ****     }
 265:Generated_Source\PSoC4/BLE_eventHandler.c **** #endif /* CYBLE_BTS_SERVER */
 266:Generated_Source\PSoC4/BLE_eventHandler.c **** #ifdef CYBLE_CGMS_SERVER
 267:Generated_Source\PSoC4/BLE_eventHandler.c ****     if(((cyBle_eventHandlerFlag & CYBLE_CALLBACK) != 0u) && (gattErr == CYBLE_GATT_ERR_NONE))
 268:Generated_Source\PSoC4/BLE_eventHandler.c ****     {
 269:Generated_Source\PSoC4/BLE_eventHandler.c ****         gattErr = CyBle_CgmssWriteEventHandler(eventParam);
 270:Generated_Source\PSoC4/BLE_eventHandler.c ****     }
 271:Generated_Source\PSoC4/BLE_eventHandler.c **** #endif /* CYBLE_CGMS_SERVER */
 272:Generated_Source\PSoC4/BLE_eventHandler.c **** #ifdef CYBLE_CPS_SERVER
 273:Generated_Source\PSoC4/BLE_eventHandler.c ****     if(((cyBle_eventHandlerFlag & CYBLE_CALLBACK) != 0u) && (gattErr == CYBLE_GATT_ERR_NONE))
 274:Generated_Source\PSoC4/BLE_eventHandler.c ****     {
 275:Generated_Source\PSoC4/BLE_eventHandler.c ****         gattErr = CyBle_CpssWriteEventHandler(eventParam);
 276:Generated_Source\PSoC4/BLE_eventHandler.c ****     }
 277:Generated_Source\PSoC4/BLE_eventHandler.c **** #endif /* CYBLE_CPS_SERVER */
 278:Generated_Source\PSoC4/BLE_eventHandler.c **** #ifdef CYBLE_CSCS_SERVER
 279:Generated_Source\PSoC4/BLE_eventHandler.c ****     if(((cyBle_eventHandlerFlag & CYBLE_CALLBACK) != 0u) && (gattErr == CYBLE_GATT_ERR_NONE))
 280:Generated_Source\PSoC4/BLE_eventHandler.c ****     {
 281:Generated_Source\PSoC4/BLE_eventHandler.c ****         gattErr = CyBle_CscssWriteEventHandler(eventParam);
 282:Generated_Source\PSoC4/BLE_eventHandler.c ****     }
 283:Generated_Source\PSoC4/BLE_eventHandler.c **** #endif /* CYBLE_CSCS_SERVER */
 284:Generated_Source\PSoC4/BLE_eventHandler.c **** #ifdef CYBLE_CTS_SERVER
ARM GAS  C:\Users\TTSS\AppData\Local\Temp\ccwoAHLq.s 			page 7


 285:Generated_Source\PSoC4/BLE_eventHandler.c ****     if(((cyBle_eventHandlerFlag & CYBLE_CALLBACK) != 0u) && (gattErr == CYBLE_GATT_ERR_NONE))
 286:Generated_Source\PSoC4/BLE_eventHandler.c ****     {
 287:Generated_Source\PSoC4/BLE_eventHandler.c ****         gattErr = CyBle_CtssWriteEventHandler(eventParam);
 288:Generated_Source\PSoC4/BLE_eventHandler.c ****     }
 289:Generated_Source\PSoC4/BLE_eventHandler.c **** #endif /* CYBLE_CTS_SERVER */
 290:Generated_Source\PSoC4/BLE_eventHandler.c **** #ifdef CYBLE_ESS_SERVER
 291:Generated_Source\PSoC4/BLE_eventHandler.c ****     if(((cyBle_eventHandlerFlag & CYBLE_CALLBACK) != 0u) && (gattErr == CYBLE_GATT_ERR_NONE))
 292:Generated_Source\PSoC4/BLE_eventHandler.c ****     {
 293:Generated_Source\PSoC4/BLE_eventHandler.c ****         gattErr = CyBle_EsssWriteEventHandler(eventParam);
 294:Generated_Source\PSoC4/BLE_eventHandler.c ****     }
 295:Generated_Source\PSoC4/BLE_eventHandler.c **** #endif /* CYBLE_ESS_SERVER */
 296:Generated_Source\PSoC4/BLE_eventHandler.c **** #ifdef CYBLE_GLS_SERVER
 297:Generated_Source\PSoC4/BLE_eventHandler.c ****     if(((cyBle_eventHandlerFlag & CYBLE_CALLBACK) != 0u) && (gattErr == CYBLE_GATT_ERR_NONE))
 298:Generated_Source\PSoC4/BLE_eventHandler.c ****     {
 299:Generated_Source\PSoC4/BLE_eventHandler.c ****         gattErr = CyBle_GlssWriteEventHandler(eventParam);
 300:Generated_Source\PSoC4/BLE_eventHandler.c ****     }
 301:Generated_Source\PSoC4/BLE_eventHandler.c **** #endif /* CYBLE_GLS_SERVER */
 302:Generated_Source\PSoC4/BLE_eventHandler.c **** #ifdef CYBLE_HIDS_SERVER
 303:Generated_Source\PSoC4/BLE_eventHandler.c ****     if(((cyBle_eventHandlerFlag & CYBLE_CALLBACK) != 0u) && (gattErr == CYBLE_GATT_ERR_NONE))
 304:Generated_Source\PSoC4/BLE_eventHandler.c ****     {
 305:Generated_Source\PSoC4/BLE_eventHandler.c ****         gattErr = CyBle_HidssWriteEventHandler(eventParam);
 306:Generated_Source\PSoC4/BLE_eventHandler.c ****     }
 307:Generated_Source\PSoC4/BLE_eventHandler.c **** #endif /* CYBLE_HIDS_SERVER */
 308:Generated_Source\PSoC4/BLE_eventHandler.c **** #ifdef CYBLE_HRS_SERVER
 309:Generated_Source\PSoC4/BLE_eventHandler.c ****     if(((cyBle_eventHandlerFlag & CYBLE_CALLBACK) != 0u) && (gattErr == CYBLE_GATT_ERR_NONE))
 310:Generated_Source\PSoC4/BLE_eventHandler.c ****     {
 311:Generated_Source\PSoC4/BLE_eventHandler.c ****         gattErr = CyBle_HrssWriteEventHandler(eventParam);
 312:Generated_Source\PSoC4/BLE_eventHandler.c ****     }
 313:Generated_Source\PSoC4/BLE_eventHandler.c **** #endif /* CYBLE_HRS_SERVER */
 314:Generated_Source\PSoC4/BLE_eventHandler.c **** #ifdef CYBLE_HTS_SERVER
 315:Generated_Source\PSoC4/BLE_eventHandler.c ****     if(((cyBle_eventHandlerFlag & CYBLE_CALLBACK) != 0u) && (gattErr == CYBLE_GATT_ERR_NONE))
 316:Generated_Source\PSoC4/BLE_eventHandler.c ****     {
 317:Generated_Source\PSoC4/BLE_eventHandler.c ****         gattErr = CyBle_HtssWriteEventHandler(eventParam);
 318:Generated_Source\PSoC4/BLE_eventHandler.c ****     }
 319:Generated_Source\PSoC4/BLE_eventHandler.c **** #endif /* CYBLE_HTS_SERVER */
 320:Generated_Source\PSoC4/BLE_eventHandler.c **** #ifdef CYBLE_LLS_SERVER
 321:Generated_Source\PSoC4/BLE_eventHandler.c ****     if(((cyBle_eventHandlerFlag & CYBLE_CALLBACK) != 0u) && (gattErr == CYBLE_GATT_ERR_NONE))
 322:Generated_Source\PSoC4/BLE_eventHandler.c ****     {
 323:Generated_Source\PSoC4/BLE_eventHandler.c ****         gattErr = CyBle_LlssWriteEventHandler(eventParam);
 324:Generated_Source\PSoC4/BLE_eventHandler.c ****     }
 325:Generated_Source\PSoC4/BLE_eventHandler.c **** #endif /* CYBLE_LLS_SERVER */
 326:Generated_Source\PSoC4/BLE_eventHandler.c **** #ifdef CYBLE_LNS_SERVER
 327:Generated_Source\PSoC4/BLE_eventHandler.c ****     if(((cyBle_eventHandlerFlag & CYBLE_CALLBACK) != 0u) && (gattErr == CYBLE_GATT_ERR_NONE))
 328:Generated_Source\PSoC4/BLE_eventHandler.c ****     {
 329:Generated_Source\PSoC4/BLE_eventHandler.c ****         gattErr = CyBle_LnssWriteEventHandler(eventParam);
 330:Generated_Source\PSoC4/BLE_eventHandler.c ****     }
 331:Generated_Source\PSoC4/BLE_eventHandler.c **** #endif /* CYBLE_LNS_SERVER */
 332:Generated_Source\PSoC4/BLE_eventHandler.c **** #ifdef CYBLE_PASS_SERVER
 333:Generated_Source\PSoC4/BLE_eventHandler.c ****     if(((cyBle_eventHandlerFlag & CYBLE_CALLBACK) != 0u) && (gattErr == CYBLE_GATT_ERR_NONE))
 334:Generated_Source\PSoC4/BLE_eventHandler.c ****     {
 335:Generated_Source\PSoC4/BLE_eventHandler.c ****         gattErr = CyBle_PasssWriteEventHandler(eventParam);
 336:Generated_Source\PSoC4/BLE_eventHandler.c ****     }
 337:Generated_Source\PSoC4/BLE_eventHandler.c **** #endif /* CYBLE_PASS_SERVER */
 338:Generated_Source\PSoC4/BLE_eventHandler.c **** #ifdef CYBLE_RSCS_SERVER
 339:Generated_Source\PSoC4/BLE_eventHandler.c ****     if(((cyBle_eventHandlerFlag & CYBLE_CALLBACK) != 0u) && (gattErr == CYBLE_GATT_ERR_NONE))
 340:Generated_Source\PSoC4/BLE_eventHandler.c ****     {
 341:Generated_Source\PSoC4/BLE_eventHandler.c ****         gattErr = CyBle_RscssWriteEventHandler(eventParam);
ARM GAS  C:\Users\TTSS\AppData\Local\Temp\ccwoAHLq.s 			page 8


 342:Generated_Source\PSoC4/BLE_eventHandler.c ****     }
 343:Generated_Source\PSoC4/BLE_eventHandler.c **** #endif /* CYBLE_RSCS_SERVER */
 344:Generated_Source\PSoC4/BLE_eventHandler.c **** #ifdef CYBLE_SCPS_SERVER
 345:Generated_Source\PSoC4/BLE_eventHandler.c ****     if(((cyBle_eventHandlerFlag & CYBLE_CALLBACK) != 0u) && (gattErr == CYBLE_GATT_ERR_NONE))
 346:Generated_Source\PSoC4/BLE_eventHandler.c ****     {
 347:Generated_Source\PSoC4/BLE_eventHandler.c ****         gattErr = CyBle_ScpssWriteEventHandler(eventParam);
 348:Generated_Source\PSoC4/BLE_eventHandler.c ****     }
 349:Generated_Source\PSoC4/BLE_eventHandler.c **** #endif /* CYBLE_SCPS_SERVER */
 350:Generated_Source\PSoC4/BLE_eventHandler.c **** #ifdef CYBLE_TPS_SERVER
 351:Generated_Source\PSoC4/BLE_eventHandler.c ****     if(((cyBle_eventHandlerFlag & CYBLE_CALLBACK) != 0u) && (gattErr == CYBLE_GATT_ERR_NONE))
 352:Generated_Source\PSoC4/BLE_eventHandler.c ****     {
 353:Generated_Source\PSoC4/BLE_eventHandler.c ****         gattErr = CyBle_TpssWriteEventHandler(eventParam);
 354:Generated_Source\PSoC4/BLE_eventHandler.c ****     }
 355:Generated_Source\PSoC4/BLE_eventHandler.c **** #endif /* CYBLE_TPS_SERVER */
 356:Generated_Source\PSoC4/BLE_eventHandler.c **** #ifdef CYBLE_UDS_SERVER
 357:Generated_Source\PSoC4/BLE_eventHandler.c ****     if(((cyBle_eventHandlerFlag & CYBLE_CALLBACK) != 0u) && (gattErr == CYBLE_GATT_ERR_NONE))
 358:Generated_Source\PSoC4/BLE_eventHandler.c ****     {
 359:Generated_Source\PSoC4/BLE_eventHandler.c ****         gattErr = CyBle_UdssWriteEventHandler(eventParam);
 360:Generated_Source\PSoC4/BLE_eventHandler.c ****     }
 361:Generated_Source\PSoC4/BLE_eventHandler.c **** #endif /* CYBLE_UDS_SERVER */
 362:Generated_Source\PSoC4/BLE_eventHandler.c **** #ifdef CYBLE_WPTS_SERVER
 363:Generated_Source\PSoC4/BLE_eventHandler.c ****     if(((cyBle_eventHandlerFlag & CYBLE_CALLBACK) != 0u) && (gattErr == CYBLE_GATT_ERR_NONE))
 364:Generated_Source\PSoC4/BLE_eventHandler.c ****     {
 365:Generated_Source\PSoC4/BLE_eventHandler.c ****         gattErr = CyBle_WptssWriteEventHandler(eventParam);
 366:Generated_Source\PSoC4/BLE_eventHandler.c ****     }
 367:Generated_Source\PSoC4/BLE_eventHandler.c **** #endif /* CYBLE_WPTS_SERVER */
 368:Generated_Source\PSoC4/BLE_eventHandler.c **** #ifdef CYBLE_WSS_SERVER
 369:Generated_Source\PSoC4/BLE_eventHandler.c ****     if(((cyBle_eventHandlerFlag & CYBLE_CALLBACK) != 0u) && (gattErr == CYBLE_GATT_ERR_NONE))
 370:Generated_Source\PSoC4/BLE_eventHandler.c ****     {
 371:Generated_Source\PSoC4/BLE_eventHandler.c ****         gattErr = CyBle_WsssWriteEventHandler(eventParam);
 372:Generated_Source\PSoC4/BLE_eventHandler.c ****     }
 373:Generated_Source\PSoC4/BLE_eventHandler.c **** #endif /* CYBLE_WSS_SERVER */
 374:Generated_Source\PSoC4/BLE_eventHandler.c **** 
 375:Generated_Source\PSoC4/BLE_eventHandler.c ****     /* Send response when event was handled by service */
 376:Generated_Source\PSoC4/BLE_eventHandler.c ****     if((cyBle_eventHandlerFlag & CYBLE_CALLBACK) == 0u)
  59              		.loc 1 376 0
  60 0018 144B     		ldr	r3, .L4
  61 001a 1B78     		ldrb	r3, [r3]
  62 001c DBB2     		uxtb	r3, r3
  63 001e 1A1C     		mov	r2, r3
  64 0020 0123     		mov	r3, #1
  65 0022 1340     		and	r3, r2
  66 0024 1FD1     		bne	.L1
 377:Generated_Source\PSoC4/BLE_eventHandler.c ****     {
 378:Generated_Source\PSoC4/BLE_eventHandler.c ****         if(gattErr != CYBLE_GATT_ERR_NONE)
  67              		.loc 1 378 0
  68 0026 0F23     		mov	r3, #15
  69 0028 FB18     		add	r3, r7, r3
  70 002a 1B78     		ldrb	r3, [r3]
  71 002c 002B     		cmp	r3, #0
  72 002e 16D0     		beq	.L3
  73              	.LBB2:
 379:Generated_Source\PSoC4/BLE_eventHandler.c ****         {
 380:Generated_Source\PSoC4/BLE_eventHandler.c ****             CYBLE_GATTS_ERR_PARAM_T err_param;
 381:Generated_Source\PSoC4/BLE_eventHandler.c ****             
 382:Generated_Source\PSoC4/BLE_eventHandler.c ****             err_param.opcode = (uint8) CYBLE_GATT_WRITE_REQ;
  74              		.loc 1 382 0
ARM GAS  C:\Users\TTSS\AppData\Local\Temp\ccwoAHLq.s 			page 9


  75 0030 0823     		mov	r3, #8
  76 0032 FB18     		add	r3, r7, r3
  77 0034 1222     		mov	r2, #18
  78 0036 9A70     		strb	r2, [r3, #2]
 383:Generated_Source\PSoC4/BLE_eventHandler.c ****             err_param.attrHandle = eventParam->handleValPair.attrHandle;
  79              		.loc 1 383 0
  80 0038 7B68     		ldr	r3, [r7, #4]
  81 003a 9A89     		ldrh	r2, [r3, #12]
  82 003c 0823     		mov	r3, #8
  83 003e FB18     		add	r3, r7, r3
  84 0040 1A80     		strh	r2, [r3]
 384:Generated_Source\PSoC4/BLE_eventHandler.c ****             err_param.errorCode = gattErr;
  85              		.loc 1 384 0
  86 0042 0823     		mov	r3, #8
  87 0044 FB18     		add	r3, r7, r3
  88 0046 0F22     		mov	r2, #15
  89 0048 BA18     		add	r2, r7, r2
  90 004a 1278     		ldrb	r2, [r2]
  91 004c DA70     		strb	r2, [r3, #3]
 385:Generated_Source\PSoC4/BLE_eventHandler.c **** 
 386:Generated_Source\PSoC4/BLE_eventHandler.c ****             /* Send Error Response */
 387:Generated_Source\PSoC4/BLE_eventHandler.c ****             (void)CyBle_GattsErrorRsp(eventParam->connHandle, &err_param);
  92              		.loc 1 387 0
  93 004e 7B68     		ldr	r3, [r7, #4]
  94 0050 0822     		mov	r2, #8
  95 0052 BA18     		add	r2, r7, r2
  96 0054 1868     		ldr	r0, [r3]
  97 0056 111C     		mov	r1, r2
  98 0058 FFF7FEFF 		bl	CyBle_GattsErrorRsp
  99              	.LBE2:
 100 005c 03E0     		b	.L1
 101              	.L3:
 388:Generated_Source\PSoC4/BLE_eventHandler.c ****         }
 389:Generated_Source\PSoC4/BLE_eventHandler.c ****         else
 390:Generated_Source\PSoC4/BLE_eventHandler.c ****         {
 391:Generated_Source\PSoC4/BLE_eventHandler.c ****             (void)CyBle_GattsWriteRsp(eventParam->connHandle);
 102              		.loc 1 391 0
 103 005e 7B68     		ldr	r3, [r7, #4]
 104 0060 1868     		ldr	r0, [r3]
 105 0062 FFF7FEFF 		bl	CyBle_GattsWriteRsp
 106              	.L1:
 392:Generated_Source\PSoC4/BLE_eventHandler.c ****         }
 393:Generated_Source\PSoC4/BLE_eventHandler.c ****     }
 394:Generated_Source\PSoC4/BLE_eventHandler.c **** }
 107              		.loc 1 394 0
 108 0066 BD46     		mov	sp, r7
 109 0068 05B0     		add	sp, sp, #20
 110              		@ sp needed
 111 006a 90BD     		pop	{r4, r7, pc}
 112              	.L5:
 113              		.align	2
 114              	.L4:
 115 006c 00000000 		.word	cyBle_eventHandlerFlag
 116              		.cfi_endproc
 117              	.LFE2:
 118              		.size	CyBle_WriteReqHandler, .-CyBle_WriteReqHandler
 119              		.section	.text.CyBle_ValueConfirmation,"ax",%progbits
ARM GAS  C:\Users\TTSS\AppData\Local\Temp\ccwoAHLq.s 			page 10


 120              		.align	2
 121              		.code	16
 122              		.thumb_func
 123              		.type	CyBle_ValueConfirmation, %function
 124              	CyBle_ValueConfirmation:
 125              	.LFB3:
 395:Generated_Source\PSoC4/BLE_eventHandler.c **** 
 396:Generated_Source\PSoC4/BLE_eventHandler.c **** 
 397:Generated_Source\PSoC4/BLE_eventHandler.c **** /****************************************************************************** 
 398:Generated_Source\PSoC4/BLE_eventHandler.c **** ##Function Name: CyBle_ValueConfirmation
 399:Generated_Source\PSoC4/BLE_eventHandler.c **** *******************************************************************************
 400:Generated_Source\PSoC4/BLE_eventHandler.c **** 
 401:Generated_Source\PSoC4/BLE_eventHandler.c **** Summary:
 402:Generated_Source\PSoC4/BLE_eventHandler.c ****  Handles the Value Confirmation request event from the BLE stack.
 403:Generated_Source\PSoC4/BLE_eventHandler.c **** 
 404:Generated_Source\PSoC4/BLE_eventHandler.c **** Parameters:
 405:Generated_Source\PSoC4/BLE_eventHandler.c ****  CYBLE_CONN_HANDLE_T *eventParam - Pointer to a structure
 406:Generated_Source\PSoC4/BLE_eventHandler.c ****     of type 'CYBLE_CONN_HANDLE_T'
 407:Generated_Source\PSoC4/BLE_eventHandler.c **** 
 408:Generated_Source\PSoC4/BLE_eventHandler.c **** Return:
 409:Generated_Source\PSoC4/BLE_eventHandler.c ****  None
 410:Generated_Source\PSoC4/BLE_eventHandler.c **** 
 411:Generated_Source\PSoC4/BLE_eventHandler.c **** ******************************************************************************/
 412:Generated_Source\PSoC4/BLE_eventHandler.c **** static void CyBle_ValueConfirmation(const CYBLE_CONN_HANDLE_T *eventParam)
 413:Generated_Source\PSoC4/BLE_eventHandler.c **** {
 126              		.loc 1 413 0
 127              		.cfi_startproc
 128 0000 80B5     		push	{r7, lr}
 129              		.cfi_def_cfa_offset 8
 130              		.cfi_offset 7, -8
 131              		.cfi_offset 14, -4
 132 0002 82B0     		sub	sp, sp, #8
 133              		.cfi_def_cfa_offset 16
 134 0004 00AF     		add	r7, sp, #0
 135              		.cfi_def_cfa_register 7
 136 0006 7860     		str	r0, [r7, #4]
 414:Generated_Source\PSoC4/BLE_eventHandler.c ****     if(eventParam != NULL)
 415:Generated_Source\PSoC4/BLE_eventHandler.c ****     {
 416:Generated_Source\PSoC4/BLE_eventHandler.c ****     #ifdef CYBLE_BLS_SERVER
 417:Generated_Source\PSoC4/BLE_eventHandler.c ****         CyBle_BlssConfirmationEventHandler(eventParam);
 418:Generated_Source\PSoC4/BLE_eventHandler.c ****     #endif /* CYBLE_BLS_SERVER */
 419:Generated_Source\PSoC4/BLE_eventHandler.c ****     
 420:Generated_Source\PSoC4/BLE_eventHandler.c ****     #ifdef CYBLE_CGMS_SERVER
 421:Generated_Source\PSoC4/BLE_eventHandler.c ****         if((cyBle_eventHandlerFlag & CYBLE_CALLBACK) != 0u)
 422:Generated_Source\PSoC4/BLE_eventHandler.c ****         {
 423:Generated_Source\PSoC4/BLE_eventHandler.c ****             CyBle_CgmssConfirmationEventHandler(eventParam);
 424:Generated_Source\PSoC4/BLE_eventHandler.c ****         }
 425:Generated_Source\PSoC4/BLE_eventHandler.c ****     #endif /* CYBLE_CGMS_SERVER */
 426:Generated_Source\PSoC4/BLE_eventHandler.c ****     
 427:Generated_Source\PSoC4/BLE_eventHandler.c ****     #ifdef CYBLE_CPS_SERVER
 428:Generated_Source\PSoC4/BLE_eventHandler.c ****         if((cyBle_eventHandlerFlag & CYBLE_CALLBACK) != 0u)
 429:Generated_Source\PSoC4/BLE_eventHandler.c ****         {
 430:Generated_Source\PSoC4/BLE_eventHandler.c ****             CyBle_CpssConfirmationEventHandler(eventParam);
 431:Generated_Source\PSoC4/BLE_eventHandler.c ****         }
 432:Generated_Source\PSoC4/BLE_eventHandler.c ****     #endif /* CYBLE_CPS_SERVER */
 433:Generated_Source\PSoC4/BLE_eventHandler.c ****     
 434:Generated_Source\PSoC4/BLE_eventHandler.c ****     #ifdef CYBLE_CSCS_SERVER
ARM GAS  C:\Users\TTSS\AppData\Local\Temp\ccwoAHLq.s 			page 11


 435:Generated_Source\PSoC4/BLE_eventHandler.c ****         if((cyBle_eventHandlerFlag & CYBLE_CALLBACK) != 0u)
 436:Generated_Source\PSoC4/BLE_eventHandler.c ****         {
 437:Generated_Source\PSoC4/BLE_eventHandler.c ****             CyBle_CscssConfirmationEventHandler(eventParam);
 438:Generated_Source\PSoC4/BLE_eventHandler.c ****         }
 439:Generated_Source\PSoC4/BLE_eventHandler.c ****     #endif /* CYBLE_CSCS_SERVER */
 440:Generated_Source\PSoC4/BLE_eventHandler.c ****     
 441:Generated_Source\PSoC4/BLE_eventHandler.c ****     #ifdef CYBLE_ESS_SERVER
 442:Generated_Source\PSoC4/BLE_eventHandler.c ****         if((cyBle_eventHandlerFlag & CYBLE_CALLBACK) != 0u)
 443:Generated_Source\PSoC4/BLE_eventHandler.c ****         {
 444:Generated_Source\PSoC4/BLE_eventHandler.c ****             CyBle_EsssConfirmationEventHandler(eventParam);
 445:Generated_Source\PSoC4/BLE_eventHandler.c ****         }
 446:Generated_Source\PSoC4/BLE_eventHandler.c ****     #endif /* CYBLE_ESS_SERVER */
 447:Generated_Source\PSoC4/BLE_eventHandler.c ****     
 448:Generated_Source\PSoC4/BLE_eventHandler.c ****     #ifdef CYBLE_GLS_SERVER
 449:Generated_Source\PSoC4/BLE_eventHandler.c ****         if((cyBle_eventHandlerFlag & CYBLE_CALLBACK) != 0u)
 450:Generated_Source\PSoC4/BLE_eventHandler.c ****         {
 451:Generated_Source\PSoC4/BLE_eventHandler.c ****             CyBle_GlssConfirmationEventHandler(eventParam);
 452:Generated_Source\PSoC4/BLE_eventHandler.c ****         }
 453:Generated_Source\PSoC4/BLE_eventHandler.c ****     #endif /* CYBLE_GLS_SERVER */
 454:Generated_Source\PSoC4/BLE_eventHandler.c ****     
 455:Generated_Source\PSoC4/BLE_eventHandler.c ****     #ifdef CYBLE_HTS_SERVER
 456:Generated_Source\PSoC4/BLE_eventHandler.c ****         if((cyBle_eventHandlerFlag & CYBLE_CALLBACK) != 0u)
 457:Generated_Source\PSoC4/BLE_eventHandler.c ****         {
 458:Generated_Source\PSoC4/BLE_eventHandler.c ****             CyBle_HtssConfirmationEventHandler(eventParam);
 459:Generated_Source\PSoC4/BLE_eventHandler.c ****         }
 460:Generated_Source\PSoC4/BLE_eventHandler.c ****     #endif /* CYBLE_HTS_SERVER */
 461:Generated_Source\PSoC4/BLE_eventHandler.c **** 
 462:Generated_Source\PSoC4/BLE_eventHandler.c ****     #ifdef CYBLE_LNS_SERVER
 463:Generated_Source\PSoC4/BLE_eventHandler.c ****         if((cyBle_eventHandlerFlag & CYBLE_CALLBACK) != 0u)
 464:Generated_Source\PSoC4/BLE_eventHandler.c ****         {
 465:Generated_Source\PSoC4/BLE_eventHandler.c ****             CyBle_LnssConfirmationEventHandler(eventParam);
 466:Generated_Source\PSoC4/BLE_eventHandler.c ****         }
 467:Generated_Source\PSoC4/BLE_eventHandler.c ****     #endif /* CYBLE_LNS_SERVER */
 468:Generated_Source\PSoC4/BLE_eventHandler.c ****     
 469:Generated_Source\PSoC4/BLE_eventHandler.c ****     #ifdef CYBLE_RSCS_SERVER
 470:Generated_Source\PSoC4/BLE_eventHandler.c ****         if((cyBle_eventHandlerFlag & CYBLE_CALLBACK) != 0u)
 471:Generated_Source\PSoC4/BLE_eventHandler.c ****         {
 472:Generated_Source\PSoC4/BLE_eventHandler.c ****             CyBle_RscssConfirmationEventHandler(eventParam);
 473:Generated_Source\PSoC4/BLE_eventHandler.c ****         }
 474:Generated_Source\PSoC4/BLE_eventHandler.c ****     #endif /* CYBLE_RSCS_SERVER */
 475:Generated_Source\PSoC4/BLE_eventHandler.c ****     
 476:Generated_Source\PSoC4/BLE_eventHandler.c ****     #ifdef CYBLE_UDS_SERVER
 477:Generated_Source\PSoC4/BLE_eventHandler.c ****         if((cyBle_eventHandlerFlag & CYBLE_CALLBACK) != 0u)
 478:Generated_Source\PSoC4/BLE_eventHandler.c ****         {
 479:Generated_Source\PSoC4/BLE_eventHandler.c ****             CyBle_UdssConfirmationEventHandler(eventParam);
 480:Generated_Source\PSoC4/BLE_eventHandler.c ****         }
 481:Generated_Source\PSoC4/BLE_eventHandler.c ****     #endif /* CYBLE_UDS_SERVER */
 482:Generated_Source\PSoC4/BLE_eventHandler.c ****     
 483:Generated_Source\PSoC4/BLE_eventHandler.c ****     #ifdef CYBLE_WPTS_SERVER
 484:Generated_Source\PSoC4/BLE_eventHandler.c ****         if((cyBle_eventHandlerFlag & CYBLE_CALLBACK) != 0u)
 485:Generated_Source\PSoC4/BLE_eventHandler.c ****         {
 486:Generated_Source\PSoC4/BLE_eventHandler.c ****             CyBle_WptssConfirmationEventHandler(eventParam);
 487:Generated_Source\PSoC4/BLE_eventHandler.c ****         }
 488:Generated_Source\PSoC4/BLE_eventHandler.c ****     #endif /* CYBLE_WPTS_SERVER */
 489:Generated_Source\PSoC4/BLE_eventHandler.c ****     
 490:Generated_Source\PSoC4/BLE_eventHandler.c ****     #ifdef CYBLE_WSS_SERVER
 491:Generated_Source\PSoC4/BLE_eventHandler.c ****         if((cyBle_eventHandlerFlag & CYBLE_CALLBACK) != 0u)
ARM GAS  C:\Users\TTSS\AppData\Local\Temp\ccwoAHLq.s 			page 12


 492:Generated_Source\PSoC4/BLE_eventHandler.c ****         {
 493:Generated_Source\PSoC4/BLE_eventHandler.c ****             CyBle_WsssConfirmationEventHandler(eventParam);
 494:Generated_Source\PSoC4/BLE_eventHandler.c ****         }
 495:Generated_Source\PSoC4/BLE_eventHandler.c ****     #endif /* CYBLE_WSS_SERVER */
 496:Generated_Source\PSoC4/BLE_eventHandler.c ****     }
 497:Generated_Source\PSoC4/BLE_eventHandler.c **** }
 137              		.loc 1 497 0
 138 0008 BD46     		mov	sp, r7
 139 000a 02B0     		add	sp, sp, #8
 140              		@ sp needed
 141 000c 80BD     		pop	{r7, pc}
 142              		.cfi_endproc
 143              	.LFE3:
 144              		.size	CyBle_ValueConfirmation, .-CyBle_ValueConfirmation
 145              		.section	.text.CyBle_GattDisconnectEventHandler,"ax",%progbits
 146              		.align	2
 147              		.code	16
 148              		.thumb_func
 149              		.type	CyBle_GattDisconnectEventHandler, %function
 150              	CyBle_GattDisconnectEventHandler:
 151              	.LFB4:
 498:Generated_Source\PSoC4/BLE_eventHandler.c **** 
 499:Generated_Source\PSoC4/BLE_eventHandler.c **** #endif /* CYBLE_GATT_ROLE_SERVER */
 500:Generated_Source\PSoC4/BLE_eventHandler.c **** 
 501:Generated_Source\PSoC4/BLE_eventHandler.c **** 
 502:Generated_Source\PSoC4/BLE_eventHandler.c **** #if (CYBLE_GATT_ROLE_CLIENT)
 503:Generated_Source\PSoC4/BLE_eventHandler.c **** 
 504:Generated_Source\PSoC4/BLE_eventHandler.c **** /****************************************************************************** 
 505:Generated_Source\PSoC4/BLE_eventHandler.c **** ##Function Name: CyBle_GattcWriteResponseEventHandler
 506:Generated_Source\PSoC4/BLE_eventHandler.c **** *******************************************************************************
 507:Generated_Source\PSoC4/BLE_eventHandler.c **** 
 508:Generated_Source\PSoC4/BLE_eventHandler.c **** Summary:
 509:Generated_Source\PSoC4/BLE_eventHandler.c ****  Handles the Write response event from the BLE stack.
 510:Generated_Source\PSoC4/BLE_eventHandler.c **** 
 511:Generated_Source\PSoC4/BLE_eventHandler.c **** Parameters:
 512:Generated_Source\PSoC4/BLE_eventHandler.c ****  CYBLE_CONN_HANDLE_T *eventParam - Pointer to a structure
 513:Generated_Source\PSoC4/BLE_eventHandler.c ****     of type 'CYBLE_CONN_HANDLE_T'
 514:Generated_Source\PSoC4/BLE_eventHandler.c **** 
 515:Generated_Source\PSoC4/BLE_eventHandler.c **** Return:
 516:Generated_Source\PSoC4/BLE_eventHandler.c ****  None
 517:Generated_Source\PSoC4/BLE_eventHandler.c **** 
 518:Generated_Source\PSoC4/BLE_eventHandler.c **** ******************************************************************************/
 519:Generated_Source\PSoC4/BLE_eventHandler.c **** static void CyBle_GattcWriteResponseEventHandler(const CYBLE_CONN_HANDLE_T *eventParam)
 520:Generated_Source\PSoC4/BLE_eventHandler.c **** {
 521:Generated_Source\PSoC4/BLE_eventHandler.c **** #ifdef CYBLE_ANCS_CLIENT
 522:Generated_Source\PSoC4/BLE_eventHandler.c ****     CyBle_AncscWriteResponseEventHandler(eventParam);
 523:Generated_Source\PSoC4/BLE_eventHandler.c **** #endif /* CYBLE_ANCS_CLIENT */
 524:Generated_Source\PSoC4/BLE_eventHandler.c **** 
 525:Generated_Source\PSoC4/BLE_eventHandler.c **** #ifdef CYBLE_ANS_CLIENT
 526:Generated_Source\PSoC4/BLE_eventHandler.c ****     if((cyBle_eventHandlerFlag & CYBLE_CALLBACK) != 0u)
 527:Generated_Source\PSoC4/BLE_eventHandler.c ****     {
 528:Generated_Source\PSoC4/BLE_eventHandler.c ****         CyBle_AnscWriteResponseEventHandler(eventParam);
 529:Generated_Source\PSoC4/BLE_eventHandler.c ****     }
 530:Generated_Source\PSoC4/BLE_eventHandler.c **** #endif /* CYBLE_ANS_CLIENT */
 531:Generated_Source\PSoC4/BLE_eventHandler.c **** 
 532:Generated_Source\PSoC4/BLE_eventHandler.c **** #ifdef CYBLE_BAS_CLIENT
 533:Generated_Source\PSoC4/BLE_eventHandler.c ****     if((cyBle_eventHandlerFlag & CYBLE_CALLBACK) != 0u)
ARM GAS  C:\Users\TTSS\AppData\Local\Temp\ccwoAHLq.s 			page 13


 534:Generated_Source\PSoC4/BLE_eventHandler.c ****     {
 535:Generated_Source\PSoC4/BLE_eventHandler.c ****         CyBle_BascWriteResponseEventHandler(eventParam);
 536:Generated_Source\PSoC4/BLE_eventHandler.c ****     }
 537:Generated_Source\PSoC4/BLE_eventHandler.c **** #endif /* CYBLE_BAS_CLIENT */
 538:Generated_Source\PSoC4/BLE_eventHandler.c **** 
 539:Generated_Source\PSoC4/BLE_eventHandler.c **** #ifdef CYBLE_BLS_CLIENT
 540:Generated_Source\PSoC4/BLE_eventHandler.c ****     if((cyBle_eventHandlerFlag & CYBLE_CALLBACK) != 0u)
 541:Generated_Source\PSoC4/BLE_eventHandler.c ****     {
 542:Generated_Source\PSoC4/BLE_eventHandler.c ****         CyBle_BlscWriteResponseEventHandler(eventParam);
 543:Generated_Source\PSoC4/BLE_eventHandler.c ****     }
 544:Generated_Source\PSoC4/BLE_eventHandler.c **** #endif /* CYBLE_BLS_CLIENT */
 545:Generated_Source\PSoC4/BLE_eventHandler.c **** 
 546:Generated_Source\PSoC4/BLE_eventHandler.c **** #ifdef CYBLE_BMS_CLIENT
 547:Generated_Source\PSoC4/BLE_eventHandler.c ****     if((cyBle_eventHandlerFlag & CYBLE_CALLBACK) != 0u)
 548:Generated_Source\PSoC4/BLE_eventHandler.c ****     {
 549:Generated_Source\PSoC4/BLE_eventHandler.c ****         CyBle_BmscWriteResponseEventHandler(eventParam);
 550:Generated_Source\PSoC4/BLE_eventHandler.c ****     }
 551:Generated_Source\PSoC4/BLE_eventHandler.c **** #endif /* CYBLE_BMS_CLIENT */
 552:Generated_Source\PSoC4/BLE_eventHandler.c **** 
 553:Generated_Source\PSoC4/BLE_eventHandler.c **** #ifdef CYBLE_CGMS_CLIENT
 554:Generated_Source\PSoC4/BLE_eventHandler.c ****     if((cyBle_eventHandlerFlag & CYBLE_CALLBACK) != 0u)
 555:Generated_Source\PSoC4/BLE_eventHandler.c ****     {
 556:Generated_Source\PSoC4/BLE_eventHandler.c ****         CyBle_CgmscWriteResponseEventHandler(eventParam);
 557:Generated_Source\PSoC4/BLE_eventHandler.c ****     }
 558:Generated_Source\PSoC4/BLE_eventHandler.c **** #endif /* CYBLE_CGMS_CLIENT */
 559:Generated_Source\PSoC4/BLE_eventHandler.c **** 
 560:Generated_Source\PSoC4/BLE_eventHandler.c **** #ifdef CYBLE_CPS_CLIENT
 561:Generated_Source\PSoC4/BLE_eventHandler.c ****     if((cyBle_eventHandlerFlag & CYBLE_CALLBACK) != 0u)
 562:Generated_Source\PSoC4/BLE_eventHandler.c ****     {
 563:Generated_Source\PSoC4/BLE_eventHandler.c ****         CyBle_CpscWriteResponseEventHandler(eventParam);
 564:Generated_Source\PSoC4/BLE_eventHandler.c ****     }
 565:Generated_Source\PSoC4/BLE_eventHandler.c **** #endif /* CYBLE_CPS_CLIENT */
 566:Generated_Source\PSoC4/BLE_eventHandler.c **** 
 567:Generated_Source\PSoC4/BLE_eventHandler.c **** #ifdef CYBLE_CSCS_CLIENT
 568:Generated_Source\PSoC4/BLE_eventHandler.c ****     if((cyBle_eventHandlerFlag & CYBLE_CALLBACK) != 0u)
 569:Generated_Source\PSoC4/BLE_eventHandler.c ****     {
 570:Generated_Source\PSoC4/BLE_eventHandler.c ****         CyBle_CscscWriteResponseEventHandler(eventParam);
 571:Generated_Source\PSoC4/BLE_eventHandler.c ****     }
 572:Generated_Source\PSoC4/BLE_eventHandler.c **** #endif /* CYBLE_CSCS_CLIENT */
 573:Generated_Source\PSoC4/BLE_eventHandler.c **** 
 574:Generated_Source\PSoC4/BLE_eventHandler.c **** #ifdef CYBLE_CTS_CLIENT
 575:Generated_Source\PSoC4/BLE_eventHandler.c ****     if((cyBle_eventHandlerFlag & CYBLE_CALLBACK) != 0u)
 576:Generated_Source\PSoC4/BLE_eventHandler.c ****     {
 577:Generated_Source\PSoC4/BLE_eventHandler.c ****         CyBle_CtscWriteResponseEventHandler(eventParam);
 578:Generated_Source\PSoC4/BLE_eventHandler.c ****     }
 579:Generated_Source\PSoC4/BLE_eventHandler.c **** #endif /* CYBLE_CTS_CLIENT */
 580:Generated_Source\PSoC4/BLE_eventHandler.c **** 
 581:Generated_Source\PSoC4/BLE_eventHandler.c **** #ifdef CYBLE_ESS_CLIENT
 582:Generated_Source\PSoC4/BLE_eventHandler.c ****     if((cyBle_eventHandlerFlag & CYBLE_CALLBACK) != 0u)
 583:Generated_Source\PSoC4/BLE_eventHandler.c ****     {
 584:Generated_Source\PSoC4/BLE_eventHandler.c ****         CyBle_EsscWriteResponseEventHandler(eventParam);
 585:Generated_Source\PSoC4/BLE_eventHandler.c ****     }
 586:Generated_Source\PSoC4/BLE_eventHandler.c **** #endif /* CYBLE_ESS_CLIENT */
 587:Generated_Source\PSoC4/BLE_eventHandler.c **** 
 588:Generated_Source\PSoC4/BLE_eventHandler.c **** #ifdef CYBLE_GLS_CLIENT
 589:Generated_Source\PSoC4/BLE_eventHandler.c ****     if((cyBle_eventHandlerFlag & CYBLE_CALLBACK) != 0u)
 590:Generated_Source\PSoC4/BLE_eventHandler.c ****     {
ARM GAS  C:\Users\TTSS\AppData\Local\Temp\ccwoAHLq.s 			page 14


 591:Generated_Source\PSoC4/BLE_eventHandler.c ****         CyBle_GlscWriteResponseEventHandler(eventParam);
 592:Generated_Source\PSoC4/BLE_eventHandler.c ****     }
 593:Generated_Source\PSoC4/BLE_eventHandler.c **** #endif /* CYBLE_GLS_CLIENT */
 594:Generated_Source\PSoC4/BLE_eventHandler.c **** 
 595:Generated_Source\PSoC4/BLE_eventHandler.c **** #ifdef CYBLE_HIDS_CLIENT
 596:Generated_Source\PSoC4/BLE_eventHandler.c ****     if((cyBle_eventHandlerFlag & CYBLE_CALLBACK) != 0u)
 597:Generated_Source\PSoC4/BLE_eventHandler.c ****     {
 598:Generated_Source\PSoC4/BLE_eventHandler.c ****         CyBle_HidscWriteResponseEventHandler(eventParam);
 599:Generated_Source\PSoC4/BLE_eventHandler.c ****     }
 600:Generated_Source\PSoC4/BLE_eventHandler.c **** #endif /* CYBLE_HIDS_CLIENT */
 601:Generated_Source\PSoC4/BLE_eventHandler.c **** 
 602:Generated_Source\PSoC4/BLE_eventHandler.c **** #ifdef CYBLE_HRS_CLIENT
 603:Generated_Source\PSoC4/BLE_eventHandler.c ****     if((cyBle_eventHandlerFlag & CYBLE_CALLBACK) != 0u)
 604:Generated_Source\PSoC4/BLE_eventHandler.c ****     {
 605:Generated_Source\PSoC4/BLE_eventHandler.c ****         CyBle_HrscWriteResponseEventHandler(eventParam);
 606:Generated_Source\PSoC4/BLE_eventHandler.c ****     }
 607:Generated_Source\PSoC4/BLE_eventHandler.c **** #endif /* CYBLE_HRS_CLIENT */
 608:Generated_Source\PSoC4/BLE_eventHandler.c **** 
 609:Generated_Source\PSoC4/BLE_eventHandler.c **** #ifdef CYBLE_HTS_CLIENT
 610:Generated_Source\PSoC4/BLE_eventHandler.c ****     if((cyBle_eventHandlerFlag & CYBLE_CALLBACK) != 0u)
 611:Generated_Source\PSoC4/BLE_eventHandler.c ****     {
 612:Generated_Source\PSoC4/BLE_eventHandler.c ****         CyBle_HtscWriteResponseEventHandler(eventParam);
 613:Generated_Source\PSoC4/BLE_eventHandler.c ****     }
 614:Generated_Source\PSoC4/BLE_eventHandler.c **** #endif /* CYBLE_HTS_CLIENT */
 615:Generated_Source\PSoC4/BLE_eventHandler.c **** 
 616:Generated_Source\PSoC4/BLE_eventHandler.c **** #ifdef CYBLE_LLS_CLIENT
 617:Generated_Source\PSoC4/BLE_eventHandler.c ****     if((cyBle_eventHandlerFlag & CYBLE_CALLBACK) != 0u)
 618:Generated_Source\PSoC4/BLE_eventHandler.c ****     {
 619:Generated_Source\PSoC4/BLE_eventHandler.c ****         CyBle_LlscWriteResponseEventHandler(eventParam);
 620:Generated_Source\PSoC4/BLE_eventHandler.c ****     }
 621:Generated_Source\PSoC4/BLE_eventHandler.c **** #endif /* CYBLE_LLS_CLIENT */
 622:Generated_Source\PSoC4/BLE_eventHandler.c **** 
 623:Generated_Source\PSoC4/BLE_eventHandler.c **** #ifdef CYBLE_LNS_CLIENT
 624:Generated_Source\PSoC4/BLE_eventHandler.c ****     if((cyBle_eventHandlerFlag & CYBLE_CALLBACK) != 0u)
 625:Generated_Source\PSoC4/BLE_eventHandler.c ****     {
 626:Generated_Source\PSoC4/BLE_eventHandler.c ****         CyBle_LnscWriteResponseEventHandler(eventParam);
 627:Generated_Source\PSoC4/BLE_eventHandler.c ****     }
 628:Generated_Source\PSoC4/BLE_eventHandler.c **** #endif /* CYBLE_LNS_CLIENT */
 629:Generated_Source\PSoC4/BLE_eventHandler.c **** 
 630:Generated_Source\PSoC4/BLE_eventHandler.c **** #ifdef CYBLE_PASS_CLIENT
 631:Generated_Source\PSoC4/BLE_eventHandler.c ****     if((cyBle_eventHandlerFlag & CYBLE_CALLBACK) != 0u)
 632:Generated_Source\PSoC4/BLE_eventHandler.c ****     {
 633:Generated_Source\PSoC4/BLE_eventHandler.c ****         CyBle_PasscWriteResponseEventHandler(eventParam);
 634:Generated_Source\PSoC4/BLE_eventHandler.c ****     }
 635:Generated_Source\PSoC4/BLE_eventHandler.c **** #endif /* CYBLE_PASS_CLIENT */
 636:Generated_Source\PSoC4/BLE_eventHandler.c **** 
 637:Generated_Source\PSoC4/BLE_eventHandler.c **** #ifdef CYBLE_RSCS_CLIENT
 638:Generated_Source\PSoC4/BLE_eventHandler.c ****     if((cyBle_eventHandlerFlag & CYBLE_CALLBACK) != 0u)
 639:Generated_Source\PSoC4/BLE_eventHandler.c ****     {
 640:Generated_Source\PSoC4/BLE_eventHandler.c ****         CyBle_RscscWriteResponseEventHandler(eventParam);
 641:Generated_Source\PSoC4/BLE_eventHandler.c ****     }
 642:Generated_Source\PSoC4/BLE_eventHandler.c **** #endif /* CYBLE_RSCS_CLIENT */
 643:Generated_Source\PSoC4/BLE_eventHandler.c **** 
 644:Generated_Source\PSoC4/BLE_eventHandler.c **** #ifdef CYBLE_SCPS_CLIENT
 645:Generated_Source\PSoC4/BLE_eventHandler.c ****     if((cyBle_eventHandlerFlag & CYBLE_CALLBACK) != 0u)
 646:Generated_Source\PSoC4/BLE_eventHandler.c ****     {
 647:Generated_Source\PSoC4/BLE_eventHandler.c ****         CyBle_ScpscWriteResponseEventHandler(eventParam);
ARM GAS  C:\Users\TTSS\AppData\Local\Temp\ccwoAHLq.s 			page 15


 648:Generated_Source\PSoC4/BLE_eventHandler.c ****     }
 649:Generated_Source\PSoC4/BLE_eventHandler.c **** #endif /* CYBLE_SCPS_CLIENT */
 650:Generated_Source\PSoC4/BLE_eventHandler.c **** 
 651:Generated_Source\PSoC4/BLE_eventHandler.c **** #ifdef CYBLE_TPS_CLIENT
 652:Generated_Source\PSoC4/BLE_eventHandler.c ****     if((cyBle_eventHandlerFlag & CYBLE_CALLBACK) != 0u)
 653:Generated_Source\PSoC4/BLE_eventHandler.c ****     {
 654:Generated_Source\PSoC4/BLE_eventHandler.c ****         CyBle_TpscWriteResponseEventHandler(eventParam);
 655:Generated_Source\PSoC4/BLE_eventHandler.c ****     }
 656:Generated_Source\PSoC4/BLE_eventHandler.c **** #endif /* CYBLE_TPS_CLIENT */
 657:Generated_Source\PSoC4/BLE_eventHandler.c **** 
 658:Generated_Source\PSoC4/BLE_eventHandler.c **** #ifdef CYBLE_UDS_CLIENT
 659:Generated_Source\PSoC4/BLE_eventHandler.c ****     if((cyBle_eventHandlerFlag & CYBLE_CALLBACK) != 0u)
 660:Generated_Source\PSoC4/BLE_eventHandler.c ****     {
 661:Generated_Source\PSoC4/BLE_eventHandler.c ****         CyBle_UdscWriteResponseEventHandler(eventParam);
 662:Generated_Source\PSoC4/BLE_eventHandler.c ****     }
 663:Generated_Source\PSoC4/BLE_eventHandler.c **** #endif /* CYBLE_UDS_CLIENT */
 664:Generated_Source\PSoC4/BLE_eventHandler.c **** #ifdef CYBLE_WPTS_CLIENT
 665:Generated_Source\PSoC4/BLE_eventHandler.c ****     if((cyBle_eventHandlerFlag & CYBLE_CALLBACK) != 0u)
 666:Generated_Source\PSoC4/BLE_eventHandler.c ****     {
 667:Generated_Source\PSoC4/BLE_eventHandler.c ****         CyBle_WptscWriteResponseEventHandler(eventParam);
 668:Generated_Source\PSoC4/BLE_eventHandler.c ****     }
 669:Generated_Source\PSoC4/BLE_eventHandler.c **** #endif /* CYBLE_WPTS_CLIENT */
 670:Generated_Source\PSoC4/BLE_eventHandler.c **** #ifdef CYBLE_WSS_CLIENT
 671:Generated_Source\PSoC4/BLE_eventHandler.c ****     if((cyBle_eventHandlerFlag & CYBLE_CALLBACK) != 0u)
 672:Generated_Source\PSoC4/BLE_eventHandler.c ****     {
 673:Generated_Source\PSoC4/BLE_eventHandler.c ****         CyBle_WsscWriteResponseEventHandler(eventParam);
 674:Generated_Source\PSoC4/BLE_eventHandler.c ****     }
 675:Generated_Source\PSoC4/BLE_eventHandler.c **** #endif /* CYBLE_WSS_CLIENT */
 676:Generated_Source\PSoC4/BLE_eventHandler.c **** }
 677:Generated_Source\PSoC4/BLE_eventHandler.c **** 
 678:Generated_Source\PSoC4/BLE_eventHandler.c **** 
 679:Generated_Source\PSoC4/BLE_eventHandler.c **** /******************************************************************************    
 680:Generated_Source\PSoC4/BLE_eventHandler.c **** ##Function Name: CyBle_NotificationEventHandler
 681:Generated_Source\PSoC4/BLE_eventHandler.c **** *******************************************************************************
 682:Generated_Source\PSoC4/BLE_eventHandler.c **** 
 683:Generated_Source\PSoC4/BLE_eventHandler.c **** Summary:
 684:Generated_Source\PSoC4/BLE_eventHandler.c ****  Handles the Notification event from BLE stack.
 685:Generated_Source\PSoC4/BLE_eventHandler.c **** 
 686:Generated_Source\PSoC4/BLE_eventHandler.c **** Parameters:
 687:Generated_Source\PSoC4/BLE_eventHandler.c ****  CYBLE_GATTC_HANDLE_VALUE_NTF_PARAM_T * eventParam - event parameter
 688:Generated_Source\PSoC4/BLE_eventHandler.c **** 
 689:Generated_Source\PSoC4/BLE_eventHandler.c **** Return:
 690:Generated_Source\PSoC4/BLE_eventHandler.c ****  None
 691:Generated_Source\PSoC4/BLE_eventHandler.c **** 
 692:Generated_Source\PSoC4/BLE_eventHandler.c **** ******************************************************************************/
 693:Generated_Source\PSoC4/BLE_eventHandler.c **** static void CyBle_NotificationEventHandler(CYBLE_GATTC_HANDLE_VALUE_NTF_PARAM_T *eventParam)
 694:Generated_Source\PSoC4/BLE_eventHandler.c **** {
 695:Generated_Source\PSoC4/BLE_eventHandler.c **** #ifdef CYBLE_ANCS_CLIENT
 696:Generated_Source\PSoC4/BLE_eventHandler.c ****     CyBle_AncscNotificationEventHandler(eventParam);
 697:Generated_Source\PSoC4/BLE_eventHandler.c **** #endif /* CYBLE_ANCS_CLIENT */
 698:Generated_Source\PSoC4/BLE_eventHandler.c **** #ifdef CYBLE_ANS_CLIENT
 699:Generated_Source\PSoC4/BLE_eventHandler.c ****     if((cyBle_eventHandlerFlag & CYBLE_CALLBACK) != 0u)
 700:Generated_Source\PSoC4/BLE_eventHandler.c ****     {
 701:Generated_Source\PSoC4/BLE_eventHandler.c ****         CyBle_AnscNotificationEventHandler(eventParam);
 702:Generated_Source\PSoC4/BLE_eventHandler.c ****     }
 703:Generated_Source\PSoC4/BLE_eventHandler.c **** #endif /* CYBLE_ANS_CLIENT */
 704:Generated_Source\PSoC4/BLE_eventHandler.c **** #ifdef CYBLE_BAS_CLIENT
ARM GAS  C:\Users\TTSS\AppData\Local\Temp\ccwoAHLq.s 			page 16


 705:Generated_Source\PSoC4/BLE_eventHandler.c ****     if((cyBle_eventHandlerFlag & CYBLE_CALLBACK) != 0u)
 706:Generated_Source\PSoC4/BLE_eventHandler.c ****     {
 707:Generated_Source\PSoC4/BLE_eventHandler.c ****         CyBle_BascNotificationEventHandler(eventParam);
 708:Generated_Source\PSoC4/BLE_eventHandler.c ****     }
 709:Generated_Source\PSoC4/BLE_eventHandler.c **** #endif /* CYBLE_BAS_CLIENT */
 710:Generated_Source\PSoC4/BLE_eventHandler.c **** #ifdef CYBLE_BLS_CLIENT
 711:Generated_Source\PSoC4/BLE_eventHandler.c ****     if((cyBle_eventHandlerFlag & CYBLE_CALLBACK) != 0u)
 712:Generated_Source\PSoC4/BLE_eventHandler.c ****     {
 713:Generated_Source\PSoC4/BLE_eventHandler.c ****         CyBle_BlscNotificationEventHandler(eventParam);
 714:Generated_Source\PSoC4/BLE_eventHandler.c ****     }
 715:Generated_Source\PSoC4/BLE_eventHandler.c **** #endif /* CYBLE_BLS_CLIENT */
 716:Generated_Source\PSoC4/BLE_eventHandler.c **** #ifdef CYBLE_CGMS_CLIENT
 717:Generated_Source\PSoC4/BLE_eventHandler.c ****     if((cyBle_eventHandlerFlag & CYBLE_CALLBACK) != 0u)
 718:Generated_Source\PSoC4/BLE_eventHandler.c ****     {
 719:Generated_Source\PSoC4/BLE_eventHandler.c ****         CyBle_CgmscNotificationEventHandler(eventParam);
 720:Generated_Source\PSoC4/BLE_eventHandler.c ****     }
 721:Generated_Source\PSoC4/BLE_eventHandler.c **** #endif /* CYBLE_CGMS_CLIENT */
 722:Generated_Source\PSoC4/BLE_eventHandler.c **** #ifdef CYBLE_CPS_CLIENT
 723:Generated_Source\PSoC4/BLE_eventHandler.c ****     if((cyBle_eventHandlerFlag & CYBLE_CALLBACK) != 0u)
 724:Generated_Source\PSoC4/BLE_eventHandler.c ****     {
 725:Generated_Source\PSoC4/BLE_eventHandler.c ****         CyBle_CpscNotificationEventHandler(eventParam);
 726:Generated_Source\PSoC4/BLE_eventHandler.c ****     }
 727:Generated_Source\PSoC4/BLE_eventHandler.c **** #endif /* CYBLE_CPS_CLIENT */
 728:Generated_Source\PSoC4/BLE_eventHandler.c **** #ifdef CYBLE_CSCS_CLIENT
 729:Generated_Source\PSoC4/BLE_eventHandler.c ****     if((cyBle_eventHandlerFlag & CYBLE_CALLBACK) != 0u)
 730:Generated_Source\PSoC4/BLE_eventHandler.c ****     {
 731:Generated_Source\PSoC4/BLE_eventHandler.c ****         CyBle_CscscNotificationEventHandler(eventParam);
 732:Generated_Source\PSoC4/BLE_eventHandler.c ****     }
 733:Generated_Source\PSoC4/BLE_eventHandler.c **** #endif /* CYBLE_CSCS_CLIENT */
 734:Generated_Source\PSoC4/BLE_eventHandler.c **** #ifdef CYBLE_CTS_CLIENT
 735:Generated_Source\PSoC4/BLE_eventHandler.c ****     if((cyBle_eventHandlerFlag & CYBLE_CALLBACK) != 0u)
 736:Generated_Source\PSoC4/BLE_eventHandler.c ****     {
 737:Generated_Source\PSoC4/BLE_eventHandler.c ****         CyBle_CtscNotificationEventHandler(eventParam);
 738:Generated_Source\PSoC4/BLE_eventHandler.c ****     }
 739:Generated_Source\PSoC4/BLE_eventHandler.c **** #endif /* CYBLE_CTS_CLIENT */
 740:Generated_Source\PSoC4/BLE_eventHandler.c **** #ifdef CYBLE_ESS_CLIENT
 741:Generated_Source\PSoC4/BLE_eventHandler.c ****     if((cyBle_eventHandlerFlag & CYBLE_CALLBACK) != 0u)
 742:Generated_Source\PSoC4/BLE_eventHandler.c ****     {
 743:Generated_Source\PSoC4/BLE_eventHandler.c ****         CyBle_EsscNotificationEventHandler(eventParam);
 744:Generated_Source\PSoC4/BLE_eventHandler.c ****     }
 745:Generated_Source\PSoC4/BLE_eventHandler.c **** #endif /* CYBLE_ESS_CLIENT */
 746:Generated_Source\PSoC4/BLE_eventHandler.c **** #ifdef CYBLE_GLS_CLIENT
 747:Generated_Source\PSoC4/BLE_eventHandler.c ****     if((cyBle_eventHandlerFlag & CYBLE_CALLBACK) != 0u)
 748:Generated_Source\PSoC4/BLE_eventHandler.c ****     {
 749:Generated_Source\PSoC4/BLE_eventHandler.c ****         CyBle_GlscNotificationEventHandler(eventParam);
 750:Generated_Source\PSoC4/BLE_eventHandler.c ****     }
 751:Generated_Source\PSoC4/BLE_eventHandler.c **** #endif /* CYBLE_GLS_CLIENT */
 752:Generated_Source\PSoC4/BLE_eventHandler.c **** #ifdef CYBLE_HIDS_CLIENT
 753:Generated_Source\PSoC4/BLE_eventHandler.c ****     if((cyBle_eventHandlerFlag & CYBLE_CALLBACK) != 0u)
 754:Generated_Source\PSoC4/BLE_eventHandler.c ****     {
 755:Generated_Source\PSoC4/BLE_eventHandler.c ****         CyBle_HidscNotificationEventHandler(eventParam);
 756:Generated_Source\PSoC4/BLE_eventHandler.c ****     }
 757:Generated_Source\PSoC4/BLE_eventHandler.c **** #endif /* CYBLE_HIDS_CLIENT */
 758:Generated_Source\PSoC4/BLE_eventHandler.c **** #ifdef CYBLE_HRS_CLIENT
 759:Generated_Source\PSoC4/BLE_eventHandler.c ****     if((cyBle_eventHandlerFlag & CYBLE_CALLBACK) != 0u)
 760:Generated_Source\PSoC4/BLE_eventHandler.c ****     {
 761:Generated_Source\PSoC4/BLE_eventHandler.c ****         CyBle_HrscNotificationEventHandler(eventParam);
ARM GAS  C:\Users\TTSS\AppData\Local\Temp\ccwoAHLq.s 			page 17


 762:Generated_Source\PSoC4/BLE_eventHandler.c ****     }
 763:Generated_Source\PSoC4/BLE_eventHandler.c **** #endif /* CYBLE_HRS_CLIENT */
 764:Generated_Source\PSoC4/BLE_eventHandler.c **** #ifdef CYBLE_HTS_CLIENT
 765:Generated_Source\PSoC4/BLE_eventHandler.c ****     if((cyBle_eventHandlerFlag & CYBLE_CALLBACK) != 0u)
 766:Generated_Source\PSoC4/BLE_eventHandler.c ****     {
 767:Generated_Source\PSoC4/BLE_eventHandler.c ****         CyBle_HtscNotificationEventHandler(eventParam);
 768:Generated_Source\PSoC4/BLE_eventHandler.c ****     }
 769:Generated_Source\PSoC4/BLE_eventHandler.c **** #endif /* CYBLE_HTS_CLIENT */
 770:Generated_Source\PSoC4/BLE_eventHandler.c **** #ifdef CYBLE_LNS_CLIENT
 771:Generated_Source\PSoC4/BLE_eventHandler.c ****     if((cyBle_eventHandlerFlag & CYBLE_CALLBACK) != 0u)
 772:Generated_Source\PSoC4/BLE_eventHandler.c ****     {
 773:Generated_Source\PSoC4/BLE_eventHandler.c ****         CyBle_LnscNotificationEventHandler(eventParam);
 774:Generated_Source\PSoC4/BLE_eventHandler.c ****     }
 775:Generated_Source\PSoC4/BLE_eventHandler.c **** #endif /* CYBLE_LNS_CLIENT */
 776:Generated_Source\PSoC4/BLE_eventHandler.c **** #ifdef CYBLE_PASS_CLIENT
 777:Generated_Source\PSoC4/BLE_eventHandler.c ****     if((cyBle_eventHandlerFlag & CYBLE_CALLBACK) != 0u)
 778:Generated_Source\PSoC4/BLE_eventHandler.c ****     {
 779:Generated_Source\PSoC4/BLE_eventHandler.c ****         CyBle_PasscNotificationEventHandler(eventParam);
 780:Generated_Source\PSoC4/BLE_eventHandler.c ****     }
 781:Generated_Source\PSoC4/BLE_eventHandler.c **** #endif /* CYBLE_PASS_CLIENT */
 782:Generated_Source\PSoC4/BLE_eventHandler.c **** #ifdef CYBLE_RSCS_CLIENT
 783:Generated_Source\PSoC4/BLE_eventHandler.c ****     if((cyBle_eventHandlerFlag & CYBLE_CALLBACK) != 0u)
 784:Generated_Source\PSoC4/BLE_eventHandler.c ****     {
 785:Generated_Source\PSoC4/BLE_eventHandler.c ****         CyBle_RscscNotificationEventHandler(eventParam);
 786:Generated_Source\PSoC4/BLE_eventHandler.c ****     }
 787:Generated_Source\PSoC4/BLE_eventHandler.c **** #endif /* CYBLE_RSCS_CLIENT */
 788:Generated_Source\PSoC4/BLE_eventHandler.c **** #ifdef CYBLE_SCPS_CLIENT
 789:Generated_Source\PSoC4/BLE_eventHandler.c ****     if((cyBle_eventHandlerFlag & CYBLE_CALLBACK) != 0u)
 790:Generated_Source\PSoC4/BLE_eventHandler.c ****     {
 791:Generated_Source\PSoC4/BLE_eventHandler.c ****         CyBle_ScpscNotificationEventHandler(eventParam);
 792:Generated_Source\PSoC4/BLE_eventHandler.c ****     }
 793:Generated_Source\PSoC4/BLE_eventHandler.c **** #endif /* CYBLE_SCPS_CLIENT */
 794:Generated_Source\PSoC4/BLE_eventHandler.c **** #ifdef CYBLE_TPS_CLIENT
 795:Generated_Source\PSoC4/BLE_eventHandler.c ****     if((cyBle_eventHandlerFlag & CYBLE_CALLBACK) != 0u)
 796:Generated_Source\PSoC4/BLE_eventHandler.c ****     {
 797:Generated_Source\PSoC4/BLE_eventHandler.c ****         CyBle_TpscNotificationEventHandler(eventParam);
 798:Generated_Source\PSoC4/BLE_eventHandler.c ****     }
 799:Generated_Source\PSoC4/BLE_eventHandler.c **** #endif /* CYBLE_TPS_CLIENT */
 800:Generated_Source\PSoC4/BLE_eventHandler.c **** #ifdef CYBLE_UDS_CLIENT
 801:Generated_Source\PSoC4/BLE_eventHandler.c ****     if((cyBle_eventHandlerFlag & CYBLE_CALLBACK) != 0u)
 802:Generated_Source\PSoC4/BLE_eventHandler.c ****     {
 803:Generated_Source\PSoC4/BLE_eventHandler.c ****         CyBle_UdscNotificationEventHandler(eventParam);
 804:Generated_Source\PSoC4/BLE_eventHandler.c ****     }
 805:Generated_Source\PSoC4/BLE_eventHandler.c **** #endif /* CYBLE_UDS_CLIENT */
 806:Generated_Source\PSoC4/BLE_eventHandler.c **** #ifdef CYBLE_WPTS_CLIENT
 807:Generated_Source\PSoC4/BLE_eventHandler.c ****     if((cyBle_eventHandlerFlag & CYBLE_CALLBACK) != 0u)
 808:Generated_Source\PSoC4/BLE_eventHandler.c ****     {
 809:Generated_Source\PSoC4/BLE_eventHandler.c ****         CyBle_WptscNotificationEventHandler(eventParam);
 810:Generated_Source\PSoC4/BLE_eventHandler.c ****     }
 811:Generated_Source\PSoC4/BLE_eventHandler.c **** #endif /* CYBLE_WPTS_CLIENT */
 812:Generated_Source\PSoC4/BLE_eventHandler.c **** }
 813:Generated_Source\PSoC4/BLE_eventHandler.c **** 
 814:Generated_Source\PSoC4/BLE_eventHandler.c **** 
 815:Generated_Source\PSoC4/BLE_eventHandler.c **** /******************************************************************************    
 816:Generated_Source\PSoC4/BLE_eventHandler.c **** ##Function Name: CyBle_IndicationEventHandler
 817:Generated_Source\PSoC4/BLE_eventHandler.c **** *******************************************************************************
 818:Generated_Source\PSoC4/BLE_eventHandler.c **** 
ARM GAS  C:\Users\TTSS\AppData\Local\Temp\ccwoAHLq.s 			page 18


 819:Generated_Source\PSoC4/BLE_eventHandler.c **** Summary:
 820:Generated_Source\PSoC4/BLE_eventHandler.c ****  Handles the Indication event from BLE stack.
 821:Generated_Source\PSoC4/BLE_eventHandler.c **** 
 822:Generated_Source\PSoC4/BLE_eventHandler.c **** Parameters:
 823:Generated_Source\PSoC4/BLE_eventHandler.c ****  CYBLE_GATTC_HANDLE_VALUE_IND_PARAM_T * eventParam - event parameter
 824:Generated_Source\PSoC4/BLE_eventHandler.c **** 
 825:Generated_Source\PSoC4/BLE_eventHandler.c **** Return:
 826:Generated_Source\PSoC4/BLE_eventHandler.c ****  None
 827:Generated_Source\PSoC4/BLE_eventHandler.c **** 
 828:Generated_Source\PSoC4/BLE_eventHandler.c **** ******************************************************************************/
 829:Generated_Source\PSoC4/BLE_eventHandler.c **** static void CyBle_IndicationEventHandler(CYBLE_GATTC_HANDLE_VALUE_IND_PARAM_T *eventParam)
 830:Generated_Source\PSoC4/BLE_eventHandler.c **** {
 831:Generated_Source\PSoC4/BLE_eventHandler.c **** #ifdef CYBLE_BLS_CLIENT
 832:Generated_Source\PSoC4/BLE_eventHandler.c ****     if((cyBle_eventHandlerFlag & CYBLE_CALLBACK) != 0u)
 833:Generated_Source\PSoC4/BLE_eventHandler.c ****     {
 834:Generated_Source\PSoC4/BLE_eventHandler.c ****         CyBle_BlscIndicationEventHandler(eventParam);
 835:Generated_Source\PSoC4/BLE_eventHandler.c ****     }
 836:Generated_Source\PSoC4/BLE_eventHandler.c **** #endif /* CYBLE_BLS_CLIENT */
 837:Generated_Source\PSoC4/BLE_eventHandler.c **** #ifdef CYBLE_CGMS_CLIENT
 838:Generated_Source\PSoC4/BLE_eventHandler.c ****     if((cyBle_eventHandlerFlag & CYBLE_CALLBACK) != 0u)
 839:Generated_Source\PSoC4/BLE_eventHandler.c ****     {
 840:Generated_Source\PSoC4/BLE_eventHandler.c ****         CyBle_CgmscIndicationEventHandler(eventParam);
 841:Generated_Source\PSoC4/BLE_eventHandler.c ****     }
 842:Generated_Source\PSoC4/BLE_eventHandler.c **** #endif /* CYBLE_CGMS_CLIENT */
 843:Generated_Source\PSoC4/BLE_eventHandler.c **** #ifdef CYBLE_CPS_CLIENT
 844:Generated_Source\PSoC4/BLE_eventHandler.c ****     if((cyBle_eventHandlerFlag & CYBLE_CALLBACK) != 0u)
 845:Generated_Source\PSoC4/BLE_eventHandler.c ****     {
 846:Generated_Source\PSoC4/BLE_eventHandler.c ****         CyBle_CpscIndicationEventHandler(eventParam);
 847:Generated_Source\PSoC4/BLE_eventHandler.c ****     }
 848:Generated_Source\PSoC4/BLE_eventHandler.c **** #endif /* CYBLE_CPS_CLIENT */
 849:Generated_Source\PSoC4/BLE_eventHandler.c **** #ifdef CYBLE_CSCS_CLIENT
 850:Generated_Source\PSoC4/BLE_eventHandler.c ****     if((cyBle_eventHandlerFlag & CYBLE_CALLBACK) != 0u)
 851:Generated_Source\PSoC4/BLE_eventHandler.c ****     {
 852:Generated_Source\PSoC4/BLE_eventHandler.c ****         CyBle_CscscIndicationEventHandler(eventParam);
 853:Generated_Source\PSoC4/BLE_eventHandler.c ****     }
 854:Generated_Source\PSoC4/BLE_eventHandler.c **** #endif /* CYBLE_CSCS_CLIENT */
 855:Generated_Source\PSoC4/BLE_eventHandler.c **** #ifdef CYBLE_ESS_CLIENT
 856:Generated_Source\PSoC4/BLE_eventHandler.c ****     if((cyBle_eventHandlerFlag & CYBLE_CALLBACK) != 0u)
 857:Generated_Source\PSoC4/BLE_eventHandler.c ****     {
 858:Generated_Source\PSoC4/BLE_eventHandler.c ****         CyBle_EsscIndicationEventHandler(eventParam);
 859:Generated_Source\PSoC4/BLE_eventHandler.c ****     }
 860:Generated_Source\PSoC4/BLE_eventHandler.c **** #endif /* CYBLE_ESS_CLIENT */
 861:Generated_Source\PSoC4/BLE_eventHandler.c **** #ifdef CYBLE_GLS_CLIENT
 862:Generated_Source\PSoC4/BLE_eventHandler.c ****     if((cyBle_eventHandlerFlag & CYBLE_CALLBACK) != 0u)
 863:Generated_Source\PSoC4/BLE_eventHandler.c ****     {
 864:Generated_Source\PSoC4/BLE_eventHandler.c ****         CyBle_GlscIndicationEventHandler(eventParam);
 865:Generated_Source\PSoC4/BLE_eventHandler.c ****     }
 866:Generated_Source\PSoC4/BLE_eventHandler.c **** #endif /* CYBLE_GLS_CLIENT */
 867:Generated_Source\PSoC4/BLE_eventHandler.c **** #ifdef CYBLE_HTS_CLIENT
 868:Generated_Source\PSoC4/BLE_eventHandler.c ****     if((cyBle_eventHandlerFlag & CYBLE_CALLBACK) != 0u)
 869:Generated_Source\PSoC4/BLE_eventHandler.c ****     {
 870:Generated_Source\PSoC4/BLE_eventHandler.c ****         CyBle_HtscIndicationEventHandler(eventParam);
 871:Generated_Source\PSoC4/BLE_eventHandler.c ****     }
 872:Generated_Source\PSoC4/BLE_eventHandler.c **** #endif /* CYBLE_HTS_CLIENT */
 873:Generated_Source\PSoC4/BLE_eventHandler.c **** #ifdef CYBLE_LNS_CLIENT
 874:Generated_Source\PSoC4/BLE_eventHandler.c ****     if((cyBle_eventHandlerFlag & CYBLE_CALLBACK) != 0u)
 875:Generated_Source\PSoC4/BLE_eventHandler.c ****     {
ARM GAS  C:\Users\TTSS\AppData\Local\Temp\ccwoAHLq.s 			page 19


 876:Generated_Source\PSoC4/BLE_eventHandler.c ****         CyBle_LnscIndicationEventHandler(eventParam);
 877:Generated_Source\PSoC4/BLE_eventHandler.c ****     }
 878:Generated_Source\PSoC4/BLE_eventHandler.c **** #endif /* CYBLE_LNS_CLIENT */
 879:Generated_Source\PSoC4/BLE_eventHandler.c **** #ifdef CYBLE_RSCS_CLIENT
 880:Generated_Source\PSoC4/BLE_eventHandler.c ****     if((cyBle_eventHandlerFlag & CYBLE_CALLBACK) != 0u)
 881:Generated_Source\PSoC4/BLE_eventHandler.c ****     {
 882:Generated_Source\PSoC4/BLE_eventHandler.c ****         CyBle_RscscIndicationEventHandler(eventParam);
 883:Generated_Source\PSoC4/BLE_eventHandler.c ****     }
 884:Generated_Source\PSoC4/BLE_eventHandler.c **** #endif /* CYBLE_RSCS_CLIENT */
 885:Generated_Source\PSoC4/BLE_eventHandler.c **** #ifdef CYBLE_UDS_CLIENT
 886:Generated_Source\PSoC4/BLE_eventHandler.c ****     if((cyBle_eventHandlerFlag & CYBLE_CALLBACK) != 0u)
 887:Generated_Source\PSoC4/BLE_eventHandler.c ****     {
 888:Generated_Source\PSoC4/BLE_eventHandler.c ****         CyBle_UdscIndicationEventHandler(eventParam);
 889:Generated_Source\PSoC4/BLE_eventHandler.c ****     }
 890:Generated_Source\PSoC4/BLE_eventHandler.c **** #endif /* CYBLE_UDS_CLIENT */
 891:Generated_Source\PSoC4/BLE_eventHandler.c **** #ifdef CYBLE_WPTS_CLIENT
 892:Generated_Source\PSoC4/BLE_eventHandler.c ****     if((cyBle_eventHandlerFlag & CYBLE_CALLBACK) != 0u)
 893:Generated_Source\PSoC4/BLE_eventHandler.c ****     {
 894:Generated_Source\PSoC4/BLE_eventHandler.c ****         CyBle_WptscIndicationEventHandler(eventParam);
 895:Generated_Source\PSoC4/BLE_eventHandler.c ****     }
 896:Generated_Source\PSoC4/BLE_eventHandler.c **** #endif /* CYBLE_WPTS_CLIENT */
 897:Generated_Source\PSoC4/BLE_eventHandler.c **** #ifdef CYBLE_WSS_CLIENT
 898:Generated_Source\PSoC4/BLE_eventHandler.c ****     if((cyBle_eventHandlerFlag & CYBLE_CALLBACK) != 0u)
 899:Generated_Source\PSoC4/BLE_eventHandler.c ****     {
 900:Generated_Source\PSoC4/BLE_eventHandler.c ****         CyBle_WsscIndicationEventHandler(eventParam);
 901:Generated_Source\PSoC4/BLE_eventHandler.c ****     }
 902:Generated_Source\PSoC4/BLE_eventHandler.c **** #endif /* CYBLE_WSS_CLIENT */
 903:Generated_Source\PSoC4/BLE_eventHandler.c **** }
 904:Generated_Source\PSoC4/BLE_eventHandler.c **** 
 905:Generated_Source\PSoC4/BLE_eventHandler.c **** 
 906:Generated_Source\PSoC4/BLE_eventHandler.c **** 
 907:Generated_Source\PSoC4/BLE_eventHandler.c **** /******************************************************************************    
 908:Generated_Source\PSoC4/BLE_eventHandler.c **** ##Function Name: CyBle_ReadResponseEventHandler
 909:Generated_Source\PSoC4/BLE_eventHandler.c **** *******************************************************************************
 910:Generated_Source\PSoC4/BLE_eventHandler.c **** 
 911:Generated_Source\PSoC4/BLE_eventHandler.c **** Summary:
 912:Generated_Source\PSoC4/BLE_eventHandler.c ****  Handles the Read Response event from BLE stack.
 913:Generated_Source\PSoC4/BLE_eventHandler.c **** 
 914:Generated_Source\PSoC4/BLE_eventHandler.c **** Parameters:
 915:Generated_Source\PSoC4/BLE_eventHandler.c ****  CYBLE_GATTC_READ_RSP_PARAM_T * eventParam - event parameter
 916:Generated_Source\PSoC4/BLE_eventHandler.c **** 
 917:Generated_Source\PSoC4/BLE_eventHandler.c **** Return:
 918:Generated_Source\PSoC4/BLE_eventHandler.c ****  None
 919:Generated_Source\PSoC4/BLE_eventHandler.c **** 
 920:Generated_Source\PSoC4/BLE_eventHandler.c **** ******************************************************************************/
 921:Generated_Source\PSoC4/BLE_eventHandler.c **** static void CyBle_ReadResponseEventHandler(CYBLE_GATTC_READ_RSP_PARAM_T *eventParam)
 922:Generated_Source\PSoC4/BLE_eventHandler.c **** {
 923:Generated_Source\PSoC4/BLE_eventHandler.c **** #ifdef CYBLE_CUSTOM_CLIENT
 924:Generated_Source\PSoC4/BLE_eventHandler.c ****     /* Read response with 128-bit included service uuid */
 925:Generated_Source\PSoC4/BLE_eventHandler.c ****     if((CYBLE_CLIENT_STATE_INCL_DISCOVERING == CyBle_GetClientState()) &&
 926:Generated_Source\PSoC4/BLE_eventHandler.c ****        (cyBle_discInclInfo.inclDefHandle != 0u))
 927:Generated_Source\PSoC4/BLE_eventHandler.c ****     {
 928:Generated_Source\PSoC4/BLE_eventHandler.c ****         CYBLE_DISC_SRVC128_INFO_T discServInfo;
 929:Generated_Source\PSoC4/BLE_eventHandler.c **** 
 930:Generated_Source\PSoC4/BLE_eventHandler.c ****         /* Store service range */
 931:Generated_Source\PSoC4/BLE_eventHandler.c ****         discServInfo.range = cyBle_discInclInfo.inclHandleRange;
 932:Generated_Source\PSoC4/BLE_eventHandler.c ****         (void)memcpy((void *) discServInfo.uuid.uuid128.value, (void *)eventParam->value.val, event
ARM GAS  C:\Users\TTSS\AppData\Local\Temp\ccwoAHLq.s 			page 20


 933:Generated_Source\PSoC4/BLE_eventHandler.c ****         CyBle_CustomcDiscoverServiceEventHandler(&discServInfo);
 934:Generated_Source\PSoC4/BLE_eventHandler.c ****         
 935:Generated_Source\PSoC4/BLE_eventHandler.c ****         /* Re-initiate CyBle_GattcFindIncludedServices function, setting the start
 936:Generated_Source\PSoC4/BLE_eventHandler.c ****            handle to the attribute handle which is placed next to the one used in
 937:Generated_Source\PSoC4/BLE_eventHandler.c ****            the above step.
 938:Generated_Source\PSoC4/BLE_eventHandler.c ****         */
 939:Generated_Source\PSoC4/BLE_eventHandler.c ****         discServInfo.range.startHandle = cyBle_discInclInfo.inclDefHandle + 1;
 940:Generated_Source\PSoC4/BLE_eventHandler.c ****         discServInfo.range.endHandle = cyBle_serverInfo[cyBle_disCount].range.endHandle;
 941:Generated_Source\PSoC4/BLE_eventHandler.c ****         if(discServInfo.range.startHandle <= discServInfo.range.endHandle)
 942:Generated_Source\PSoC4/BLE_eventHandler.c ****         {
 943:Generated_Source\PSoC4/BLE_eventHandler.c ****             if(CYBLE_ERROR_OK != CyBle_GattcFindIncludedServices(cyBle_connHandle, &discServInfo.ra
 944:Generated_Source\PSoC4/BLE_eventHandler.c ****             {
 945:Generated_Source\PSoC4/BLE_eventHandler.c ****                 CyBle_ApplCallback(CYBLE_EVT_GATTC_INCL_DISCOVERY_FAILED, NULL);
 946:Generated_Source\PSoC4/BLE_eventHandler.c ****                 cyBle_eventHandlerFlag &= (uint8)~CYBLE_AUTO_DISCOVERY;
 947:Generated_Source\PSoC4/BLE_eventHandler.c ****             }
 948:Generated_Source\PSoC4/BLE_eventHandler.c ****         }
 949:Generated_Source\PSoC4/BLE_eventHandler.c ****         else /* Continue discovery of the following service */
 950:Generated_Source\PSoC4/BLE_eventHandler.c ****         {
 951:Generated_Source\PSoC4/BLE_eventHandler.c ****             CyBle_NextInclDiscovery(CYBLE_DISCOVERY_CONTINUE);
 952:Generated_Source\PSoC4/BLE_eventHandler.c ****         }
 953:Generated_Source\PSoC4/BLE_eventHandler.c ****         
 954:Generated_Source\PSoC4/BLE_eventHandler.c ****         cyBle_eventHandlerFlag &= (uint8)~CYBLE_CALLBACK;
 955:Generated_Source\PSoC4/BLE_eventHandler.c ****         cyBle_discInclInfo.inclDefHandle = 0u;
 956:Generated_Source\PSoC4/BLE_eventHandler.c ****         
 957:Generated_Source\PSoC4/BLE_eventHandler.c ****     }
 958:Generated_Source\PSoC4/BLE_eventHandler.c **** #endif /* CYBLE_CUSTOM_CLIENT */
 959:Generated_Source\PSoC4/BLE_eventHandler.c **** #ifdef CYBLE_ANS_CLIENT
 960:Generated_Source\PSoC4/BLE_eventHandler.c ****     if((cyBle_eventHandlerFlag & CYBLE_CALLBACK) != 0u)
 961:Generated_Source\PSoC4/BLE_eventHandler.c ****     {
 962:Generated_Source\PSoC4/BLE_eventHandler.c ****         CyBle_AnscReadResponseEventHandler(eventParam);
 963:Generated_Source\PSoC4/BLE_eventHandler.c ****     }
 964:Generated_Source\PSoC4/BLE_eventHandler.c **** #endif /* CYBLE_ANS_CLIENT */
 965:Generated_Source\PSoC4/BLE_eventHandler.c **** #ifdef CYBLE_BAS_CLIENT
 966:Generated_Source\PSoC4/BLE_eventHandler.c ****     if((cyBle_eventHandlerFlag & CYBLE_CALLBACK) != 0u)
 967:Generated_Source\PSoC4/BLE_eventHandler.c ****     {
 968:Generated_Source\PSoC4/BLE_eventHandler.c ****         CyBle_BascReadResponseEventHandler(eventParam);
 969:Generated_Source\PSoC4/BLE_eventHandler.c ****     }
 970:Generated_Source\PSoC4/BLE_eventHandler.c **** #endif /* CYBLE_BAS_CLIENT */
 971:Generated_Source\PSoC4/BLE_eventHandler.c **** #ifdef CYBLE_BLS_CLIENT
 972:Generated_Source\PSoC4/BLE_eventHandler.c ****     if((cyBle_eventHandlerFlag & CYBLE_CALLBACK) != 0u)
 973:Generated_Source\PSoC4/BLE_eventHandler.c ****     {
 974:Generated_Source\PSoC4/BLE_eventHandler.c ****         CyBle_BlscReadResponseEventHandler(eventParam);
 975:Generated_Source\PSoC4/BLE_eventHandler.c ****     }
 976:Generated_Source\PSoC4/BLE_eventHandler.c **** #endif /* CYBLE_BLS_CLIENT */
 977:Generated_Source\PSoC4/BLE_eventHandler.c **** #ifdef CYBLE_BMS_CLIENT
 978:Generated_Source\PSoC4/BLE_eventHandler.c ****     if((cyBle_eventHandlerFlag & CYBLE_CALLBACK) != 0u)
 979:Generated_Source\PSoC4/BLE_eventHandler.c ****     {
 980:Generated_Source\PSoC4/BLE_eventHandler.c ****         CyBle_BmscReadResponseEventHandler(eventParam);
 981:Generated_Source\PSoC4/BLE_eventHandler.c ****     }
 982:Generated_Source\PSoC4/BLE_eventHandler.c **** #endif /* CYBLE_BMS_CLIENT */
 983:Generated_Source\PSoC4/BLE_eventHandler.c **** #ifdef CYBLE_CGMS_CLIENT
 984:Generated_Source\PSoC4/BLE_eventHandler.c ****     if((cyBle_eventHandlerFlag & CYBLE_CALLBACK) != 0u)
 985:Generated_Source\PSoC4/BLE_eventHandler.c ****     {
 986:Generated_Source\PSoC4/BLE_eventHandler.c ****         CyBle_CgmscReadResponseEventHandler(eventParam);
 987:Generated_Source\PSoC4/BLE_eventHandler.c ****     }
 988:Generated_Source\PSoC4/BLE_eventHandler.c **** #endif /* CYBLE_CGMS_CLIENT */
 989:Generated_Source\PSoC4/BLE_eventHandler.c **** #ifdef CYBLE_CPS_CLIENT
ARM GAS  C:\Users\TTSS\AppData\Local\Temp\ccwoAHLq.s 			page 21


 990:Generated_Source\PSoC4/BLE_eventHandler.c ****     if((cyBle_eventHandlerFlag & CYBLE_CALLBACK) != 0u)
 991:Generated_Source\PSoC4/BLE_eventHandler.c ****     {
 992:Generated_Source\PSoC4/BLE_eventHandler.c ****         CyBle_CpscReadResponseEventHandler(eventParam);
 993:Generated_Source\PSoC4/BLE_eventHandler.c ****     }
 994:Generated_Source\PSoC4/BLE_eventHandler.c **** #endif /* CYBLE_CPS_CLIENT */
 995:Generated_Source\PSoC4/BLE_eventHandler.c **** #ifdef CYBLE_CSCS_CLIENT
 996:Generated_Source\PSoC4/BLE_eventHandler.c ****     if((cyBle_eventHandlerFlag & CYBLE_CALLBACK) != 0u)
 997:Generated_Source\PSoC4/BLE_eventHandler.c ****     {
 998:Generated_Source\PSoC4/BLE_eventHandler.c ****         CyBle_CscscReadResponseEventHandler(eventParam);
 999:Generated_Source\PSoC4/BLE_eventHandler.c ****     }
1000:Generated_Source\PSoC4/BLE_eventHandler.c **** #endif /* CYBLE_CSCS_CLIENT */
1001:Generated_Source\PSoC4/BLE_eventHandler.c **** #ifdef CYBLE_CTS_CLIENT
1002:Generated_Source\PSoC4/BLE_eventHandler.c ****     if((cyBle_eventHandlerFlag & CYBLE_CALLBACK) != 0u)
1003:Generated_Source\PSoC4/BLE_eventHandler.c ****     {
1004:Generated_Source\PSoC4/BLE_eventHandler.c ****         CyBle_CtscReadResponseEventHandler(eventParam);
1005:Generated_Source\PSoC4/BLE_eventHandler.c ****     }
1006:Generated_Source\PSoC4/BLE_eventHandler.c **** #endif /* CYBLE_BAS_CLIENT */
1007:Generated_Source\PSoC4/BLE_eventHandler.c **** #ifdef CYBLE_DIS_CLIENT
1008:Generated_Source\PSoC4/BLE_eventHandler.c ****     if((cyBle_eventHandlerFlag & CYBLE_CALLBACK) != 0u)
1009:Generated_Source\PSoC4/BLE_eventHandler.c ****     {
1010:Generated_Source\PSoC4/BLE_eventHandler.c ****         CyBle_DiscReadResponseEventHandler(eventParam);
1011:Generated_Source\PSoC4/BLE_eventHandler.c ****     }
1012:Generated_Source\PSoC4/BLE_eventHandler.c **** #endif /* CYBLE_DIS_CLIENT */
1013:Generated_Source\PSoC4/BLE_eventHandler.c **** #ifdef CYBLE_ESS_CLIENT
1014:Generated_Source\PSoC4/BLE_eventHandler.c ****     if((cyBle_eventHandlerFlag & CYBLE_CALLBACK) != 0u)
1015:Generated_Source\PSoC4/BLE_eventHandler.c ****     {
1016:Generated_Source\PSoC4/BLE_eventHandler.c ****         CyBle_EsscReadResponseEventHandler(eventParam);
1017:Generated_Source\PSoC4/BLE_eventHandler.c ****     }
1018:Generated_Source\PSoC4/BLE_eventHandler.c **** #endif /* CYBLE_ESS_CLIENT */
1019:Generated_Source\PSoC4/BLE_eventHandler.c **** #ifdef CYBLE_GLS_CLIENT
1020:Generated_Source\PSoC4/BLE_eventHandler.c ****     if((cyBle_eventHandlerFlag & CYBLE_CALLBACK) != 0u)
1021:Generated_Source\PSoC4/BLE_eventHandler.c ****     {
1022:Generated_Source\PSoC4/BLE_eventHandler.c ****         CyBle_GlscReadResponseEventHandler(eventParam);
1023:Generated_Source\PSoC4/BLE_eventHandler.c ****     }
1024:Generated_Source\PSoC4/BLE_eventHandler.c **** #endif /* CYBLE_GLS_CLIENT */
1025:Generated_Source\PSoC4/BLE_eventHandler.c **** #ifdef CYBLE_HIDS_CLIENT
1026:Generated_Source\PSoC4/BLE_eventHandler.c ****     if((cyBle_eventHandlerFlag & CYBLE_CALLBACK) != 0u)
1027:Generated_Source\PSoC4/BLE_eventHandler.c ****     {
1028:Generated_Source\PSoC4/BLE_eventHandler.c ****         CyBle_HidscReadResponseEventHandler(eventParam);
1029:Generated_Source\PSoC4/BLE_eventHandler.c ****     }
1030:Generated_Source\PSoC4/BLE_eventHandler.c **** #endif /* CYBLE_HIDS_CLIENT */
1031:Generated_Source\PSoC4/BLE_eventHandler.c **** #ifdef CYBLE_HRS_CLIENT
1032:Generated_Source\PSoC4/BLE_eventHandler.c ****     if((cyBle_eventHandlerFlag & CYBLE_CALLBACK) != 0u)
1033:Generated_Source\PSoC4/BLE_eventHandler.c ****     {
1034:Generated_Source\PSoC4/BLE_eventHandler.c ****         CyBle_HrscReadResponseEventHandler(eventParam);
1035:Generated_Source\PSoC4/BLE_eventHandler.c ****     }
1036:Generated_Source\PSoC4/BLE_eventHandler.c **** #endif /* CYBLE_HRS_CLIENT */
1037:Generated_Source\PSoC4/BLE_eventHandler.c **** #ifdef CYBLE_HTS_CLIENT
1038:Generated_Source\PSoC4/BLE_eventHandler.c ****     if((cyBle_eventHandlerFlag & CYBLE_CALLBACK) != 0u)
1039:Generated_Source\PSoC4/BLE_eventHandler.c ****     {
1040:Generated_Source\PSoC4/BLE_eventHandler.c ****         CyBle_HtscReadResponseEventHandler(eventParam);
1041:Generated_Source\PSoC4/BLE_eventHandler.c ****     }
1042:Generated_Source\PSoC4/BLE_eventHandler.c **** #endif /* CYBLE_HTS_CLIENT */
1043:Generated_Source\PSoC4/BLE_eventHandler.c **** #ifdef CYBLE_LLS_CLIENT
1044:Generated_Source\PSoC4/BLE_eventHandler.c ****     if((cyBle_eventHandlerFlag & CYBLE_CALLBACK) != 0u)
1045:Generated_Source\PSoC4/BLE_eventHandler.c ****     {
1046:Generated_Source\PSoC4/BLE_eventHandler.c ****         CyBle_LlscReadResponseEventHandler(eventParam);
ARM GAS  C:\Users\TTSS\AppData\Local\Temp\ccwoAHLq.s 			page 22


1047:Generated_Source\PSoC4/BLE_eventHandler.c ****     }
1048:Generated_Source\PSoC4/BLE_eventHandler.c **** #endif /* CYBLE_LLS_CLIENT */
1049:Generated_Source\PSoC4/BLE_eventHandler.c **** #ifdef CYBLE_LNS_CLIENT
1050:Generated_Source\PSoC4/BLE_eventHandler.c ****     if((cyBle_eventHandlerFlag & CYBLE_CALLBACK) != 0u)
1051:Generated_Source\PSoC4/BLE_eventHandler.c ****     {
1052:Generated_Source\PSoC4/BLE_eventHandler.c ****         CyBle_LnscReadResponseEventHandler(eventParam);
1053:Generated_Source\PSoC4/BLE_eventHandler.c ****     }
1054:Generated_Source\PSoC4/BLE_eventHandler.c **** #endif /* CYBLE_LNS_CLIENT */
1055:Generated_Source\PSoC4/BLE_eventHandler.c **** #ifdef CYBLE_NDCS_CLIENT
1056:Generated_Source\PSoC4/BLE_eventHandler.c ****     if((cyBle_eventHandlerFlag & CYBLE_CALLBACK) != 0u)
1057:Generated_Source\PSoC4/BLE_eventHandler.c ****     {
1058:Generated_Source\PSoC4/BLE_eventHandler.c ****         CyBle_NdcscReadResponseEventHandler(eventParam);
1059:Generated_Source\PSoC4/BLE_eventHandler.c ****     }
1060:Generated_Source\PSoC4/BLE_eventHandler.c **** #endif /* CYBLE_NDCS_CLIENT */
1061:Generated_Source\PSoC4/BLE_eventHandler.c **** #ifdef CYBLE_PASS_CLIENT
1062:Generated_Source\PSoC4/BLE_eventHandler.c ****     if((cyBle_eventHandlerFlag & CYBLE_CALLBACK) != 0u)
1063:Generated_Source\PSoC4/BLE_eventHandler.c ****     {
1064:Generated_Source\PSoC4/BLE_eventHandler.c ****         CyBle_PasscReadResponseEventHandler(eventParam);
1065:Generated_Source\PSoC4/BLE_eventHandler.c ****     }
1066:Generated_Source\PSoC4/BLE_eventHandler.c **** #endif /* CYBLE_PASS_CLIENT */
1067:Generated_Source\PSoC4/BLE_eventHandler.c **** #ifdef CYBLE_RSCS_CLIENT
1068:Generated_Source\PSoC4/BLE_eventHandler.c ****     if((cyBle_eventHandlerFlag & CYBLE_CALLBACK) != 0u)
1069:Generated_Source\PSoC4/BLE_eventHandler.c ****     {
1070:Generated_Source\PSoC4/BLE_eventHandler.c ****         CyBle_RscscReadResponseEventHandler(eventParam);
1071:Generated_Source\PSoC4/BLE_eventHandler.c ****     }
1072:Generated_Source\PSoC4/BLE_eventHandler.c **** #endif /* CYBLE_RSCS_CLIENT */
1073:Generated_Source\PSoC4/BLE_eventHandler.c **** #ifdef CYBLE_RTUS_CLIENT
1074:Generated_Source\PSoC4/BLE_eventHandler.c ****     if((cyBle_eventHandlerFlag & CYBLE_CALLBACK) != 0u)
1075:Generated_Source\PSoC4/BLE_eventHandler.c ****     {
1076:Generated_Source\PSoC4/BLE_eventHandler.c ****         CyBle_RtuscReadResponseEventHandler(eventParam);
1077:Generated_Source\PSoC4/BLE_eventHandler.c ****     }
1078:Generated_Source\PSoC4/BLE_eventHandler.c **** #endif /* CYBLE_RTUS_CLIENT */
1079:Generated_Source\PSoC4/BLE_eventHandler.c **** #ifdef CYBLE_SCPS_CLIENT
1080:Generated_Source\PSoC4/BLE_eventHandler.c ****     if((cyBle_eventHandlerFlag & CYBLE_CALLBACK) != 0u)
1081:Generated_Source\PSoC4/BLE_eventHandler.c ****     {
1082:Generated_Source\PSoC4/BLE_eventHandler.c ****         CyBle_ScpscReadResponseEventHandler(eventParam);
1083:Generated_Source\PSoC4/BLE_eventHandler.c ****     }
1084:Generated_Source\PSoC4/BLE_eventHandler.c **** #endif /* CYBLE_SCPS_CLIENT */
1085:Generated_Source\PSoC4/BLE_eventHandler.c **** #ifdef CYBLE_TPS_CLIENT
1086:Generated_Source\PSoC4/BLE_eventHandler.c ****     if((cyBle_eventHandlerFlag & CYBLE_CALLBACK) != 0u)
1087:Generated_Source\PSoC4/BLE_eventHandler.c ****     {
1088:Generated_Source\PSoC4/BLE_eventHandler.c ****         CyBle_TpscReadResponseEventHandler(eventParam);
1089:Generated_Source\PSoC4/BLE_eventHandler.c ****     }
1090:Generated_Source\PSoC4/BLE_eventHandler.c **** #endif /* CYBLE_TPS_CLIENT */
1091:Generated_Source\PSoC4/BLE_eventHandler.c **** #ifdef CYBLE_UDS_CLIENT
1092:Generated_Source\PSoC4/BLE_eventHandler.c ****     if((cyBle_eventHandlerFlag & CYBLE_CALLBACK) != 0u)
1093:Generated_Source\PSoC4/BLE_eventHandler.c ****     {
1094:Generated_Source\PSoC4/BLE_eventHandler.c ****         CyBle_UdscReadResponseEventHandler(eventParam);
1095:Generated_Source\PSoC4/BLE_eventHandler.c ****     }
1096:Generated_Source\PSoC4/BLE_eventHandler.c **** #endif /* CYBLE_UDS_CLIENT */
1097:Generated_Source\PSoC4/BLE_eventHandler.c **** #ifdef CYBLE_WPTS_CLIENT
1098:Generated_Source\PSoC4/BLE_eventHandler.c ****     if((cyBle_eventHandlerFlag & CYBLE_CALLBACK) != 0u)
1099:Generated_Source\PSoC4/BLE_eventHandler.c ****     {
1100:Generated_Source\PSoC4/BLE_eventHandler.c ****         CyBle_WptscReadResponseEventHandler(eventParam);
1101:Generated_Source\PSoC4/BLE_eventHandler.c ****     }
1102:Generated_Source\PSoC4/BLE_eventHandler.c **** #endif /* CYBLE_WPTS_CLIENT */
1103:Generated_Source\PSoC4/BLE_eventHandler.c **** #ifdef CYBLE_WSS_CLIENT
ARM GAS  C:\Users\TTSS\AppData\Local\Temp\ccwoAHLq.s 			page 23


1104:Generated_Source\PSoC4/BLE_eventHandler.c ****     if((cyBle_eventHandlerFlag & CYBLE_CALLBACK) != 0u)
1105:Generated_Source\PSoC4/BLE_eventHandler.c ****     {
1106:Generated_Source\PSoC4/BLE_eventHandler.c ****         CyBle_WsscReadResponseEventHandler(eventParam);
1107:Generated_Source\PSoC4/BLE_eventHandler.c ****     }
1108:Generated_Source\PSoC4/BLE_eventHandler.c **** #endif /* CYBLE_WSS_CLIENT */
1109:Generated_Source\PSoC4/BLE_eventHandler.c **** }
1110:Generated_Source\PSoC4/BLE_eventHandler.c **** #endif /* CYBLE_GATT_ROLE_CLIENT */
1111:Generated_Source\PSoC4/BLE_eventHandler.c **** 
1112:Generated_Source\PSoC4/BLE_eventHandler.c **** 
1113:Generated_Source\PSoC4/BLE_eventHandler.c **** /****************************************************************************** 
1114:Generated_Source\PSoC4/BLE_eventHandler.c **** ##Function Name: CyBle_DisconnectEventHandler
1115:Generated_Source\PSoC4/BLE_eventHandler.c **** *******************************************************************************
1116:Generated_Source\PSoC4/BLE_eventHandler.c **** 
1117:Generated_Source\PSoC4/BLE_eventHandler.c **** Summary:
1118:Generated_Source\PSoC4/BLE_eventHandler.c ****  Handles the GATT Disconnection event from the BLE stack.
1119:Generated_Source\PSoC4/BLE_eventHandler.c **** 
1120:Generated_Source\PSoC4/BLE_eventHandler.c **** Parameters:
1121:Generated_Source\PSoC4/BLE_eventHandler.c ****  None
1122:Generated_Source\PSoC4/BLE_eventHandler.c **** 
1123:Generated_Source\PSoC4/BLE_eventHandler.c **** Return:
1124:Generated_Source\PSoC4/BLE_eventHandler.c ****  None
1125:Generated_Source\PSoC4/BLE_eventHandler.c **** 
1126:Generated_Source\PSoC4/BLE_eventHandler.c **** ******************************************************************************/
1127:Generated_Source\PSoC4/BLE_eventHandler.c **** static void CyBle_GattDisconnectEventHandler(void)
1128:Generated_Source\PSoC4/BLE_eventHandler.c **** {
 152              		.loc 1 1128 0
 153              		.cfi_startproc
 154 0000 80B5     		push	{r7, lr}
 155              		.cfi_def_cfa_offset 8
 156              		.cfi_offset 7, -8
 157              		.cfi_offset 14, -4
 158 0002 00AF     		add	r7, sp, #0
 159              		.cfi_def_cfa_register 7
1129:Generated_Source\PSoC4/BLE_eventHandler.c ****     cyBle_connHandle.attId = 0u;
 160              		.loc 1 1129 0
 161 0004 034B     		ldr	r3, .L8
 162 0006 0022     		mov	r2, #0
 163 0008 5A70     		strb	r2, [r3, #1]
1130:Generated_Source\PSoC4/BLE_eventHandler.c ****     cyBle_connHandle.bdHandle = 0u;
 164              		.loc 1 1130 0
 165 000a 024B     		ldr	r3, .L8
 166 000c 0022     		mov	r2, #0
 167 000e 1A70     		strb	r2, [r3]
1131:Generated_Source\PSoC4/BLE_eventHandler.c ****     
1132:Generated_Source\PSoC4/BLE_eventHandler.c ****     #if (CYBLE_GATT_ROLE_CLIENT)
1133:Generated_Source\PSoC4/BLE_eventHandler.c ****         if(CYBLE_CLIENT_STATE_DISCOVERED == CyBle_GetClientState())
1134:Generated_Source\PSoC4/BLE_eventHandler.c ****         {
1135:Generated_Source\PSoC4/BLE_eventHandler.c ****             CyBle_SetClientState(CYBLE_CLIENT_STATE_DISCONNECTED_DISCOVERED);
1136:Generated_Source\PSoC4/BLE_eventHandler.c ****         }
1137:Generated_Source\PSoC4/BLE_eventHandler.c ****         else
1138:Generated_Source\PSoC4/BLE_eventHandler.c ****         {
1139:Generated_Source\PSoC4/BLE_eventHandler.c ****             CyBle_SetClientState(CYBLE_CLIENT_STATE_DISCONNECTED);
1140:Generated_Source\PSoC4/BLE_eventHandler.c ****         }
1141:Generated_Source\PSoC4/BLE_eventHandler.c ****     #endif /* CYBLE_GATT_ROLE_CLIENT */
1142:Generated_Source\PSoC4/BLE_eventHandler.c ****         
1143:Generated_Source\PSoC4/BLE_eventHandler.c ****     #ifdef CYBLE_CPS_SERVER
1144:Generated_Source\PSoC4/BLE_eventHandler.c ****         #if CYBLE_GAP_ROLE_BROADCASTER
ARM GAS  C:\Users\TTSS\AppData\Local\Temp\ccwoAHLq.s 			page 24


1145:Generated_Source\PSoC4/BLE_eventHandler.c ****             CyBle_CpssDisconnectEventHandler();
1146:Generated_Source\PSoC4/BLE_eventHandler.c ****         #endif /* CYBLE_GAP_ROLE_BROADCASTER */
1147:Generated_Source\PSoC4/BLE_eventHandler.c ****     #endif /* CYBLE_CPS_SERVER */
1148:Generated_Source\PSoC4/BLE_eventHandler.c **** 
1149:Generated_Source\PSoC4/BLE_eventHandler.c ****     #ifdef CYBLE_CPS_CLIENT
1150:Generated_Source\PSoC4/BLE_eventHandler.c ****         CyBle_CpscDisconnectEventHandler();
1151:Generated_Source\PSoC4/BLE_eventHandler.c ****     #endif /* CYBLE_CPS_CLIENT */
1152:Generated_Source\PSoC4/BLE_eventHandler.c **** 
1153:Generated_Source\PSoC4/BLE_eventHandler.c ****     #ifdef CYBLE_IAS_SERVER
1154:Generated_Source\PSoC4/BLE_eventHandler.c ****         CyBle_IassDisconnectEventHandler();
1155:Generated_Source\PSoC4/BLE_eventHandler.c ****     #endif /* CYBLE_IAS_SERVER */
1156:Generated_Source\PSoC4/BLE_eventHandler.c ****     
1157:Generated_Source\PSoC4/BLE_eventHandler.c ****     #ifdef CYBLE_GLS_SERVER
1158:Generated_Source\PSoC4/BLE_eventHandler.c ****         CyBle_GlsInit();
1159:Generated_Source\PSoC4/BLE_eventHandler.c ****     #endif /* CYBLE_GLS_SERVER */
1160:Generated_Source\PSoC4/BLE_eventHandler.c ****     
1161:Generated_Source\PSoC4/BLE_eventHandler.c ****     #ifdef CYBLE_LNS_SERVER
1162:Generated_Source\PSoC4/BLE_eventHandler.c ****         CyBle_LnsInit();
1163:Generated_Source\PSoC4/BLE_eventHandler.c ****     #endif /* CYBLE_LNS_SERVER */
1164:Generated_Source\PSoC4/BLE_eventHandler.c ****     
1165:Generated_Source\PSoC4/BLE_eventHandler.c ****     #ifdef CYBLE_UDS_SERVER
1166:Generated_Source\PSoC4/BLE_eventHandler.c ****         CyBle_UdsInit();
1167:Generated_Source\PSoC4/BLE_eventHandler.c ****     #endif /* CYBLE_UDS_SERVER */
1168:Generated_Source\PSoC4/BLE_eventHandler.c **** }
 168              		.loc 1 1168 0
 169 0010 BD46     		mov	sp, r7
 170              		@ sp needed
 171 0012 80BD     		pop	{r7, pc}
 172              	.L9:
 173              		.align	2
 174              	.L8:
 175 0014 00000000 		.word	cyBle_connHandle
 176              		.cfi_endproc
 177              	.LFE4:
 178              		.size	CyBle_GattDisconnectEventHandler, .-CyBle_GattDisconnectEventHandler
 179              		.section	.text.CyBle_TimeOutEventHandler,"ax",%progbits
 180              		.align	2
 181              		.code	16
 182              		.thumb_func
 183              		.type	CyBle_TimeOutEventHandler, %function
 184              	CyBle_TimeOutEventHandler:
 185              	.LFB5:
1169:Generated_Source\PSoC4/BLE_eventHandler.c **** 
1170:Generated_Source\PSoC4/BLE_eventHandler.c **** 
1171:Generated_Source\PSoC4/BLE_eventHandler.c **** /****************************************************************************** 
1172:Generated_Source\PSoC4/BLE_eventHandler.c **** ##Function Name: CyBle_TimeOutEventHandler
1173:Generated_Source\PSoC4/BLE_eventHandler.c **** *******************************************************************************
1174:Generated_Source\PSoC4/BLE_eventHandler.c **** 
1175:Generated_Source\PSoC4/BLE_eventHandler.c **** Summary:
1176:Generated_Source\PSoC4/BLE_eventHandler.c ****  Handles the CYBLE_EVT_TIMEOUT event from the BLE stack.
1177:Generated_Source\PSoC4/BLE_eventHandler.c **** 
1178:Generated_Source\PSoC4/BLE_eventHandler.c **** Parameters:
1179:Generated_Source\PSoC4/BLE_eventHandler.c ****  *eventParam - The pointer to a structure of type CYBLE_TO_REASON_CODE_T.
1180:Generated_Source\PSoC4/BLE_eventHandler.c **** 
1181:Generated_Source\PSoC4/BLE_eventHandler.c **** Return:
1182:Generated_Source\PSoC4/BLE_eventHandler.c ****  None
1183:Generated_Source\PSoC4/BLE_eventHandler.c **** 
ARM GAS  C:\Users\TTSS\AppData\Local\Temp\ccwoAHLq.s 			page 25


1184:Generated_Source\PSoC4/BLE_eventHandler.c **** ******************************************************************************/
1185:Generated_Source\PSoC4/BLE_eventHandler.c **** static void CyBle_TimeOutEventHandler(const CYBLE_TO_REASON_CODE_T *eventParam)
1186:Generated_Source\PSoC4/BLE_eventHandler.c **** {
 186              		.loc 1 1186 0
 187              		.cfi_startproc
 188 0000 80B5     		push	{r7, lr}
 189              		.cfi_def_cfa_offset 8
 190              		.cfi_offset 7, -8
 191              		.cfi_offset 14, -4
 192 0002 82B0     		sub	sp, sp, #8
 193              		.cfi_def_cfa_offset 16
 194 0004 00AF     		add	r7, sp, #0
 195              		.cfi_def_cfa_register 7
 196 0006 7860     		str	r0, [r7, #4]
1187:Generated_Source\PSoC4/BLE_eventHandler.c ****     if(*eventParam == CYBLE_GATT_RSP_TO)
1188:Generated_Source\PSoC4/BLE_eventHandler.c ****     {
1189:Generated_Source\PSoC4/BLE_eventHandler.c ****     #if (CYBLE_GATT_ROLE_CLIENT)
1190:Generated_Source\PSoC4/BLE_eventHandler.c ****         if(0u != (cyBle_eventHandlerFlag & CYBLE_AUTO_DISCOVERY))
1191:Generated_Source\PSoC4/BLE_eventHandler.c ****         {
1192:Generated_Source\PSoC4/BLE_eventHandler.c ****             switch(CyBle_GetClientState())
1193:Generated_Source\PSoC4/BLE_eventHandler.c ****             {
1194:Generated_Source\PSoC4/BLE_eventHandler.c ****                 case CYBLE_CLIENT_STATE_SRVC_DISCOVERING:
1195:Generated_Source\PSoC4/BLE_eventHandler.c ****                     CyBle_ApplCallback(CYBLE_EVT_GATTC_SRVC_DISCOVERY_FAILED, NULL);
1196:Generated_Source\PSoC4/BLE_eventHandler.c ****                     break;
1197:Generated_Source\PSoC4/BLE_eventHandler.c ****                 case CYBLE_CLIENT_STATE_INCL_DISCOVERING:
1198:Generated_Source\PSoC4/BLE_eventHandler.c ****                     CyBle_ApplCallback(CYBLE_EVT_GATTC_INCL_DISCOVERY_FAILED, NULL);
1199:Generated_Source\PSoC4/BLE_eventHandler.c ****                     break;
1200:Generated_Source\PSoC4/BLE_eventHandler.c ****                 case CYBLE_CLIENT_STATE_CHAR_DISCOVERING:
1201:Generated_Source\PSoC4/BLE_eventHandler.c ****                     CyBle_ApplCallback(CYBLE_EVT_GATTC_CHAR_DISCOVERY_FAILED, NULL);
1202:Generated_Source\PSoC4/BLE_eventHandler.c ****                     break;
1203:Generated_Source\PSoC4/BLE_eventHandler.c ****                 case CYBLE_CLIENT_STATE_DESCR_DISCOVERING:
1204:Generated_Source\PSoC4/BLE_eventHandler.c ****                     CyBle_ApplCallback(CYBLE_EVT_GATTC_DESCR_DISCOVERY_FAILED, NULL);
1205:Generated_Source\PSoC4/BLE_eventHandler.c ****                     break;
1206:Generated_Source\PSoC4/BLE_eventHandler.c ****                 default:        /* Other states should not be set in Auto discovery mode */
1207:Generated_Source\PSoC4/BLE_eventHandler.c ****                     break;
1208:Generated_Source\PSoC4/BLE_eventHandler.c ****             }
1209:Generated_Source\PSoC4/BLE_eventHandler.c ****             cyBle_eventHandlerFlag &= (uint8)~CYBLE_AUTO_DISCOVERY;
1210:Generated_Source\PSoC4/BLE_eventHandler.c ****             CyBle_SetClientState(CYBLE_CLIENT_STATE_CONNECTED);
1211:Generated_Source\PSoC4/BLE_eventHandler.c ****         }
1212:Generated_Source\PSoC4/BLE_eventHandler.c ****     #endif /* CYBLE_GATT_ROLE_CLIENT */
1213:Generated_Source\PSoC4/BLE_eventHandler.c ****     #ifdef CYBLE_CPS_SERVER
1214:Generated_Source\PSoC4/BLE_eventHandler.c ****         CyBle_CpssTimeOutEventHandler();
1215:Generated_Source\PSoC4/BLE_eventHandler.c ****     #endif /* CYBLE_CPS_SERVER */
1216:Generated_Source\PSoC4/BLE_eventHandler.c ****     }
1217:Generated_Source\PSoC4/BLE_eventHandler.c ****     
1218:Generated_Source\PSoC4/BLE_eventHandler.c ****     /* Connection procedure timeout */
1219:Generated_Source\PSoC4/BLE_eventHandler.c ****     if(*eventParam == CYBLE_GENERIC_TO)
1220:Generated_Source\PSoC4/BLE_eventHandler.c ****     {
1221:Generated_Source\PSoC4/BLE_eventHandler.c ****     #if(CYBLE_GAP_ROLE_CENTRAL)
1222:Generated_Source\PSoC4/BLE_eventHandler.c ****         if(CYBLE_STATE_CONNECTING == CyBle_GetState())
1223:Generated_Source\PSoC4/BLE_eventHandler.c ****         {
1224:Generated_Source\PSoC4/BLE_eventHandler.c ****             (void)CyBle_GapcCancelDeviceConnection();
1225:Generated_Source\PSoC4/BLE_eventHandler.c ****         }
1226:Generated_Source\PSoC4/BLE_eventHandler.c ****     #endif /* CYBLE_GAP_ROLE_CENTRAL */
1227:Generated_Source\PSoC4/BLE_eventHandler.c ****     }
1228:Generated_Source\PSoC4/BLE_eventHandler.c **** }
 197              		.loc 1 1228 0
ARM GAS  C:\Users\TTSS\AppData\Local\Temp\ccwoAHLq.s 			page 26


 198 0008 BD46     		mov	sp, r7
 199 000a 02B0     		add	sp, sp, #8
 200              		@ sp needed
 201 000c 80BD     		pop	{r7, pc}
 202              		.cfi_endproc
 203              	.LFE5:
 204              		.size	CyBle_TimeOutEventHandler, .-CyBle_TimeOutEventHandler
 205              		.section	.text.CyBle_GattConnectReqHandler,"ax",%progbits
 206              		.align	2
 207              		.code	16
 208              		.thumb_func
 209              		.type	CyBle_GattConnectReqHandler, %function
 210              	CyBle_GattConnectReqHandler:
 211              	.LFB6:
1229:Generated_Source\PSoC4/BLE_eventHandler.c **** 
1230:Generated_Source\PSoC4/BLE_eventHandler.c **** 
1231:Generated_Source\PSoC4/BLE_eventHandler.c **** /****************************************************************************** 
1232:Generated_Source\PSoC4/BLE_eventHandler.c **** ##Function Name: CyBle_GattConnectReqHandler
1233:Generated_Source\PSoC4/BLE_eventHandler.c **** *******************************************************************************
1234:Generated_Source\PSoC4/BLE_eventHandler.c **** 
1235:Generated_Source\PSoC4/BLE_eventHandler.c **** Summary:
1236:Generated_Source\PSoC4/BLE_eventHandler.c ****  Handles the GATT connect event from the BLE stack.
1237:Generated_Source\PSoC4/BLE_eventHandler.c **** 
1238:Generated_Source\PSoC4/BLE_eventHandler.c **** Parameters:
1239:Generated_Source\PSoC4/BLE_eventHandler.c ****  None
1240:Generated_Source\PSoC4/BLE_eventHandler.c **** 
1241:Generated_Source\PSoC4/BLE_eventHandler.c **** Return:
1242:Generated_Source\PSoC4/BLE_eventHandler.c ****  None
1243:Generated_Source\PSoC4/BLE_eventHandler.c **** 
1244:Generated_Source\PSoC4/BLE_eventHandler.c **** ******************************************************************************/
1245:Generated_Source\PSoC4/BLE_eventHandler.c **** static void CyBle_GattConnectReqHandler(void)
1246:Generated_Source\PSoC4/BLE_eventHandler.c **** {
 212              		.loc 1 1246 0
 213              		.cfi_startproc
 214 0000 80B5     		push	{r7, lr}
 215              		.cfi_def_cfa_offset 8
 216              		.cfi_offset 7, -8
 217              		.cfi_offset 14, -4
 218 0002 00AF     		add	r7, sp, #0
 219              		.cfi_def_cfa_register 7
1247:Generated_Source\PSoC4/BLE_eventHandler.c ****     #ifdef CYBLE_CGMS_SERVER
1248:Generated_Source\PSoC4/BLE_eventHandler.c ****         CyBle_CgmsInit();
1249:Generated_Source\PSoC4/BLE_eventHandler.c ****     #endif /* CYBLE_CGMS_SERVER */
1250:Generated_Source\PSoC4/BLE_eventHandler.c ****     
1251:Generated_Source\PSoC4/BLE_eventHandler.c ****     #ifdef CYBLE_CPS_SERVER
1252:Generated_Source\PSoC4/BLE_eventHandler.c ****         CyBle_CpssConnectEventHandler();
1253:Generated_Source\PSoC4/BLE_eventHandler.c ****     #endif /* CYBLE_CPS_SERVER */
1254:Generated_Source\PSoC4/BLE_eventHandler.c ****     
1255:Generated_Source\PSoC4/BLE_eventHandler.c ****     #ifdef CYBLE_CSCS_SERVER
1256:Generated_Source\PSoC4/BLE_eventHandler.c ****             CyBle_CscsInit();
1257:Generated_Source\PSoC4/BLE_eventHandler.c ****     #endif /* CYBLE_CSCS_SERVER */
1258:Generated_Source\PSoC4/BLE_eventHandler.c ****     
1259:Generated_Source\PSoC4/BLE_eventHandler.c ****     #ifdef CYBLE_LLS_SERVER
1260:Generated_Source\PSoC4/BLE_eventHandler.c ****         CyBle_LlssConnectEventHandler();
1261:Generated_Source\PSoC4/BLE_eventHandler.c ****     #endif /* CYBLE_LLS_SERVER */
1262:Generated_Source\PSoC4/BLE_eventHandler.c ****     
1263:Generated_Source\PSoC4/BLE_eventHandler.c ****     #ifdef CYBLE_HIDS_SERVER
ARM GAS  C:\Users\TTSS\AppData\Local\Temp\ccwoAHLq.s 			page 27


1264:Generated_Source\PSoC4/BLE_eventHandler.c ****         CyBle_HidssOnDeviceConnected();
1265:Generated_Source\PSoC4/BLE_eventHandler.c ****     #endif /* CYBLE_HIDS_SERVER */
1266:Generated_Source\PSoC4/BLE_eventHandler.c **** 
1267:Generated_Source\PSoC4/BLE_eventHandler.c ****     #ifdef CYBLE_RSCS_SERVER
1268:Generated_Source\PSoC4/BLE_eventHandler.c ****         CyBle_RscsInit();
1269:Generated_Source\PSoC4/BLE_eventHandler.c ****     #endif /* CYBLE_RSCS_SERVER */
1270:Generated_Source\PSoC4/BLE_eventHandler.c **** }
 220              		.loc 1 1270 0
 221 0004 BD46     		mov	sp, r7
 222              		@ sp needed
 223 0006 80BD     		pop	{r7, pc}
 224              		.cfi_endproc
 225              	.LFE6:
 226              		.size	CyBle_GattConnectReqHandler, .-CyBle_GattConnectReqHandler
 227              		.section	.text.CyBle_IsDeviceAddressValid,"ax",%progbits
 228              		.align	2
 229              		.code	16
 230              		.thumb_func
 231              		.type	CyBle_IsDeviceAddressValid, %function
 232              	CyBle_IsDeviceAddressValid:
 233              	.LFB7:
1271:Generated_Source\PSoC4/BLE_eventHandler.c **** 
1272:Generated_Source\PSoC4/BLE_eventHandler.c **** 
1273:Generated_Source\PSoC4/BLE_eventHandler.c **** #if (CYBLE_GATT_ROLE_SERVER || CYBLE_GATT_ROLE_CLIENT)
1274:Generated_Source\PSoC4/BLE_eventHandler.c **** 
1275:Generated_Source\PSoC4/BLE_eventHandler.c **** /****************************************************************************** 
1276:Generated_Source\PSoC4/BLE_eventHandler.c **** ##Function Name: CyBle_IsDeviceAddressValid
1277:Generated_Source\PSoC4/BLE_eventHandler.c **** *******************************************************************************
1278:Generated_Source\PSoC4/BLE_eventHandler.c **** 
1279:Generated_Source\PSoC4/BLE_eventHandler.c **** Summary:
1280:Generated_Source\PSoC4/BLE_eventHandler.c ****  This function verifies that BLE public address has been programmed to SFLASH 
1281:Generated_Source\PSoC4/BLE_eventHandler.c ****  during manufacture.
1282:Generated_Source\PSoC4/BLE_eventHandler.c **** 
1283:Generated_Source\PSoC4/BLE_eventHandler.c **** Parameters:
1284:Generated_Source\PSoC4/BLE_eventHandler.c ****  CYBLE_GAP_BD_ADDR_T *sflashDeviceAddress: the pointer to the BD address of 
1285:Generated_Source\PSoC4/BLE_eventHandler.c ****                                            type CYBLE_GAP_BD_ADDR_T. 
1286:Generated_Source\PSoC4/BLE_eventHandler.c **** 
1287:Generated_Source\PSoC4/BLE_eventHandler.c **** Return:
1288:Generated_Source\PSoC4/BLE_eventHandler.c ****  Non zero value when a device address differs from the default SFLASH content.
1289:Generated_Source\PSoC4/BLE_eventHandler.c **** 
1290:Generated_Source\PSoC4/BLE_eventHandler.c **** ******************************************************************************/
1291:Generated_Source\PSoC4/BLE_eventHandler.c **** static uint8 CyBle_IsDeviceAddressValid(const CYBLE_GAP_BD_ADDR_T *sflashDeviceAddress)
1292:Generated_Source\PSoC4/BLE_eventHandler.c **** {
 234              		.loc 1 1292 0
 235              		.cfi_startproc
 236 0000 80B5     		push	{r7, lr}
 237              		.cfi_def_cfa_offset 8
 238              		.cfi_offset 7, -8
 239              		.cfi_offset 14, -4
 240 0002 84B0     		sub	sp, sp, #16
 241              		.cfi_def_cfa_offset 24
 242 0004 00AF     		add	r7, sp, #0
 243              		.cfi_def_cfa_register 7
 244 0006 7860     		str	r0, [r7, #4]
1293:Generated_Source\PSoC4/BLE_eventHandler.c ****     uint8 i;
1294:Generated_Source\PSoC4/BLE_eventHandler.c ****     uint8 sflashAddressValid = 0u;
 245              		.loc 1 1294 0
ARM GAS  C:\Users\TTSS\AppData\Local\Temp\ccwoAHLq.s 			page 28


 246 0008 0E23     		mov	r3, #14
 247 000a FB18     		add	r3, r7, r3
 248 000c 0022     		mov	r2, #0
 249 000e 1A70     		strb	r2, [r3]
1295:Generated_Source\PSoC4/BLE_eventHandler.c ****     
1296:Generated_Source\PSoC4/BLE_eventHandler.c ****     if(sflashDeviceAddress -> type == CYBLE_GAP_ADDR_TYPE_PUBLIC)  
 250              		.loc 1 1296 0
 251 0010 7B68     		ldr	r3, [r7, #4]
 252 0012 9B79     		ldrb	r3, [r3, #6]
 253 0014 002B     		cmp	r3, #0
 254 0016 1CD1     		bne	.L13
1297:Generated_Source\PSoC4/BLE_eventHandler.c ****     {
1298:Generated_Source\PSoC4/BLE_eventHandler.c ****         for(i = 0u; i < CYBLE_GAP_BD_ADDR_SIZE; i++)
 255              		.loc 1 1298 0
 256 0018 0F23     		mov	r3, #15
 257 001a FB18     		add	r3, r7, r3
 258 001c 0022     		mov	r2, #0
 259 001e 1A70     		strb	r2, [r3]
 260 0020 12E0     		b	.L14
 261              	.L16:
1299:Generated_Source\PSoC4/BLE_eventHandler.c ****         {
1300:Generated_Source\PSoC4/BLE_eventHandler.c ****             if(sflashDeviceAddress->bdAddr[i] != 0u)
 262              		.loc 1 1300 0
 263 0022 0F23     		mov	r3, #15
 264 0024 FB18     		add	r3, r7, r3
 265 0026 1B78     		ldrb	r3, [r3]
 266 0028 7A68     		ldr	r2, [r7, #4]
 267 002a D35C     		ldrb	r3, [r2, r3]
 268 002c 002B     		cmp	r3, #0
 269 002e 04D0     		beq	.L15
1301:Generated_Source\PSoC4/BLE_eventHandler.c ****             {
1302:Generated_Source\PSoC4/BLE_eventHandler.c ****                 sflashAddressValid = 1u;
 270              		.loc 1 1302 0
 271 0030 0E23     		mov	r3, #14
 272 0032 FB18     		add	r3, r7, r3
 273 0034 0122     		mov	r2, #1
 274 0036 1A70     		strb	r2, [r3]
1303:Generated_Source\PSoC4/BLE_eventHandler.c ****                 break;
 275              		.loc 1 1303 0
 276 0038 0BE0     		b	.L13
 277              	.L15:
1298:Generated_Source\PSoC4/BLE_eventHandler.c ****         {
 278              		.loc 1 1298 0 discriminator 2
 279 003a 0F23     		mov	r3, #15
 280 003c FB18     		add	r3, r7, r3
 281 003e 1A78     		ldrb	r2, [r3]
 282 0040 0F23     		mov	r3, #15
 283 0042 FB18     		add	r3, r7, r3
 284 0044 0132     		add	r2, r2, #1
 285 0046 1A70     		strb	r2, [r3]
 286              	.L14:
1298:Generated_Source\PSoC4/BLE_eventHandler.c ****         {
 287              		.loc 1 1298 0 is_stmt 0 discriminator 1
 288 0048 0F23     		mov	r3, #15
 289 004a FB18     		add	r3, r7, r3
 290 004c 1B78     		ldrb	r3, [r3]
 291 004e 052B     		cmp	r3, #5
ARM GAS  C:\Users\TTSS\AppData\Local\Temp\ccwoAHLq.s 			page 29


 292 0050 E7D9     		bls	.L16
 293              	.L13:
1304:Generated_Source\PSoC4/BLE_eventHandler.c ****             }
1305:Generated_Source\PSoC4/BLE_eventHandler.c ****         }
1306:Generated_Source\PSoC4/BLE_eventHandler.c ****     }
1307:Generated_Source\PSoC4/BLE_eventHandler.c ****     return (sflashAddressValid);
 294              		.loc 1 1307 0 is_stmt 1
 295 0052 0E23     		mov	r3, #14
 296 0054 FB18     		add	r3, r7, r3
 297 0056 1B78     		ldrb	r3, [r3]
1308:Generated_Source\PSoC4/BLE_eventHandler.c **** }
 298              		.loc 1 1308 0
 299 0058 181C     		mov	r0, r3
 300 005a BD46     		mov	sp, r7
 301 005c 04B0     		add	sp, sp, #16
 302              		@ sp needed
 303 005e 80BD     		pop	{r7, pc}
 304              		.cfi_endproc
 305              	.LFE7:
 306              		.size	CyBle_IsDeviceAddressValid, .-CyBle_IsDeviceAddressValid
 307              		.section	.text.CyBle_L2Cap_ConnParamUpdateRspEventHandler,"ax",%progbits
 308              		.align	2
 309              		.code	16
 310              		.thumb_func
 311              		.type	CyBle_L2Cap_ConnParamUpdateRspEventHandler, %function
 312              	CyBle_L2Cap_ConnParamUpdateRspEventHandler:
 313              	.LFB8:
1309:Generated_Source\PSoC4/BLE_eventHandler.c **** #endif /* CYBLE_GATT_ROLE_SERVER || CYBLE_GATT_ROLE_CLIENT */
1310:Generated_Source\PSoC4/BLE_eventHandler.c **** 
1311:Generated_Source\PSoC4/BLE_eventHandler.c **** 
1312:Generated_Source\PSoC4/BLE_eventHandler.c **** /****************************************************************************** 
1313:Generated_Source\PSoC4/BLE_eventHandler.c **** ##Function Name: CyBle_L2Cap_ConnParamUpdateRspHandler
1314:Generated_Source\PSoC4/BLE_eventHandler.c **** *******************************************************************************
1315:Generated_Source\PSoC4/BLE_eventHandler.c **** 
1316:Generated_Source\PSoC4/BLE_eventHandler.c **** Summary:
1317:Generated_Source\PSoC4/BLE_eventHandler.c ****  Handles the L2CAP connection parameter response event from
1318:Generated_Source\PSoC4/BLE_eventHandler.c ****  the BLE stack.
1319:Generated_Source\PSoC4/BLE_eventHandler.c **** 
1320:Generated_Source\PSoC4/BLE_eventHandler.c **** Parameters:
1321:Generated_Source\PSoC4/BLE_eventHandler.c ****  uint16 response:
1322:Generated_Source\PSoC4/BLE_eventHandler.c ****      * Accepted = 0x0000
1323:Generated_Source\PSoC4/BLE_eventHandler.c ****      * Rejected = 0x0001
1324:Generated_Source\PSoC4/BLE_eventHandler.c **** 
1325:Generated_Source\PSoC4/BLE_eventHandler.c **** Return:
1326:Generated_Source\PSoC4/BLE_eventHandler.c ****  None
1327:Generated_Source\PSoC4/BLE_eventHandler.c **** 
1328:Generated_Source\PSoC4/BLE_eventHandler.c **** ******************************************************************************/
1329:Generated_Source\PSoC4/BLE_eventHandler.c **** static void CyBle_L2Cap_ConnParamUpdateRspEventHandler(uint16 response)
1330:Generated_Source\PSoC4/BLE_eventHandler.c **** {
 314              		.loc 1 1330 0
 315              		.cfi_startproc
 316 0000 80B5     		push	{r7, lr}
 317              		.cfi_def_cfa_offset 8
 318              		.cfi_offset 7, -8
 319              		.cfi_offset 14, -4
 320 0002 82B0     		sub	sp, sp, #8
 321              		.cfi_def_cfa_offset 16
ARM GAS  C:\Users\TTSS\AppData\Local\Temp\ccwoAHLq.s 			page 30


 322 0004 00AF     		add	r7, sp, #0
 323              		.cfi_def_cfa_register 7
 324 0006 021C     		mov	r2, r0
 325 0008 BB1D     		add	r3, r7, #6
 326 000a 1A80     		strh	r2, [r3]
1331:Generated_Source\PSoC4/BLE_eventHandler.c ****     #ifdef CYBLE_CPS_SERVER
1332:Generated_Source\PSoC4/BLE_eventHandler.c ****         CyBle_CpssConnParamUpdateRspEventHandler(response);
1333:Generated_Source\PSoC4/BLE_eventHandler.c ****     #endif /* CYBLE_CPS_SERVER */
1334:Generated_Source\PSoC4/BLE_eventHandler.c ****     
1335:Generated_Source\PSoC4/BLE_eventHandler.c ****     /* Unreferenced variable warning workaround */
1336:Generated_Source\PSoC4/BLE_eventHandler.c ****     if(response != 0u)
1337:Generated_Source\PSoC4/BLE_eventHandler.c ****     {
1338:Generated_Source\PSoC4/BLE_eventHandler.c ****     }
1339:Generated_Source\PSoC4/BLE_eventHandler.c **** }
 327              		.loc 1 1339 0
 328 000c BD46     		mov	sp, r7
 329 000e 02B0     		add	sp, sp, #8
 330              		@ sp needed
 331 0010 80BD     		pop	{r7, pc}
 332              		.cfi_endproc
 333              	.LFE8:
 334              		.size	CyBle_L2Cap_ConnParamUpdateRspEventHandler, .-CyBle_L2Cap_ConnParamUpdateRspEventHandler
 335 0012 C046     		.section	.text.CyBle_GapConnUpdateCompleteEventHandler,"ax",%progbits
 336              		.align	2
 337              		.code	16
 338              		.thumb_func
 339              		.type	CyBle_GapConnUpdateCompleteEventHandler, %function
 340              	CyBle_GapConnUpdateCompleteEventHandler:
 341              	.LFB9:
1340:Generated_Source\PSoC4/BLE_eventHandler.c **** 
1341:Generated_Source\PSoC4/BLE_eventHandler.c **** 
1342:Generated_Source\PSoC4/BLE_eventHandler.c **** /****************************************************************************** 
1343:Generated_Source\PSoC4/BLE_eventHandler.c **** ##Function Name: CyBle_GapConnUpdateCompleteEventHandler
1344:Generated_Source\PSoC4/BLE_eventHandler.c **** *******************************************************************************
1345:Generated_Source\PSoC4/BLE_eventHandler.c **** 
1346:Generated_Source\PSoC4/BLE_eventHandler.c **** Summary:
1347:Generated_Source\PSoC4/BLE_eventHandler.c ****  Handles the CYBLE_EVT_GAP_CONNECTION_UPDATE_COMPLETE event from
1348:Generated_Source\PSoC4/BLE_eventHandler.c ****  the BLE stack.
1349:Generated_Source\PSoC4/BLE_eventHandler.c **** 
1350:Generated_Source\PSoC4/BLE_eventHandler.c **** Parameters:
1351:Generated_Source\PSoC4/BLE_eventHandler.c ****  *eventParam: The pointer to the data structure specified by the event.
1352:Generated_Source\PSoC4/BLE_eventHandler.c **** 
1353:Generated_Source\PSoC4/BLE_eventHandler.c **** Return:
1354:Generated_Source\PSoC4/BLE_eventHandler.c ****  None
1355:Generated_Source\PSoC4/BLE_eventHandler.c **** 
1356:Generated_Source\PSoC4/BLE_eventHandler.c **** ******************************************************************************/
1357:Generated_Source\PSoC4/BLE_eventHandler.c **** static void CyBle_GapConnUpdateCompleteEventHandler(const CYBLE_GAP_CONN_PARAM_UPDATED_IN_CONTROLLE
1358:Generated_Source\PSoC4/BLE_eventHandler.c **** {
 342              		.loc 1 1358 0
 343              		.cfi_startproc
 344 0000 80B5     		push	{r7, lr}
 345              		.cfi_def_cfa_offset 8
 346              		.cfi_offset 7, -8
 347              		.cfi_offset 14, -4
 348 0002 82B0     		sub	sp, sp, #8
 349              		.cfi_def_cfa_offset 16
 350 0004 00AF     		add	r7, sp, #0
ARM GAS  C:\Users\TTSS\AppData\Local\Temp\ccwoAHLq.s 			page 31


 351              		.cfi_def_cfa_register 7
 352 0006 7860     		str	r0, [r7, #4]
1359:Generated_Source\PSoC4/BLE_eventHandler.c ****     #ifdef CYBLE_CPS_SERVER
1360:Generated_Source\PSoC4/BLE_eventHandler.c ****         CyBle_CpssConnUpdateCompleteEventHandler(eventParam);
1361:Generated_Source\PSoC4/BLE_eventHandler.c ****     #endif /* CYBLE_CPS_SERVER */
1362:Generated_Source\PSoC4/BLE_eventHandler.c ****     
1363:Generated_Source\PSoC4/BLE_eventHandler.c ****     /* Unreferenced variable warning workaround */
1364:Generated_Source\PSoC4/BLE_eventHandler.c ****     if(eventParam != 0u)
1365:Generated_Source\PSoC4/BLE_eventHandler.c ****     {
1366:Generated_Source\PSoC4/BLE_eventHandler.c ****     }
1367:Generated_Source\PSoC4/BLE_eventHandler.c **** }
 353              		.loc 1 1367 0
 354 0008 BD46     		mov	sp, r7
 355 000a 02B0     		add	sp, sp, #8
 356              		@ sp needed
 357 000c 80BD     		pop	{r7, pc}
 358              		.cfi_endproc
 359              	.LFE9:
 360              		.size	CyBle_GapConnUpdateCompleteEventHandler, .-CyBle_GapConnUpdateCompleteEventHandler
 361              		.section	.text.CyBle_EventHandler,"ax",%progbits
 362              		.align	2
 363              		.global	CyBle_EventHandler
 364              		.code	16
 365              		.thumb_func
 366              		.type	CyBle_EventHandler, %function
 367              	CyBle_EventHandler:
 368              	.LFB10:
1368:Generated_Source\PSoC4/BLE_eventHandler.c **** 
1369:Generated_Source\PSoC4/BLE_eventHandler.c **** 
1370:Generated_Source\PSoC4/BLE_eventHandler.c **** /****************************************************************************** 
1371:Generated_Source\PSoC4/BLE_eventHandler.c **** ##Function Name: CyBle_EventHandler
1372:Generated_Source\PSoC4/BLE_eventHandler.c **** *******************************************************************************
1373:Generated_Source\PSoC4/BLE_eventHandler.c **** 
1374:Generated_Source\PSoC4/BLE_eventHandler.c **** Summary:
1375:Generated_Source\PSoC4/BLE_eventHandler.c ****  Handles the events from the BLE stack
1376:Generated_Source\PSoC4/BLE_eventHandler.c **** 
1377:Generated_Source\PSoC4/BLE_eventHandler.c **** Parameters:
1378:Generated_Source\PSoC4/BLE_eventHandler.c ****  eventCode:    the event code
1379:Generated_Source\PSoC4/BLE_eventHandler.c ****  *eventParam:  the event parameters
1380:Generated_Source\PSoC4/BLE_eventHandler.c **** 
1381:Generated_Source\PSoC4/BLE_eventHandler.c **** Return:
1382:Generated_Source\PSoC4/BLE_eventHandler.c ****  None.
1383:Generated_Source\PSoC4/BLE_eventHandler.c **** 
1384:Generated_Source\PSoC4/BLE_eventHandler.c **** ******************************************************************************/
1385:Generated_Source\PSoC4/BLE_eventHandler.c **** void CyBle_EventHandler(uint8 eventCode, void *eventParam)
1386:Generated_Source\PSoC4/BLE_eventHandler.c **** {
 369              		.loc 1 1386 0
 370              		.cfi_startproc
 371 0000 80B5     		push	{r7, lr}
 372              		.cfi_def_cfa_offset 8
 373              		.cfi_offset 7, -8
 374              		.cfi_offset 14, -4
 375 0002 84B0     		sub	sp, sp, #16
 376              		.cfi_def_cfa_offset 24
 377 0004 00AF     		add	r7, sp, #0
 378              		.cfi_def_cfa_register 7
 379 0006 021C     		mov	r2, r0
ARM GAS  C:\Users\TTSS\AppData\Local\Temp\ccwoAHLq.s 			page 32


 380 0008 3960     		str	r1, [r7]
 381 000a FB1D     		add	r3, r7, #7
 382 000c 1A70     		strb	r2, [r3]
1387:Generated_Source\PSoC4/BLE_eventHandler.c ****     cyBle_eventHandlerFlag |= CYBLE_CALLBACK;
 383              		.loc 1 1387 0
 384 000e 984B     		ldr	r3, .L52
 385 0010 1B78     		ldrb	r3, [r3]
 386 0012 DBB2     		uxtb	r3, r3
 387 0014 0122     		mov	r2, #1
 388 0016 1343     		orr	r3, r2
 389 0018 DAB2     		uxtb	r2, r3
 390 001a 954B     		ldr	r3, .L52
 391 001c 1A70     		strb	r2, [r3]
1388:Generated_Source\PSoC4/BLE_eventHandler.c **** 
1389:Generated_Source\PSoC4/BLE_eventHandler.c ****     /* Common Profile event handling */
1390:Generated_Source\PSoC4/BLE_eventHandler.c ****     switch(eventCode)
 392              		.loc 1 1390 0
 393 001e FB1D     		add	r3, r7, #7
 394 0020 1B78     		ldrb	r3, [r3]
 395 0022 712B     		cmp	r3, #113
 396 0024 00D9     		bls	.LCB325
 397 0026 08E1     		b	.L51	@long jump
 398              	.LCB325:
 399 0028 9A00     		lsl	r2, r3, #2
 400 002a 924B     		ldr	r3, .L52+4
 401 002c D318     		add	r3, r2, r3
 402 002e 1B68     		ldr	r3, [r3]
 403 0030 9F46     		mov	pc, r3
 404              		.section	.rodata
 405              		.align	2
 406              	.L23:
 407 0000 3A020000 		.word	.L51
 408 0004 32000000 		.word	.L22
 409 0008 DA000000 		.word	.L24
 410 000c 3A020000 		.word	.L51
 411 0010 3A020000 		.word	.L51
 412 0014 E4000000 		.word	.L25
 413 0018 3A020000 		.word	.L51
 414 001c 3A020000 		.word	.L51
 415 0020 3A020000 		.word	.L51
 416 0024 3A020000 		.word	.L51
 417 0028 3A020000 		.word	.L51
 418 002c 3A020000 		.word	.L51
 419 0030 3A020000 		.word	.L51
 420 0034 3A020000 		.word	.L51
 421 0038 3A020000 		.word	.L51
 422 003c 3A020000 		.word	.L51
 423 0040 3A020000 		.word	.L51
 424 0044 3A020000 		.word	.L51
 425 0048 3A020000 		.word	.L51
 426 004c 3A020000 		.word	.L51
 427 0050 3A020000 		.word	.L51
 428 0054 3A020000 		.word	.L51
 429 0058 3A020000 		.word	.L51
 430 005c 3A020000 		.word	.L51
 431 0060 3A020000 		.word	.L51
 432 0064 3A020000 		.word	.L51
ARM GAS  C:\Users\TTSS\AppData\Local\Temp\ccwoAHLq.s 			page 33


 433 0068 3A020000 		.word	.L51
 434 006c 3A020000 		.word	.L51
 435 0070 3A020000 		.word	.L51
 436 0074 3A020000 		.word	.L51
 437 0078 3A020000 		.word	.L51
 438 007c 3A020000 		.word	.L51
 439 0080 3A020000 		.word	.L51
 440 0084 EE000000 		.word	.L26
 441 0088 3A020000 		.word	.L51
 442 008c 3A020000 		.word	.L51
 443 0090 3A020000 		.word	.L51
 444 0094 3A020000 		.word	.L51
 445 0098 30010000 		.word	.L27
 446 009c 18010000 		.word	.L28
 447 00a0 28010000 		.word	.L29
 448 00a4 3A020000 		.word	.L51
 449 00a8 0E010000 		.word	.L30
 450 00ac 3A020000 		.word	.L51
 451 00b0 3A020000 		.word	.L51
 452 00b4 3A020000 		.word	.L51
 453 00b8 3A020000 		.word	.L51
 454 00bc 3A020000 		.word	.L51
 455 00c0 3A020000 		.word	.L51
 456 00c4 3A020000 		.word	.L51
 457 00c8 3A020000 		.word	.L51
 458 00cc 3A020000 		.word	.L51
 459 00d0 3A020000 		.word	.L51
 460 00d4 3A020000 		.word	.L51
 461 00d8 3A020000 		.word	.L51
 462 00dc 3A020000 		.word	.L51
 463 00e0 3A020000 		.word	.L51
 464 00e4 3A020000 		.word	.L51
 465 00e8 3A020000 		.word	.L51
 466 00ec 3A020000 		.word	.L51
 467 00f0 3A020000 		.word	.L51
 468 00f4 3A020000 		.word	.L51
 469 00f8 3A020000 		.word	.L51
 470 00fc 3A020000 		.word	.L51
 471 0100 3A020000 		.word	.L51
 472 0104 B0010000 		.word	.L31
 473 0108 E6010000 		.word	.L32
 474 010c EC010000 		.word	.L33
 475 0110 3A020000 		.word	.L51
 476 0114 3A020000 		.word	.L51
 477 0118 3A020000 		.word	.L51
 478 011c 3A020000 		.word	.L51
 479 0120 3A020000 		.word	.L51
 480 0124 3A020000 		.word	.L51
 481 0128 3A020000 		.word	.L51
 482 012c 3A020000 		.word	.L51
 483 0130 26020000 		.word	.L34
 484 0134 3A020000 		.word	.L51
 485 0138 3A020000 		.word	.L51
 486 013c 3A020000 		.word	.L51
 487 0140 3A020000 		.word	.L51
 488 0144 3A020000 		.word	.L51
 489 0148 3A020000 		.word	.L51
ARM GAS  C:\Users\TTSS\AppData\Local\Temp\ccwoAHLq.s 			page 34


 490 014c 3A020000 		.word	.L51
 491 0150 30020000 		.word	.L38
 492 0154 3A020000 		.word	.L51
 493 0158 3A020000 		.word	.L51
 494 015c 3A020000 		.word	.L51
 495 0160 3A020000 		.word	.L51
 496 0164 3A020000 		.word	.L51
 497 0168 3A020000 		.word	.L51
 498 016c 3A020000 		.word	.L51
 499 0170 3A020000 		.word	.L51
 500 0174 3A020000 		.word	.L51
 501 0178 3A020000 		.word	.L51
 502 017c 3A020000 		.word	.L51
 503 0180 3A020000 		.word	.L51
 504 0184 3A020000 		.word	.L51
 505 0188 3A020000 		.word	.L51
 506 018c 3A020000 		.word	.L51
 507 0190 3A020000 		.word	.L51
 508 0194 3A020000 		.word	.L51
 509 0198 3A020000 		.word	.L51
 510 019c 3A020000 		.word	.L51
 511 01a0 3A020000 		.word	.L51
 512 01a4 3A020000 		.word	.L51
 513 01a8 3A020000 		.word	.L51
 514 01ac 3A020000 		.word	.L51
 515 01b0 3A020000 		.word	.L51
 516 01b4 3A020000 		.word	.L51
 517 01b8 3A020000 		.word	.L51
 518 01bc 3A020000 		.word	.L51
 519 01c0 3A020000 		.word	.L51
 520 01c4 A4010000 		.word	.L40
 521              		.section	.text.CyBle_EventHandler
 522              	.L22:
 523              	.LBB3:
1391:Generated_Source\PSoC4/BLE_eventHandler.c ****     {
1392:Generated_Source\PSoC4/BLE_eventHandler.c ****         /**********************************************************
1393:Generated_Source\PSoC4/BLE_eventHandler.c ****         ##General events
1394:Generated_Source\PSoC4/BLE_eventHandler.c ****         ***********************************************************/
1395:Generated_Source\PSoC4/BLE_eventHandler.c ****         case CYBLE_EVT_STACK_ON:
1396:Generated_Source\PSoC4/BLE_eventHandler.c ****         #if(CYBLE_MODE_PROFILE)
1397:Generated_Source\PSoC4/BLE_eventHandler.c ****         {
1398:Generated_Source\PSoC4/BLE_eventHandler.c ****             CYBLE_BLESS_PWR_IN_DB_T bleSsPowerLevel;
1399:Generated_Source\PSoC4/BLE_eventHandler.c ****             
1400:Generated_Source\PSoC4/BLE_eventHandler.c ****             /* Set Tx Power Level for advertising and connection channels */
1401:Generated_Source\PSoC4/BLE_eventHandler.c ****             bleSsPowerLevel.blePwrLevelInDbm = CYBLE_TX_POWER_LEVEL_ADV;
 524              		.loc 1 1401 0
 525 0032 0C23     		mov	r3, #12
 526 0034 FB18     		add	r3, r7, r3
 527 0036 0722     		mov	r2, #7
 528 0038 1A70     		strb	r2, [r3]
1402:Generated_Source\PSoC4/BLE_eventHandler.c ****             bleSsPowerLevel.bleSsChId = CYBLE_LL_ADV_CH_TYPE;
 529              		.loc 1 1402 0
 530 003a 0C23     		mov	r3, #12
 531 003c FB18     		add	r3, r7, r3
 532 003e 0022     		mov	r2, #0
 533 0040 5A70     		strb	r2, [r3, #1]
1403:Generated_Source\PSoC4/BLE_eventHandler.c ****             (void) CyBle_SetTxPowerLevel (&bleSsPowerLevel);
ARM GAS  C:\Users\TTSS\AppData\Local\Temp\ccwoAHLq.s 			page 35


 534              		.loc 1 1403 0
 535 0042 0C23     		mov	r3, #12
 536 0044 FB18     		add	r3, r7, r3
 537 0046 181C     		mov	r0, r3
 538 0048 FFF7FEFF 		bl	CyBle_SetTxPowerLevel
1404:Generated_Source\PSoC4/BLE_eventHandler.c ****             bleSsPowerLevel.blePwrLevelInDbm = CYBLE_TX_POWER_LEVEL_CONN;
 539              		.loc 1 1404 0
 540 004c 0C23     		mov	r3, #12
 541 004e FB18     		add	r3, r7, r3
 542 0050 0722     		mov	r2, #7
 543 0052 1A70     		strb	r2, [r3]
1405:Generated_Source\PSoC4/BLE_eventHandler.c ****             bleSsPowerLevel.bleSsChId = CYBLE_LL_CONN_CH_TYPE;
 544              		.loc 1 1405 0
 545 0054 0C23     		mov	r3, #12
 546 0056 FB18     		add	r3, r7, r3
 547 0058 0122     		mov	r2, #1
 548 005a 5A70     		strb	r2, [r3, #1]
1406:Generated_Source\PSoC4/BLE_eventHandler.c ****             (void) CyBle_SetTxPowerLevel (&bleSsPowerLevel);
 549              		.loc 1 1406 0
 550 005c 0C23     		mov	r3, #12
 551 005e FB18     		add	r3, r7, r3
 552 0060 181C     		mov	r0, r3
 553 0062 FFF7FEFF 		bl	CyBle_SetTxPowerLevel
 554              	.LBE3:
1407:Generated_Source\PSoC4/BLE_eventHandler.c ****         }
1408:Generated_Source\PSoC4/BLE_eventHandler.c ****         #endif /* CYBLE_MODE_PROFILE */
1409:Generated_Source\PSoC4/BLE_eventHandler.c ****         #if (CYBLE_GATT_ROLE_SERVER || CYBLE_GATT_ROLE_CLIENT)
1410:Generated_Source\PSoC4/BLE_eventHandler.c ****             /* Set device Address  */
1411:Generated_Source\PSoC4/BLE_eventHandler.c ****             if(CyBle_IsDeviceAddressValid(cyBle_sflashDeviceAddress) != 0u)
 555              		.loc 1 1411 0
 556 0066 844B     		ldr	r3, .L52+8
 557 0068 1B68     		ldr	r3, [r3]
 558 006a 181C     		mov	r0, r3
 559 006c FFF7FEFF 		bl	CyBle_IsDeviceAddressValid
 560 0070 031E     		sub	r3, r0, #0
 561 0072 11D0     		beq	.L41
1412:Generated_Source\PSoC4/BLE_eventHandler.c ****             {
1413:Generated_Source\PSoC4/BLE_eventHandler.c ****                 (void) CyBle_SetDeviceAddress(cyBle_sflashDeviceAddress);
 562              		.loc 1 1413 0
 563 0074 804B     		ldr	r3, .L52+8
 564 0076 1B68     		ldr	r3, [r3]
 565 0078 181C     		mov	r0, r3
 566 007a FFF7FEFF 		bl	CyBle_SetDeviceAddress
1414:Generated_Source\PSoC4/BLE_eventHandler.c ****                 #if(CYBLE_GAP_ROLE_PERIPHERAL || CYBLE_GAP_ROLE_BROADCASTER)
1415:Generated_Source\PSoC4/BLE_eventHandler.c ****                     CyBle_ChangeAdDeviceAddress(cyBle_sflashDeviceAddress, 0u);
 567              		.loc 1 1415 0
 568 007e 7E4B     		ldr	r3, .L52+8
 569 0080 1B68     		ldr	r3, [r3]
 570 0082 181C     		mov	r0, r3
 571 0084 0021     		mov	r1, #0
 572 0086 FFF7FEFF 		bl	CyBle_ChangeAdDeviceAddress
1416:Generated_Source\PSoC4/BLE_eventHandler.c ****                     CyBle_ChangeAdDeviceAddress(cyBle_sflashDeviceAddress, 1u);
 573              		.loc 1 1416 0
 574 008a 7B4B     		ldr	r3, .L52+8
 575 008c 1B68     		ldr	r3, [r3]
 576 008e 181C     		mov	r0, r3
 577 0090 0121     		mov	r1, #1
ARM GAS  C:\Users\TTSS\AppData\Local\Temp\ccwoAHLq.s 			page 36


 578 0092 FFF7FEFF 		bl	CyBle_ChangeAdDeviceAddress
 579 0096 19E0     		b	.L42
 580              	.L41:
1417:Generated_Source\PSoC4/BLE_eventHandler.c ****                 #endif /* CYBLE_GAP_ROLE_PERIPHERAL || CYBLE_GAP_ROLE_BROADCASTER */    
1418:Generated_Source\PSoC4/BLE_eventHandler.c ****             }
1419:Generated_Source\PSoC4/BLE_eventHandler.c ****             else
1420:Generated_Source\PSoC4/BLE_eventHandler.c ****             {
1421:Generated_Source\PSoC4/BLE_eventHandler.c ****             #if (SILICON_GENERATED_DEVICE_ADDRESS != 0u)
1422:Generated_Source\PSoC4/BLE_eventHandler.c ****                 cyBle_deviceAddress.bdAddr[0] = CYBLE_SFLASH_DIE_X_REG;
 581              		.loc 1 1422 0
 582 0098 784B     		ldr	r3, .L52+12
 583 009a 1A78     		ldrb	r2, [r3]
 584 009c 784B     		ldr	r3, .L52+16
 585 009e 1A70     		strb	r2, [r3]
1423:Generated_Source\PSoC4/BLE_eventHandler.c ****                 cyBle_deviceAddress.bdAddr[1] = CYBLE_SFLASH_DIE_Y_REG;
 586              		.loc 1 1423 0
 587 00a0 784B     		ldr	r3, .L52+20
 588 00a2 1A78     		ldrb	r2, [r3]
 589 00a4 764B     		ldr	r3, .L52+16
 590 00a6 5A70     		strb	r2, [r3, #1]
1424:Generated_Source\PSoC4/BLE_eventHandler.c ****                 cyBle_deviceAddress.bdAddr[2] = CYBLE_SFLASH_DIE_WAFER_REG;
 591              		.loc 1 1424 0
 592 00a8 774B     		ldr	r3, .L52+24
 593 00aa 1A78     		ldrb	r2, [r3]
 594 00ac 744B     		ldr	r3, .L52+16
 595 00ae 9A70     		strb	r2, [r3, #2]
1425:Generated_Source\PSoC4/BLE_eventHandler.c ****             #endif /* SILICON_GENERATED_DEVICE_ADDRESS != 0u */
1426:Generated_Source\PSoC4/BLE_eventHandler.c ****                 (void) CyBle_SetDeviceAddress(&cyBle_deviceAddress);
 596              		.loc 1 1426 0
 597 00b0 734B     		ldr	r3, .L52+16
 598 00b2 181C     		mov	r0, r3
 599 00b4 FFF7FEFF 		bl	CyBle_SetDeviceAddress
1427:Generated_Source\PSoC4/BLE_eventHandler.c ****                 #if(CYBLE_GAP_ROLE_PERIPHERAL || CYBLE_GAP_ROLE_BROADCASTER)
1428:Generated_Source\PSoC4/BLE_eventHandler.c ****                     CyBle_ChangeAdDeviceAddress(&cyBle_deviceAddress, 0u);
 600              		.loc 1 1428 0
 601 00b8 714B     		ldr	r3, .L52+16
 602 00ba 181C     		mov	r0, r3
 603 00bc 0021     		mov	r1, #0
 604 00be FFF7FEFF 		bl	CyBle_ChangeAdDeviceAddress
1429:Generated_Source\PSoC4/BLE_eventHandler.c ****                     CyBle_ChangeAdDeviceAddress(&cyBle_deviceAddress, 1u);
 605              		.loc 1 1429 0
 606 00c2 6F4B     		ldr	r3, .L52+16
 607 00c4 181C     		mov	r0, r3
 608 00c6 0121     		mov	r1, #1
 609 00c8 FFF7FEFF 		bl	CyBle_ChangeAdDeviceAddress
 610              	.L42:
1430:Generated_Source\PSoC4/BLE_eventHandler.c ****                 #endif /* CYBLE_GAP_ROLE_PERIPHERAL || CYBLE_GAP_ROLE_BROADCASTER */    
1431:Generated_Source\PSoC4/BLE_eventHandler.c ****             }
1432:Generated_Source\PSoC4/BLE_eventHandler.c ****             /* Set device IO Capability  */
1433:Generated_Source\PSoC4/BLE_eventHandler.c ****             (void) CyBle_GapSetIoCap(CYBLE_IO_CAPABILITY);    
 611              		.loc 1 1433 0
 612 00cc 0020     		mov	r0, #0
 613 00ce FFF7FEFF 		bl	CyBle_GapSetIoCap
1434:Generated_Source\PSoC4/BLE_eventHandler.c ****         #endif /* CYBLE_GATT_ROLE_SERVER || CYBLE_GATT_ROLE_CLIENT */
1435:Generated_Source\PSoC4/BLE_eventHandler.c ****             CyBle_SetState(CYBLE_STATE_DISCONNECTED);
 614              		.loc 1 1435 0
 615 00d2 6E4B     		ldr	r3, .L52+28
ARM GAS  C:\Users\TTSS\AppData\Local\Temp\ccwoAHLq.s 			page 37


 616 00d4 0422     		mov	r2, #4
 617 00d6 1A70     		strb	r2, [r3]
1436:Generated_Source\PSoC4/BLE_eventHandler.c ****             break;
 618              		.loc 1 1436 0
 619 00d8 B0E0     		b	.L43
 620              	.L24:
1437:Generated_Source\PSoC4/BLE_eventHandler.c ****         case CYBLE_EVT_TIMEOUT:
1438:Generated_Source\PSoC4/BLE_eventHandler.c ****             CyBle_TimeOutEventHandler((CYBLE_TO_REASON_CODE_T *)eventParam);
 621              		.loc 1 1438 0
 622 00da 3B68     		ldr	r3, [r7]
 623 00dc 181C     		mov	r0, r3
 624 00de FFF7FEFF 		bl	CyBle_TimeOutEventHandler
1439:Generated_Source\PSoC4/BLE_eventHandler.c ****             break;
 625              		.loc 1 1439 0
 626 00e2 ABE0     		b	.L43
 627              	.L25:
1440:Generated_Source\PSoC4/BLE_eventHandler.c ****     	case CYBLE_EVT_STACK_BUSY_STATUS:
1441:Generated_Source\PSoC4/BLE_eventHandler.c ****             cyBle_busyStatus = *(uint8 *)eventParam;
 628              		.loc 1 1441 0
 629 00e4 3B68     		ldr	r3, [r7]
 630 00e6 1A78     		ldrb	r2, [r3]
 631 00e8 694B     		ldr	r3, .L52+32
 632 00ea 1A70     		strb	r2, [r3]
1442:Generated_Source\PSoC4/BLE_eventHandler.c ****             break;
 633              		.loc 1 1442 0
 634 00ec A6E0     		b	.L43
 635              	.L26:
1443:Generated_Source\PSoC4/BLE_eventHandler.c **** 
1444:Generated_Source\PSoC4/BLE_eventHandler.c ****         /**********************************************************
1445:Generated_Source\PSoC4/BLE_eventHandler.c ****         ##GAP events
1446:Generated_Source\PSoC4/BLE_eventHandler.c ****         ***********************************************************/
1447:Generated_Source\PSoC4/BLE_eventHandler.c ****         case CYBLE_EVT_GAP_AUTH_REQ:
1448:Generated_Source\PSoC4/BLE_eventHandler.c ****         #if(CYBLE_MODE_PROFILE)
1449:Generated_Source\PSoC4/BLE_eventHandler.c ****             if(0u == (cyBle_eventHandlerFlag & CYBLE_DISABLE_AUTOMATIC_AUTH))
 636              		.loc 1 1449 0
 637 00ee 604B     		ldr	r3, .L52
 638 00f0 1B78     		ldrb	r3, [r3]
 639 00f2 DBB2     		uxtb	r3, r3
 640 00f4 1A1C     		mov	r2, r3
 641 00f6 2023     		mov	r3, #32
 642 00f8 1340     		and	r3, r2
 643 00fa 07D1     		bne	.L44
1450:Generated_Source\PSoC4/BLE_eventHandler.c ****             {
1451:Generated_Source\PSoC4/BLE_eventHandler.c ****                 /* If the responding device does not support pairing then the responding 
1452:Generated_Source\PSoC4/BLE_eventHandler.c ****                    device shall respond using the Pairing Failed message with the error 
1453:Generated_Source\PSoC4/BLE_eventHandler.c ****                    code "Pairing Not Supported" otherwise it responds with a Pairing 
1454:Generated_Source\PSoC4/BLE_eventHandler.c ****                    Response message.
1455:Generated_Source\PSoC4/BLE_eventHandler.c ****                 */
1456:Generated_Source\PSoC4/BLE_eventHandler.c ****                 if(cyBle_authInfo.security == (CYBLE_GAP_SEC_MODE_1 | CYBLE_GAP_SEC_LEVEL_1))
 644              		.loc 1 1456 0
 645 00fc 654B     		ldr	r3, .L52+36
 646 00fe 1B78     		ldrb	r3, [r3]
 647 0100 102B     		cmp	r3, #16
 648 0102 03D1     		bne	.L44
1457:Generated_Source\PSoC4/BLE_eventHandler.c ****                 {
1458:Generated_Source\PSoC4/BLE_eventHandler.c ****                     cyBle_authInfo.authErr = CYBLE_GAP_AUTH_ERROR_PAIRING_NOT_SUPPORTED;
 649              		.loc 1 1458 0
ARM GAS  C:\Users\TTSS\AppData\Local\Temp\ccwoAHLq.s 			page 38


 650 0104 634B     		ldr	r3, .L52+36
 651 0106 0522     		mov	r2, #5
 652 0108 DA70     		strb	r2, [r3, #3]
1459:Generated_Source\PSoC4/BLE_eventHandler.c ****                 }    
1460:Generated_Source\PSoC4/BLE_eventHandler.c ****             #if(CYBLE_GAP_ROLE_PERIPHERAL)
1461:Generated_Source\PSoC4/BLE_eventHandler.c ****                 (void)CyBle_GappAuthReqReply(cyBle_connHandle.bdHandle, &cyBle_authInfo);
1462:Generated_Source\PSoC4/BLE_eventHandler.c ****             #endif /* CYBLE_GAP_ROLE_PERIPHERAL */
1463:Generated_Source\PSoC4/BLE_eventHandler.c ****             #if (CYBLE_GAP_ROLE_CENTRAL)
1464:Generated_Source\PSoC4/BLE_eventHandler.c ****                 (void)CyBle_GapAuthReq(cyBle_connHandle.bdHandle, &cyBle_authInfo);
1465:Generated_Source\PSoC4/BLE_eventHandler.c ****             #endif /* CYBLE_GAP_ROLE_CENTRAL */
1466:Generated_Source\PSoC4/BLE_eventHandler.c ****             }
1467:Generated_Source\PSoC4/BLE_eventHandler.c ****         #endif /* CYBLE_MODE_PROFILE */
1468:Generated_Source\PSoC4/BLE_eventHandler.c ****             break;
 653              		.loc 1 1468 0
 654 010a 97E0     		b	.L43
 655              	.L44:
 656 010c 96E0     		b	.L43
 657              	.L30:
1469:Generated_Source\PSoC4/BLE_eventHandler.c **** 
1470:Generated_Source\PSoC4/BLE_eventHandler.c ****         case CYBLE_EVT_GAP_CONNECTION_UPDATE_COMPLETE:
1471:Generated_Source\PSoC4/BLE_eventHandler.c ****             CyBle_GapConnUpdateCompleteEventHandler((const CYBLE_GAP_CONN_PARAM_UPDATED_IN_CONTROLL
 658              		.loc 1 1471 0
 659 010e 3B68     		ldr	r3, [r7]
 660 0110 181C     		mov	r0, r3
 661 0112 FFF7FEFF 		bl	CyBle_GapConnUpdateCompleteEventHandler
1472:Generated_Source\PSoC4/BLE_eventHandler.c ****             break;
 662              		.loc 1 1472 0
 663 0116 91E0     		b	.L43
 664              	.L28:
1473:Generated_Source\PSoC4/BLE_eventHandler.c ****             
1474:Generated_Source\PSoC4/BLE_eventHandler.c ****         case CYBLE_EVT_GAP_DEVICE_CONNECTED:
1475:Generated_Source\PSoC4/BLE_eventHandler.c ****             CyBle_GapConnUpdateCompleteEventHandler((const CYBLE_GAP_CONN_PARAM_UPDATED_IN_CONTROLL
 665              		.loc 1 1475 0
 666 0118 3B68     		ldr	r3, [r7]
 667 011a 181C     		mov	r0, r3
 668 011c FFF7FEFF 		bl	CyBle_GapConnUpdateCompleteEventHandler
1476:Generated_Source\PSoC4/BLE_eventHandler.c ****             #if(CYBLE_GAP_ROLE_CENTRAL)
1477:Generated_Source\PSoC4/BLE_eventHandler.c ****                 if(cyBle_connectingTimeout != 0u)
1478:Generated_Source\PSoC4/BLE_eventHandler.c ****                 {
1479:Generated_Source\PSoC4/BLE_eventHandler.c ****                    (void)CyBle_StopTimer();
1480:Generated_Source\PSoC4/BLE_eventHandler.c ****                 }
1481:Generated_Source\PSoC4/BLE_eventHandler.c ****             #endif /* CYBLE_GAP_ROLE_CENTRAL */
1482:Generated_Source\PSoC4/BLE_eventHandler.c ****             CyBle_SetState(CYBLE_STATE_CONNECTED);
 669              		.loc 1 1482 0
 670 0120 5A4B     		ldr	r3, .L52+28
 671 0122 0222     		mov	r2, #2
 672 0124 1A70     		strb	r2, [r3]
1483:Generated_Source\PSoC4/BLE_eventHandler.c ****             break;
 673              		.loc 1 1483 0
 674 0126 89E0     		b	.L43
 675              	.L29:
1484:Generated_Source\PSoC4/BLE_eventHandler.c **** 
1485:Generated_Source\PSoC4/BLE_eventHandler.c ****         case CYBLE_EVT_GAP_DEVICE_DISCONNECTED:
1486:Generated_Source\PSoC4/BLE_eventHandler.c ****             CyBle_SetState(CYBLE_STATE_DISCONNECTED);
 676              		.loc 1 1486 0
 677 0128 584B     		ldr	r3, .L52+28
 678 012a 0422     		mov	r2, #4
ARM GAS  C:\Users\TTSS\AppData\Local\Temp\ccwoAHLq.s 			page 39


 679 012c 1A70     		strb	r2, [r3]
1487:Generated_Source\PSoC4/BLE_eventHandler.c ****             break;
 680              		.loc 1 1487 0
 681 012e 85E0     		b	.L43
 682              	.L27:
1488:Generated_Source\PSoC4/BLE_eventHandler.c ****         #if(CYBLE_GAP_ROLE_PERIPHERAL || CYBLE_GAP_ROLE_BROADCASTER)
1489:Generated_Source\PSoC4/BLE_eventHandler.c ****             
1490:Generated_Source\PSoC4/BLE_eventHandler.c ****         case CYBLE_EVT_GAPP_ADVERTISEMENT_START_STOP:
1491:Generated_Source\PSoC4/BLE_eventHandler.c ****             #ifdef CYBLE_CPS_SERVER
1492:Generated_Source\PSoC4/BLE_eventHandler.c ****                 #if(CYBLE_GAP_ROLE_BROADCASTER)
1493:Generated_Source\PSoC4/BLE_eventHandler.c ****                     CyBle_CpssAdvertisementStartStopEventHandler();
1494:Generated_Source\PSoC4/BLE_eventHandler.c ****                 #endif /* CYBLE_GAP_ROLE_BROADCASTER */
1495:Generated_Source\PSoC4/BLE_eventHandler.c ****             #endif /* CYBLE_CPS_SERVER */
1496:Generated_Source\PSoC4/BLE_eventHandler.c ****             
1497:Generated_Source\PSoC4/BLE_eventHandler.c ****             if((CYBLE_STATE_CONNECTED != CyBle_GetState()) && ((cyBle_eventHandlerFlag & CYBLE_CALL
 683              		.loc 1 1497 0
 684 0130 564B     		ldr	r3, .L52+28
 685 0132 1B78     		ldrb	r3, [r3]
 686 0134 022B     		cmp	r3, #2
 687 0136 34D0     		beq	.L45
 688              		.loc 1 1497 0 is_stmt 0 discriminator 1
 689 0138 4D4B     		ldr	r3, .L52
 690 013a 1B78     		ldrb	r3, [r3]
 691 013c DBB2     		uxtb	r3, r3
 692 013e 1A1C     		mov	r2, r3
 693 0140 0123     		mov	r3, #1
 694 0142 1340     		and	r3, r2
 695 0144 2DD0     		beq	.L45
1498:Generated_Source\PSoC4/BLE_eventHandler.c ****             {
1499:Generated_Source\PSoC4/BLE_eventHandler.c ****                 /* After CyBle_GappStartAdvertisement first event indicates that advertising has be
1500:Generated_Source\PSoC4/BLE_eventHandler.c ****                 if(0u != (cyBle_eventHandlerFlag & CYBLE_START_FLAG))
 696              		.loc 1 1500 0 is_stmt 1
 697 0146 4A4B     		ldr	r3, .L52
 698 0148 1B78     		ldrb	r3, [r3]
 699 014a DBB2     		uxtb	r3, r3
 700 014c 1A1C     		mov	r2, r3
 701 014e 0423     		mov	r3, #4
 702 0150 1340     		and	r3, r2
 703 0152 0BD0     		beq	.L46
1501:Generated_Source\PSoC4/BLE_eventHandler.c ****                 {
1502:Generated_Source\PSoC4/BLE_eventHandler.c ****                     CyBle_SetState(CYBLE_STATE_ADVERTISING);
 704              		.loc 1 1502 0
 705 0154 4D4B     		ldr	r3, .L52+28
 706 0156 0322     		mov	r2, #3
 707 0158 1A70     		strb	r2, [r3]
1503:Generated_Source\PSoC4/BLE_eventHandler.c ****                     cyBle_eventHandlerFlag &= (uint8)~CYBLE_START_FLAG;
 708              		.loc 1 1503 0
 709 015a 454B     		ldr	r3, .L52
 710 015c 1B78     		ldrb	r3, [r3]
 711 015e DBB2     		uxtb	r3, r3
 712 0160 0422     		mov	r2, #4
 713 0162 9343     		bic	r3, r2
 714 0164 DAB2     		uxtb	r2, r3
 715 0166 424B     		ldr	r3, .L52
 716 0168 1A70     		strb	r2, [r3]
 717 016a 1AE0     		b	.L45
 718              	.L46:
ARM GAS  C:\Users\TTSS\AppData\Local\Temp\ccwoAHLq.s 			page 40


1504:Generated_Source\PSoC4/BLE_eventHandler.c ****                 }
1505:Generated_Source\PSoC4/BLE_eventHandler.c ****                 /* When application initiated stop advertisement */
1506:Generated_Source\PSoC4/BLE_eventHandler.c ****                 else if(0u != (cyBle_eventHandlerFlag & CYBLE_STOP_FLAG))
 719              		.loc 1 1506 0
 720 016c 404B     		ldr	r3, .L52
 721 016e 1B78     		ldrb	r3, [r3]
 722 0170 DBB2     		uxtb	r3, r3
 723 0172 1A1C     		mov	r2, r3
 724 0174 0823     		mov	r3, #8
 725 0176 1340     		and	r3, r2
 726 0178 0BD0     		beq	.L47
1507:Generated_Source\PSoC4/BLE_eventHandler.c ****                 {
1508:Generated_Source\PSoC4/BLE_eventHandler.c ****                     CyBle_SetState(CYBLE_STATE_DISCONNECTED);  
 727              		.loc 1 1508 0
 728 017a 444B     		ldr	r3, .L52+28
 729 017c 0422     		mov	r2, #4
 730 017e 1A70     		strb	r2, [r3]
1509:Generated_Source\PSoC4/BLE_eventHandler.c ****                     cyBle_eventHandlerFlag &= (uint8)~CYBLE_STOP_FLAG;
 731              		.loc 1 1509 0
 732 0180 3B4B     		ldr	r3, .L52
 733 0182 1B78     		ldrb	r3, [r3]
 734 0184 DBB2     		uxtb	r3, r3
 735 0186 0822     		mov	r2, #8
 736 0188 9343     		bic	r3, r2
 737 018a DAB2     		uxtb	r2, r3
 738 018c 384B     		ldr	r3, .L52
 739 018e 1A70     		strb	r2, [r3]
 740 0190 07E0     		b	.L45
 741              	.L47:
1510:Generated_Source\PSoC4/BLE_eventHandler.c ****                 }
1511:Generated_Source\PSoC4/BLE_eventHandler.c ****                 else /* Following event indicates that advertising has been stopped */
1512:Generated_Source\PSoC4/BLE_eventHandler.c ****                 {
1513:Generated_Source\PSoC4/BLE_eventHandler.c ****                     if(CYBLE_STATE_ADVERTISING == CyBle_GetState())
 742              		.loc 1 1513 0
 743 0192 3E4B     		ldr	r3, .L52+28
 744 0194 1B78     		ldrb	r3, [r3]
 745 0196 032B     		cmp	r3, #3
 746 0198 03D1     		bne	.L45
1514:Generated_Source\PSoC4/BLE_eventHandler.c ****                     {
1515:Generated_Source\PSoC4/BLE_eventHandler.c ****                         CyBle_SetState(CYBLE_STATE_DISCONNECTED);
 747              		.loc 1 1515 0
 748 019a 3C4B     		ldr	r3, .L52+28
 749 019c 0422     		mov	r2, #4
 750 019e 1A70     		strb	r2, [r3]
1516:Generated_Source\PSoC4/BLE_eventHandler.c ****                     #if ((CYBLE_SLOW_ADV_ENABLED != 0u) && (CYBLE_FAST_ADV_TIMEOUT != 0u))
1517:Generated_Source\PSoC4/BLE_eventHandler.c ****                         if(cyBle_advertisingIntervalType == CYBLE_ADVERTISING_FAST)
1518:Generated_Source\PSoC4/BLE_eventHandler.c ****                         {
1519:Generated_Source\PSoC4/BLE_eventHandler.c ****                             /* When fast advertising time out occur: Start slow advertising */
1520:Generated_Source\PSoC4/BLE_eventHandler.c ****                             if(CYBLE_ERROR_OK == CyBle_GappStartAdvertisement(CYBLE_ADVERTISING_SLO
1521:Generated_Source\PSoC4/BLE_eventHandler.c ****                             {
1522:Generated_Source\PSoC4/BLE_eventHandler.c ****                                 CyBle_SetState(CYBLE_STATE_ADVERTISING);
1523:Generated_Source\PSoC4/BLE_eventHandler.c ****                             }
1524:Generated_Source\PSoC4/BLE_eventHandler.c ****                         }
1525:Generated_Source\PSoC4/BLE_eventHandler.c ****                     #endif /* CYBLE_SLOW_ADV_ENABLED */
1526:Generated_Source\PSoC4/BLE_eventHandler.c ****                     }
1527:Generated_Source\PSoC4/BLE_eventHandler.c ****                 }
1528:Generated_Source\PSoC4/BLE_eventHandler.c ****             }
ARM GAS  C:\Users\TTSS\AppData\Local\Temp\ccwoAHLq.s 			page 41


1529:Generated_Source\PSoC4/BLE_eventHandler.c ****             break;
 751              		.loc 1 1529 0
 752 01a0 4CE0     		b	.L43
 753              	.L45:
 754 01a2 4BE0     		b	.L43
 755              	.L40:
1530:Generated_Source\PSoC4/BLE_eventHandler.c ****         #endif /* CYBLE_GAP_ROLE_PERIPHERAL || CYBLE_GAP_ROLE_BROADCASTER */
1531:Generated_Source\PSoC4/BLE_eventHandler.c ****         
1532:Generated_Source\PSoC4/BLE_eventHandler.c ****         #if(CYBLE_GAP_ROLE_CENTRAL || CYBLE_GAP_ROLE_OBSERVER)    
1533:Generated_Source\PSoC4/BLE_eventHandler.c ****         case CYBLE_EVT_GAPC_SCAN_START_STOP:
1534:Generated_Source\PSoC4/BLE_eventHandler.c ****             #ifdef CYBLE_CPS_CLIENT
1535:Generated_Source\PSoC4/BLE_eventHandler.c ****                 CyBle_CpscScanStartStopEventHandler();
1536:Generated_Source\PSoC4/BLE_eventHandler.c ****             #endif /* CYBLE_CPS_CLIENT */
1537:Generated_Source\PSoC4/BLE_eventHandler.c ****             
1538:Generated_Source\PSoC4/BLE_eventHandler.c ****             if((CYBLE_STATE_CONNECTED != CyBle_GetState()) && ((cyBle_eventHandlerFlag & CYBLE_CALL
1539:Generated_Source\PSoC4/BLE_eventHandler.c ****             {
1540:Generated_Source\PSoC4/BLE_eventHandler.c ****                 /* After CyBle_GapcStartScan first event indicates that scanning has been started *
1541:Generated_Source\PSoC4/BLE_eventHandler.c ****                 if(0u != (cyBle_eventHandlerFlag & CYBLE_START_FLAG))
1542:Generated_Source\PSoC4/BLE_eventHandler.c ****                 {
1543:Generated_Source\PSoC4/BLE_eventHandler.c ****                     CyBle_SetState(CYBLE_STATE_SCANNING);
1544:Generated_Source\PSoC4/BLE_eventHandler.c ****                     cyBle_eventHandlerFlag &= (uint8)~CYBLE_START_FLAG;
1545:Generated_Source\PSoC4/BLE_eventHandler.c ****                 }
1546:Generated_Source\PSoC4/BLE_eventHandler.c ****                 /* When application initiated stop scanning */
1547:Generated_Source\PSoC4/BLE_eventHandler.c ****                 else if(0u != (cyBle_eventHandlerFlag & CYBLE_STOP_FLAG))
1548:Generated_Source\PSoC4/BLE_eventHandler.c ****                 {
1549:Generated_Source\PSoC4/BLE_eventHandler.c ****                     CyBle_SetState(CYBLE_STATE_DISCONNECTED);  
1550:Generated_Source\PSoC4/BLE_eventHandler.c ****                     cyBle_eventHandlerFlag &= (uint8)~CYBLE_STOP_FLAG;
1551:Generated_Source\PSoC4/BLE_eventHandler.c ****                 }
1552:Generated_Source\PSoC4/BLE_eventHandler.c ****                 else /* Following event indicates that scanning has been stopped by stack */
1553:Generated_Source\PSoC4/BLE_eventHandler.c ****                 {
1554:Generated_Source\PSoC4/BLE_eventHandler.c ****                     if(CYBLE_STATE_SCANNING == CyBle_GetState())
1555:Generated_Source\PSoC4/BLE_eventHandler.c ****                     {
1556:Generated_Source\PSoC4/BLE_eventHandler.c ****                         CyBle_SetState(CYBLE_STATE_DISCONNECTED);  
1557:Generated_Source\PSoC4/BLE_eventHandler.c ****                     #if ((CYBLE_SLOW_SCAN_ENABLED != 0u) && (CYBLE_FAST_SCAN_TIMEOUT != 0u))
1558:Generated_Source\PSoC4/BLE_eventHandler.c ****                         if(cyBle_scanningIntervalType == CYBLE_SCANNING_FAST)
1559:Generated_Source\PSoC4/BLE_eventHandler.c ****                         {
1560:Generated_Source\PSoC4/BLE_eventHandler.c ****                             /* When fast scanning time out occur: Start slow scanning */
1561:Generated_Source\PSoC4/BLE_eventHandler.c ****                             if(CYBLE_ERROR_OK == CyBle_GapcStartScan(CYBLE_SCANNING_SLOW))
1562:Generated_Source\PSoC4/BLE_eventHandler.c ****                             {
1563:Generated_Source\PSoC4/BLE_eventHandler.c ****                                 CyBle_SetState(CYBLE_STATE_SCANNING);
1564:Generated_Source\PSoC4/BLE_eventHandler.c ****                             }
1565:Generated_Source\PSoC4/BLE_eventHandler.c ****                         }
1566:Generated_Source\PSoC4/BLE_eventHandler.c ****                     #endif /* CYBLE_SLOW_SCAN_ENABLED */
1567:Generated_Source\PSoC4/BLE_eventHandler.c ****                     }
1568:Generated_Source\PSoC4/BLE_eventHandler.c ****                 }
1569:Generated_Source\PSoC4/BLE_eventHandler.c ****             }
1570:Generated_Source\PSoC4/BLE_eventHandler.c ****             break;
1571:Generated_Source\PSoC4/BLE_eventHandler.c ****         #endif /* CYBLE_GAP_ROLE_CENTRAL || CYBLE_GAP_ROLE_OBSERVER */
1572:Generated_Source\PSoC4/BLE_eventHandler.c **** 
1573:Generated_Source\PSoC4/BLE_eventHandler.c ****         /**********************************************************
1574:Generated_Source\PSoC4/BLE_eventHandler.c ****         ##L2AP events 
1575:Generated_Source\PSoC4/BLE_eventHandler.c ****         ***********************************************************/
1576:Generated_Source\PSoC4/BLE_eventHandler.c ****         case CYBLE_EVT_L2CAP_CONN_PARAM_UPDATE_RSP:
1577:Generated_Source\PSoC4/BLE_eventHandler.c ****             CyBle_L2Cap_ConnParamUpdateRspEventHandler(*(uint16 *)eventParam);
 756              		.loc 1 1577 0
 757 01a4 3B68     		ldr	r3, [r7]
 758 01a6 1B88     		ldrh	r3, [r3]
ARM GAS  C:\Users\TTSS\AppData\Local\Temp\ccwoAHLq.s 			page 42


 759 01a8 181C     		mov	r0, r3
 760 01aa FFF7FEFF 		bl	CyBle_L2Cap_ConnParamUpdateRspEventHandler
1578:Generated_Source\PSoC4/BLE_eventHandler.c ****             break;
 761              		.loc 1 1578 0
 762 01ae 45E0     		b	.L43
 763              	.L31:
1579:Generated_Source\PSoC4/BLE_eventHandler.c ****         
1580:Generated_Source\PSoC4/BLE_eventHandler.c ****         /**********************************************************
1581:Generated_Source\PSoC4/BLE_eventHandler.c ****         ##GATT events
1582:Generated_Source\PSoC4/BLE_eventHandler.c ****         ***********************************************************/        
1583:Generated_Source\PSoC4/BLE_eventHandler.c ****         case CYBLE_EVT_GATT_CONNECT_IND:
1584:Generated_Source\PSoC4/BLE_eventHandler.c ****             cyBle_connHandle = *(CYBLE_CONN_HANDLE_T *)eventParam;
 764              		.loc 1 1584 0
 765 01b0 394A     		ldr	r2, .L52+40
 766 01b2 3B68     		ldr	r3, [r7]
 767 01b4 111C     		mov	r1, r2
 768 01b6 1A1C     		mov	r2, r3
 769 01b8 0223     		mov	r3, #2
 770 01ba 081C     		mov	r0, r1
 771 01bc 111C     		mov	r1, r2
 772 01be 1A1C     		mov	r2, r3
 773 01c0 FFF7FEFF 		bl	memcpy
1585:Generated_Source\PSoC4/BLE_eventHandler.c ****             
1586:Generated_Source\PSoC4/BLE_eventHandler.c ****         #if((CYBLE_GATT_ROLE_SERVER) && (CYBLE_GATT_DB_CCCD_COUNT != 0u))
1587:Generated_Source\PSoC4/BLE_eventHandler.c ****             /* Init CCCD values in RAM */
1588:Generated_Source\PSoC4/BLE_eventHandler.c ****         	(void) memcpy (cyBle_attValuesCCCD, cyBle_attValuesCCCDFlashMemory[cyBle_connHandle.bdHand
 774              		.loc 1 1588 0
 775 01c4 344B     		ldr	r3, .L52+40
 776 01c6 1B78     		ldrb	r3, [r3]
 777 01c8 5A00     		lsl	r2, r3, #1
 778 01ca 344B     		ldr	r3, .L52+44
 779 01cc D318     		add	r3, r2, r3
 780 01ce 344A     		ldr	r2, .L52+48
 781 01d0 111C     		mov	r1, r2
 782 01d2 1A1C     		mov	r2, r3
 783 01d4 0223     		mov	r3, #2
 784 01d6 081C     		mov	r0, r1
 785 01d8 111C     		mov	r1, r2
 786 01da 1A1C     		mov	r2, r3
 787 01dc FFF7FEFF 		bl	memcpy
1589:Generated_Source\PSoC4/BLE_eventHandler.c ****                             CYBLE_GATT_DB_CCCD_COUNT);
1590:Generated_Source\PSoC4/BLE_eventHandler.c ****         #endif /* CYBLE_GATT_ROLE_SERVER */
1591:Generated_Source\PSoC4/BLE_eventHandler.c ****         
1592:Generated_Source\PSoC4/BLE_eventHandler.c ****         #if (CYBLE_GATT_ROLE_CLIENT)
1593:Generated_Source\PSoC4/BLE_eventHandler.c ****             CyBle_SetClientState(CYBLE_CLIENT_STATE_CONNECTED);
1594:Generated_Source\PSoC4/BLE_eventHandler.c ****         #endif /* CYBLE_GATT_ROLE_CLIENT */
1595:Generated_Source\PSoC4/BLE_eventHandler.c ****         
1596:Generated_Source\PSoC4/BLE_eventHandler.c ****             CyBle_GattConnectReqHandler();
 788              		.loc 1 1596 0
 789 01e0 FFF7FEFF 		bl	CyBle_GattConnectReqHandler
1597:Generated_Source\PSoC4/BLE_eventHandler.c ****             break;
 790              		.loc 1 1597 0
 791 01e4 2AE0     		b	.L43
 792              	.L32:
1598:Generated_Source\PSoC4/BLE_eventHandler.c **** 
1599:Generated_Source\PSoC4/BLE_eventHandler.c ****         case CYBLE_EVT_GATT_DISCONNECT_IND:
1600:Generated_Source\PSoC4/BLE_eventHandler.c ****             CyBle_GattDisconnectEventHandler();
ARM GAS  C:\Users\TTSS\AppData\Local\Temp\ccwoAHLq.s 			page 43


 793              		.loc 1 1600 0
 794 01e6 FFF7FEFF 		bl	CyBle_GattDisconnectEventHandler
1601:Generated_Source\PSoC4/BLE_eventHandler.c ****             break;
 795              		.loc 1 1601 0
 796 01ea 27E0     		b	.L43
 797              	.L33:
 798              	.LBB4:
1602:Generated_Source\PSoC4/BLE_eventHandler.c **** 
1603:Generated_Source\PSoC4/BLE_eventHandler.c ****     #if((CYBLE_GATT_ROLE_SERVER) || (CYBLE_GATT_ROLE_CLIENT))
1604:Generated_Source\PSoC4/BLE_eventHandler.c ****         case CYBLE_EVT_GATTS_XCNHG_MTU_REQ:
1605:Generated_Source\PSoC4/BLE_eventHandler.c ****             {
1606:Generated_Source\PSoC4/BLE_eventHandler.c ****                 uint16 cyBle_mtuSize;
1607:Generated_Source\PSoC4/BLE_eventHandler.c ****                 if(CYBLE_GATT_MTU > ((CYBLE_GATT_XCHG_MTU_PARAM_T *)eventParam)->mtu)
 799              		.loc 1 1607 0
 800 01ec 3B68     		ldr	r3, [r7]
 801 01ee 5B88     		ldrh	r3, [r3, #2]
 802 01f0 162B     		cmp	r3, #22
 803 01f2 05D8     		bhi	.L48
1608:Generated_Source\PSoC4/BLE_eventHandler.c ****                 {
1609:Generated_Source\PSoC4/BLE_eventHandler.c ****                     cyBle_mtuSize = ((CYBLE_GATT_XCHG_MTU_PARAM_T *)eventParam)->mtu;
 804              		.loc 1 1609 0
 805 01f4 0E23     		mov	r3, #14
 806 01f6 FB18     		add	r3, r7, r3
 807 01f8 3A68     		ldr	r2, [r7]
 808 01fa 5288     		ldrh	r2, [r2, #2]
 809 01fc 1A80     		strh	r2, [r3]
 810 01fe 03E0     		b	.L49
 811              	.L48:
1610:Generated_Source\PSoC4/BLE_eventHandler.c ****                 }
1611:Generated_Source\PSoC4/BLE_eventHandler.c ****                 else
1612:Generated_Source\PSoC4/BLE_eventHandler.c ****                 {
1613:Generated_Source\PSoC4/BLE_eventHandler.c ****                     cyBle_mtuSize = CYBLE_GATT_MTU;
 812              		.loc 1 1613 0
 813 0200 0E23     		mov	r3, #14
 814 0202 FB18     		add	r3, r7, r3
 815 0204 1722     		mov	r2, #23
 816 0206 1A80     		strh	r2, [r3]
 817              	.L49:
1614:Generated_Source\PSoC4/BLE_eventHandler.c ****                 }
1615:Generated_Source\PSoC4/BLE_eventHandler.c ****                 (void)CyBle_GattsExchangeMtuRsp(((CYBLE_GATT_XCHG_MTU_PARAM_T *)eventParam)->connHa
 818              		.loc 1 1615 0
 819 0208 3B68     		ldr	r3, [r7]
 820 020a 0E22     		mov	r2, #14
 821 020c BA18     		add	r2, r7, r2
 822 020e 1188     		ldrh	r1, [r2]
 823 0210 1A88     		ldrh	r2, [r3]
 824 0212 0023     		mov	r3, #0
 825 0214 1204     		lsl	r2, r2, #16
 826 0216 120C     		lsr	r2, r2, #16
 827 0218 1B0C     		lsr	r3, r3, #16
 828 021a 1B04     		lsl	r3, r3, #16
 829 021c 1343     		orr	r3, r2
 830 021e 181C     		mov	r0, r3
 831 0220 FFF7FEFF 		bl	CyBle_GattsExchangeMtuRsp
 832              	.LBE4:
1616:Generated_Source\PSoC4/BLE_eventHandler.c ****             }
1617:Generated_Source\PSoC4/BLE_eventHandler.c ****             break;
ARM GAS  C:\Users\TTSS\AppData\Local\Temp\ccwoAHLq.s 			page 44


 833              		.loc 1 1617 0
 834 0224 0AE0     		b	.L43
 835              	.L34:
1618:Generated_Source\PSoC4/BLE_eventHandler.c ****     #endif /* CYBLE_GATT_ROLE_SERVER || CYBLE_GATT_ROLE_CLIENT */
1619:Generated_Source\PSoC4/BLE_eventHandler.c ****     
1620:Generated_Source\PSoC4/BLE_eventHandler.c ****     #if (CYBLE_GATT_ROLE_CLIENT)
1621:Generated_Source\PSoC4/BLE_eventHandler.c ****         case CYBLE_EVT_GAPC_SCAN_PROGRESS_RESULT:
1622:Generated_Source\PSoC4/BLE_eventHandler.c ****         #ifdef CYBLE_CPS_CLIENT
1623:Generated_Source\PSoC4/BLE_eventHandler.c ****                 CyBle_CpscScanProcessEventHandler((CYBLE_GAPC_ADV_REPORT_T *)eventParam);
1624:Generated_Source\PSoC4/BLE_eventHandler.c ****         #endif /* CYBLE_CPS_CLIENT */
1625:Generated_Source\PSoC4/BLE_eventHandler.c ****             break;
1626:Generated_Source\PSoC4/BLE_eventHandler.c ****     #endif /* CYBLE_GATT_ROLE_CLIENT */
1627:Generated_Source\PSoC4/BLE_eventHandler.c **** 
1628:Generated_Source\PSoC4/BLE_eventHandler.c ****     #if(CYBLE_GATT_ROLE_SERVER)
1629:Generated_Source\PSoC4/BLE_eventHandler.c ****         case CYBLE_EVT_GATTS_WRITE_REQ:
1630:Generated_Source\PSoC4/BLE_eventHandler.c ****             CyBle_WriteReqHandler((CYBLE_GATTS_WRITE_REQ_PARAM_T *)eventParam);
 836              		.loc 1 1630 0
 837 0226 3B68     		ldr	r3, [r7]
 838 0228 181C     		mov	r0, r3
 839 022a FFF7FEFF 		bl	CyBle_WriteReqHandler
1631:Generated_Source\PSoC4/BLE_eventHandler.c ****             break;
 840              		.loc 1 1631 0
 841 022e 05E0     		b	.L43
 842              	.L38:
1632:Generated_Source\PSoC4/BLE_eventHandler.c **** 
1633:Generated_Source\PSoC4/BLE_eventHandler.c ****         case CYBLE_EVT_GATTS_WRITE_CMD_REQ:
1634:Generated_Source\PSoC4/BLE_eventHandler.c ****         #ifdef CYBLE_IAS_SERVER
1635:Generated_Source\PSoC4/BLE_eventHandler.c ****             if((cyBle_eventHandlerFlag & CYBLE_CALLBACK) != 0u)
1636:Generated_Source\PSoC4/BLE_eventHandler.c ****             {
1637:Generated_Source\PSoC4/BLE_eventHandler.c ****                 (void)CyBle_IassWriteCmdEventHandler((CYBLE_GATTS_WRITE_REQ_PARAM_T *)eventParam);
1638:Generated_Source\PSoC4/BLE_eventHandler.c ****             }
1639:Generated_Source\PSoC4/BLE_eventHandler.c ****         #endif /* CYBLE_IAS_SERVER */
1640:Generated_Source\PSoC4/BLE_eventHandler.c ****         #ifdef CYBLE_HIDS_SERVER
1641:Generated_Source\PSoC4/BLE_eventHandler.c ****             if((cyBle_eventHandlerFlag & CYBLE_CALLBACK) != 0u)
1642:Generated_Source\PSoC4/BLE_eventHandler.c ****             {
1643:Generated_Source\PSoC4/BLE_eventHandler.c ****                 (void)CyBle_HidssWriteEventHandler((CYBLE_GATTS_WRITE_REQ_PARAM_T *)eventParam);
1644:Generated_Source\PSoC4/BLE_eventHandler.c ****             }
1645:Generated_Source\PSoC4/BLE_eventHandler.c ****         #endif /* CYBLE_HIDS_SERVER */
1646:Generated_Source\PSoC4/BLE_eventHandler.c ****         #ifdef CYBLE_PASS_SERVER
1647:Generated_Source\PSoC4/BLE_eventHandler.c ****             if((cyBle_eventHandlerFlag & CYBLE_CALLBACK) != 0u)
1648:Generated_Source\PSoC4/BLE_eventHandler.c ****             {
1649:Generated_Source\PSoC4/BLE_eventHandler.c ****                 (void)CyBle_PasssWriteCmdEventHandler((CYBLE_GATTS_WRITE_REQ_PARAM_T *)eventParam);
1650:Generated_Source\PSoC4/BLE_eventHandler.c ****             }
1651:Generated_Source\PSoC4/BLE_eventHandler.c ****         #endif /* CYBLE_PASS_SERVER */
1652:Generated_Source\PSoC4/BLE_eventHandler.c ****         #ifdef CYBLE_RTUS_SERVER
1653:Generated_Source\PSoC4/BLE_eventHandler.c ****             if((cyBle_eventHandlerFlag & CYBLE_CALLBACK) != 0u)
1654:Generated_Source\PSoC4/BLE_eventHandler.c ****             {
1655:Generated_Source\PSoC4/BLE_eventHandler.c ****                 (void)CyBle_RtussWriteCmdEventHandler((CYBLE_GATTS_WRITE_REQ_PARAM_T *)eventParam);
1656:Generated_Source\PSoC4/BLE_eventHandler.c ****             }
1657:Generated_Source\PSoC4/BLE_eventHandler.c ****         #endif /* CYBLE_RTUS_SERVER */
1658:Generated_Source\PSoC4/BLE_eventHandler.c ****         #ifdef CYBLE_SCPS_SERVER
1659:Generated_Source\PSoC4/BLE_eventHandler.c ****             if((cyBle_eventHandlerFlag & CYBLE_CALLBACK) != 0u)
1660:Generated_Source\PSoC4/BLE_eventHandler.c ****             {
1661:Generated_Source\PSoC4/BLE_eventHandler.c ****                 (void)CyBle_ScpssWriteEventHandler((CYBLE_GATTS_WRITE_REQ_PARAM_T *)eventParam);
1662:Generated_Source\PSoC4/BLE_eventHandler.c ****             }
1663:Generated_Source\PSoC4/BLE_eventHandler.c ****         #endif /* CYBLE_SCPS_SERVER */
1664:Generated_Source\PSoC4/BLE_eventHandler.c ****             break;
ARM GAS  C:\Users\TTSS\AppData\Local\Temp\ccwoAHLq.s 			page 45


1665:Generated_Source\PSoC4/BLE_eventHandler.c ****         
1666:Generated_Source\PSoC4/BLE_eventHandler.c ****         case CYBLE_EVT_GATTS_PREP_WRITE_REQ:
1667:Generated_Source\PSoC4/BLE_eventHandler.c ****         #ifdef CYBLE_BMS_SERVER
1668:Generated_Source\PSoC4/BLE_eventHandler.c ****             CyBle_BmssPrepareWriteRequestEventHandler((CYBLE_GATTS_PREP_WRITE_REQ_PARAM_T *)eventPa
1669:Generated_Source\PSoC4/BLE_eventHandler.c ****         #endif /* CYBLE_BMS_SERVER */
1670:Generated_Source\PSoC4/BLE_eventHandler.c ****         #ifdef CYBLE_BTS_SERVER
1671:Generated_Source\PSoC4/BLE_eventHandler.c ****             if((cyBle_eventHandlerFlag & CYBLE_CALLBACK) != 0u)
1672:Generated_Source\PSoC4/BLE_eventHandler.c ****             {
1673:Generated_Source\PSoC4/BLE_eventHandler.c ****                 CyBle_BtssPrepareWriteRequestEventHandler((CYBLE_GATTS_PREP_WRITE_REQ_PARAM_T *)eve
1674:Generated_Source\PSoC4/BLE_eventHandler.c ****             }
1675:Generated_Source\PSoC4/BLE_eventHandler.c ****         #endif /* CYBLE_BTS_SERVER */
1676:Generated_Source\PSoC4/BLE_eventHandler.c ****         #ifdef CYBLE_ESS_SERVER
1677:Generated_Source\PSoC4/BLE_eventHandler.c ****             if((cyBle_eventHandlerFlag & CYBLE_CALLBACK) != 0u)
1678:Generated_Source\PSoC4/BLE_eventHandler.c ****             {
1679:Generated_Source\PSoC4/BLE_eventHandler.c ****                 CyBle_EsssPrepareWriteRequestEventHandler((CYBLE_GATTS_PREP_WRITE_REQ_PARAM_T *)eve
1680:Generated_Source\PSoC4/BLE_eventHandler.c ****             }
1681:Generated_Source\PSoC4/BLE_eventHandler.c ****         #endif /* CYBLE_ESS_SERVER */
1682:Generated_Source\PSoC4/BLE_eventHandler.c **** 		#ifdef CYBLE_UDS_SERVER
1683:Generated_Source\PSoC4/BLE_eventHandler.c ****             if((cyBle_eventHandlerFlag & CYBLE_CALLBACK) != 0u)
1684:Generated_Source\PSoC4/BLE_eventHandler.c ****             {
1685:Generated_Source\PSoC4/BLE_eventHandler.c ****                 CyBle_UdssPrepareWriteRequestEventHandler((CYBLE_GATTS_PREP_WRITE_REQ_PARAM_T *)eve
1686:Generated_Source\PSoC4/BLE_eventHandler.c ****             }
1687:Generated_Source\PSoC4/BLE_eventHandler.c ****         #endif /* CYBLE_UDS_SERVER */
1688:Generated_Source\PSoC4/BLE_eventHandler.c ****             break;
1689:Generated_Source\PSoC4/BLE_eventHandler.c **** 
1690:Generated_Source\PSoC4/BLE_eventHandler.c ****         case CYBLE_EVT_GATTS_EXEC_WRITE_REQ:
1691:Generated_Source\PSoC4/BLE_eventHandler.c ****         #ifdef CYBLE_BMS_SERVER
1692:Generated_Source\PSoC4/BLE_eventHandler.c ****             CyBle_BmssExecuteWriteRequestEventHandler((CYBLE_GATTS_EXEC_WRITE_REQ_T *)eventParam);
1693:Generated_Source\PSoC4/BLE_eventHandler.c ****         #endif /* CYBLE_BMS_SERVER */
1694:Generated_Source\PSoC4/BLE_eventHandler.c ****         #ifdef CYBLE_BTS_SERVER
1695:Generated_Source\PSoC4/BLE_eventHandler.c ****             if((cyBle_eventHandlerFlag & CYBLE_CALLBACK) != 0u)
1696:Generated_Source\PSoC4/BLE_eventHandler.c ****             {
1697:Generated_Source\PSoC4/BLE_eventHandler.c ****                 CyBle_BtssExecuteWriteRequestEventHandler((CYBLE_GATTS_EXEC_WRITE_REQ_T *)eventPara
1698:Generated_Source\PSoC4/BLE_eventHandler.c ****             }
1699:Generated_Source\PSoC4/BLE_eventHandler.c ****         #endif /* CYBLE_BTS_SERVER */
1700:Generated_Source\PSoC4/BLE_eventHandler.c ****         #ifdef CYBLE_ESS_SERVER
1701:Generated_Source\PSoC4/BLE_eventHandler.c ****             if((cyBle_eventHandlerFlag & CYBLE_CALLBACK) != 0u)
1702:Generated_Source\PSoC4/BLE_eventHandler.c ****             {
1703:Generated_Source\PSoC4/BLE_eventHandler.c ****                 CyBle_EsssExecuteWriteRequestEventHandler((CYBLE_GATTS_EXEC_WRITE_REQ_T *)eventPara
1704:Generated_Source\PSoC4/BLE_eventHandler.c ****             }
1705:Generated_Source\PSoC4/BLE_eventHandler.c ****         #endif /* CYBLE_ESS_SERVER */
1706:Generated_Source\PSoC4/BLE_eventHandler.c **** 		#ifdef CYBLE_UDS_SERVER
1707:Generated_Source\PSoC4/BLE_eventHandler.c ****             if((cyBle_eventHandlerFlag & CYBLE_CALLBACK) != 0u)
1708:Generated_Source\PSoC4/BLE_eventHandler.c ****             {
1709:Generated_Source\PSoC4/BLE_eventHandler.c ****                 CyBle_UdssExecuteWriteRequestEventHandler((CYBLE_GATTS_EXEC_WRITE_REQ_T *)eventPara
1710:Generated_Source\PSoC4/BLE_eventHandler.c ****             }
1711:Generated_Source\PSoC4/BLE_eventHandler.c ****         #endif /* CYBLE_UDS_SERVER */
1712:Generated_Source\PSoC4/BLE_eventHandler.c ****             break;
1713:Generated_Source\PSoC4/BLE_eventHandler.c ****         
1714:Generated_Source\PSoC4/BLE_eventHandler.c ****         case CYBLE_EVT_GATTS_HANDLE_VALUE_CNF:
1715:Generated_Source\PSoC4/BLE_eventHandler.c ****             CyBle_ValueConfirmation((CYBLE_CONN_HANDLE_T *)eventParam);
 843              		.loc 1 1715 0
 844 0230 3B68     		ldr	r3, [r7]
 845 0232 181C     		mov	r0, r3
 846 0234 FFF7FEFF 		bl	CyBle_ValueConfirmation
1716:Generated_Source\PSoC4/BLE_eventHandler.c ****             break;
 847              		.loc 1 1716 0
ARM GAS  C:\Users\TTSS\AppData\Local\Temp\ccwoAHLq.s 			page 46


 848 0238 00E0     		b	.L43
 849              	.L51:
1717:Generated_Source\PSoC4/BLE_eventHandler.c ****             
1718:Generated_Source\PSoC4/BLE_eventHandler.c ****         case CYBLE_EVT_GATTS_READ_CHAR_VAL_ACCESS_REQ:
1719:Generated_Source\PSoC4/BLE_eventHandler.c ****         #ifdef CYBLE_UDS_SERVER
1720:Generated_Source\PSoC4/BLE_eventHandler.c ****             CyBle_UdssReadRequestEventHandler((CYBLE_GATTS_CHAR_VAL_READ_REQ_T *)eventParam);
1721:Generated_Source\PSoC4/BLE_eventHandler.c ****         #endif /* CYBLE_UDS_SERVER */
1722:Generated_Source\PSoC4/BLE_eventHandler.c ****             break;
1723:Generated_Source\PSoC4/BLE_eventHandler.c ****             
1724:Generated_Source\PSoC4/BLE_eventHandler.c ****     #endif /* CYBLE_GATT_ROLE_SERVER */
1725:Generated_Source\PSoC4/BLE_eventHandler.c **** 
1726:Generated_Source\PSoC4/BLE_eventHandler.c ****     #if (CYBLE_GATT_ROLE_CLIENT)
1727:Generated_Source\PSoC4/BLE_eventHandler.c ****         
1728:Generated_Source\PSoC4/BLE_eventHandler.c ****         case CYBLE_EVT_GATTC_READ_BY_GROUP_TYPE_RSP:
1729:Generated_Source\PSoC4/BLE_eventHandler.c ****             CyBle_ReadByGroupEventHandler((CYBLE_GATTC_READ_BY_GRP_RSP_PARAM_T *)eventParam);
1730:Generated_Source\PSoC4/BLE_eventHandler.c ****             break;
1731:Generated_Source\PSoC4/BLE_eventHandler.c **** 
1732:Generated_Source\PSoC4/BLE_eventHandler.c ****         case CYBLE_EVT_GATTC_READ_BY_TYPE_RSP:
1733:Generated_Source\PSoC4/BLE_eventHandler.c ****             CyBle_ReadByTypeEventHandler((CYBLE_GATTC_READ_BY_TYPE_RSP_PARAM_T *)eventParam);
1734:Generated_Source\PSoC4/BLE_eventHandler.c ****             break;
1735:Generated_Source\PSoC4/BLE_eventHandler.c **** 
1736:Generated_Source\PSoC4/BLE_eventHandler.c ****         case CYBLE_EVT_GATTC_READ_BLOB_RSP:
1737:Generated_Source\PSoC4/BLE_eventHandler.c ****         #ifdef CYBLE_ESS_CLIENT
1738:Generated_Source\PSoC4/BLE_eventHandler.c ****             CyBle_EsscReadLongRespEventHandler((CYBLE_GATTC_READ_RSP_PARAM_T *)eventParam);
1739:Generated_Source\PSoC4/BLE_eventHandler.c ****         #endif /* CYBLE_ESS_CLIENT */
1740:Generated_Source\PSoC4/BLE_eventHandler.c ****             break;
1741:Generated_Source\PSoC4/BLE_eventHandler.c ****         
1742:Generated_Source\PSoC4/BLE_eventHandler.c ****         case CYBLE_EVT_GATTC_FIND_INFO_RSP:
1743:Generated_Source\PSoC4/BLE_eventHandler.c ****             CyBle_FindInfoEventHandler((CYBLE_GATTC_FIND_INFO_RSP_PARAM_T *)eventParam);
1744:Generated_Source\PSoC4/BLE_eventHandler.c ****             break;
1745:Generated_Source\PSoC4/BLE_eventHandler.c **** 
1746:Generated_Source\PSoC4/BLE_eventHandler.c ****         case CYBLE_EVT_GATTC_ERROR_RSP:
1747:Generated_Source\PSoC4/BLE_eventHandler.c ****             CyBle_ErrorResponseEventHandler((CYBLE_GATTC_ERR_RSP_PARAM_T *)eventParam);
1748:Generated_Source\PSoC4/BLE_eventHandler.c ****             break;
1749:Generated_Source\PSoC4/BLE_eventHandler.c **** 
1750:Generated_Source\PSoC4/BLE_eventHandler.c ****         case CYBLE_EVT_GATTC_HANDLE_VALUE_NTF:
1751:Generated_Source\PSoC4/BLE_eventHandler.c ****             CyBle_NotificationEventHandler((CYBLE_GATTC_HANDLE_VALUE_NTF_PARAM_T *)eventParam);
1752:Generated_Source\PSoC4/BLE_eventHandler.c ****             break;
1753:Generated_Source\PSoC4/BLE_eventHandler.c **** 
1754:Generated_Source\PSoC4/BLE_eventHandler.c ****         case CYBLE_EVT_GATTC_HANDLE_VALUE_IND:
1755:Generated_Source\PSoC4/BLE_eventHandler.c ****             CyBle_GattcIndicationEventHandler((CYBLE_GATTC_HANDLE_VALUE_IND_PARAM_T *)eventParam);
1756:Generated_Source\PSoC4/BLE_eventHandler.c ****             CyBle_IndicationEventHandler((CYBLE_GATTC_HANDLE_VALUE_IND_PARAM_T *)eventParam);
1757:Generated_Source\PSoC4/BLE_eventHandler.c ****         
1758:Generated_Source\PSoC4/BLE_eventHandler.c ****             /* Respond with a Handle Value Confirmation when request handled */
1759:Generated_Source\PSoC4/BLE_eventHandler.c ****             if((cyBle_eventHandlerFlag & CYBLE_CALLBACK) == 0u)
1760:Generated_Source\PSoC4/BLE_eventHandler.c ****             {
1761:Generated_Source\PSoC4/BLE_eventHandler.c ****                 (void)CyBle_GattcConfirmation(((CYBLE_GATTC_HANDLE_VALUE_IND_PARAM_T *)eventParam)-
1762:Generated_Source\PSoC4/BLE_eventHandler.c ****             }
1763:Generated_Source\PSoC4/BLE_eventHandler.c ****             break;
1764:Generated_Source\PSoC4/BLE_eventHandler.c ****         
1765:Generated_Source\PSoC4/BLE_eventHandler.c ****         case CYBLE_EVT_GATTC_READ_RSP:
1766:Generated_Source\PSoC4/BLE_eventHandler.c ****             CyBle_ReadResponseEventHandler((CYBLE_GATTC_READ_RSP_PARAM_T *)eventParam);
1767:Generated_Source\PSoC4/BLE_eventHandler.c ****             break;
1768:Generated_Source\PSoC4/BLE_eventHandler.c **** 
1769:Generated_Source\PSoC4/BLE_eventHandler.c ****         case CYBLE_EVT_GATTC_WRITE_RSP:
1770:Generated_Source\PSoC4/BLE_eventHandler.c ****             CyBle_GattcWriteResponseEventHandler((CYBLE_CONN_HANDLE_T *)eventParam);
1771:Generated_Source\PSoC4/BLE_eventHandler.c ****             break;
ARM GAS  C:\Users\TTSS\AppData\Local\Temp\ccwoAHLq.s 			page 47


1772:Generated_Source\PSoC4/BLE_eventHandler.c ****             
1773:Generated_Source\PSoC4/BLE_eventHandler.c ****         case CYBLE_EVT_GATTC_EXEC_WRITE_RSP:
1774:Generated_Source\PSoC4/BLE_eventHandler.c ****         #ifdef CYBLE_BMS_CLIENT
1775:Generated_Source\PSoC4/BLE_eventHandler.c ****             CyBle_BmscExecuteWriteResponseEventHandler((CYBLE_GATTC_EXEC_WRITE_RSP_T *)eventParam);
1776:Generated_Source\PSoC4/BLE_eventHandler.c ****         #endif /* CYBLE_BMS_CLIENT */
1777:Generated_Source\PSoC4/BLE_eventHandler.c ****         #ifdef CYBLE_ESS_CLIENT
1778:Generated_Source\PSoC4/BLE_eventHandler.c ****             if((cyBle_eventHandlerFlag & CYBLE_CALLBACK) != 0u)
1779:Generated_Source\PSoC4/BLE_eventHandler.c ****             {
1780:Generated_Source\PSoC4/BLE_eventHandler.c ****                 CyBle_EsscExecuteWriteResponseEventHandler((CYBLE_GATTC_EXEC_WRITE_RSP_T *)eventPar
1781:Generated_Source\PSoC4/BLE_eventHandler.c ****             }
1782:Generated_Source\PSoC4/BLE_eventHandler.c ****         #endif /* CYBLE_ESS_CLIENT */
1783:Generated_Source\PSoC4/BLE_eventHandler.c ****             break;
1784:Generated_Source\PSoC4/BLE_eventHandler.c ****             
1785:Generated_Source\PSoC4/BLE_eventHandler.c ****     #endif /* CYBLE_GATT_ROLE_CLIENT */
1786:Generated_Source\PSoC4/BLE_eventHandler.c **** 
1787:Generated_Source\PSoC4/BLE_eventHandler.c ****     #if((CYBLE_GAP_ROLE_PERIPHERAL || CYBLE_GAP_ROLE_CENTRAL) && (CYBLE_BONDING_REQUIREMENT == CYBL
1788:Generated_Source\PSoC4/BLE_eventHandler.c **** 
1789:Generated_Source\PSoC4/BLE_eventHandler.c ****         case CYBLE_EVT_PENDING_FLASH_WRITE:
1790:Generated_Source\PSoC4/BLE_eventHandler.c ****             cyBle_pendingFlashWrite |= CYBLE_PENDING_STACK_FLASH_WRITE_BIT;
1791:Generated_Source\PSoC4/BLE_eventHandler.c ****             break;
1792:Generated_Source\PSoC4/BLE_eventHandler.c ****         
1793:Generated_Source\PSoC4/BLE_eventHandler.c ****     #endif  /* (CYBLE_BONDING_REQUIREMENT == CYBLE_BONDING_YES) */
1794:Generated_Source\PSoC4/BLE_eventHandler.c ****     
1795:Generated_Source\PSoC4/BLE_eventHandler.c ****         default:
1796:Generated_Source\PSoC4/BLE_eventHandler.c ****             break;
 850              		.loc 1 1796 0
 851 023a C046     		mov	r8, r8
 852              	.L43:
1797:Generated_Source\PSoC4/BLE_eventHandler.c ****     }
1798:Generated_Source\PSoC4/BLE_eventHandler.c **** 
1799:Generated_Source\PSoC4/BLE_eventHandler.c ****     if(0u != (cyBle_eventHandlerFlag & (CYBLE_CALLBACK | CYBLE_ENABLE_ALL_EVENTS))) 
 853              		.loc 1 1799 0
 854 023c 0C4B     		ldr	r3, .L52
 855 023e 1B78     		ldrb	r3, [r3]
 856 0240 DBB2     		uxtb	r3, r3
 857 0242 1A1C     		mov	r2, r3
 858 0244 1123     		mov	r3, #17
 859 0246 1340     		and	r3, r2
 860 0248 0FD0     		beq	.L20
1800:Generated_Source\PSoC4/BLE_eventHandler.c ****     {
1801:Generated_Source\PSoC4/BLE_eventHandler.c ****         cyBle_eventHandlerFlag &= (uint8)~CYBLE_CALLBACK;
 861              		.loc 1 1801 0
 862 024a 094B     		ldr	r3, .L52
 863 024c 1B78     		ldrb	r3, [r3]
 864 024e DBB2     		uxtb	r3, r3
 865 0250 0122     		mov	r2, #1
 866 0252 9343     		bic	r3, r2
 867 0254 DAB2     		uxtb	r2, r3
 868 0256 064B     		ldr	r3, .L52
 869 0258 1A70     		strb	r2, [r3]
1802:Generated_Source\PSoC4/BLE_eventHandler.c ****         CyBle_ApplCallback((uint32)eventCode, eventParam);
 870              		.loc 1 1802 0
 871 025a 124B     		ldr	r3, .L52+52
 872 025c 1B68     		ldr	r3, [r3]
 873 025e FA1D     		add	r2, r7, #7
 874 0260 1178     		ldrb	r1, [r2]
 875 0262 3A68     		ldr	r2, [r7]
ARM GAS  C:\Users\TTSS\AppData\Local\Temp\ccwoAHLq.s 			page 48


 876 0264 081C     		mov	r0, r1
 877 0266 111C     		mov	r1, r2
 878 0268 9847     		blx	r3
 879              	.L20:
1803:Generated_Source\PSoC4/BLE_eventHandler.c ****     }
1804:Generated_Source\PSoC4/BLE_eventHandler.c **** 
1805:Generated_Source\PSoC4/BLE_eventHandler.c **** }
 880              		.loc 1 1805 0
 881 026a BD46     		mov	sp, r7
 882 026c 04B0     		add	sp, sp, #16
 883              		@ sp needed
 884 026e 80BD     		pop	{r7, pc}
 885              	.L53:
 886              		.align	2
 887              	.L52:
 888 0270 00000000 		.word	cyBle_eventHandlerFlag
 889 0274 00000000 		.word	.L23
 890 0278 00000000 		.word	cyBle_sflashDeviceAddress
 891 027c 7CF1FF0F 		.word	268431740
 892 0280 00000000 		.word	cyBle_deviceAddress
 893 0284 7DF1FF0F 		.word	268431741
 894 0288 7BF1FF0F 		.word	268431739
 895 028c 00000000 		.word	cyBle_state
 896 0290 00000000 		.word	cyBle_busyStatus
 897 0294 00000000 		.word	cyBle_authInfo
 898 0298 00000000 		.word	cyBle_connHandle
 899 029c 00000000 		.word	cyBle_attValuesCCCDFlashMemory
 900 02a0 00000000 		.word	cyBle_attValuesCCCD
 901 02a4 00000000 		.word	CyBle_ApplCallback
 902              		.cfi_endproc
 903              	.LFE10:
 904              		.size	CyBle_EventHandler, .-CyBle_EventHandler
 905              		.text
 906              	.Letext0:
 907              		.file 2 "Generated_Source\\PSoC4\\cytypes.h"
 908              		.file 3 "Generated_Source\\PSoC4\\BLE_Stack.h"
 909              		.file 4 "Generated_Source\\PSoC4\\BLE_StackHostMain.h"
 910              		.file 5 "Generated_Source\\PSoC4\\BLE_StackGap.h"
 911              		.file 6 "Generated_Source\\PSoC4\\BLE_StackGatt.h"
 912              		.file 7 "Generated_Source\\PSoC4\\BLE_StackGattServer.h"
 913              		.file 8 "Generated_Source\\PSoC4\\BLE.h"
 914              		.file 9 "Generated_Source\\PSoC4\\BLE_eventHandler.h"
 915              		.file 10 "Generated_Source\\PSoC4\\BLE_gatt.h"