ARM GAS  C:\Users\TTSS\AppData\Local\Temp\ccjHhmvp.s 			page 1


   1              		.cpu cortex-m0
   2              		.fpu softvfp
   3              		.eabi_attribute 20, 1
   4              		.eabi_attribute 21, 1
   5              		.eabi_attribute 23, 3
   6              		.eabi_attribute 24, 1
   7              		.eabi_attribute 25, 1
   8              		.eabi_attribute 26, 1
   9              		.eabi_attribute 30, 6
  10              		.eabi_attribute 34, 0
  11              		.eabi_attribute 18, 4
  12              		.code	16
  13              		.file	"Cm0Start.c"
  14              		.text
  15              	.Ltext0:
  16              		.cfi_sections	.debug_frame
  17              		.section	.noinit,"aw",%progbits
  18              		.align	2
  19              		.type	cySysNoInitDataValid, %object
  20              		.size	cySysNoInitDataValid, 4
  21              	cySysNoInitDataValid:
  22 0000 00000000 		.space	4
  23              		.section	.text.IntDefaultHandler,"ax",%progbits
  24              		.align	2
  25              		.global	IntDefaultHandler
  26              		.code	16
  27              		.thumb_func
  28              		.type	IntDefaultHandler, %function
  29              	IntDefaultHandler:
  30              	.LFB2:
  31              		.file 1 "Generated_Source\\PSoC4\\Cm0Start.c"
   1:Generated_Source\PSoC4/Cm0Start.c **** /*******************************************************************************
   2:Generated_Source\PSoC4/Cm0Start.c **** * File Name: Cm0Start.c
   3:Generated_Source\PSoC4/Cm0Start.c **** * Version 5.30
   4:Generated_Source\PSoC4/Cm0Start.c **** *
   5:Generated_Source\PSoC4/Cm0Start.c **** *  Description:
   6:Generated_Source\PSoC4/Cm0Start.c **** *  Startup code for the ARM CM0.
   7:Generated_Source\PSoC4/Cm0Start.c **** *
   8:Generated_Source\PSoC4/Cm0Start.c **** ********************************************************************************
   9:Generated_Source\PSoC4/Cm0Start.c **** * Copyright 2010-2015, Cypress Semiconductor Corporation.  All rights reserved.
  10:Generated_Source\PSoC4/Cm0Start.c **** * You may use this file only in accordance with the license, terms, conditions,
  11:Generated_Source\PSoC4/Cm0Start.c **** * disclaimers, and limitations in the end user license agreement accompanying
  12:Generated_Source\PSoC4/Cm0Start.c **** * the software package with which this file was provided.
  13:Generated_Source\PSoC4/Cm0Start.c **** *******************************************************************************/
  14:Generated_Source\PSoC4/Cm0Start.c **** 
  15:Generated_Source\PSoC4/Cm0Start.c **** #include <limits.h>
  16:Generated_Source\PSoC4/Cm0Start.c **** #include "cydevice_trm.h"
  17:Generated_Source\PSoC4/Cm0Start.c **** #include "cytypes.h"
  18:Generated_Source\PSoC4/Cm0Start.c **** #include "cyfitter_cfg.h"
  19:Generated_Source\PSoC4/Cm0Start.c **** #include "CyLib.h"
  20:Generated_Source\PSoC4/Cm0Start.c **** #include "cyfitter.h"
  21:Generated_Source\PSoC4/Cm0Start.c **** #include "cyapicallbacks.h"
  22:Generated_Source\PSoC4/Cm0Start.c **** 
  23:Generated_Source\PSoC4/Cm0Start.c **** #define CY_NUM_VECTORS              (CY_INT_IRQ_BASE + CY_NUM_INTERRUPTS)
  24:Generated_Source\PSoC4/Cm0Start.c **** #define CY_CPUSS_CONFIG_VECT_IN_RAM (( uint32 ) 0x01)
  25:Generated_Source\PSoC4/Cm0Start.c **** 
  26:Generated_Source\PSoC4/Cm0Start.c **** /* CPUSS Configuration register */
ARM GAS  C:\Users\TTSS\AppData\Local\Temp\ccjHhmvp.s 			page 2


  27:Generated_Source\PSoC4/Cm0Start.c **** #define CY_CPUSS_CONFIG_REG         (*(reg32 *) CYREG_CPUSS_CONFIG)
  28:Generated_Source\PSoC4/Cm0Start.c **** #define CY_CPUSS_CONFIG_PTR         ( (reg32 *) CYREG_CPUSS_CONFIG)
  29:Generated_Source\PSoC4/Cm0Start.c **** 
  30:Generated_Source\PSoC4/Cm0Start.c **** 
  31:Generated_Source\PSoC4/Cm0Start.c **** #if defined (__ICCARM__)
  32:Generated_Source\PSoC4/Cm0Start.c ****     #define CY_NUM_ROM_VECTORS      (CY_NUM_VECTORS)
  33:Generated_Source\PSoC4/Cm0Start.c **** #else
  34:Generated_Source\PSoC4/Cm0Start.c ****     #define CY_NUM_ROM_VECTORS      (4u)
  35:Generated_Source\PSoC4/Cm0Start.c **** #endif  /* defined (__ICCARM__) */
  36:Generated_Source\PSoC4/Cm0Start.c **** 
  37:Generated_Source\PSoC4/Cm0Start.c **** 
  38:Generated_Source\PSoC4/Cm0Start.c **** #ifndef CY_SYS_INITIAL_STACK_POINTER
  39:Generated_Source\PSoC4/Cm0Start.c **** 
  40:Generated_Source\PSoC4/Cm0Start.c ****     #if defined(__ARMCC_VERSION)
  41:Generated_Source\PSoC4/Cm0Start.c ****         #define CY_SYS_INITIAL_STACK_POINTER ((cyisraddress)(uint32)&Image$$ARM_LIB_STACK$$ZI$$Limi
  42:Generated_Source\PSoC4/Cm0Start.c ****     #elif defined (__GNUC__)
  43:Generated_Source\PSoC4/Cm0Start.c ****         #define CY_SYS_INITIAL_STACK_POINTER (&__cy_stack)
  44:Generated_Source\PSoC4/Cm0Start.c ****     #elif defined (__ICCARM__)
  45:Generated_Source\PSoC4/Cm0Start.c ****         #pragma language=extended
  46:Generated_Source\PSoC4/Cm0Start.c ****         #pragma segment="CSTACK"
  47:Generated_Source\PSoC4/Cm0Start.c ****         #define CY_SYS_INITIAL_STACK_POINTER  { .__ptr = __sfe( "CSTACK" ) }
  48:Generated_Source\PSoC4/Cm0Start.c **** 
  49:Generated_Source\PSoC4/Cm0Start.c ****         extern void __iar_program_start( void );
  50:Generated_Source\PSoC4/Cm0Start.c ****         extern void __iar_data_init3 (void);
  51:Generated_Source\PSoC4/Cm0Start.c ****     #endif  /* (__ARMCC_VERSION) */
  52:Generated_Source\PSoC4/Cm0Start.c **** 
  53:Generated_Source\PSoC4/Cm0Start.c **** #endif /* CY_SYS_INITIAL_STACK_POINTER */
  54:Generated_Source\PSoC4/Cm0Start.c **** 
  55:Generated_Source\PSoC4/Cm0Start.c **** 
  56:Generated_Source\PSoC4/Cm0Start.c **** #if defined(__GNUC__)
  57:Generated_Source\PSoC4/Cm0Start.c ****     #include <errno.h>
  58:Generated_Source\PSoC4/Cm0Start.c ****     extern int  errno;
  59:Generated_Source\PSoC4/Cm0Start.c ****     extern int  end;
  60:Generated_Source\PSoC4/Cm0Start.c **** #endif  /* defined(__GNUC__) */
  61:Generated_Source\PSoC4/Cm0Start.c **** 
  62:Generated_Source\PSoC4/Cm0Start.c **** /* Extern functions */
  63:Generated_Source\PSoC4/Cm0Start.c **** extern void CyBtldr_CheckLaunch(void);
  64:Generated_Source\PSoC4/Cm0Start.c **** 
  65:Generated_Source\PSoC4/Cm0Start.c **** /* Function prototypes */
  66:Generated_Source\PSoC4/Cm0Start.c **** void initialize_psoc(void);
  67:Generated_Source\PSoC4/Cm0Start.c **** 
  68:Generated_Source\PSoC4/Cm0Start.c **** /* Global variables */
  69:Generated_Source\PSoC4/Cm0Start.c **** #if !defined (__ICCARM__)
  70:Generated_Source\PSoC4/Cm0Start.c ****     CY_NOINIT static uint32 cySysNoInitDataValid;
  71:Generated_Source\PSoC4/Cm0Start.c **** #endif  /* !defined (__ICCARM__) */
  72:Generated_Source\PSoC4/Cm0Start.c **** 
  73:Generated_Source\PSoC4/Cm0Start.c **** 
  74:Generated_Source\PSoC4/Cm0Start.c **** #if (CYDEV_PROJ_TYPE != CYDEV_PROJ_TYPE_STANDARD)
  75:Generated_Source\PSoC4/Cm0Start.c **** 
  76:Generated_Source\PSoC4/Cm0Start.c ****     /*******************************************************************************
  77:Generated_Source\PSoC4/Cm0Start.c ****     This variable is used by the Bootloader/Bootloadable components to schedule
  78:Generated_Source\PSoC4/Cm0Start.c ****     what application will be started after a software reset.
  79:Generated_Source\PSoC4/Cm0Start.c ****     *******************************************************************************/
  80:Generated_Source\PSoC4/Cm0Start.c ****     #if (__ARMCC_VERSION)
  81:Generated_Source\PSoC4/Cm0Start.c ****         __attribute__ ((section(".bootloaderruntype"), zero_init))
  82:Generated_Source\PSoC4/Cm0Start.c ****     #elif defined (__GNUC__)
  83:Generated_Source\PSoC4/Cm0Start.c ****         __attribute__ ((section(".bootloaderruntype")))
ARM GAS  C:\Users\TTSS\AppData\Local\Temp\ccjHhmvp.s 			page 3


  84:Generated_Source\PSoC4/Cm0Start.c ****     #elif defined (__ICCARM__)
  85:Generated_Source\PSoC4/Cm0Start.c ****         #pragma location=".bootloaderruntype"
  86:Generated_Source\PSoC4/Cm0Start.c ****     #endif /* (__ARMCC_VERSION) */
  87:Generated_Source\PSoC4/Cm0Start.c ****     volatile uint32 cyBtldrRunType;
  88:Generated_Source\PSoC4/Cm0Start.c **** 
  89:Generated_Source\PSoC4/Cm0Start.c **** #endif  /* (CYDEV_PROJ_TYPE != CYDEV_PROJ_TYPE_STANDARD) */
  90:Generated_Source\PSoC4/Cm0Start.c **** 
  91:Generated_Source\PSoC4/Cm0Start.c **** 
  92:Generated_Source\PSoC4/Cm0Start.c **** /*******************************************************************************
  93:Generated_Source\PSoC4/Cm0Start.c **** * Function Name: IntDefaultHandler
  94:Generated_Source\PSoC4/Cm0Start.c **** ********************************************************************************
  95:Generated_Source\PSoC4/Cm0Start.c **** *
  96:Generated_Source\PSoC4/Cm0Start.c **** * Summary:
  97:Generated_Source\PSoC4/Cm0Start.c **** *  This function is called for all interrupts, other than a reset that is called
  98:Generated_Source\PSoC4/Cm0Start.c **** *  before the system is setup.
  99:Generated_Source\PSoC4/Cm0Start.c **** *
 100:Generated_Source\PSoC4/Cm0Start.c **** * Parameters:
 101:Generated_Source\PSoC4/Cm0Start.c **** *  None
 102:Generated_Source\PSoC4/Cm0Start.c **** *
 103:Generated_Source\PSoC4/Cm0Start.c **** * Return:
 104:Generated_Source\PSoC4/Cm0Start.c **** *  None
 105:Generated_Source\PSoC4/Cm0Start.c **** *
 106:Generated_Source\PSoC4/Cm0Start.c **** * Theory:
 107:Generated_Source\PSoC4/Cm0Start.c **** *   Any value other than zero is acceptable.
 108:Generated_Source\PSoC4/Cm0Start.c **** *
 109:Generated_Source\PSoC4/Cm0Start.c **** *******************************************************************************/
 110:Generated_Source\PSoC4/Cm0Start.c **** CY_NORETURN
 111:Generated_Source\PSoC4/Cm0Start.c **** CY_ISR(IntDefaultHandler)
 112:Generated_Source\PSoC4/Cm0Start.c **** {
  32              		.loc 1 112 0
  33              		.cfi_startproc
  34 0000 80B5     		push	{r7, lr}
  35              		.cfi_def_cfa_offset 8
  36              		.cfi_offset 7, -8
  37              		.cfi_offset 14, -4
  38 0002 00AF     		add	r7, sp, #0
  39              		.cfi_def_cfa_register 7
  40              	.L2:
 113:Generated_Source\PSoC4/Cm0Start.c ****     /***************************************************************************
 114:Generated_Source\PSoC4/Cm0Start.c ****     * We must not get here. If we do, a serious problem occurs, so go into
 115:Generated_Source\PSoC4/Cm0Start.c ****     * an infinite loop.
 116:Generated_Source\PSoC4/Cm0Start.c ****     ***************************************************************************/
 117:Generated_Source\PSoC4/Cm0Start.c **** 
 118:Generated_Source\PSoC4/Cm0Start.c ****     #ifdef CY_BOOT_INT_DEFAULT_HANDLER_EXCEPTION_ENTRY_CALLBACK
 119:Generated_Source\PSoC4/Cm0Start.c ****         CyBoot_IntDefaultHandler_Exception_EntryCallback();
 120:Generated_Source\PSoC4/Cm0Start.c ****     #endif /* CY_BOOT_INT_DEFAULT_HANDLER_EXCEPTION_ENTRY_CALLBACK */
 121:Generated_Source\PSoC4/Cm0Start.c **** 
 122:Generated_Source\PSoC4/Cm0Start.c ****     while(1)
 123:Generated_Source\PSoC4/Cm0Start.c ****     {
 124:Generated_Source\PSoC4/Cm0Start.c **** 
 125:Generated_Source\PSoC4/Cm0Start.c ****     }
  41              		.loc 1 125 0 discriminator 1
  42 0004 FEE7     		b	.L2
  43              		.cfi_endproc
  44              	.LFE2:
  45              		.size	IntDefaultHandler, .-IntDefaultHandler
  46 0006 C046     		.section	.text._exit,"ax",%progbits
ARM GAS  C:\Users\TTSS\AppData\Local\Temp\ccjHhmvp.s 			page 4


  47              		.align	2
  48              		.weak	_exit
  49              		.code	16
  50              		.thumb_func
  51              		.type	_exit, %function
  52              	_exit:
  53              	.LFB3:
 126:Generated_Source\PSoC4/Cm0Start.c **** }
 127:Generated_Source\PSoC4/Cm0Start.c **** 
 128:Generated_Source\PSoC4/Cm0Start.c **** #if defined(__ARMCC_VERSION)
 129:Generated_Source\PSoC4/Cm0Start.c **** 
 130:Generated_Source\PSoC4/Cm0Start.c **** /* Local function for device reset. */
 131:Generated_Source\PSoC4/Cm0Start.c **** extern void Reset(void);
 132:Generated_Source\PSoC4/Cm0Start.c **** 
 133:Generated_Source\PSoC4/Cm0Start.c **** /* Application entry point. */
 134:Generated_Source\PSoC4/Cm0Start.c **** extern void $Super$$main(void);
 135:Generated_Source\PSoC4/Cm0Start.c **** 
 136:Generated_Source\PSoC4/Cm0Start.c **** /* Linker-generated Stack Base addresses, Two Region and One Region */
 137:Generated_Source\PSoC4/Cm0Start.c **** extern unsigned long Image$$ARM_LIB_STACK$$ZI$$Limit;
 138:Generated_Source\PSoC4/Cm0Start.c **** 
 139:Generated_Source\PSoC4/Cm0Start.c **** /* RealView C Library initialization. */
 140:Generated_Source\PSoC4/Cm0Start.c **** extern int __main(void);
 141:Generated_Source\PSoC4/Cm0Start.c **** 
 142:Generated_Source\PSoC4/Cm0Start.c **** 
 143:Generated_Source\PSoC4/Cm0Start.c **** /*******************************************************************************
 144:Generated_Source\PSoC4/Cm0Start.c **** * Function Name: Reset
 145:Generated_Source\PSoC4/Cm0Start.c **** ********************************************************************************
 146:Generated_Source\PSoC4/Cm0Start.c **** *
 147:Generated_Source\PSoC4/Cm0Start.c **** * Summary:
 148:Generated_Source\PSoC4/Cm0Start.c **** *  This function handles the reset interrupt for the RVDS/MDK toolchains.
 149:Generated_Source\PSoC4/Cm0Start.c **** *  This is the first bit of code that is executed at startup.
 150:Generated_Source\PSoC4/Cm0Start.c **** *
 151:Generated_Source\PSoC4/Cm0Start.c **** * Parameters:
 152:Generated_Source\PSoC4/Cm0Start.c **** *  None
 153:Generated_Source\PSoC4/Cm0Start.c **** *
 154:Generated_Source\PSoC4/Cm0Start.c **** * Return:
 155:Generated_Source\PSoC4/Cm0Start.c **** *  None
 156:Generated_Source\PSoC4/Cm0Start.c **** *
 157:Generated_Source\PSoC4/Cm0Start.c **** *******************************************************************************/
 158:Generated_Source\PSoC4/Cm0Start.c **** void Reset(void)
 159:Generated_Source\PSoC4/Cm0Start.c **** {
 160:Generated_Source\PSoC4/Cm0Start.c ****     #if (CYDEV_PROJ_TYPE == CYDEV_PROJ_TYPE_LOADABLE || CYDEV_PROJ_TYPE == CYDEV_PROJ_TYPE_LOADABLE
 161:Generated_Source\PSoC4/Cm0Start.c ****         /* The bootloadable application image is started at Reset() handler
 162:Generated_Source\PSoC4/Cm0Start.c ****         * as a result of a branch instruction execution from the bootloader.
 163:Generated_Source\PSoC4/Cm0Start.c ****         * So, the stack pointer needs to be reset to be sure that
 164:Generated_Source\PSoC4/Cm0Start.c ****         * there is no garbage in the stack.
 165:Generated_Source\PSoC4/Cm0Start.c ****         */
 166:Generated_Source\PSoC4/Cm0Start.c ****         register uint32_t msp __asm("msp");
 167:Generated_Source\PSoC4/Cm0Start.c ****         msp = (uint32_t)&Image$$ARM_LIB_STACK$$ZI$$Limit;
 168:Generated_Source\PSoC4/Cm0Start.c ****     #endif /*(CYDEV_PROJ_TYPE == CYDEV_PROJ_TYPE_LOADABLE || CYDEV_PROJ_TYPE == CYDEV_PROJ_TYPE_LOA
 169:Generated_Source\PSoC4/Cm0Start.c **** 
 170:Generated_Source\PSoC4/Cm0Start.c ****     #if(CY_IP_SRSSLT)
 171:Generated_Source\PSoC4/Cm0Start.c ****         CySysWdtDisable();
 172:Generated_Source\PSoC4/Cm0Start.c ****     #endif  /* (CY_IP_SRSSLT) */
 173:Generated_Source\PSoC4/Cm0Start.c **** 
 174:Generated_Source\PSoC4/Cm0Start.c ****     #if ((CYDEV_BOOTLOADER_ENABLE) && (CYDEV_PROJ_TYPE != CYDEV_PROJ_TYPE_LOADABLEANDBOOTLOADER))
 175:Generated_Source\PSoC4/Cm0Start.c ****         CyBtldr_CheckLaunch();
ARM GAS  C:\Users\TTSS\AppData\Local\Temp\ccjHhmvp.s 			page 5


 176:Generated_Source\PSoC4/Cm0Start.c ****     #endif /* ((CYDEV_BOOTLOADER_ENABLE) && (CYDEV_PROJ_TYPE != CYDEV_PROJ_TYPE_LOADABLEANDBOOTLOAD
 177:Generated_Source\PSoC4/Cm0Start.c **** 
 178:Generated_Source\PSoC4/Cm0Start.c ****     __main();
 179:Generated_Source\PSoC4/Cm0Start.c **** }
 180:Generated_Source\PSoC4/Cm0Start.c **** 
 181:Generated_Source\PSoC4/Cm0Start.c **** /*******************************************************************************
 182:Generated_Source\PSoC4/Cm0Start.c **** * Function Name: $Sub$$main
 183:Generated_Source\PSoC4/Cm0Start.c **** ********************************************************************************
 184:Generated_Source\PSoC4/Cm0Start.c **** *
 185:Generated_Source\PSoC4/Cm0Start.c **** * Summary:
 186:Generated_Source\PSoC4/Cm0Start.c **** *  This function is called immediately before the users main
 187:Generated_Source\PSoC4/Cm0Start.c **** *
 188:Generated_Source\PSoC4/Cm0Start.c **** * Parameters:
 189:Generated_Source\PSoC4/Cm0Start.c **** *  None
 190:Generated_Source\PSoC4/Cm0Start.c **** *
 191:Generated_Source\PSoC4/Cm0Start.c **** * Return:
 192:Generated_Source\PSoC4/Cm0Start.c **** *  None
 193:Generated_Source\PSoC4/Cm0Start.c **** *
 194:Generated_Source\PSoC4/Cm0Start.c **** *******************************************************************************/
 195:Generated_Source\PSoC4/Cm0Start.c **** __attribute__ ((noreturn, __noinline__))
 196:Generated_Source\PSoC4/Cm0Start.c **** void $Sub$$main(void)
 197:Generated_Source\PSoC4/Cm0Start.c **** {
 198:Generated_Source\PSoC4/Cm0Start.c ****     initialize_psoc();
 199:Generated_Source\PSoC4/Cm0Start.c **** 
 200:Generated_Source\PSoC4/Cm0Start.c ****     /* Call original main */
 201:Generated_Source\PSoC4/Cm0Start.c ****     $Super$$main();
 202:Generated_Source\PSoC4/Cm0Start.c **** 
 203:Generated_Source\PSoC4/Cm0Start.c ****     while (1)
 204:Generated_Source\PSoC4/Cm0Start.c ****     {
 205:Generated_Source\PSoC4/Cm0Start.c ****         /* If main returns it is undefined what we should do. */
 206:Generated_Source\PSoC4/Cm0Start.c ****     }
 207:Generated_Source\PSoC4/Cm0Start.c **** }
 208:Generated_Source\PSoC4/Cm0Start.c **** 
 209:Generated_Source\PSoC4/Cm0Start.c **** #elif defined(__GNUC__)
 210:Generated_Source\PSoC4/Cm0Start.c **** 
 211:Generated_Source\PSoC4/Cm0Start.c **** /* Stack Base address */
 212:Generated_Source\PSoC4/Cm0Start.c **** extern void __cy_stack(void);
 213:Generated_Source\PSoC4/Cm0Start.c **** 
 214:Generated_Source\PSoC4/Cm0Start.c **** /* Application entry point. */
 215:Generated_Source\PSoC4/Cm0Start.c **** extern int main(void);
 216:Generated_Source\PSoC4/Cm0Start.c **** 
 217:Generated_Source\PSoC4/Cm0Start.c **** /* The static objects constructors initializer */
 218:Generated_Source\PSoC4/Cm0Start.c **** extern void __libc_init_array(void);
 219:Generated_Source\PSoC4/Cm0Start.c **** 
 220:Generated_Source\PSoC4/Cm0Start.c **** typedef unsigned char __cy_byte_align8 __attribute ((aligned (8)));
 221:Generated_Source\PSoC4/Cm0Start.c **** 
 222:Generated_Source\PSoC4/Cm0Start.c **** struct __cy_region
 223:Generated_Source\PSoC4/Cm0Start.c **** {
 224:Generated_Source\PSoC4/Cm0Start.c ****     __cy_byte_align8 *init; /* Initial contents of this region.  */
 225:Generated_Source\PSoC4/Cm0Start.c ****     __cy_byte_align8 *data; /* Start address of region.  */
 226:Generated_Source\PSoC4/Cm0Start.c ****     size_t init_size;       /* Size of initial data.  */
 227:Generated_Source\PSoC4/Cm0Start.c ****     size_t zero_size;       /* Additional size to be zeroed.  */
 228:Generated_Source\PSoC4/Cm0Start.c **** };
 229:Generated_Source\PSoC4/Cm0Start.c **** 
 230:Generated_Source\PSoC4/Cm0Start.c **** extern const struct __cy_region __cy_regions[];
 231:Generated_Source\PSoC4/Cm0Start.c **** extern const char __cy_region_num __attribute__((weak));
 232:Generated_Source\PSoC4/Cm0Start.c **** #define __cy_region_num ((size_t)&__cy_region_num)
ARM GAS  C:\Users\TTSS\AppData\Local\Temp\ccjHhmvp.s 			page 6


 233:Generated_Source\PSoC4/Cm0Start.c **** 
 234:Generated_Source\PSoC4/Cm0Start.c **** 
 235:Generated_Source\PSoC4/Cm0Start.c **** /*******************************************************************************
 236:Generated_Source\PSoC4/Cm0Start.c **** * System Calls of the Red Hat newlib C Library
 237:Generated_Source\PSoC4/Cm0Start.c **** *******************************************************************************/
 238:Generated_Source\PSoC4/Cm0Start.c **** 
 239:Generated_Source\PSoC4/Cm0Start.c **** 
 240:Generated_Source\PSoC4/Cm0Start.c **** /*******************************************************************************
 241:Generated_Source\PSoC4/Cm0Start.c **** * Function Name: _exit
 242:Generated_Source\PSoC4/Cm0Start.c **** ********************************************************************************
 243:Generated_Source\PSoC4/Cm0Start.c **** *
 244:Generated_Source\PSoC4/Cm0Start.c **** * Summary:
 245:Generated_Source\PSoC4/Cm0Start.c **** *  Exit a program without cleaning up files. If your system doesn't provide
 246:Generated_Source\PSoC4/Cm0Start.c **** *  this, it is best to avoid linking with subroutines that require it (exit,
 247:Generated_Source\PSoC4/Cm0Start.c **** *  system).
 248:Generated_Source\PSoC4/Cm0Start.c **** *
 249:Generated_Source\PSoC4/Cm0Start.c **** * Parameters:
 250:Generated_Source\PSoC4/Cm0Start.c **** *  status: Status caused program exit.
 251:Generated_Source\PSoC4/Cm0Start.c **** *
 252:Generated_Source\PSoC4/Cm0Start.c **** * Return:
 253:Generated_Source\PSoC4/Cm0Start.c **** *  None
 254:Generated_Source\PSoC4/Cm0Start.c **** *
 255:Generated_Source\PSoC4/Cm0Start.c **** *******************************************************************************/
 256:Generated_Source\PSoC4/Cm0Start.c **** __attribute__((weak))
 257:Generated_Source\PSoC4/Cm0Start.c **** void _exit(int status)
 258:Generated_Source\PSoC4/Cm0Start.c **** {
  54              		.loc 1 258 0
  55              		.cfi_startproc
  56 0000 80B5     		push	{r7, lr}
  57              		.cfi_def_cfa_offset 8
  58              		.cfi_offset 7, -8
  59              		.cfi_offset 14, -4
  60 0002 82B0     		sub	sp, sp, #8
  61              		.cfi_def_cfa_offset 16
  62 0004 00AF     		add	r7, sp, #0
  63              		.cfi_def_cfa_register 7
  64 0006 7860     		str	r0, [r7, #4]
 259:Generated_Source\PSoC4/Cm0Start.c ****     CyHalt((uint8) status);
  65              		.loc 1 259 0
  66 0008 7B68     		ldr	r3, [r7, #4]
  67 000a DBB2     		uxtb	r3, r3
  68 000c 181C     		mov	r0, r3
  69 000e FFF7FEFF 		bl	CyHalt
  70              	.L4:
 260:Generated_Source\PSoC4/Cm0Start.c **** 
 261:Generated_Source\PSoC4/Cm0Start.c ****     while(1)
 262:Generated_Source\PSoC4/Cm0Start.c ****     {
 263:Generated_Source\PSoC4/Cm0Start.c **** 
 264:Generated_Source\PSoC4/Cm0Start.c ****     }
  71              		.loc 1 264 0 discriminator 1
  72 0012 FEE7     		b	.L4
  73              		.cfi_endproc
  74              	.LFE3:
  75              		.size	_exit, .-_exit
  76              		.section	.text._sbrk,"ax",%progbits
  77              		.align	2
  78              		.weak	_sbrk
ARM GAS  C:\Users\TTSS\AppData\Local\Temp\ccjHhmvp.s 			page 7


  79              		.code	16
  80              		.thumb_func
  81              		.type	_sbrk, %function
  82              	_sbrk:
  83              	.LFB4:
 265:Generated_Source\PSoC4/Cm0Start.c **** }
 266:Generated_Source\PSoC4/Cm0Start.c **** 
 267:Generated_Source\PSoC4/Cm0Start.c **** 
 268:Generated_Source\PSoC4/Cm0Start.c **** /*******************************************************************************
 269:Generated_Source\PSoC4/Cm0Start.c **** * Function Name: _sbrk
 270:Generated_Source\PSoC4/Cm0Start.c **** ********************************************************************************
 271:Generated_Source\PSoC4/Cm0Start.c **** *
 272:Generated_Source\PSoC4/Cm0Start.c **** * Summary:
 273:Generated_Source\PSoC4/Cm0Start.c **** *  Increase program data space. As malloc and related functions depend on this,
 274:Generated_Source\PSoC4/Cm0Start.c **** *  it is useful to have a working implementation. The following suffices for a
 275:Generated_Source\PSoC4/Cm0Start.c **** *  standalone system; it exploits the symbol end automatically defined by the
 276:Generated_Source\PSoC4/Cm0Start.c **** *  GNU linker.
 277:Generated_Source\PSoC4/Cm0Start.c **** *
 278:Generated_Source\PSoC4/Cm0Start.c **** * Parameters:
 279:Generated_Source\PSoC4/Cm0Start.c **** *  nbytes: The number of bytes requested (if the parameter value is positive)
 280:Generated_Source\PSoC4/Cm0Start.c **** *  from the heap or returned back to the heap (if the parameter value is
 281:Generated_Source\PSoC4/Cm0Start.c **** *  negative).
 282:Generated_Source\PSoC4/Cm0Start.c **** *
 283:Generated_Source\PSoC4/Cm0Start.c **** * Return:
 284:Generated_Source\PSoC4/Cm0Start.c **** *  None
 285:Generated_Source\PSoC4/Cm0Start.c **** *
 286:Generated_Source\PSoC4/Cm0Start.c **** *******************************************************************************/
 287:Generated_Source\PSoC4/Cm0Start.c **** __attribute__((weak))
 288:Generated_Source\PSoC4/Cm0Start.c **** void * _sbrk (int nbytes)
 289:Generated_Source\PSoC4/Cm0Start.c **** {
  84              		.loc 1 289 0
  85              		.cfi_startproc
  86 0000 80B5     		push	{r7, lr}
  87              		.cfi_def_cfa_offset 8
  88              		.cfi_offset 7, -8
  89              		.cfi_offset 14, -4
  90 0002 84B0     		sub	sp, sp, #16
  91              		.cfi_def_cfa_offset 24
  92 0004 00AF     		add	r7, sp, #0
  93              		.cfi_def_cfa_register 7
  94 0006 7860     		str	r0, [r7, #4]
 290:Generated_Source\PSoC4/Cm0Start.c ****     extern int  end;            /* Symbol defined by linker map. Start of free memory (as symbol). 
 291:Generated_Source\PSoC4/Cm0Start.c ****     void *      returnValue;
 292:Generated_Source\PSoC4/Cm0Start.c **** 
 293:Generated_Source\PSoC4/Cm0Start.c ****     /* The statically held previous end of the heap, with its initialization. */
 294:Generated_Source\PSoC4/Cm0Start.c ****     static void *heapPointer = (void *) &end;                 /* Previous end */
 295:Generated_Source\PSoC4/Cm0Start.c **** 
 296:Generated_Source\PSoC4/Cm0Start.c ****     if (((heapPointer + nbytes) - (void *) &end) <= CYDEV_HEAP_SIZE)
  95              		.loc 1 296 0
  96 0008 0F4B     		ldr	r3, .L9
  97 000a 1A68     		ldr	r2, [r3]
  98 000c 7B68     		ldr	r3, [r7, #4]
  99 000e D318     		add	r3, r2, r3
 100 0010 1A1C     		mov	r2, r3
 101 0012 0E4B     		ldr	r3, .L9+4
 102 0014 D31A     		sub	r3, r2, r3
 103 0016 802B     		cmp	r3, #128
ARM GAS  C:\Users\TTSS\AppData\Local\Temp\ccjHhmvp.s 			page 8


 104 0018 09DC     		bgt	.L6
 297:Generated_Source\PSoC4/Cm0Start.c ****     {
 298:Generated_Source\PSoC4/Cm0Start.c ****         returnValue  = heapPointer;
 105              		.loc 1 298 0
 106 001a 0B4B     		ldr	r3, .L9
 107 001c 1B68     		ldr	r3, [r3]
 108 001e FB60     		str	r3, [r7, #12]
 299:Generated_Source\PSoC4/Cm0Start.c ****         heapPointer += nbytes;
 109              		.loc 1 299 0
 110 0020 094B     		ldr	r3, .L9
 111 0022 1A68     		ldr	r2, [r3]
 112 0024 7B68     		ldr	r3, [r7, #4]
 113 0026 D218     		add	r2, r2, r3
 114 0028 074B     		ldr	r3, .L9
 115 002a 1A60     		str	r2, [r3]
 116 002c 07E0     		b	.L7
 117              	.L6:
 300:Generated_Source\PSoC4/Cm0Start.c ****     }
 301:Generated_Source\PSoC4/Cm0Start.c ****     else
 302:Generated_Source\PSoC4/Cm0Start.c ****     {
 303:Generated_Source\PSoC4/Cm0Start.c ****         errno = ENOMEM;
 118              		.loc 1 303 0
 119 002e FFF7FEFF 		bl	__errno
 120 0032 031C     		mov	r3, r0
 121 0034 0C22     		mov	r2, #12
 122 0036 1A60     		str	r2, [r3]
 304:Generated_Source\PSoC4/Cm0Start.c ****         returnValue = (void *) -1;
 123              		.loc 1 304 0
 124 0038 0123     		mov	r3, #1
 125 003a 5B42     		neg	r3, r3
 126 003c FB60     		str	r3, [r7, #12]
 127              	.L7:
 305:Generated_Source\PSoC4/Cm0Start.c ****     }
 306:Generated_Source\PSoC4/Cm0Start.c **** 
 307:Generated_Source\PSoC4/Cm0Start.c ****     return (returnValue);
 128              		.loc 1 307 0
 129 003e FB68     		ldr	r3, [r7, #12]
 308:Generated_Source\PSoC4/Cm0Start.c **** }
 130              		.loc 1 308 0
 131 0040 181C     		mov	r0, r3
 132 0042 BD46     		mov	sp, r7
 133 0044 04B0     		add	sp, sp, #16
 134              		@ sp needed
 135 0046 80BD     		pop	{r7, pc}
 136              	.L10:
 137              		.align	2
 138              	.L9:
 139 0048 00000000 		.word	heapPointer.4739
 140 004c 00000000 		.word	end
 141              		.cfi_endproc
 142              	.LFE4:
 143              		.size	_sbrk, .-_sbrk
 144              		.section	.text.Start_c,"ax",%progbits
 145              		.align	2
 146              		.global	Start_c
 147              		.code	16
 148              		.thumb_func
ARM GAS  C:\Users\TTSS\AppData\Local\Temp\ccjHhmvp.s 			page 9


 149              		.type	Start_c, %function
 150              	Start_c:
 151              	.LFB5:
 309:Generated_Source\PSoC4/Cm0Start.c **** 
 310:Generated_Source\PSoC4/Cm0Start.c **** 
 311:Generated_Source\PSoC4/Cm0Start.c **** /*******************************************************************************
 312:Generated_Source\PSoC4/Cm0Start.c **** * Function Name: Start_c
 313:Generated_Source\PSoC4/Cm0Start.c **** ********************************************************************************
 314:Generated_Source\PSoC4/Cm0Start.c **** *
 315:Generated_Source\PSoC4/Cm0Start.c **** * Summary:
 316:Generated_Source\PSoC4/Cm0Start.c **** *  This function handles initializing the .data and .bss sections in
 317:Generated_Source\PSoC4/Cm0Start.c **** *  preparation for running the standard c code.  Once initialization is complete
 318:Generated_Source\PSoC4/Cm0Start.c **** *  it will call main().  This function will never return.
 319:Generated_Source\PSoC4/Cm0Start.c **** *
 320:Generated_Source\PSoC4/Cm0Start.c **** * Parameters:
 321:Generated_Source\PSoC4/Cm0Start.c **** *  None
 322:Generated_Source\PSoC4/Cm0Start.c **** *
 323:Generated_Source\PSoC4/Cm0Start.c **** * Return:
 324:Generated_Source\PSoC4/Cm0Start.c **** *  None
 325:Generated_Source\PSoC4/Cm0Start.c **** *
 326:Generated_Source\PSoC4/Cm0Start.c **** *******************************************************************************/
 327:Generated_Source\PSoC4/Cm0Start.c **** void Start_c(void)  __attribute__ ((noreturn, noinline));
 328:Generated_Source\PSoC4/Cm0Start.c **** void Start_c(void)
 329:Generated_Source\PSoC4/Cm0Start.c **** {
 152              		.loc 1 329 0
 153              		.cfi_startproc
 154 0000 80B5     		push	{r7, lr}
 155              		.cfi_def_cfa_offset 8
 156              		.cfi_offset 7, -8
 157              		.cfi_offset 14, -4
 158 0002 86B0     		sub	sp, sp, #24
 159              		.cfi_def_cfa_offset 32
 160 0004 00AF     		add	r7, sp, #0
 161              		.cfi_def_cfa_register 7
 330:Generated_Source\PSoC4/Cm0Start.c ****     #ifdef CY_BOOT_START_C_CALLBACK
 331:Generated_Source\PSoC4/Cm0Start.c ****         CyBoot_Start_c_Callback();
 332:Generated_Source\PSoC4/Cm0Start.c ****     #else
 333:Generated_Source\PSoC4/Cm0Start.c ****         unsigned regions = __cy_region_num;
 162              		.loc 1 333 0
 163 0006 224B     		ldr	r3, .L19
 164 0008 7B61     		str	r3, [r7, #20]
 334:Generated_Source\PSoC4/Cm0Start.c ****         const struct __cy_region *rptr = __cy_regions;
 165              		.loc 1 334 0
 166 000a 224B     		ldr	r3, .L19+4
 167 000c 3B61     		str	r3, [r7, #16]
 335:Generated_Source\PSoC4/Cm0Start.c **** 
 336:Generated_Source\PSoC4/Cm0Start.c ****         /* Initialize memory */
 337:Generated_Source\PSoC4/Cm0Start.c ****         for (regions = __cy_region_num; regions != 0u; regions--)
 168              		.loc 1 337 0
 169 000e 204B     		ldr	r3, .L19
 170 0010 7B61     		str	r3, [r7, #20]
 171 0012 35E0     		b	.L12
 172              	.L17:
 173              	.LBB2:
 338:Generated_Source\PSoC4/Cm0Start.c ****         {
 339:Generated_Source\PSoC4/Cm0Start.c ****             uint32 *src = (uint32 *)rptr->init;
 174              		.loc 1 339 0
ARM GAS  C:\Users\TTSS\AppData\Local\Temp\ccjHhmvp.s 			page 10


 175 0014 3B69     		ldr	r3, [r7, #16]
 176 0016 1B68     		ldr	r3, [r3]
 177 0018 FB60     		str	r3, [r7, #12]
 340:Generated_Source\PSoC4/Cm0Start.c ****             uint32 *dst = (uint32 *)rptr->data;
 178              		.loc 1 340 0
 179 001a 3B69     		ldr	r3, [r7, #16]
 180 001c 5B68     		ldr	r3, [r3, #4]
 181 001e BB60     		str	r3, [r7, #8]
 341:Generated_Source\PSoC4/Cm0Start.c ****             unsigned limit = rptr->init_size;
 182              		.loc 1 341 0
 183 0020 3B69     		ldr	r3, [r7, #16]
 184 0022 9B68     		ldr	r3, [r3, #8]
 185 0024 3B60     		str	r3, [r7]
 342:Generated_Source\PSoC4/Cm0Start.c ****             unsigned count;
 343:Generated_Source\PSoC4/Cm0Start.c **** 
 344:Generated_Source\PSoC4/Cm0Start.c ****             for (count = 0u; count != limit; count += sizeof (uint32))
 186              		.loc 1 344 0
 187 0026 0023     		mov	r3, #0
 188 0028 7B60     		str	r3, [r7, #4]
 189 002a 0CE0     		b	.L13
 190              	.L14:
 345:Generated_Source\PSoC4/Cm0Start.c ****             {
 346:Generated_Source\PSoC4/Cm0Start.c ****                 *dst = *src;
 191              		.loc 1 346 0 discriminator 3
 192 002c FB68     		ldr	r3, [r7, #12]
 193 002e 1A68     		ldr	r2, [r3]
 194 0030 BB68     		ldr	r3, [r7, #8]
 195 0032 1A60     		str	r2, [r3]
 347:Generated_Source\PSoC4/Cm0Start.c ****                 dst++;
 196              		.loc 1 347 0 discriminator 3
 197 0034 BB68     		ldr	r3, [r7, #8]
 198 0036 0433     		add	r3, r3, #4
 199 0038 BB60     		str	r3, [r7, #8]
 348:Generated_Source\PSoC4/Cm0Start.c ****                 src++;
 200              		.loc 1 348 0 discriminator 3
 201 003a FB68     		ldr	r3, [r7, #12]
 202 003c 0433     		add	r3, r3, #4
 203 003e FB60     		str	r3, [r7, #12]
 344:Generated_Source\PSoC4/Cm0Start.c ****             {
 204              		.loc 1 344 0 discriminator 3
 205 0040 7B68     		ldr	r3, [r7, #4]
 206 0042 0433     		add	r3, r3, #4
 207 0044 7B60     		str	r3, [r7, #4]
 208              	.L13:
 344:Generated_Source\PSoC4/Cm0Start.c ****             {
 209              		.loc 1 344 0 is_stmt 0 discriminator 1
 210 0046 7A68     		ldr	r2, [r7, #4]
 211 0048 3B68     		ldr	r3, [r7]
 212 004a 9A42     		cmp	r2, r3
 213 004c EED1     		bne	.L14
 349:Generated_Source\PSoC4/Cm0Start.c ****             }
 350:Generated_Source\PSoC4/Cm0Start.c ****             limit = rptr->zero_size;
 214              		.loc 1 350 0 is_stmt 1
 215 004e 3B69     		ldr	r3, [r7, #16]
 216 0050 DB68     		ldr	r3, [r3, #12]
 217 0052 3B60     		str	r3, [r7]
 351:Generated_Source\PSoC4/Cm0Start.c ****             for (count = 0u; count != limit; count += sizeof (uint32))
ARM GAS  C:\Users\TTSS\AppData\Local\Temp\ccjHhmvp.s 			page 11


 218              		.loc 1 351 0
 219 0054 0023     		mov	r3, #0
 220 0056 7B60     		str	r3, [r7, #4]
 221 0058 08E0     		b	.L15
 222              	.L16:
 352:Generated_Source\PSoC4/Cm0Start.c ****             {
 353:Generated_Source\PSoC4/Cm0Start.c ****                 *dst = 0u;
 223              		.loc 1 353 0 discriminator 3
 224 005a BB68     		ldr	r3, [r7, #8]
 225 005c 0022     		mov	r2, #0
 226 005e 1A60     		str	r2, [r3]
 354:Generated_Source\PSoC4/Cm0Start.c ****                 dst++;
 227              		.loc 1 354 0 discriminator 3
 228 0060 BB68     		ldr	r3, [r7, #8]
 229 0062 0433     		add	r3, r3, #4
 230 0064 BB60     		str	r3, [r7, #8]
 351:Generated_Source\PSoC4/Cm0Start.c ****             for (count = 0u; count != limit; count += sizeof (uint32))
 231              		.loc 1 351 0 discriminator 3
 232 0066 7B68     		ldr	r3, [r7, #4]
 233 0068 0433     		add	r3, r3, #4
 234 006a 7B60     		str	r3, [r7, #4]
 235              	.L15:
 351:Generated_Source\PSoC4/Cm0Start.c ****             for (count = 0u; count != limit; count += sizeof (uint32))
 236              		.loc 1 351 0 is_stmt 0 discriminator 1
 237 006c 7A68     		ldr	r2, [r7, #4]
 238 006e 3B68     		ldr	r3, [r7]
 239 0070 9A42     		cmp	r2, r3
 240 0072 F2D1     		bne	.L16
 355:Generated_Source\PSoC4/Cm0Start.c ****             }
 356:Generated_Source\PSoC4/Cm0Start.c **** 
 357:Generated_Source\PSoC4/Cm0Start.c ****             rptr++;
 241              		.loc 1 357 0 is_stmt 1 discriminator 2
 242 0074 3B69     		ldr	r3, [r7, #16]
 243 0076 1033     		add	r3, r3, #16
 244 0078 3B61     		str	r3, [r7, #16]
 245              	.LBE2:
 337:Generated_Source\PSoC4/Cm0Start.c ****         {
 246              		.loc 1 337 0 discriminator 2
 247 007a 7B69     		ldr	r3, [r7, #20]
 248 007c 013B     		sub	r3, r3, #1
 249 007e 7B61     		str	r3, [r7, #20]
 250              	.L12:
 337:Generated_Source\PSoC4/Cm0Start.c ****         {
 251              		.loc 1 337 0 is_stmt 0 discriminator 1
 252 0080 7B69     		ldr	r3, [r7, #20]
 253 0082 002B     		cmp	r3, #0
 254 0084 C6D1     		bne	.L17
 358:Generated_Source\PSoC4/Cm0Start.c ****         }
 359:Generated_Source\PSoC4/Cm0Start.c **** 
 360:Generated_Source\PSoC4/Cm0Start.c ****         /* Invoke static objects constructors */
 361:Generated_Source\PSoC4/Cm0Start.c ****         __libc_init_array();
 255              		.loc 1 361 0 is_stmt 1
 256 0086 FFF7FEFF 		bl	__libc_init_array
 362:Generated_Source\PSoC4/Cm0Start.c ****         (void) main();
 257              		.loc 1 362 0
 258 008a FFF7FEFF 		bl	main
 259              	.L18:
ARM GAS  C:\Users\TTSS\AppData\Local\Temp\ccjHhmvp.s 			page 12


 363:Generated_Source\PSoC4/Cm0Start.c **** 
 364:Generated_Source\PSoC4/Cm0Start.c ****         while (1)
 365:Generated_Source\PSoC4/Cm0Start.c ****         {
 366:Generated_Source\PSoC4/Cm0Start.c ****             /* If main returns, make sure we don't return. */
 367:Generated_Source\PSoC4/Cm0Start.c ****         }
 260              		.loc 1 367 0 discriminator 1
 261 008e FEE7     		b	.L18
 262              	.L20:
 263              		.align	2
 264              	.L19:
 265 0090 00000000 		.word	__cy_region_num
 266 0094 00000000 		.word	__cy_regions
 267              		.cfi_endproc
 268              	.LFE5:
 269              		.size	Start_c, .-Start_c
 270              		.section	.text.Reset,"ax",%progbits
 271              		.align	2
 272              		.global	Reset
 273              		.code	16
 274              		.thumb_func
 275              		.type	Reset, %function
 276              	Reset:
 277              	.LFB6:
 368:Generated_Source\PSoC4/Cm0Start.c **** 
 369:Generated_Source\PSoC4/Cm0Start.c ****     #endif /* CY_BOOT_START_C_CALLBACK */
 370:Generated_Source\PSoC4/Cm0Start.c **** }
 371:Generated_Source\PSoC4/Cm0Start.c **** 
 372:Generated_Source\PSoC4/Cm0Start.c **** 
 373:Generated_Source\PSoC4/Cm0Start.c **** /*******************************************************************************
 374:Generated_Source\PSoC4/Cm0Start.c **** * Function Name: Reset
 375:Generated_Source\PSoC4/Cm0Start.c **** ********************************************************************************
 376:Generated_Source\PSoC4/Cm0Start.c **** *
 377:Generated_Source\PSoC4/Cm0Start.c **** * Summary:
 378:Generated_Source\PSoC4/Cm0Start.c **** *  This function handles the reset interrupt for the GCC toolchain.  This is
 379:Generated_Source\PSoC4/Cm0Start.c **** *  the first bit of code that is executed at startup.
 380:Generated_Source\PSoC4/Cm0Start.c **** *
 381:Generated_Source\PSoC4/Cm0Start.c **** * Parameters:
 382:Generated_Source\PSoC4/Cm0Start.c **** *  None
 383:Generated_Source\PSoC4/Cm0Start.c **** *
 384:Generated_Source\PSoC4/Cm0Start.c **** * Return:
 385:Generated_Source\PSoC4/Cm0Start.c **** *  None
 386:Generated_Source\PSoC4/Cm0Start.c **** *
 387:Generated_Source\PSoC4/Cm0Start.c **** *******************************************************************************/
 388:Generated_Source\PSoC4/Cm0Start.c **** void Reset(void)
 389:Generated_Source\PSoC4/Cm0Start.c **** {
 278              		.loc 1 389 0
 279              		.cfi_startproc
 280 0000 80B5     		push	{r7, lr}
 281              		.cfi_def_cfa_offset 8
 282              		.cfi_offset 7, -8
 283              		.cfi_offset 14, -4
 284 0002 00AF     		add	r7, sp, #0
 285              		.cfi_def_cfa_register 7
 390:Generated_Source\PSoC4/Cm0Start.c ****     #if (CYDEV_PROJ_TYPE == CYDEV_PROJ_TYPE_LOADABLE || CYDEV_PROJ_TYPE == CYDEV_PROJ_TYPE_LOADABLE
 391:Generated_Source\PSoC4/Cm0Start.c **** 
 392:Generated_Source\PSoC4/Cm0Start.c ****         /* The bootloadable application image is started at Reset() handler
 393:Generated_Source\PSoC4/Cm0Start.c ****         * as a result of a branch instruction execution from the bootloader.
ARM GAS  C:\Users\TTSS\AppData\Local\Temp\ccjHhmvp.s 			page 13


 394:Generated_Source\PSoC4/Cm0Start.c ****         * So, the stack pointer needs to be reset to be sure that
 395:Generated_Source\PSoC4/Cm0Start.c ****         * there is no garbage in the stack.
 396:Generated_Source\PSoC4/Cm0Start.c ****         */
 397:Generated_Source\PSoC4/Cm0Start.c ****         __asm volatile ("MSR msp, %0\n" : : "r" ((uint32)&__cy_stack) : "sp");
 398:Generated_Source\PSoC4/Cm0Start.c ****     #endif /* CYDEV_PROJ_TYPE_LOADABLE */
 399:Generated_Source\PSoC4/Cm0Start.c **** 
 400:Generated_Source\PSoC4/Cm0Start.c ****     #if(CY_IP_SRSSLT)
 401:Generated_Source\PSoC4/Cm0Start.c ****         CySysWdtDisable();
 402:Generated_Source\PSoC4/Cm0Start.c ****     #endif  /* (CY_IP_SRSSLT) */
 403:Generated_Source\PSoC4/Cm0Start.c **** 
 404:Generated_Source\PSoC4/Cm0Start.c ****     #if ((CYDEV_BOOTLOADER_ENABLE) && (CYDEV_PROJ_TYPE != CYDEV_PROJ_TYPE_LOADABLEANDBOOTLOADER))
 405:Generated_Source\PSoC4/Cm0Start.c ****         CyBtldr_CheckLaunch();
 406:Generated_Source\PSoC4/Cm0Start.c ****     #endif /* ((CYDEV_BOOTLOADER_ENABLE) && (CYDEV_PROJ_TYPE != CYDEV_PROJ_TYPE_LOADABLEANDBOOTLOAD
 407:Generated_Source\PSoC4/Cm0Start.c ****     Start_c();
 286              		.loc 1 407 0
 287 0004 FFF7FEFF 		bl	Start_c
 288              		.cfi_endproc
 289              	.LFE6:
 290              		.size	Reset, .-Reset
 291              		.global	CyRamVectors
 292              		.section	.ramvectors,"aw",%progbits
 293              		.align	2
 294              		.type	CyRamVectors, %object
 295              		.size	CyRamVectors, 192
 296              	CyRamVectors:
 297 0000 00000000 		.space	192
 297      00000000 
 297      00000000 
 297      00000000 
 297      00000000 
 298              		.global	RomVectors
 299              		.section	.romvectors,"a",%progbits
 300              		.align	2
 301              		.type	RomVectors, %object
 302              		.size	RomVectors, 16
 303              	RomVectors:
 304 0000 00000000 		.word	__cy_stack
 305 0004 00000000 		.word	Reset
 306 0008 00000000 		.word	IntDefaultHandler
 307 000c 00000000 		.word	IntDefaultHandler
 308              		.section	.text.initialize_psoc,"ax",%progbits
 309              		.align	2
 310              		.global	initialize_psoc
 311              		.code	16
 312              		.thumb_func
 313              		.type	initialize_psoc, %function
 314              	initialize_psoc:
 315              	.LFB7:
 408:Generated_Source\PSoC4/Cm0Start.c **** }
 409:Generated_Source\PSoC4/Cm0Start.c **** 
 410:Generated_Source\PSoC4/Cm0Start.c **** #elif defined (__ICCARM__)
 411:Generated_Source\PSoC4/Cm0Start.c **** 
 412:Generated_Source\PSoC4/Cm0Start.c **** 
 413:Generated_Source\PSoC4/Cm0Start.c **** /*******************************************************************************
 414:Generated_Source\PSoC4/Cm0Start.c **** * Function Name: __low_level_init
 415:Generated_Source\PSoC4/Cm0Start.c **** ********************************************************************************
 416:Generated_Source\PSoC4/Cm0Start.c **** *
ARM GAS  C:\Users\TTSS\AppData\Local\Temp\ccjHhmvp.s 			page 14


 417:Generated_Source\PSoC4/Cm0Start.c **** * Summary:
 418:Generated_Source\PSoC4/Cm0Start.c **** *  This function performs early initializations for the IAR Embedded
 419:Generated_Source\PSoC4/Cm0Start.c **** *  Workbench IDE. It is executed in the context of reset interrupt handler
 420:Generated_Source\PSoC4/Cm0Start.c **** *  before the data sections are initialized.
 421:Generated_Source\PSoC4/Cm0Start.c **** *
 422:Generated_Source\PSoC4/Cm0Start.c **** * Parameters:
 423:Generated_Source\PSoC4/Cm0Start.c **** *  None
 424:Generated_Source\PSoC4/Cm0Start.c **** *
 425:Generated_Source\PSoC4/Cm0Start.c **** * Return:
 426:Generated_Source\PSoC4/Cm0Start.c **** *  The value that determines whether or not data sections should be initialized
 427:Generated_Source\PSoC4/Cm0Start.c **** *  by the system startup code:
 428:Generated_Source\PSoC4/Cm0Start.c **** *    0 - skip data sections initialization;
 429:Generated_Source\PSoC4/Cm0Start.c **** *    1 - initialize data sections;
 430:Generated_Source\PSoC4/Cm0Start.c **** *
 431:Generated_Source\PSoC4/Cm0Start.c **** *******************************************************************************/
 432:Generated_Source\PSoC4/Cm0Start.c **** #pragma inline = never
 433:Generated_Source\PSoC4/Cm0Start.c **** int __low_level_init(void)
 434:Generated_Source\PSoC4/Cm0Start.c **** {
 435:Generated_Source\PSoC4/Cm0Start.c ****     #if(CY_IP_SRSSLT)
 436:Generated_Source\PSoC4/Cm0Start.c ****         CySysWdtDisable();
 437:Generated_Source\PSoC4/Cm0Start.c ****     #endif  /* (CY_IP_SRSSLT) */
 438:Generated_Source\PSoC4/Cm0Start.c **** 
 439:Generated_Source\PSoC4/Cm0Start.c **** #if ((CYDEV_BOOTLOADER_ENABLE) && (CYDEV_PROJ_TYPE != CYDEV_PROJ_TYPE_LOADABLEANDBOOTLOADER))
 440:Generated_Source\PSoC4/Cm0Start.c ****     CyBtldr_CheckLaunch();
 441:Generated_Source\PSoC4/Cm0Start.c **** #endif /* ((CYDEV_BOOTLOADER_ENABLE) && (CYDEV_PROJ_TYPE != CYDEV_PROJ_TYPE_LOADABLEANDBOOTLOADER))
 442:Generated_Source\PSoC4/Cm0Start.c **** 
 443:Generated_Source\PSoC4/Cm0Start.c ****     /* Initialize data sections */
 444:Generated_Source\PSoC4/Cm0Start.c ****     __iar_data_init3();
 445:Generated_Source\PSoC4/Cm0Start.c **** 
 446:Generated_Source\PSoC4/Cm0Start.c ****     initialize_psoc();
 447:Generated_Source\PSoC4/Cm0Start.c **** 
 448:Generated_Source\PSoC4/Cm0Start.c ****     return 0;
 449:Generated_Source\PSoC4/Cm0Start.c **** }
 450:Generated_Source\PSoC4/Cm0Start.c **** 
 451:Generated_Source\PSoC4/Cm0Start.c **** #endif /* __GNUC__ */
 452:Generated_Source\PSoC4/Cm0Start.c **** 
 453:Generated_Source\PSoC4/Cm0Start.c **** 
 454:Generated_Source\PSoC4/Cm0Start.c **** /*******************************************************************************
 455:Generated_Source\PSoC4/Cm0Start.c **** * Ram Interrupt Vector table storage area. Must be placed at 0x20000000.
 456:Generated_Source\PSoC4/Cm0Start.c **** *******************************************************************************/
 457:Generated_Source\PSoC4/Cm0Start.c **** 
 458:Generated_Source\PSoC4/Cm0Start.c **** #if defined (__ICCARM__)
 459:Generated_Source\PSoC4/Cm0Start.c ****     #pragma location=".ramvectors"
 460:Generated_Source\PSoC4/Cm0Start.c **** #else
 461:Generated_Source\PSoC4/Cm0Start.c ****     #ifndef CY_SYS_RAM_VECTOR_SECTION
 462:Generated_Source\PSoC4/Cm0Start.c ****         #define CY_SYS_RAM_VECTOR_SECTION CY_SECTION(".ramvectors")
 463:Generated_Source\PSoC4/Cm0Start.c ****     #endif /* CY_SYS_RAM_VECTOR_SECTION */
 464:Generated_Source\PSoC4/Cm0Start.c ****     CY_SYS_RAM_VECTOR_SECTION
 465:Generated_Source\PSoC4/Cm0Start.c **** #endif  /* defined (__ICCARM__) */
 466:Generated_Source\PSoC4/Cm0Start.c **** cyisraddress CyRamVectors[CY_NUM_VECTORS];
 467:Generated_Source\PSoC4/Cm0Start.c **** 
 468:Generated_Source\PSoC4/Cm0Start.c **** 
 469:Generated_Source\PSoC4/Cm0Start.c **** /*******************************************************************************
 470:Generated_Source\PSoC4/Cm0Start.c **** * Rom Interrupt Vector table storage area. Must be 256-byte aligned.
 471:Generated_Source\PSoC4/Cm0Start.c **** *******************************************************************************/
 472:Generated_Source\PSoC4/Cm0Start.c **** 
 473:Generated_Source\PSoC4/Cm0Start.c **** #if defined(__ARMCC_VERSION)
ARM GAS  C:\Users\TTSS\AppData\Local\Temp\ccjHhmvp.s 			page 15


 474:Generated_Source\PSoC4/Cm0Start.c ****     /* Suppress diagnostic message 1296-D: extended constant initialiser used */
 475:Generated_Source\PSoC4/Cm0Start.c ****     #pragma diag_suppress 1296
 476:Generated_Source\PSoC4/Cm0Start.c **** #endif  /* defined(__ARMCC_VERSION) */
 477:Generated_Source\PSoC4/Cm0Start.c **** 
 478:Generated_Source\PSoC4/Cm0Start.c **** #if defined (__ICCARM__)
 479:Generated_Source\PSoC4/Cm0Start.c ****     #pragma location=".romvectors"
 480:Generated_Source\PSoC4/Cm0Start.c ****     const intvec_elem __vector_table[CY_NUM_ROM_VECTORS] =
 481:Generated_Source\PSoC4/Cm0Start.c **** #else
 482:Generated_Source\PSoC4/Cm0Start.c ****     #ifndef CY_SYS_ROM_VECTOR_SECTION
 483:Generated_Source\PSoC4/Cm0Start.c ****         #define CY_SYS_ROM_VECTOR_SECTION CY_SECTION(".romvectors")
 484:Generated_Source\PSoC4/Cm0Start.c ****     #endif /* CY_SYS_ROM_VECTOR_SECTION */
 485:Generated_Source\PSoC4/Cm0Start.c ****     CY_SYS_ROM_VECTOR_SECTION
 486:Generated_Source\PSoC4/Cm0Start.c ****     const cyisraddress RomVectors[CY_NUM_ROM_VECTORS] =
 487:Generated_Source\PSoC4/Cm0Start.c **** #endif  /* defined (__ICCARM__) */
 488:Generated_Source\PSoC4/Cm0Start.c **** {
 489:Generated_Source\PSoC4/Cm0Start.c ****     CY_SYS_INITIAL_STACK_POINTER,   /* The initial stack pointer  0 */
 490:Generated_Source\PSoC4/Cm0Start.c ****     #if defined (__ICCARM__) /* The reset handler          1 */
 491:Generated_Source\PSoC4/Cm0Start.c ****         __iar_program_start,
 492:Generated_Source\PSoC4/Cm0Start.c ****     #else
 493:Generated_Source\PSoC4/Cm0Start.c ****         (cyisraddress)&Reset,
 494:Generated_Source\PSoC4/Cm0Start.c ****     #endif  /* defined (__ICCARM__) */
 495:Generated_Source\PSoC4/Cm0Start.c ****     &IntDefaultHandler,      /* The NMI handler            2 */
 496:Generated_Source\PSoC4/Cm0Start.c ****     &IntDefaultHandler,      /* The hard fault handler     3 */
 497:Generated_Source\PSoC4/Cm0Start.c **** };
 498:Generated_Source\PSoC4/Cm0Start.c **** 
 499:Generated_Source\PSoC4/Cm0Start.c **** #if defined(__ARMCC_VERSION)
 500:Generated_Source\PSoC4/Cm0Start.c ****     #pragma diag_default 1296
 501:Generated_Source\PSoC4/Cm0Start.c **** #endif  /* defined(__ARMCC_VERSION) */
 502:Generated_Source\PSoC4/Cm0Start.c **** 
 503:Generated_Source\PSoC4/Cm0Start.c **** 
 504:Generated_Source\PSoC4/Cm0Start.c **** /*******************************************************************************
 505:Generated_Source\PSoC4/Cm0Start.c **** * Function Name: initialize_psoc
 506:Generated_Source\PSoC4/Cm0Start.c **** ********************************************************************************
 507:Generated_Source\PSoC4/Cm0Start.c **** *
 508:Generated_Source\PSoC4/Cm0Start.c **** * Summary:
 509:Generated_Source\PSoC4/Cm0Start.c **** *  This function is used to initialize the PSoC chip before calling main.
 510:Generated_Source\PSoC4/Cm0Start.c **** *
 511:Generated_Source\PSoC4/Cm0Start.c **** * Parameters:
 512:Generated_Source\PSoC4/Cm0Start.c **** *  None
 513:Generated_Source\PSoC4/Cm0Start.c **** *
 514:Generated_Source\PSoC4/Cm0Start.c **** * Return:
 515:Generated_Source\PSoC4/Cm0Start.c **** *  None
 516:Generated_Source\PSoC4/Cm0Start.c **** *
 517:Generated_Source\PSoC4/Cm0Start.c **** *******************************************************************************/
 518:Generated_Source\PSoC4/Cm0Start.c **** #if(defined(__GNUC__) && !defined(__ARMCC_VERSION))
 519:Generated_Source\PSoC4/Cm0Start.c **** __attribute__ ((constructor(101)))
 520:Generated_Source\PSoC4/Cm0Start.c **** #endif  /* (defined(__GNUC__) && !defined(__ARMCC_VERSION)) */
 521:Generated_Source\PSoC4/Cm0Start.c **** void initialize_psoc(void)
 522:Generated_Source\PSoC4/Cm0Start.c **** {
 316              		.loc 1 522 0
 317              		.cfi_startproc
 318 0000 80B5     		push	{r7, lr}
 319              		.cfi_def_cfa_offset 8
 320              		.cfi_offset 7, -8
 321              		.cfi_offset 14, -4
 322 0002 82B0     		sub	sp, sp, #8
 323              		.cfi_def_cfa_offset 16
ARM GAS  C:\Users\TTSS\AppData\Local\Temp\ccjHhmvp.s 			page 16


 324 0004 00AF     		add	r7, sp, #0
 325              		.cfi_def_cfa_register 7
 523:Generated_Source\PSoC4/Cm0Start.c ****     uint32 indexInit;
 524:Generated_Source\PSoC4/Cm0Start.c **** 
 525:Generated_Source\PSoC4/Cm0Start.c ****     #if(CY_IP_CPUSSV2)
 526:Generated_Source\PSoC4/Cm0Start.c ****         /***********************************************************************
 527:Generated_Source\PSoC4/Cm0Start.c ****         * Make sure that Vector Table is located at 0000_0000 in Flash, before
 528:Generated_Source\PSoC4/Cm0Start.c ****         * accessing RomVectors or calling functions that may be placed in
 529:Generated_Source\PSoC4/Cm0Start.c ****         * .psocinit (cyfitter_cfg and ClockSetup). Note The CY_CPUSS_CONFIG_REG
 530:Generated_Source\PSoC4/Cm0Start.c ****         * register is retention for the specified device family.
 531:Generated_Source\PSoC4/Cm0Start.c ****         ***********************************************************************/
 532:Generated_Source\PSoC4/Cm0Start.c ****         CY_CPUSS_CONFIG_REG &= (uint32) ~CY_CPUSS_CONFIG_VECT_IN_RAM;
 326              		.loc 1 532 0
 327 0006 154B     		ldr	r3, .L27
 328 0008 144A     		ldr	r2, .L27
 329 000a 1268     		ldr	r2, [r2]
 330 000c 0121     		mov	r1, #1
 331 000e 8A43     		bic	r2, r1
 332 0010 1A60     		str	r2, [r3]
 533:Generated_Source\PSoC4/Cm0Start.c ****     #endif  /* (CY_IP_CPUSSV2) */
 534:Generated_Source\PSoC4/Cm0Start.c **** 
 535:Generated_Source\PSoC4/Cm0Start.c ****     /* Set Ram interrupt vectors to default functions. */
 536:Generated_Source\PSoC4/Cm0Start.c ****     for (indexInit = 0u; indexInit < CY_NUM_VECTORS; indexInit++)
 333              		.loc 1 536 0
 334 0012 0023     		mov	r3, #0
 335 0014 7B60     		str	r3, [r7, #4]
 336 0016 0FE0     		b	.L23
 337              	.L26:
 537:Generated_Source\PSoC4/Cm0Start.c ****     {
 538:Generated_Source\PSoC4/Cm0Start.c ****         CyRamVectors[indexInit] = (indexInit < CY_NUM_ROM_VECTORS) ?
 539:Generated_Source\PSoC4/Cm0Start.c ****             #if defined (__ICCARM__)
 540:Generated_Source\PSoC4/Cm0Start.c ****                 __vector_table[indexInit].__fun : &IntDefaultHandler;
 541:Generated_Source\PSoC4/Cm0Start.c ****             #else
 542:Generated_Source\PSoC4/Cm0Start.c ****                 RomVectors[indexInit] : &IntDefaultHandler;
 338              		.loc 1 542 0
 339 0018 7B68     		ldr	r3, [r7, #4]
 340 001a 032B     		cmp	r3, #3
 341 001c 04D8     		bhi	.L24
 342              		.loc 1 542 0 is_stmt 0 discriminator 1
 343 001e 104B     		ldr	r3, .L27+4
 344 0020 7A68     		ldr	r2, [r7, #4]
 345 0022 9200     		lsl	r2, r2, #2
 346 0024 D358     		ldr	r3, [r2, r3]
 347 0026 00E0     		b	.L25
 348              	.L24:
 349              		.loc 1 542 0 discriminator 2
 350 0028 0E4B     		ldr	r3, .L27+8
 351              	.L25:
 538:Generated_Source\PSoC4/Cm0Start.c ****             #if defined (__ICCARM__)
 352              		.loc 1 538 0 is_stmt 1 discriminator 2
 353 002a 0F4A     		ldr	r2, .L27+12
 354 002c 7968     		ldr	r1, [r7, #4]
 355 002e 8900     		lsl	r1, r1, #2
 356 0030 8B50     		str	r3, [r1, r2]
 536:Generated_Source\PSoC4/Cm0Start.c ****     {
 357              		.loc 1 536 0 discriminator 2
 358 0032 7B68     		ldr	r3, [r7, #4]
ARM GAS  C:\Users\TTSS\AppData\Local\Temp\ccjHhmvp.s 			page 17


 359 0034 0133     		add	r3, r3, #1
 360 0036 7B60     		str	r3, [r7, #4]
 361              	.L23:
 536:Generated_Source\PSoC4/Cm0Start.c ****     {
 362              		.loc 1 536 0 is_stmt 0 discriminator 1
 363 0038 7B68     		ldr	r3, [r7, #4]
 364 003a 2F2B     		cmp	r3, #47
 365 003c ECD9     		bls	.L26
 543:Generated_Source\PSoC4/Cm0Start.c ****             #endif  /* defined (__ICCARM__) */
 544:Generated_Source\PSoC4/Cm0Start.c ****     }
 545:Generated_Source\PSoC4/Cm0Start.c **** 
 546:Generated_Source\PSoC4/Cm0Start.c ****     /* Initialize configuration registers. */
 547:Generated_Source\PSoC4/Cm0Start.c ****     cyfitter_cfg();
 366              		.loc 1 547 0 is_stmt 1
 367 003e FFF7FEFF 		bl	cyfitter_cfg
 548:Generated_Source\PSoC4/Cm0Start.c **** 
 549:Generated_Source\PSoC4/Cm0Start.c ****     #if !defined (__ICCARM__)
 550:Generated_Source\PSoC4/Cm0Start.c ****         /* Actually, no need to clean this variable, just to make compiler happy. */
 551:Generated_Source\PSoC4/Cm0Start.c ****         cySysNoInitDataValid = 0u;
 368              		.loc 1 551 0
 369 0042 0A4B     		ldr	r3, .L27+16
 370 0044 0022     		mov	r2, #0
 371 0046 1A60     		str	r2, [r3]
 552:Generated_Source\PSoC4/Cm0Start.c ****     #endif  /* !defined (__ICCARM__) */
 553:Generated_Source\PSoC4/Cm0Start.c **** 
 554:Generated_Source\PSoC4/Cm0Start.c ****     #if (CYDEV_PROJ_TYPE != CYDEV_PROJ_TYPE_STANDARD)
 555:Generated_Source\PSoC4/Cm0Start.c **** 
 556:Generated_Source\PSoC4/Cm0Start.c ****         /* Need to make sure that this variable will not be optimized out */
 557:Generated_Source\PSoC4/Cm0Start.c ****         if (0u == cyBtldrRunType)
 558:Generated_Source\PSoC4/Cm0Start.c ****         {
 559:Generated_Source\PSoC4/Cm0Start.c ****             cyBtldrRunType = 0u;
 560:Generated_Source\PSoC4/Cm0Start.c ****         }
 561:Generated_Source\PSoC4/Cm0Start.c **** 
 562:Generated_Source\PSoC4/Cm0Start.c ****     #endif  /* (CYDEV_PROJ_TYPE != CYDEV_PROJ_TYPE_STANDARD) */
 563:Generated_Source\PSoC4/Cm0Start.c **** 
 564:Generated_Source\PSoC4/Cm0Start.c ****     /* Vector Table is located at 0x2000:0000 in SRAM */
 565:Generated_Source\PSoC4/Cm0Start.c ****     CY_CPUSS_CONFIG_REG |= CY_CPUSS_CONFIG_VECT_IN_RAM;
 372              		.loc 1 565 0
 373 0048 044B     		ldr	r3, .L27
 374 004a 044A     		ldr	r2, .L27
 375 004c 1268     		ldr	r2, [r2]
 376 004e 0121     		mov	r1, #1
 377 0050 0A43     		orr	r2, r1
 378 0052 1A60     		str	r2, [r3]
 566:Generated_Source\PSoC4/Cm0Start.c **** }
 379              		.loc 1 566 0
 380 0054 BD46     		mov	sp, r7
 381 0056 02B0     		add	sp, sp, #8
 382              		@ sp needed
 383 0058 80BD     		pop	{r7, pc}
 384              	.L28:
 385 005a C046     		.align	2
 386              	.L27:
 387 005c 00001040 		.word	1074790400
 388 0060 00000000 		.word	RomVectors
 389 0064 00000000 		.word	IntDefaultHandler
 390 0068 00000000 		.word	CyRamVectors
ARM GAS  C:\Users\TTSS\AppData\Local\Temp\ccjHhmvp.s 			page 18


 391 006c 00000000 		.word	cySysNoInitDataValid
 392              		.cfi_endproc
 393              	.LFE7:
 394              		.size	initialize_psoc, .-initialize_psoc
 395              		.section	.init_array,"aw",%init_array
 396              		.align	2
 397 0000 00000000 		.word	initialize_psoc(target1)
 398              		.data
 399              		.align	2
 400              		.type	heapPointer.4739, %object
 401              		.size	heapPointer.4739, 4
 402              	heapPointer.4739:
 403 0000 00000000 		.word	end
 404              		.weak	__cy_region_num
 405              		.text
 406              	.Letext0:
 407              		.file 2 "Generated_Source\\PSoC4\\cytypes.h"
 408              		.file 3 "c:\\program files (x86)\\cypress\\psoc creator\\4.0\\psoc creator\\import\\gnu\\arm\\4.9.