ARM GAS  C:\Users\TTSS\AppData\Local\Temp\ccoXf1ha.s 			page 1


   1              		.cpu cortex-m0
   2              		.fpu softvfp
   3              		.eabi_attribute 20, 1
   4              		.eabi_attribute 21, 1
   5              		.eabi_attribute 23, 3
   6              		.eabi_attribute 24, 1
   7              		.eabi_attribute 25, 1
   8              		.eabi_attribute 26, 1
   9              		.eabi_attribute 30, 6
  10              		.eabi_attribute 34, 0
  11              		.eabi_attribute 18, 4
  12              		.code	16
  13              		.file	"main.c"
  14              		.text
  15              	.Ltext0:
  16              		.cfi_sections	.debug_frame
  17              		.section	.text.main,"ax",%progbits
  18              		.align	2
  19              		.global	main
  20              		.code	16
  21              		.thumb_func
  22              		.type	main, %function
  23              	main:
  24              	.LFB37:
  25              		.file 1 "main.c"
   1:main.c        **** /* ========================================
   2:main.c        ****  * Air Quality Beacon, part of the hackAIR project.
   3:main.c        ****  * Freely available under CC BY 4.0
   4:main.c        ****  *
   5:main.c        ****  *
   6:main.c        ****  * Author: George Doxastakis gdoxastakis.ee@gmail.com
   7:main.c        ****  * Technology Transfer & Smart Solutions
   8:main.c        ****  * TEI of Athens
   9:main.c        ****  * http://research.ee.teiath.gr/ttss/
  10:main.c        ****  *
  11:main.c        ****  * http://www.hackair.eu/
  12:main.c        **** */
  13:main.c        **** #include <project.h>
  14:main.c        **** 
  15:main.c        **** /* Function prototypes */  
  16:main.c        **** void StackEventHandler(uint32 event, void* eventParam);
  17:main.c        **** char* readParticles();
  18:main.c        **** 
  19:main.c        **** /* ADV payload dta structure */  
  20:main.c        **** extern CYBLE_GAPP_DISC_MODE_INFO_T cyBle_discoveryModeInfo;
  21:main.c        **** #define advPayload   (cyBle_discoveryModeInfo.advData->advData) 
  22:main.c        **** 
  23:main.c        **** 
  24:main.c        **** int main()
  25:main.c        **** {
  26              		.loc 1 25 0
  27              		.cfi_startproc
  28 0000 80B5     		push	{r7, lr}
  29              		.cfi_def_cfa_offset 8
  30              		.cfi_offset 7, -8
  31              		.cfi_offset 14, -4
  32 0002 82B0     		sub	sp, sp, #8
ARM GAS  C:\Users\TTSS\AppData\Local\Temp\ccoXf1ha.s 			page 2


  33              		.cfi_def_cfa_offset 16
  34 0004 00AF     		add	r7, sp, #0
  35              		.cfi_def_cfa_register 7
  26:main.c        ****     CyGlobalIntEnable; /* Enable global interrupts. */
  36              		.loc 1 26 0
  37              	@ 26 "main.c" 1
  38 0006 62B6     		CPSIE   i
  39              	@ 0 "" 2
  27:main.c        ****     Serial_Start();
  40              		.loc 1 27 0
  41              		.code	16
  42 0008 FFF7FEFF 		bl	Serial_Start
  28:main.c        ****     /* Start CYBLE component and register the generic event handler */
  29:main.c        ****     CyBle_Start(StackEventHandler);
  43              		.loc 1 29 0
  44 000c 1D4B     		ldr	r3, .L3
  45 000e 181C     		mov	r0, r3
  46 0010 FFF7FEFF 		bl	CyBle_Start
  47              	.L2:
  48              	.LBB2:
  30:main.c        ****     
  31:main.c        ****     for(;;)
  32:main.c        ****     {
  33:main.c        ****         char *val=readParticles(); //Perform sensor measurement (waits for result)
  49              		.loc 1 33 0 discriminator 1
  50 0014 FFF7FEFF 		bl	readParticles
  51 0018 031C     		mov	r3, r0
  52 001a 7B60     		str	r3, [r7, #4]
  34:main.c        ****          
  35:main.c        ****         /* Dynamic payload will be continuously updated */
  36:main.c        ****         advPayload[19] =  0x01; //Sensor ID: 0x01 for SEN0177
  53              		.loc 1 36 0 discriminator 1
  54 001c 1A4B     		ldr	r3, .L3+4
  55 001e 9B68     		ldr	r3, [r3, #8]
  56 0020 0122     		mov	r2, #1
  57 0022 DA74     		strb	r2, [r3, #19]
  37:main.c        ****         advPayload[23] =  val[4]; //High byte of PM1 value
  58              		.loc 1 37 0 discriminator 1
  59 0024 184B     		ldr	r3, .L3+4
  60 0026 9B68     		ldr	r3, [r3, #8]
  61 0028 7A68     		ldr	r2, [r7, #4]
  62 002a 0432     		add	r2, r2, #4
  63 002c 1278     		ldrb	r2, [r2]
  64 002e DA75     		strb	r2, [r3, #23]
  38:main.c        ****         advPayload[24] =  val[5]; //Low byte of PM1 value
  65              		.loc 1 38 0 discriminator 1
  66 0030 154B     		ldr	r3, .L3+4
  67 0032 9B68     		ldr	r3, [r3, #8]
  68 0034 7A68     		ldr	r2, [r7, #4]
  69 0036 0532     		add	r2, r2, #5
  70 0038 1278     		ldrb	r2, [r2]
  71 003a 1A76     		strb	r2, [r3, #24]
  39:main.c        ****         advPayload[25] =  val[6]; //High byte of PM2.5 value
  72              		.loc 1 39 0 discriminator 1
  73 003c 124B     		ldr	r3, .L3+4
  74 003e 9B68     		ldr	r3, [r3, #8]
  75 0040 7A68     		ldr	r2, [r7, #4]
ARM GAS  C:\Users\TTSS\AppData\Local\Temp\ccoXf1ha.s 			page 3


  76 0042 0632     		add	r2, r2, #6
  77 0044 1278     		ldrb	r2, [r2]
  78 0046 5A76     		strb	r2, [r3, #25]
  40:main.c        ****         advPayload[26] =  val[7]; //Low byte of PM2.5 value
  79              		.loc 1 40 0 discriminator 1
  80 0048 0F4B     		ldr	r3, .L3+4
  81 004a 9B68     		ldr	r3, [r3, #8]
  82 004c 7A68     		ldr	r2, [r7, #4]
  83 004e 0732     		add	r2, r2, #7
  84 0050 1278     		ldrb	r2, [r2]
  85 0052 9A76     		strb	r2, [r3, #26]
  41:main.c        ****         advPayload[27] =  val[8]; //High byte of PM10 value
  86              		.loc 1 41 0 discriminator 1
  87 0054 0C4B     		ldr	r3, .L3+4
  88 0056 9B68     		ldr	r3, [r3, #8]
  89 0058 7A68     		ldr	r2, [r7, #4]
  90 005a 0832     		add	r2, r2, #8
  91 005c 1278     		ldrb	r2, [r2]
  92 005e DA76     		strb	r2, [r3, #27]
  42:main.c        ****         advPayload[28] =  val[9]; //Low byte of PM10 value
  93              		.loc 1 42 0 discriminator 1
  94 0060 094B     		ldr	r3, .L3+4
  95 0062 9B68     		ldr	r3, [r3, #8]
  96 0064 7A68     		ldr	r2, [r7, #4]
  97 0066 0932     		add	r2, r2, #9
  98 0068 1278     		ldrb	r2, [r2]
  99 006a 1A77     		strb	r2, [r3, #28]
  43:main.c        ****         CyBle_GapUpdateAdvData(cyBle_discoveryModeInfo.advData, cyBle_discoveryModeInfo.scanRspData
 100              		.loc 1 43 0 discriminator 1
 101 006c 064B     		ldr	r3, .L3+4
 102 006e 9A68     		ldr	r2, [r3, #8]
 103 0070 054B     		ldr	r3, .L3+4
 104 0072 DB68     		ldr	r3, [r3, #12]
 105 0074 101C     		mov	r0, r2
 106 0076 191C     		mov	r1, r3
 107 0078 FFF7FEFF 		bl	CyBle_GapUpdateAdvData
  44:main.c        ****         CyBle_ProcessEvents();
 108              		.loc 1 44 0 discriminator 1
 109 007c FFF7FEFF 		bl	CyBle_ProcessEvents
 110              	.LBE2:
  45:main.c        ****     }
 111              		.loc 1 45 0 discriminator 1
 112 0080 C8E7     		b	.L2
 113              	.L4:
 114 0082 C046     		.align	2
 115              	.L3:
 116 0084 00000000 		.word	StackEventHandler
 117 0088 00000000 		.word	cyBle_discoveryModeInfo
 118              		.cfi_endproc
 119              	.LFE37:
 120              		.size	main, .-main
 121              		.section	.text.StackEventHandler,"ax",%progbits
 122              		.align	2
 123              		.global	StackEventHandler
 124              		.code	16
 125              		.thumb_func
 126              		.type	StackEventHandler, %function
ARM GAS  C:\Users\TTSS\AppData\Local\Temp\ccoXf1ha.s 			page 4


 127              	StackEventHandler:
 128              	.LFB38:
  46:main.c        **** }
  47:main.c        **** 
  48:main.c        **** void StackEventHandler(uint32 event, void *eventParam)
  49:main.c        **** {
 129              		.loc 1 49 0
 130              		.cfi_startproc
 131 0000 80B5     		push	{r7, lr}
 132              		.cfi_def_cfa_offset 8
 133              		.cfi_offset 7, -8
 134              		.cfi_offset 14, -4
 135 0002 82B0     		sub	sp, sp, #8
 136              		.cfi_def_cfa_offset 16
 137 0004 00AF     		add	r7, sp, #0
 138              		.cfi_def_cfa_register 7
 139 0006 7860     		str	r0, [r7, #4]
 140 0008 3960     		str	r1, [r7]
  50:main.c        ****     switch(event)
 141              		.loc 1 50 0
 142 000a 7B68     		ldr	r3, [r7, #4]
 143 000c 012B     		cmp	r3, #1
 144 000e 00D0     		beq	.L7
  51:main.c        ****     {
  52:main.c        ****         
  53:main.c        **** 		case CYBLE_EVT_STACK_ON:
  54:main.c        **** 			/* BLE stack is on. Start BLE advertisement */   
  55:main.c        **** 			CyBle_GappStartAdvertisement(CYBLE_ADVERTISING_FAST);
  56:main.c        **** 		    break;
  57:main.c        **** 		
  58:main.c        ****         default:
  59:main.c        ****             break;
 145              		.loc 1 59 0
 146 0010 03E0     		b	.L5
 147              	.L7:
  55:main.c        **** 		    break;
 148              		.loc 1 55 0
 149 0012 0020     		mov	r0, #0
 150 0014 FFF7FEFF 		bl	CyBle_GappStartAdvertisement
  56:main.c        **** 		
 151              		.loc 1 56 0
 152 0018 C046     		mov	r8, r8
 153              	.L5:
  60:main.c        ****     }   	
  61:main.c        **** 
  62:main.c        **** }
 154              		.loc 1 62 0
 155 001a BD46     		mov	sp, r7
 156 001c 02B0     		add	sp, sp, #8
 157              		@ sp needed
 158 001e 80BD     		pop	{r7, pc}
 159              		.cfi_endproc
 160              	.LFE38:
 161              		.size	StackEventHandler, .-StackEventHandler
 162              		.section	.text.readParticles,"ax",%progbits
 163              		.align	2
 164              		.global	readParticles
ARM GAS  C:\Users\TTSS\AppData\Local\Temp\ccoXf1ha.s 			page 5


 165              		.code	16
 166              		.thumb_func
 167              		.type	readParticles, %function
 168              	readParticles:
 169              	.LFB39:
  63:main.c        **** 
  64:main.c        **** /*******************************************************************
  65:main.c        **** * NAME :            char* readParticles()
  66:main.c        **** *
  67:main.c        **** * DESCRIPTION :     Read sensor measurement
  68:main.c        **** * OUTPUTS :
  69:main.c        **** *       char* Sensor TX packet
  70:main.c        **** */
  71:main.c        **** char* readParticles(){
 170              		.loc 1 71 0
 171              		.cfi_startproc
 172 0000 80B5     		push	{r7, lr}
 173              		.cfi_def_cfa_offset 8
 174              		.cfi_offset 7, -8
 175              		.cfi_offset 14, -4
 176 0002 82B0     		sub	sp, sp, #8
 177              		.cfi_def_cfa_offset 16
 178 0004 00AF     		add	r7, sp, #0
 179              		.cfi_def_cfa_register 7
  72:main.c        ****     int idx;
  73:main.c        ****     static char senData[32];
  74:main.c        ****     senData[0]=0x42;
 180              		.loc 1 74 0
 181 0006 114B     		ldr	r3, .L14
 182 0008 4222     		mov	r2, #66
 183 000a 1A70     		strb	r2, [r3]
  75:main.c        ****     while(Serial_UartGetChar()!= 0x42); // Wait for start character
 184              		.loc 1 75 0
 185 000c C046     		mov	r8, r8
 186              	.L10:
 187              		.loc 1 75 0 is_stmt 0 discriminator 1
 188 000e FFF7FEFF 		bl	Serial_UartGetChar
 189 0012 031E     		sub	r3, r0, #0
 190 0014 422B     		cmp	r3, #66
 191 0016 FAD1     		bne	.L10
  76:main.c        ****     for(idx=1;idx<32;idx++){ // Read TX packet
 192              		.loc 1 76 0 is_stmt 1
 193 0018 0123     		mov	r3, #1
 194 001a 7B60     		str	r3, [r7, #4]
 195 001c 0EE0     		b	.L11
 196              	.L12:
  77:main.c        ****         CyDelay(10); // Wait for data
 197              		.loc 1 77 0 discriminator 3
 198 001e 0A20     		mov	r0, #10
 199 0020 FFF7FEFF 		bl	CyDelay
  78:main.c        ****         senData[idx]=Serial_UartGetChar();// Get next byte
 200              		.loc 1 78 0 discriminator 3
 201 0024 FFF7FEFF 		bl	Serial_UartGetChar
 202 0028 031C     		mov	r3, r0
 203 002a D9B2     		uxtb	r1, r3
 204 002c 074A     		ldr	r2, .L14
 205 002e 7B68     		ldr	r3, [r7, #4]
ARM GAS  C:\Users\TTSS\AppData\Local\Temp\ccoXf1ha.s 			page 6


 206 0030 D318     		add	r3, r2, r3
 207 0032 0A1C     		add	r2, r1, #0
 208 0034 1A70     		strb	r2, [r3]
  76:main.c        ****     for(idx=1;idx<32;idx++){ // Read TX packet
 209              		.loc 1 76 0 discriminator 3
 210 0036 7B68     		ldr	r3, [r7, #4]
 211 0038 0133     		add	r3, r3, #1
 212 003a 7B60     		str	r3, [r7, #4]
 213              	.L11:
  76:main.c        ****     for(idx=1;idx<32;idx++){ // Read TX packet
 214              		.loc 1 76 0 is_stmt 0 discriminator 1
 215 003c 7B68     		ldr	r3, [r7, #4]
 216 003e 1F2B     		cmp	r3, #31
 217 0040 EDDD     		ble	.L12
  79:main.c        ****     }
  80:main.c        ****     return senData;
 218              		.loc 1 80 0 is_stmt 1
 219 0042 024B     		ldr	r3, .L14
  81:main.c        **** }
 220              		.loc 1 81 0
 221 0044 181C     		mov	r0, r3
 222 0046 BD46     		mov	sp, r7
 223 0048 02B0     		add	sp, sp, #8
 224              		@ sp needed
 225 004a 80BD     		pop	{r7, pc}
 226              	.L15:
 227              		.align	2
 228              	.L14:
 229 004c 00000000 		.word	senData.6512
 230              		.cfi_endproc
 231              	.LFE39:
 232              		.size	readParticles, .-readParticles
 233              		.bss
 234              		.align	2
 235              	senData.6512:
 236 0000 00000000 		.space	32
 236      00000000 
 236      00000000 
 236      00000000 
 236      00000000 
 237              		.text
 238              	.Letext0:
 239              		.file 2 "Generated_Source\\PSoC4/cytypes.h"
 240              		.file 3 "Generated_Source\\PSoC4/BLE_Stack.h"
 241              		.file 4 "Generated_Source\\PSoC4/BLE_StackGap.h"