ARM GAS  C:\Users\TTSS\AppData\Local\Temp\cc37lGYw.s 			page 1


   1              		.cpu cortex-m0
   2              		.fpu softvfp
   3              		.eabi_attribute 20, 1
   4              		.eabi_attribute 21, 1
   5              		.eabi_attribute 23, 3
   6              		.eabi_attribute 24, 1
   7              		.eabi_attribute 25, 1
   8              		.eabi_attribute 26, 1
   9              		.eabi_attribute 30, 6
  10              		.eabi_attribute 34, 0
  11              		.eabi_attribute 18, 4
  12              		.code	16
  13              		.file	"Serial_SPI_UART.c"
  14              		.text
  15              	.Ltext0:
  16              		.cfi_sections	.debug_frame
  17              		.comm	Serial_rxBufferHead,4,4
  18              		.comm	Serial_rxBufferTail,4,4
  19              		.comm	Serial_rxBufferOverflow,1,1
  20              		.comm	Serial_rxBufferInternal,36,4
  21              		.section	.text.Serial_SpiUartReadRxData,"ax",%progbits
  22              		.align	2
  23              		.global	Serial_SpiUartReadRxData
  24              		.code	16
  25              		.thumb_func
  26              		.type	Serial_SpiUartReadRxData, %function
  27              	Serial_SpiUartReadRxData:
  28              	.LFB2:
  29              		.file 1 "Generated_Source\\PSoC4\\Serial_SPI_UART.c"
   1:Generated_Source\PSoC4/Serial_SPI_UART.c **** /*******************************************************************************
   2:Generated_Source\PSoC4/Serial_SPI_UART.c **** * File Name: Serial_SPI_UART.c
   3:Generated_Source\PSoC4/Serial_SPI_UART.c **** * Version 3.10
   4:Generated_Source\PSoC4/Serial_SPI_UART.c **** *
   5:Generated_Source\PSoC4/Serial_SPI_UART.c **** * Description:
   6:Generated_Source\PSoC4/Serial_SPI_UART.c **** *  This file provides the source code to the API for the SCB Component in
   7:Generated_Source\PSoC4/Serial_SPI_UART.c **** *  SPI and UART modes.
   8:Generated_Source\PSoC4/Serial_SPI_UART.c **** *
   9:Generated_Source\PSoC4/Serial_SPI_UART.c **** * Note:
  10:Generated_Source\PSoC4/Serial_SPI_UART.c **** *
  11:Generated_Source\PSoC4/Serial_SPI_UART.c **** *******************************************************************************
  12:Generated_Source\PSoC4/Serial_SPI_UART.c **** * Copyright 2013-2015, Cypress Semiconductor Corporation.  All rights reserved.
  13:Generated_Source\PSoC4/Serial_SPI_UART.c **** * You may use this file only in accordance with the license, terms, conditions,
  14:Generated_Source\PSoC4/Serial_SPI_UART.c **** * disclaimers, and limitations in the end user license agreement accompanying
  15:Generated_Source\PSoC4/Serial_SPI_UART.c **** * the software package with which this file was provided.
  16:Generated_Source\PSoC4/Serial_SPI_UART.c **** *******************************************************************************/
  17:Generated_Source\PSoC4/Serial_SPI_UART.c **** 
  18:Generated_Source\PSoC4/Serial_SPI_UART.c **** #include "Serial_PVT.h"
  19:Generated_Source\PSoC4/Serial_SPI_UART.c **** #include "Serial_SPI_UART_PVT.h"
  20:Generated_Source\PSoC4/Serial_SPI_UART.c **** 
  21:Generated_Source\PSoC4/Serial_SPI_UART.c **** /***************************************
  22:Generated_Source\PSoC4/Serial_SPI_UART.c **** *        SPI/UART Private Vars
  23:Generated_Source\PSoC4/Serial_SPI_UART.c **** ***************************************/
  24:Generated_Source\PSoC4/Serial_SPI_UART.c **** 
  25:Generated_Source\PSoC4/Serial_SPI_UART.c **** #if(Serial_INTERNAL_RX_SW_BUFFER_CONST)
  26:Generated_Source\PSoC4/Serial_SPI_UART.c ****     volatile uint32 Serial_rxBufferHead;
  27:Generated_Source\PSoC4/Serial_SPI_UART.c ****     volatile uint32 Serial_rxBufferTail;
  28:Generated_Source\PSoC4/Serial_SPI_UART.c ****     volatile uint8  Serial_rxBufferOverflow;
ARM GAS  C:\Users\TTSS\AppData\Local\Temp\cc37lGYw.s 			page 2


  29:Generated_Source\PSoC4/Serial_SPI_UART.c **** #endif /* (Serial_INTERNAL_RX_SW_BUFFER_CONST) */
  30:Generated_Source\PSoC4/Serial_SPI_UART.c **** 
  31:Generated_Source\PSoC4/Serial_SPI_UART.c **** #if(Serial_INTERNAL_TX_SW_BUFFER_CONST)
  32:Generated_Source\PSoC4/Serial_SPI_UART.c ****     volatile uint32 Serial_txBufferHead;
  33:Generated_Source\PSoC4/Serial_SPI_UART.c ****     volatile uint32 Serial_txBufferTail;
  34:Generated_Source\PSoC4/Serial_SPI_UART.c **** #endif /* (Serial_INTERNAL_TX_SW_BUFFER_CONST) */
  35:Generated_Source\PSoC4/Serial_SPI_UART.c **** 
  36:Generated_Source\PSoC4/Serial_SPI_UART.c **** #if(Serial_INTERNAL_RX_SW_BUFFER)
  37:Generated_Source\PSoC4/Serial_SPI_UART.c ****     /* Add one element to the buffer to receive full packet. One byte in receive buffer is always e
  38:Generated_Source\PSoC4/Serial_SPI_UART.c ****     volatile uint8 Serial_rxBufferInternal[Serial_INTERNAL_RX_BUFFER_SIZE];
  39:Generated_Source\PSoC4/Serial_SPI_UART.c **** #endif /* (Serial_INTERNAL_RX_SW_BUFFER) */
  40:Generated_Source\PSoC4/Serial_SPI_UART.c **** 
  41:Generated_Source\PSoC4/Serial_SPI_UART.c **** #if(Serial_INTERNAL_TX_SW_BUFFER)
  42:Generated_Source\PSoC4/Serial_SPI_UART.c ****     volatile uint8 Serial_txBufferInternal[Serial_TX_BUFFER_SIZE];
  43:Generated_Source\PSoC4/Serial_SPI_UART.c **** #endif /* (Serial_INTERNAL_TX_SW_BUFFER) */
  44:Generated_Source\PSoC4/Serial_SPI_UART.c **** 
  45:Generated_Source\PSoC4/Serial_SPI_UART.c **** 
  46:Generated_Source\PSoC4/Serial_SPI_UART.c **** #if(Serial_RX_DIRECTION)
  47:Generated_Source\PSoC4/Serial_SPI_UART.c ****     /*******************************************************************************
  48:Generated_Source\PSoC4/Serial_SPI_UART.c ****     * Function Name: Serial_SpiUartReadRxData
  49:Generated_Source\PSoC4/Serial_SPI_UART.c ****     ********************************************************************************
  50:Generated_Source\PSoC4/Serial_SPI_UART.c ****     *
  51:Generated_Source\PSoC4/Serial_SPI_UART.c ****     * Summary:
  52:Generated_Source\PSoC4/Serial_SPI_UART.c ****     *  Retrieves the next data element from the receive buffer.
  53:Generated_Source\PSoC4/Serial_SPI_UART.c ****     *   - RX software buffer is disabled: Returns data element retrieved from
  54:Generated_Source\PSoC4/Serial_SPI_UART.c ****     *     RX FIFO. Undefined data will be returned if the RX FIFO is empty.
  55:Generated_Source\PSoC4/Serial_SPI_UART.c ****     *   - RX software buffer is enabled: Returns data element from the software
  56:Generated_Source\PSoC4/Serial_SPI_UART.c ****     *     receive buffer. Zero value is returned if the software receive buffer
  57:Generated_Source\PSoC4/Serial_SPI_UART.c ****     *     is empty.
  58:Generated_Source\PSoC4/Serial_SPI_UART.c ****     *
  59:Generated_Source\PSoC4/Serial_SPI_UART.c ****     * Parameters:
  60:Generated_Source\PSoC4/Serial_SPI_UART.c ****     *  None
  61:Generated_Source\PSoC4/Serial_SPI_UART.c ****     *
  62:Generated_Source\PSoC4/Serial_SPI_UART.c ****     * Return:
  63:Generated_Source\PSoC4/Serial_SPI_UART.c ****     *  Next data element from the receive buffer.
  64:Generated_Source\PSoC4/Serial_SPI_UART.c ****     *
  65:Generated_Source\PSoC4/Serial_SPI_UART.c ****     * Global Variables:
  66:Generated_Source\PSoC4/Serial_SPI_UART.c ****     *  Look into Serial_SpiInit for description.
  67:Generated_Source\PSoC4/Serial_SPI_UART.c ****     *
  68:Generated_Source\PSoC4/Serial_SPI_UART.c ****     *******************************************************************************/
  69:Generated_Source\PSoC4/Serial_SPI_UART.c ****     uint32 Serial_SpiUartReadRxData(void)
  70:Generated_Source\PSoC4/Serial_SPI_UART.c ****     {
  30              		.loc 1 70 0
  31              		.cfi_startproc
  32 0000 80B5     		push	{r7, lr}
  33              		.cfi_def_cfa_offset 8
  34              		.cfi_offset 7, -8
  35              		.cfi_offset 14, -4
  36 0002 82B0     		sub	sp, sp, #8
  37              		.cfi_def_cfa_offset 16
  38 0004 00AF     		add	r7, sp, #0
  39              		.cfi_def_cfa_register 7
  71:Generated_Source\PSoC4/Serial_SPI_UART.c ****         uint32 rxData = 0u;
  40              		.loc 1 71 0
  41 0006 0023     		mov	r3, #0
  42 0008 7B60     		str	r3, [r7, #4]
  72:Generated_Source\PSoC4/Serial_SPI_UART.c **** 
ARM GAS  C:\Users\TTSS\AppData\Local\Temp\cc37lGYw.s 			page 3


  73:Generated_Source\PSoC4/Serial_SPI_UART.c ****     #if (Serial_INTERNAL_RX_SW_BUFFER_CONST)
  74:Generated_Source\PSoC4/Serial_SPI_UART.c ****         uint32 locTail;
  75:Generated_Source\PSoC4/Serial_SPI_UART.c ****     #endif /* (Serial_INTERNAL_RX_SW_BUFFER_CONST) */
  76:Generated_Source\PSoC4/Serial_SPI_UART.c **** 
  77:Generated_Source\PSoC4/Serial_SPI_UART.c ****         #if (Serial_CHECK_RX_SW_BUFFER)
  78:Generated_Source\PSoC4/Serial_SPI_UART.c ****         {
  79:Generated_Source\PSoC4/Serial_SPI_UART.c ****             if (Serial_rxBufferHead != Serial_rxBufferTail)
  43              		.loc 1 79 0
  44 000a 0E4B     		ldr	r3, .L5
  45 000c 1A68     		ldr	r2, [r3]
  46 000e 0E4B     		ldr	r3, .L5+4
  47 0010 1B68     		ldr	r3, [r3]
  48 0012 9A42     		cmp	r2, r3
  49 0014 11D0     		beq	.L2
  80:Generated_Source\PSoC4/Serial_SPI_UART.c ****             {
  81:Generated_Source\PSoC4/Serial_SPI_UART.c ****                 /* There is data in RX software buffer */
  82:Generated_Source\PSoC4/Serial_SPI_UART.c **** 
  83:Generated_Source\PSoC4/Serial_SPI_UART.c ****                 /* Calculate index to read from */
  84:Generated_Source\PSoC4/Serial_SPI_UART.c ****                 locTail = (Serial_rxBufferTail + 1u);
  50              		.loc 1 84 0
  51 0016 0C4B     		ldr	r3, .L5+4
  52 0018 1B68     		ldr	r3, [r3]
  53 001a 0133     		add	r3, r3, #1
  54 001c 3B60     		str	r3, [r7]
  85:Generated_Source\PSoC4/Serial_SPI_UART.c **** 
  86:Generated_Source\PSoC4/Serial_SPI_UART.c ****                 if (Serial_INTERNAL_RX_BUFFER_SIZE == locTail)
  55              		.loc 1 86 0
  56 001e 3B68     		ldr	r3, [r7]
  57 0020 242B     		cmp	r3, #36
  58 0022 01D1     		bne	.L3
  87:Generated_Source\PSoC4/Serial_SPI_UART.c ****                 {
  88:Generated_Source\PSoC4/Serial_SPI_UART.c ****                     locTail = 0u;
  59              		.loc 1 88 0
  60 0024 0023     		mov	r3, #0
  61 0026 3B60     		str	r3, [r7]
  62              	.L3:
  89:Generated_Source\PSoC4/Serial_SPI_UART.c ****                 }
  90:Generated_Source\PSoC4/Serial_SPI_UART.c **** 
  91:Generated_Source\PSoC4/Serial_SPI_UART.c ****                 /* Get data from RX software buffer */
  92:Generated_Source\PSoC4/Serial_SPI_UART.c ****                 rxData = Serial_GetWordFromRxBuffer(locTail);
  63              		.loc 1 92 0
  64 0028 084A     		ldr	r2, .L5+8
  65 002a 3B68     		ldr	r3, [r7]
  66 002c D318     		add	r3, r2, r3
  67 002e 1B78     		ldrb	r3, [r3]
  68 0030 DBB2     		uxtb	r3, r3
  69 0032 7B60     		str	r3, [r7, #4]
  93:Generated_Source\PSoC4/Serial_SPI_UART.c **** 
  94:Generated_Source\PSoC4/Serial_SPI_UART.c ****                 /* Change index in the buffer */
  95:Generated_Source\PSoC4/Serial_SPI_UART.c ****                 Serial_rxBufferTail = locTail;
  70              		.loc 1 95 0
  71 0034 044B     		ldr	r3, .L5+4
  72 0036 3A68     		ldr	r2, [r7]
  73 0038 1A60     		str	r2, [r3]
  74              	.L2:
  96:Generated_Source\PSoC4/Serial_SPI_UART.c **** 
  97:Generated_Source\PSoC4/Serial_SPI_UART.c ****                 #if (Serial_CHECK_UART_RTS_CONTROL_FLOW)
ARM GAS  C:\Users\TTSS\AppData\Local\Temp\cc37lGYw.s 			page 4


  98:Generated_Source\PSoC4/Serial_SPI_UART.c ****                 {
  99:Generated_Source\PSoC4/Serial_SPI_UART.c ****                     /* Check if RX Not Empty is disabled in the interrupt */
 100:Generated_Source\PSoC4/Serial_SPI_UART.c ****                     if (0u == (Serial_INTR_RX_MASK_REG & Serial_INTR_RX_NOT_EMPTY))
 101:Generated_Source\PSoC4/Serial_SPI_UART.c ****                     {
 102:Generated_Source\PSoC4/Serial_SPI_UART.c ****                         /* Enable RX Not Empty interrupt source to continue
 103:Generated_Source\PSoC4/Serial_SPI_UART.c ****                         * receiving data into software buffer.
 104:Generated_Source\PSoC4/Serial_SPI_UART.c ****                         */
 105:Generated_Source\PSoC4/Serial_SPI_UART.c ****                         Serial_INTR_RX_MASK_REG |= Serial_INTR_RX_NOT_EMPTY;
 106:Generated_Source\PSoC4/Serial_SPI_UART.c ****                     }
 107:Generated_Source\PSoC4/Serial_SPI_UART.c ****                 }
 108:Generated_Source\PSoC4/Serial_SPI_UART.c ****                 #endif
 109:Generated_Source\PSoC4/Serial_SPI_UART.c **** 
 110:Generated_Source\PSoC4/Serial_SPI_UART.c ****             }
 111:Generated_Source\PSoC4/Serial_SPI_UART.c ****         }
 112:Generated_Source\PSoC4/Serial_SPI_UART.c ****         #else
 113:Generated_Source\PSoC4/Serial_SPI_UART.c ****         {
 114:Generated_Source\PSoC4/Serial_SPI_UART.c ****             /* Read data from RX FIFO */
 115:Generated_Source\PSoC4/Serial_SPI_UART.c ****             rxData = Serial_RX_FIFO_RD_REG;
 116:Generated_Source\PSoC4/Serial_SPI_UART.c ****         }
 117:Generated_Source\PSoC4/Serial_SPI_UART.c ****         #endif
 118:Generated_Source\PSoC4/Serial_SPI_UART.c **** 
 119:Generated_Source\PSoC4/Serial_SPI_UART.c ****         return (rxData);
  75              		.loc 1 119 0
  76 003a 7B68     		ldr	r3, [r7, #4]
 120:Generated_Source\PSoC4/Serial_SPI_UART.c ****     }
  77              		.loc 1 120 0
  78 003c 181C     		mov	r0, r3
  79 003e BD46     		mov	sp, r7
  80 0040 02B0     		add	sp, sp, #8
  81              		@ sp needed
  82 0042 80BD     		pop	{r7, pc}
  83              	.L6:
  84              		.align	2
  85              	.L5:
  86 0044 00000000 		.word	Serial_rxBufferHead
  87 0048 00000000 		.word	Serial_rxBufferTail
  88 004c 00000000 		.word	Serial_rxBufferInternal
  89              		.cfi_endproc
  90              	.LFE2:
  91              		.size	Serial_SpiUartReadRxData, .-Serial_SpiUartReadRxData
  92              		.section	.text.Serial_SpiUartGetRxBufferSize,"ax",%progbits
  93              		.align	2
  94              		.global	Serial_SpiUartGetRxBufferSize
  95              		.code	16
  96              		.thumb_func
  97              		.type	Serial_SpiUartGetRxBufferSize, %function
  98              	Serial_SpiUartGetRxBufferSize:
  99              	.LFB3:
 121:Generated_Source\PSoC4/Serial_SPI_UART.c **** 
 122:Generated_Source\PSoC4/Serial_SPI_UART.c **** 
 123:Generated_Source\PSoC4/Serial_SPI_UART.c ****     /*******************************************************************************
 124:Generated_Source\PSoC4/Serial_SPI_UART.c ****     * Function Name: Serial_SpiUartGetRxBufferSize
 125:Generated_Source\PSoC4/Serial_SPI_UART.c ****     ********************************************************************************
 126:Generated_Source\PSoC4/Serial_SPI_UART.c ****     *
 127:Generated_Source\PSoC4/Serial_SPI_UART.c ****     * Summary:
 128:Generated_Source\PSoC4/Serial_SPI_UART.c ****     *  Returns the number of received data elements in the receive buffer.
 129:Generated_Source\PSoC4/Serial_SPI_UART.c ****     *   - RX software buffer disabled: returns the number of used entries in
ARM GAS  C:\Users\TTSS\AppData\Local\Temp\cc37lGYw.s 			page 5


 130:Generated_Source\PSoC4/Serial_SPI_UART.c ****     *     RX FIFO.
 131:Generated_Source\PSoC4/Serial_SPI_UART.c ****     *   - RX software buffer enabled: returns the number of elements which were
 132:Generated_Source\PSoC4/Serial_SPI_UART.c ****     *     placed in the receive buffer. This does not include the hardware RX FIFO.
 133:Generated_Source\PSoC4/Serial_SPI_UART.c ****     *
 134:Generated_Source\PSoC4/Serial_SPI_UART.c ****     * Parameters:
 135:Generated_Source\PSoC4/Serial_SPI_UART.c ****     *  None
 136:Generated_Source\PSoC4/Serial_SPI_UART.c ****     *
 137:Generated_Source\PSoC4/Serial_SPI_UART.c ****     * Return:
 138:Generated_Source\PSoC4/Serial_SPI_UART.c ****     *  Number of received data elements
 139:Generated_Source\PSoC4/Serial_SPI_UART.c ****     *
 140:Generated_Source\PSoC4/Serial_SPI_UART.c ****     *******************************************************************************/
 141:Generated_Source\PSoC4/Serial_SPI_UART.c ****     uint32 Serial_SpiUartGetRxBufferSize(void)
 142:Generated_Source\PSoC4/Serial_SPI_UART.c ****     {
 100              		.loc 1 142 0
 101              		.cfi_startproc
 102 0000 80B5     		push	{r7, lr}
 103              		.cfi_def_cfa_offset 8
 104              		.cfi_offset 7, -8
 105              		.cfi_offset 14, -4
 106 0002 82B0     		sub	sp, sp, #8
 107              		.cfi_def_cfa_offset 16
 108 0004 00AF     		add	r7, sp, #0
 109              		.cfi_def_cfa_register 7
 143:Generated_Source\PSoC4/Serial_SPI_UART.c ****         uint32 size;
 144:Generated_Source\PSoC4/Serial_SPI_UART.c ****     #if (Serial_INTERNAL_RX_SW_BUFFER_CONST)
 145:Generated_Source\PSoC4/Serial_SPI_UART.c ****         uint32 locHead;
 146:Generated_Source\PSoC4/Serial_SPI_UART.c ****     #endif /* (Serial_INTERNAL_RX_SW_BUFFER_CONST) */
 147:Generated_Source\PSoC4/Serial_SPI_UART.c **** 
 148:Generated_Source\PSoC4/Serial_SPI_UART.c ****         #if (Serial_CHECK_RX_SW_BUFFER)
 149:Generated_Source\PSoC4/Serial_SPI_UART.c ****         {
 150:Generated_Source\PSoC4/Serial_SPI_UART.c ****             locHead = Serial_rxBufferHead;
 110              		.loc 1 150 0
 111 0006 0C4B     		ldr	r3, .L11
 112 0008 1B68     		ldr	r3, [r3]
 113 000a 3B60     		str	r3, [r7]
 151:Generated_Source\PSoC4/Serial_SPI_UART.c **** 
 152:Generated_Source\PSoC4/Serial_SPI_UART.c ****             if(locHead >= Serial_rxBufferTail)
 114              		.loc 1 152 0
 115 000c 0B4B     		ldr	r3, .L11+4
 116 000e 1B68     		ldr	r3, [r3]
 117 0010 3A68     		ldr	r2, [r7]
 118 0012 9A42     		cmp	r2, r3
 119 0014 05D3     		bcc	.L8
 153:Generated_Source\PSoC4/Serial_SPI_UART.c ****             {
 154:Generated_Source\PSoC4/Serial_SPI_UART.c ****                 size = (locHead - Serial_rxBufferTail);
 120              		.loc 1 154 0
 121 0016 094B     		ldr	r3, .L11+4
 122 0018 1B68     		ldr	r3, [r3]
 123 001a 3A68     		ldr	r2, [r7]
 124 001c D31A     		sub	r3, r2, r3
 125 001e 7B60     		str	r3, [r7, #4]
 126 0020 05E0     		b	.L9
 127              	.L8:
 155:Generated_Source\PSoC4/Serial_SPI_UART.c ****             }
 156:Generated_Source\PSoC4/Serial_SPI_UART.c ****             else
 157:Generated_Source\PSoC4/Serial_SPI_UART.c ****             {
 158:Generated_Source\PSoC4/Serial_SPI_UART.c ****                 size = (locHead + (Serial_INTERNAL_RX_BUFFER_SIZE - Serial_rxBufferTail));
ARM GAS  C:\Users\TTSS\AppData\Local\Temp\cc37lGYw.s 			page 6


 128              		.loc 1 158 0
 129 0022 064B     		ldr	r3, .L11+4
 130 0024 1B68     		ldr	r3, [r3]
 131 0026 3A68     		ldr	r2, [r7]
 132 0028 D31A     		sub	r3, r2, r3
 133 002a 2433     		add	r3, r3, #36
 134 002c 7B60     		str	r3, [r7, #4]
 135              	.L9:
 159:Generated_Source\PSoC4/Serial_SPI_UART.c ****             }
 160:Generated_Source\PSoC4/Serial_SPI_UART.c ****         }
 161:Generated_Source\PSoC4/Serial_SPI_UART.c ****         #else
 162:Generated_Source\PSoC4/Serial_SPI_UART.c ****         {
 163:Generated_Source\PSoC4/Serial_SPI_UART.c ****             size = Serial_GET_RX_FIFO_ENTRIES;
 164:Generated_Source\PSoC4/Serial_SPI_UART.c ****         }
 165:Generated_Source\PSoC4/Serial_SPI_UART.c ****         #endif
 166:Generated_Source\PSoC4/Serial_SPI_UART.c **** 
 167:Generated_Source\PSoC4/Serial_SPI_UART.c ****         return (size);
 136              		.loc 1 167 0
 137 002e 7B68     		ldr	r3, [r7, #4]
 168:Generated_Source\PSoC4/Serial_SPI_UART.c ****     }
 138              		.loc 1 168 0
 139 0030 181C     		mov	r0, r3
 140 0032 BD46     		mov	sp, r7
 141 0034 02B0     		add	sp, sp, #8
 142              		@ sp needed
 143 0036 80BD     		pop	{r7, pc}
 144              	.L12:
 145              		.align	2
 146              	.L11:
 147 0038 00000000 		.word	Serial_rxBufferHead
 148 003c 00000000 		.word	Serial_rxBufferTail
 149              		.cfi_endproc
 150              	.LFE3:
 151              		.size	Serial_SpiUartGetRxBufferSize, .-Serial_SpiUartGetRxBufferSize
 152              		.section	.text.Serial_SpiUartClearRxBuffer,"ax",%progbits
 153              		.align	2
 154              		.global	Serial_SpiUartClearRxBuffer
 155              		.code	16
 156              		.thumb_func
 157              		.type	Serial_SpiUartClearRxBuffer, %function
 158              	Serial_SpiUartClearRxBuffer:
 159              	.LFB4:
 169:Generated_Source\PSoC4/Serial_SPI_UART.c **** 
 170:Generated_Source\PSoC4/Serial_SPI_UART.c **** 
 171:Generated_Source\PSoC4/Serial_SPI_UART.c ****     /*******************************************************************************
 172:Generated_Source\PSoC4/Serial_SPI_UART.c ****     * Function Name: Serial_SpiUartClearRxBuffer
 173:Generated_Source\PSoC4/Serial_SPI_UART.c ****     ********************************************************************************
 174:Generated_Source\PSoC4/Serial_SPI_UART.c ****     *
 175:Generated_Source\PSoC4/Serial_SPI_UART.c ****     * Summary:
 176:Generated_Source\PSoC4/Serial_SPI_UART.c ****     *  Clears the receive buffer and RX FIFO.
 177:Generated_Source\PSoC4/Serial_SPI_UART.c ****     *
 178:Generated_Source\PSoC4/Serial_SPI_UART.c ****     * Parameters:
 179:Generated_Source\PSoC4/Serial_SPI_UART.c ****     *  None
 180:Generated_Source\PSoC4/Serial_SPI_UART.c ****     *
 181:Generated_Source\PSoC4/Serial_SPI_UART.c ****     * Return:
 182:Generated_Source\PSoC4/Serial_SPI_UART.c ****     *  None
 183:Generated_Source\PSoC4/Serial_SPI_UART.c ****     *
ARM GAS  C:\Users\TTSS\AppData\Local\Temp\cc37lGYw.s 			page 7


 184:Generated_Source\PSoC4/Serial_SPI_UART.c ****     *******************************************************************************/
 185:Generated_Source\PSoC4/Serial_SPI_UART.c ****     void Serial_SpiUartClearRxBuffer(void)
 186:Generated_Source\PSoC4/Serial_SPI_UART.c ****     {
 160              		.loc 1 186 0
 161              		.cfi_startproc
 162 0000 80B5     		push	{r7, lr}
 163              		.cfi_def_cfa_offset 8
 164              		.cfi_offset 7, -8
 165              		.cfi_offset 14, -4
 166 0002 00AF     		add	r7, sp, #0
 167              		.cfi_def_cfa_register 7
 187:Generated_Source\PSoC4/Serial_SPI_UART.c ****         #if (Serial_CHECK_RX_SW_BUFFER)
 188:Generated_Source\PSoC4/Serial_SPI_UART.c ****         {
 189:Generated_Source\PSoC4/Serial_SPI_UART.c ****             /* Lock from component interruption */
 190:Generated_Source\PSoC4/Serial_SPI_UART.c ****             Serial_DisableInt();
 168              		.loc 1 190 0
 169 0004 0920     		mov	r0, #9
 170 0006 FFF7FEFF 		bl	CyIntDisable
 191:Generated_Source\PSoC4/Serial_SPI_UART.c **** 
 192:Generated_Source\PSoC4/Serial_SPI_UART.c ****             /* Flush RX software buffer */
 193:Generated_Source\PSoC4/Serial_SPI_UART.c ****             Serial_rxBufferHead = Serial_rxBufferTail;
 171              		.loc 1 193 0
 172 000a 0E4B     		ldr	r3, .L14
 173 000c 1A68     		ldr	r2, [r3]
 174 000e 0E4B     		ldr	r3, .L14+4
 175 0010 1A60     		str	r2, [r3]
 194:Generated_Source\PSoC4/Serial_SPI_UART.c ****             Serial_rxBufferOverflow = 0u;
 176              		.loc 1 194 0
 177 0012 0E4B     		ldr	r3, .L14+8
 178 0014 0022     		mov	r2, #0
 179 0016 1A70     		strb	r2, [r3]
 195:Generated_Source\PSoC4/Serial_SPI_UART.c **** 
 196:Generated_Source\PSoC4/Serial_SPI_UART.c ****             Serial_CLEAR_RX_FIFO;
 180              		.loc 1 196 0
 181 0018 0D4B     		ldr	r3, .L14+12
 182 001a 0D4A     		ldr	r2, .L14+12
 183 001c 1268     		ldr	r2, [r2]
 184 001e 8021     		mov	r1, #128
 185 0020 4902     		lsl	r1, r1, #9
 186 0022 0A43     		orr	r2, r1
 187 0024 1A60     		str	r2, [r3]
 188 0026 0A4B     		ldr	r3, .L14+12
 189 0028 094A     		ldr	r2, .L14+12
 190 002a 1268     		ldr	r2, [r2]
 191 002c 0949     		ldr	r1, .L14+16
 192 002e 0A40     		and	r2, r1
 193 0030 1A60     		str	r2, [r3]
 197:Generated_Source\PSoC4/Serial_SPI_UART.c ****             Serial_ClearRxInterruptSource(Serial_INTR_RX_ALL);
 194              		.loc 1 197 0
 195 0032 094B     		ldr	r3, .L14+20
 196 0034 094A     		ldr	r2, .L14+24
 197 0036 1A60     		str	r2, [r3]
 198:Generated_Source\PSoC4/Serial_SPI_UART.c **** 
 199:Generated_Source\PSoC4/Serial_SPI_UART.c ****             #if (Serial_CHECK_UART_RTS_CONTROL_FLOW)
 200:Generated_Source\PSoC4/Serial_SPI_UART.c ****             {
 201:Generated_Source\PSoC4/Serial_SPI_UART.c ****                 /* Enable RX Not Empty interrupt source to continue receiving
 202:Generated_Source\PSoC4/Serial_SPI_UART.c ****                 * data into software buffer.
ARM GAS  C:\Users\TTSS\AppData\Local\Temp\cc37lGYw.s 			page 8


 203:Generated_Source\PSoC4/Serial_SPI_UART.c ****                 */
 204:Generated_Source\PSoC4/Serial_SPI_UART.c ****                 Serial_INTR_RX_MASK_REG |= Serial_INTR_RX_NOT_EMPTY;
 205:Generated_Source\PSoC4/Serial_SPI_UART.c ****             }
 206:Generated_Source\PSoC4/Serial_SPI_UART.c ****             #endif
 207:Generated_Source\PSoC4/Serial_SPI_UART.c **** 
 208:Generated_Source\PSoC4/Serial_SPI_UART.c ****             /* Release lock */
 209:Generated_Source\PSoC4/Serial_SPI_UART.c ****             Serial_EnableInt();
 198              		.loc 1 209 0
 199 0038 0920     		mov	r0, #9
 200 003a FFF7FEFF 		bl	CyIntEnable
 210:Generated_Source\PSoC4/Serial_SPI_UART.c ****         }
 211:Generated_Source\PSoC4/Serial_SPI_UART.c ****         #else
 212:Generated_Source\PSoC4/Serial_SPI_UART.c ****         {
 213:Generated_Source\PSoC4/Serial_SPI_UART.c ****             Serial_CLEAR_RX_FIFO;
 214:Generated_Source\PSoC4/Serial_SPI_UART.c ****         }
 215:Generated_Source\PSoC4/Serial_SPI_UART.c ****         #endif
 216:Generated_Source\PSoC4/Serial_SPI_UART.c ****     }
 201              		.loc 1 216 0
 202 003e BD46     		mov	sp, r7
 203              		@ sp needed
 204 0040 80BD     		pop	{r7, pc}
 205              	.L15:
 206 0042 C046     		.align	2
 207              	.L14:
 208 0044 00000000 		.word	Serial_rxBufferTail
 209 0048 00000000 		.word	Serial_rxBufferHead
 210 004c 00000000 		.word	Serial_rxBufferOverflow
 211 0050 04032440 		.word	1076101892
 212 0054 FFFFFEFF 		.word	-65537
 213 0058 C00F2440 		.word	1076105152
 214 005c ED0F0000 		.word	4077
 215              		.cfi_endproc
 216              	.LFE4:
 217              		.size	Serial_SpiUartClearRxBuffer, .-Serial_SpiUartClearRxBuffer
 218              		.section	.text.Serial_SpiUartDisableIntRx,"ax",%progbits
 219              		.align	2
 220              		.global	Serial_SpiUartDisableIntRx
 221              		.code	16
 222              		.thumb_func
 223              		.type	Serial_SpiUartDisableIntRx, %function
 224              	Serial_SpiUartDisableIntRx:
 225              	.LFB5:
 217:Generated_Source\PSoC4/Serial_SPI_UART.c **** 
 218:Generated_Source\PSoC4/Serial_SPI_UART.c **** #endif /* (Serial_RX_DIRECTION) */
 219:Generated_Source\PSoC4/Serial_SPI_UART.c **** 
 220:Generated_Source\PSoC4/Serial_SPI_UART.c **** 
 221:Generated_Source\PSoC4/Serial_SPI_UART.c **** #if(Serial_TX_DIRECTION)
 222:Generated_Source\PSoC4/Serial_SPI_UART.c ****     /*******************************************************************************
 223:Generated_Source\PSoC4/Serial_SPI_UART.c ****     * Function Name: Serial_SpiUartWriteTxData
 224:Generated_Source\PSoC4/Serial_SPI_UART.c ****     ********************************************************************************
 225:Generated_Source\PSoC4/Serial_SPI_UART.c ****     *
 226:Generated_Source\PSoC4/Serial_SPI_UART.c ****     * Summary:
 227:Generated_Source\PSoC4/Serial_SPI_UART.c ****     *  Places a data entry into the transmit buffer to be sent at the next available
 228:Generated_Source\PSoC4/Serial_SPI_UART.c ****     *  bus time.
 229:Generated_Source\PSoC4/Serial_SPI_UART.c ****     *  This function is blocking and waits until there is space available to put the
 230:Generated_Source\PSoC4/Serial_SPI_UART.c ****     *  requested data in the transmit buffer.
 231:Generated_Source\PSoC4/Serial_SPI_UART.c ****     *
ARM GAS  C:\Users\TTSS\AppData\Local\Temp\cc37lGYw.s 			page 9


 232:Generated_Source\PSoC4/Serial_SPI_UART.c ****     * Parameters:
 233:Generated_Source\PSoC4/Serial_SPI_UART.c ****     *  txDataByte: the data to be transmitted.
 234:Generated_Source\PSoC4/Serial_SPI_UART.c ****     *
 235:Generated_Source\PSoC4/Serial_SPI_UART.c ****     * Return:
 236:Generated_Source\PSoC4/Serial_SPI_UART.c ****     *  None
 237:Generated_Source\PSoC4/Serial_SPI_UART.c ****     *
 238:Generated_Source\PSoC4/Serial_SPI_UART.c ****     *******************************************************************************/
 239:Generated_Source\PSoC4/Serial_SPI_UART.c ****     void Serial_SpiUartWriteTxData(uint32 txData)
 240:Generated_Source\PSoC4/Serial_SPI_UART.c ****     {
 241:Generated_Source\PSoC4/Serial_SPI_UART.c ****     #if (Serial_INTERNAL_TX_SW_BUFFER_CONST)
 242:Generated_Source\PSoC4/Serial_SPI_UART.c ****         uint32 locHead;
 243:Generated_Source\PSoC4/Serial_SPI_UART.c ****     #endif /* (Serial_INTERNAL_TX_SW_BUFFER_CONST) */
 244:Generated_Source\PSoC4/Serial_SPI_UART.c **** 
 245:Generated_Source\PSoC4/Serial_SPI_UART.c ****         #if (Serial_CHECK_TX_SW_BUFFER)
 246:Generated_Source\PSoC4/Serial_SPI_UART.c ****         {
 247:Generated_Source\PSoC4/Serial_SPI_UART.c ****             /* Put data directly into the TX FIFO */
 248:Generated_Source\PSoC4/Serial_SPI_UART.c ****             if ((Serial_txBufferHead == Serial_txBufferTail) &&
 249:Generated_Source\PSoC4/Serial_SPI_UART.c ****                 (Serial_SPI_UART_FIFO_SIZE != Serial_GET_TX_FIFO_ENTRIES))
 250:Generated_Source\PSoC4/Serial_SPI_UART.c ****             {
 251:Generated_Source\PSoC4/Serial_SPI_UART.c ****                 /* TX software buffer is empty: put data directly in TX FIFO */
 252:Generated_Source\PSoC4/Serial_SPI_UART.c ****                 Serial_TX_FIFO_WR_REG = txData;
 253:Generated_Source\PSoC4/Serial_SPI_UART.c ****             }
 254:Generated_Source\PSoC4/Serial_SPI_UART.c ****             /* Put data into TX software buffer */
 255:Generated_Source\PSoC4/Serial_SPI_UART.c ****             else
 256:Generated_Source\PSoC4/Serial_SPI_UART.c ****             {
 257:Generated_Source\PSoC4/Serial_SPI_UART.c ****                 /* Head index to put data */
 258:Generated_Source\PSoC4/Serial_SPI_UART.c ****                 locHead = (Serial_txBufferHead + 1u);
 259:Generated_Source\PSoC4/Serial_SPI_UART.c **** 
 260:Generated_Source\PSoC4/Serial_SPI_UART.c ****                 /* Adjust TX software buffer index */
 261:Generated_Source\PSoC4/Serial_SPI_UART.c ****                 if (Serial_TX_BUFFER_SIZE == locHead)
 262:Generated_Source\PSoC4/Serial_SPI_UART.c ****                 {
 263:Generated_Source\PSoC4/Serial_SPI_UART.c ****                     locHead = 0u;
 264:Generated_Source\PSoC4/Serial_SPI_UART.c ****                 }
 265:Generated_Source\PSoC4/Serial_SPI_UART.c **** 
 266:Generated_Source\PSoC4/Serial_SPI_UART.c ****                 /* Wait for space in TX software buffer */
 267:Generated_Source\PSoC4/Serial_SPI_UART.c ****                 while (locHead == Serial_txBufferTail)
 268:Generated_Source\PSoC4/Serial_SPI_UART.c ****                 {
 269:Generated_Source\PSoC4/Serial_SPI_UART.c ****                 }
 270:Generated_Source\PSoC4/Serial_SPI_UART.c **** 
 271:Generated_Source\PSoC4/Serial_SPI_UART.c ****                 /* TX software buffer has at least one room */
 272:Generated_Source\PSoC4/Serial_SPI_UART.c **** 
 273:Generated_Source\PSoC4/Serial_SPI_UART.c ****                 /* Clear old status of INTR_TX_NOT_FULL. It sets at the end of transfer when TX FIF
 274:Generated_Source\PSoC4/Serial_SPI_UART.c ****                 Serial_ClearTxInterruptSource(Serial_INTR_TX_NOT_FULL);
 275:Generated_Source\PSoC4/Serial_SPI_UART.c **** 
 276:Generated_Source\PSoC4/Serial_SPI_UART.c ****                 Serial_PutWordInTxBuffer(locHead, txData);
 277:Generated_Source\PSoC4/Serial_SPI_UART.c **** 
 278:Generated_Source\PSoC4/Serial_SPI_UART.c ****                 Serial_txBufferHead = locHead;
 279:Generated_Source\PSoC4/Serial_SPI_UART.c **** 
 280:Generated_Source\PSoC4/Serial_SPI_UART.c ****                 /* Check if TX Not Full is disabled in interrupt */
 281:Generated_Source\PSoC4/Serial_SPI_UART.c ****                 if (0u == (Serial_INTR_TX_MASK_REG & Serial_INTR_TX_NOT_FULL))
 282:Generated_Source\PSoC4/Serial_SPI_UART.c ****                 {
 283:Generated_Source\PSoC4/Serial_SPI_UART.c ****                     /* Enable TX Not Full interrupt source to transmit from software buffer */
 284:Generated_Source\PSoC4/Serial_SPI_UART.c ****                     Serial_INTR_TX_MASK_REG |= (uint32) Serial_INTR_TX_NOT_FULL;
 285:Generated_Source\PSoC4/Serial_SPI_UART.c ****                 }
 286:Generated_Source\PSoC4/Serial_SPI_UART.c ****             }
 287:Generated_Source\PSoC4/Serial_SPI_UART.c ****         }
 288:Generated_Source\PSoC4/Serial_SPI_UART.c ****         #else
ARM GAS  C:\Users\TTSS\AppData\Local\Temp\cc37lGYw.s 			page 10


 289:Generated_Source\PSoC4/Serial_SPI_UART.c ****         {
 290:Generated_Source\PSoC4/Serial_SPI_UART.c ****             /* Wait until TX FIFO has space to put data element */
 291:Generated_Source\PSoC4/Serial_SPI_UART.c ****             while (Serial_SPI_UART_FIFO_SIZE == Serial_GET_TX_FIFO_ENTRIES)
 292:Generated_Source\PSoC4/Serial_SPI_UART.c ****             {
 293:Generated_Source\PSoC4/Serial_SPI_UART.c ****             }
 294:Generated_Source\PSoC4/Serial_SPI_UART.c **** 
 295:Generated_Source\PSoC4/Serial_SPI_UART.c ****             Serial_TX_FIFO_WR_REG = txData;
 296:Generated_Source\PSoC4/Serial_SPI_UART.c ****         }
 297:Generated_Source\PSoC4/Serial_SPI_UART.c ****         #endif
 298:Generated_Source\PSoC4/Serial_SPI_UART.c ****     }
 299:Generated_Source\PSoC4/Serial_SPI_UART.c **** 
 300:Generated_Source\PSoC4/Serial_SPI_UART.c **** 
 301:Generated_Source\PSoC4/Serial_SPI_UART.c ****     /*******************************************************************************
 302:Generated_Source\PSoC4/Serial_SPI_UART.c ****     * Function Name: Serial_SpiUartPutArray
 303:Generated_Source\PSoC4/Serial_SPI_UART.c ****     ********************************************************************************
 304:Generated_Source\PSoC4/Serial_SPI_UART.c ****     *
 305:Generated_Source\PSoC4/Serial_SPI_UART.c ****     * Summary:
 306:Generated_Source\PSoC4/Serial_SPI_UART.c ****     *  Places an array of data into the transmit buffer to be sent.
 307:Generated_Source\PSoC4/Serial_SPI_UART.c ****     *  This function is blocking and waits until there is a space available to put
 308:Generated_Source\PSoC4/Serial_SPI_UART.c ****     *  all the requested data in the transmit buffer. The array size can be greater
 309:Generated_Source\PSoC4/Serial_SPI_UART.c ****     *  than transmit buffer size.
 310:Generated_Source\PSoC4/Serial_SPI_UART.c ****     *
 311:Generated_Source\PSoC4/Serial_SPI_UART.c ****     * Parameters:
 312:Generated_Source\PSoC4/Serial_SPI_UART.c ****     *  wrBuf:  pointer to an array with data to be placed in transmit buffer.
 313:Generated_Source\PSoC4/Serial_SPI_UART.c ****     *  count:  number of data elements to be placed in the transmit buffer.
 314:Generated_Source\PSoC4/Serial_SPI_UART.c ****     *
 315:Generated_Source\PSoC4/Serial_SPI_UART.c ****     * Return:
 316:Generated_Source\PSoC4/Serial_SPI_UART.c ****     *  None
 317:Generated_Source\PSoC4/Serial_SPI_UART.c ****     *
 318:Generated_Source\PSoC4/Serial_SPI_UART.c ****     *******************************************************************************/
 319:Generated_Source\PSoC4/Serial_SPI_UART.c ****     void Serial_SpiUartPutArray(const uint8 wrBuf[], uint32 count)
 320:Generated_Source\PSoC4/Serial_SPI_UART.c ****     {
 321:Generated_Source\PSoC4/Serial_SPI_UART.c ****         uint32 i;
 322:Generated_Source\PSoC4/Serial_SPI_UART.c **** 
 323:Generated_Source\PSoC4/Serial_SPI_UART.c ****         for (i=0u; i < count; i++)
 324:Generated_Source\PSoC4/Serial_SPI_UART.c ****         {
 325:Generated_Source\PSoC4/Serial_SPI_UART.c ****             Serial_SpiUartWriteTxData((uint32) wrBuf[i]);
 326:Generated_Source\PSoC4/Serial_SPI_UART.c ****         }
 327:Generated_Source\PSoC4/Serial_SPI_UART.c ****     }
 328:Generated_Source\PSoC4/Serial_SPI_UART.c **** 
 329:Generated_Source\PSoC4/Serial_SPI_UART.c **** 
 330:Generated_Source\PSoC4/Serial_SPI_UART.c ****     /*******************************************************************************
 331:Generated_Source\PSoC4/Serial_SPI_UART.c ****     * Function Name: Serial_SpiUartGetTxBufferSize
 332:Generated_Source\PSoC4/Serial_SPI_UART.c ****     ********************************************************************************
 333:Generated_Source\PSoC4/Serial_SPI_UART.c ****     *
 334:Generated_Source\PSoC4/Serial_SPI_UART.c ****     * Summary:
 335:Generated_Source\PSoC4/Serial_SPI_UART.c ****     * Returns the number of elements currently in the transmit buffer.
 336:Generated_Source\PSoC4/Serial_SPI_UART.c ****     *  - TX software buffer is disabled: returns the number of used entries in
 337:Generated_Source\PSoC4/Serial_SPI_UART.c ****     *    TX FIFO.
 338:Generated_Source\PSoC4/Serial_SPI_UART.c ****     *  - TX software buffer is enabled: returns the number of elements currently
 339:Generated_Source\PSoC4/Serial_SPI_UART.c ****     *    used in the transmit buffer. This number does not include used entries in
 340:Generated_Source\PSoC4/Serial_SPI_UART.c ****     *    the TX FIFO. The transmit buffer size is zero until the TX FIFO is
 341:Generated_Source\PSoC4/Serial_SPI_UART.c ****     *    not full.
 342:Generated_Source\PSoC4/Serial_SPI_UART.c ****     *
 343:Generated_Source\PSoC4/Serial_SPI_UART.c ****     * Parameters:
 344:Generated_Source\PSoC4/Serial_SPI_UART.c ****     *  None
 345:Generated_Source\PSoC4/Serial_SPI_UART.c ****     *
ARM GAS  C:\Users\TTSS\AppData\Local\Temp\cc37lGYw.s 			page 11


 346:Generated_Source\PSoC4/Serial_SPI_UART.c ****     * Return:
 347:Generated_Source\PSoC4/Serial_SPI_UART.c ****     *  Number of data elements ready to transmit.
 348:Generated_Source\PSoC4/Serial_SPI_UART.c ****     *
 349:Generated_Source\PSoC4/Serial_SPI_UART.c ****     *******************************************************************************/
 350:Generated_Source\PSoC4/Serial_SPI_UART.c ****     uint32 Serial_SpiUartGetTxBufferSize(void)
 351:Generated_Source\PSoC4/Serial_SPI_UART.c ****     {
 352:Generated_Source\PSoC4/Serial_SPI_UART.c ****         uint32 size;
 353:Generated_Source\PSoC4/Serial_SPI_UART.c ****     #if (Serial_INTERNAL_TX_SW_BUFFER_CONST)
 354:Generated_Source\PSoC4/Serial_SPI_UART.c ****         uint32 locTail;
 355:Generated_Source\PSoC4/Serial_SPI_UART.c ****     #endif /* (Serial_INTERNAL_TX_SW_BUFFER_CONST) */
 356:Generated_Source\PSoC4/Serial_SPI_UART.c **** 
 357:Generated_Source\PSoC4/Serial_SPI_UART.c ****         #if (Serial_CHECK_TX_SW_BUFFER)
 358:Generated_Source\PSoC4/Serial_SPI_UART.c ****         {
 359:Generated_Source\PSoC4/Serial_SPI_UART.c ****             /* Get current Tail index */
 360:Generated_Source\PSoC4/Serial_SPI_UART.c ****             locTail = Serial_txBufferTail;
 361:Generated_Source\PSoC4/Serial_SPI_UART.c **** 
 362:Generated_Source\PSoC4/Serial_SPI_UART.c ****             if (Serial_txBufferHead >= locTail)
 363:Generated_Source\PSoC4/Serial_SPI_UART.c ****             {
 364:Generated_Source\PSoC4/Serial_SPI_UART.c ****                 size = (Serial_txBufferHead - locTail);
 365:Generated_Source\PSoC4/Serial_SPI_UART.c ****             }
 366:Generated_Source\PSoC4/Serial_SPI_UART.c ****             else
 367:Generated_Source\PSoC4/Serial_SPI_UART.c ****             {
 368:Generated_Source\PSoC4/Serial_SPI_UART.c ****                 size = (Serial_txBufferHead + (Serial_TX_BUFFER_SIZE - locTail));
 369:Generated_Source\PSoC4/Serial_SPI_UART.c ****             }
 370:Generated_Source\PSoC4/Serial_SPI_UART.c ****         }
 371:Generated_Source\PSoC4/Serial_SPI_UART.c ****         #else
 372:Generated_Source\PSoC4/Serial_SPI_UART.c ****         {
 373:Generated_Source\PSoC4/Serial_SPI_UART.c ****             size = Serial_GET_TX_FIFO_ENTRIES;
 374:Generated_Source\PSoC4/Serial_SPI_UART.c ****         }
 375:Generated_Source\PSoC4/Serial_SPI_UART.c ****         #endif
 376:Generated_Source\PSoC4/Serial_SPI_UART.c **** 
 377:Generated_Source\PSoC4/Serial_SPI_UART.c ****         return (size);
 378:Generated_Source\PSoC4/Serial_SPI_UART.c ****     }
 379:Generated_Source\PSoC4/Serial_SPI_UART.c **** 
 380:Generated_Source\PSoC4/Serial_SPI_UART.c **** 
 381:Generated_Source\PSoC4/Serial_SPI_UART.c ****     /*******************************************************************************
 382:Generated_Source\PSoC4/Serial_SPI_UART.c ****     * Function Name: Serial_SpiUartClearTxBuffer
 383:Generated_Source\PSoC4/Serial_SPI_UART.c ****     ********************************************************************************
 384:Generated_Source\PSoC4/Serial_SPI_UART.c ****     *
 385:Generated_Source\PSoC4/Serial_SPI_UART.c ****     * Summary:
 386:Generated_Source\PSoC4/Serial_SPI_UART.c ****     *  Clears the transmit buffer and TX FIFO.
 387:Generated_Source\PSoC4/Serial_SPI_UART.c ****     *
 388:Generated_Source\PSoC4/Serial_SPI_UART.c ****     * Parameters:
 389:Generated_Source\PSoC4/Serial_SPI_UART.c ****     *  None
 390:Generated_Source\PSoC4/Serial_SPI_UART.c ****     *
 391:Generated_Source\PSoC4/Serial_SPI_UART.c ****     * Return:
 392:Generated_Source\PSoC4/Serial_SPI_UART.c ****     *  None
 393:Generated_Source\PSoC4/Serial_SPI_UART.c ****     *
 394:Generated_Source\PSoC4/Serial_SPI_UART.c ****     *******************************************************************************/
 395:Generated_Source\PSoC4/Serial_SPI_UART.c ****     void Serial_SpiUartClearTxBuffer(void)
 396:Generated_Source\PSoC4/Serial_SPI_UART.c ****     {
 397:Generated_Source\PSoC4/Serial_SPI_UART.c ****         #if (Serial_CHECK_TX_SW_BUFFER)
 398:Generated_Source\PSoC4/Serial_SPI_UART.c ****         {
 399:Generated_Source\PSoC4/Serial_SPI_UART.c ****             /* Lock from component interruption */
 400:Generated_Source\PSoC4/Serial_SPI_UART.c ****             Serial_DisableInt();
 401:Generated_Source\PSoC4/Serial_SPI_UART.c **** 
 402:Generated_Source\PSoC4/Serial_SPI_UART.c ****             /* Flush TX software buffer */
ARM GAS  C:\Users\TTSS\AppData\Local\Temp\cc37lGYw.s 			page 12


 403:Generated_Source\PSoC4/Serial_SPI_UART.c ****             Serial_txBufferHead = Serial_txBufferTail;
 404:Generated_Source\PSoC4/Serial_SPI_UART.c **** 
 405:Generated_Source\PSoC4/Serial_SPI_UART.c ****             Serial_INTR_TX_MASK_REG &= (uint32) ~Serial_INTR_TX_NOT_FULL;
 406:Generated_Source\PSoC4/Serial_SPI_UART.c ****             Serial_CLEAR_TX_FIFO;
 407:Generated_Source\PSoC4/Serial_SPI_UART.c ****             Serial_ClearTxInterruptSource(Serial_INTR_TX_ALL);
 408:Generated_Source\PSoC4/Serial_SPI_UART.c **** 
 409:Generated_Source\PSoC4/Serial_SPI_UART.c ****             /* Release lock */
 410:Generated_Source\PSoC4/Serial_SPI_UART.c ****             Serial_EnableInt();
 411:Generated_Source\PSoC4/Serial_SPI_UART.c ****         }
 412:Generated_Source\PSoC4/Serial_SPI_UART.c ****         #else
 413:Generated_Source\PSoC4/Serial_SPI_UART.c ****         {
 414:Generated_Source\PSoC4/Serial_SPI_UART.c ****             Serial_CLEAR_TX_FIFO;
 415:Generated_Source\PSoC4/Serial_SPI_UART.c ****         }
 416:Generated_Source\PSoC4/Serial_SPI_UART.c ****         #endif
 417:Generated_Source\PSoC4/Serial_SPI_UART.c ****     }
 418:Generated_Source\PSoC4/Serial_SPI_UART.c **** 
 419:Generated_Source\PSoC4/Serial_SPI_UART.c **** #endif /* (Serial_TX_DIRECTION) */
 420:Generated_Source\PSoC4/Serial_SPI_UART.c **** 
 421:Generated_Source\PSoC4/Serial_SPI_UART.c **** 
 422:Generated_Source\PSoC4/Serial_SPI_UART.c **** /*******************************************************************************
 423:Generated_Source\PSoC4/Serial_SPI_UART.c **** * Function Name: Serial_SpiUartDisableIntRx
 424:Generated_Source\PSoC4/Serial_SPI_UART.c **** ********************************************************************************
 425:Generated_Source\PSoC4/Serial_SPI_UART.c **** *
 426:Generated_Source\PSoC4/Serial_SPI_UART.c **** * Summary:
 427:Generated_Source\PSoC4/Serial_SPI_UART.c **** *  Disables the RX interrupt sources.
 428:Generated_Source\PSoC4/Serial_SPI_UART.c **** *
 429:Generated_Source\PSoC4/Serial_SPI_UART.c **** * Parameters:
 430:Generated_Source\PSoC4/Serial_SPI_UART.c **** *  None
 431:Generated_Source\PSoC4/Serial_SPI_UART.c **** *
 432:Generated_Source\PSoC4/Serial_SPI_UART.c **** * Return:
 433:Generated_Source\PSoC4/Serial_SPI_UART.c **** *  Returns the RX interrupt sources enabled before the function call.
 434:Generated_Source\PSoC4/Serial_SPI_UART.c **** *
 435:Generated_Source\PSoC4/Serial_SPI_UART.c **** *******************************************************************************/
 436:Generated_Source\PSoC4/Serial_SPI_UART.c **** uint32 Serial_SpiUartDisableIntRx(void)
 437:Generated_Source\PSoC4/Serial_SPI_UART.c **** {
 226              		.loc 1 437 0
 227              		.cfi_startproc
 228 0000 80B5     		push	{r7, lr}
 229              		.cfi_def_cfa_offset 8
 230              		.cfi_offset 7, -8
 231              		.cfi_offset 14, -4
 232 0002 82B0     		sub	sp, sp, #8
 233              		.cfi_def_cfa_offset 16
 234 0004 00AF     		add	r7, sp, #0
 235              		.cfi_def_cfa_register 7
 438:Generated_Source\PSoC4/Serial_SPI_UART.c ****     uint32 intSource;
 439:Generated_Source\PSoC4/Serial_SPI_UART.c **** 
 440:Generated_Source\PSoC4/Serial_SPI_UART.c ****     intSource = Serial_GetRxInterruptMode();
 236              		.loc 1 440 0
 237 0006 054B     		ldr	r3, .L18
 238 0008 1B68     		ldr	r3, [r3]
 239 000a 7B60     		str	r3, [r7, #4]
 441:Generated_Source\PSoC4/Serial_SPI_UART.c **** 
 442:Generated_Source\PSoC4/Serial_SPI_UART.c ****     Serial_SetRxInterruptMode(Serial_NO_INTR_SOURCES);
 240              		.loc 1 442 0
 241 000c 034B     		ldr	r3, .L18
 242 000e 0022     		mov	r2, #0
ARM GAS  C:\Users\TTSS\AppData\Local\Temp\cc37lGYw.s 			page 13


 243 0010 1A60     		str	r2, [r3]
 443:Generated_Source\PSoC4/Serial_SPI_UART.c **** 
 444:Generated_Source\PSoC4/Serial_SPI_UART.c ****     return (intSource);
 244              		.loc 1 444 0
 245 0012 7B68     		ldr	r3, [r7, #4]
 445:Generated_Source\PSoC4/Serial_SPI_UART.c **** }
 246              		.loc 1 445 0
 247 0014 181C     		mov	r0, r3
 248 0016 BD46     		mov	sp, r7
 249 0018 02B0     		add	sp, sp, #8
 250              		@ sp needed
 251 001a 80BD     		pop	{r7, pc}
 252              	.L19:
 253              		.align	2
 254              	.L18:
 255 001c C80F2440 		.word	1076105160
 256              		.cfi_endproc
 257              	.LFE5:
 258              		.size	Serial_SpiUartDisableIntRx, .-Serial_SpiUartDisableIntRx
 259              		.section	.text.Serial_SpiUartDisableIntTx,"ax",%progbits
 260              		.align	2
 261              		.global	Serial_SpiUartDisableIntTx
 262              		.code	16
 263              		.thumb_func
 264              		.type	Serial_SpiUartDisableIntTx, %function
 265              	Serial_SpiUartDisableIntTx:
 266              	.LFB6:
 446:Generated_Source\PSoC4/Serial_SPI_UART.c **** 
 447:Generated_Source\PSoC4/Serial_SPI_UART.c **** 
 448:Generated_Source\PSoC4/Serial_SPI_UART.c **** /*******************************************************************************
 449:Generated_Source\PSoC4/Serial_SPI_UART.c **** * Function Name: Serial_SpiUartDisableIntTx
 450:Generated_Source\PSoC4/Serial_SPI_UART.c **** ********************************************************************************
 451:Generated_Source\PSoC4/Serial_SPI_UART.c **** *
 452:Generated_Source\PSoC4/Serial_SPI_UART.c **** * Summary:
 453:Generated_Source\PSoC4/Serial_SPI_UART.c **** *  Disables TX interrupt sources.
 454:Generated_Source\PSoC4/Serial_SPI_UART.c **** *
 455:Generated_Source\PSoC4/Serial_SPI_UART.c **** * Parameters:
 456:Generated_Source\PSoC4/Serial_SPI_UART.c **** *  None
 457:Generated_Source\PSoC4/Serial_SPI_UART.c **** *
 458:Generated_Source\PSoC4/Serial_SPI_UART.c **** * Return:
 459:Generated_Source\PSoC4/Serial_SPI_UART.c **** *  Returns TX interrupt sources enabled before function call.
 460:Generated_Source\PSoC4/Serial_SPI_UART.c **** *
 461:Generated_Source\PSoC4/Serial_SPI_UART.c **** *******************************************************************************/
 462:Generated_Source\PSoC4/Serial_SPI_UART.c **** uint32 Serial_SpiUartDisableIntTx(void)
 463:Generated_Source\PSoC4/Serial_SPI_UART.c **** {
 267              		.loc 1 463 0
 268              		.cfi_startproc
 269 0000 80B5     		push	{r7, lr}
 270              		.cfi_def_cfa_offset 8
 271              		.cfi_offset 7, -8
 272              		.cfi_offset 14, -4
 273 0002 82B0     		sub	sp, sp, #8
 274              		.cfi_def_cfa_offset 16
 275 0004 00AF     		add	r7, sp, #0
 276              		.cfi_def_cfa_register 7
 464:Generated_Source\PSoC4/Serial_SPI_UART.c ****     uint32 intSourceMask;
 465:Generated_Source\PSoC4/Serial_SPI_UART.c **** 
ARM GAS  C:\Users\TTSS\AppData\Local\Temp\cc37lGYw.s 			page 14


 466:Generated_Source\PSoC4/Serial_SPI_UART.c ****     intSourceMask = Serial_GetTxInterruptMode();
 277              		.loc 1 466 0
 278 0006 054B     		ldr	r3, .L22
 279 0008 1B68     		ldr	r3, [r3]
 280 000a 7B60     		str	r3, [r7, #4]
 467:Generated_Source\PSoC4/Serial_SPI_UART.c **** 
 468:Generated_Source\PSoC4/Serial_SPI_UART.c ****     Serial_SetTxInterruptMode(Serial_NO_INTR_SOURCES);
 281              		.loc 1 468 0
 282 000c 034B     		ldr	r3, .L22
 283 000e 0022     		mov	r2, #0
 284 0010 1A60     		str	r2, [r3]
 469:Generated_Source\PSoC4/Serial_SPI_UART.c **** 
 470:Generated_Source\PSoC4/Serial_SPI_UART.c ****     return (intSourceMask);
 285              		.loc 1 470 0
 286 0012 7B68     		ldr	r3, [r7, #4]
 471:Generated_Source\PSoC4/Serial_SPI_UART.c **** }
 287              		.loc 1 471 0
 288 0014 181C     		mov	r0, r3
 289 0016 BD46     		mov	sp, r7
 290 0018 02B0     		add	sp, sp, #8
 291              		@ sp needed
 292 001a 80BD     		pop	{r7, pc}
 293              	.L23:
 294              		.align	2
 295              	.L22:
 296 001c 880F2440 		.word	1076105096
 297              		.cfi_endproc
 298              	.LFE6:
 299              		.size	Serial_SpiUartDisableIntTx, .-Serial_SpiUartDisableIntTx
 300              		.text
 301              	.Letext0:
 302              		.file 2 "Generated_Source\\PSoC4/cytypes.h"