ARM GAS  C:\Users\TTSS\AppData\Local\Temp\ccy3xBj5.s 			page 1


   1              		.cpu cortex-m0
   2              		.fpu softvfp
   3              		.eabi_attribute 20, 1
   4              		.eabi_attribute 21, 1
   5              		.eabi_attribute 23, 3
   6              		.eabi_attribute 24, 1
   7              		.eabi_attribute 25, 1
   8              		.eabi_attribute 26, 1
   9              		.eabi_attribute 30, 6
  10              		.eabi_attribute 34, 0
  11              		.eabi_attribute 18, 4
  12              		.code	16
  13              		.file	"Serial_SCB_IRQ.c"
  14              		.text
  15              	.Ltext0:
  16              		.cfi_sections	.debug_frame
  17              		.section	.text.Serial_SCB_IRQ_Start,"ax",%progbits
  18              		.align	2
  19              		.global	Serial_SCB_IRQ_Start
  20              		.code	16
  21              		.thumb_func
  22              		.type	Serial_SCB_IRQ_Start, %function
  23              	Serial_SCB_IRQ_Start:
  24              	.LFB2:
  25              		.file 1 "Generated_Source\\PSoC4\\Serial_SCB_IRQ.c"
   1:Generated_Source\PSoC4/Serial_SCB_IRQ.c **** /*******************************************************************************
   2:Generated_Source\PSoC4/Serial_SCB_IRQ.c **** * File Name: Serial_SCB_IRQ.c  
   3:Generated_Source\PSoC4/Serial_SCB_IRQ.c **** * Version 1.70
   4:Generated_Source\PSoC4/Serial_SCB_IRQ.c **** *
   5:Generated_Source\PSoC4/Serial_SCB_IRQ.c **** *  Description:
   6:Generated_Source\PSoC4/Serial_SCB_IRQ.c **** *   API for controlling the state of an interrupt.
   7:Generated_Source\PSoC4/Serial_SCB_IRQ.c **** *
   8:Generated_Source\PSoC4/Serial_SCB_IRQ.c **** *
   9:Generated_Source\PSoC4/Serial_SCB_IRQ.c **** *  Note:
  10:Generated_Source\PSoC4/Serial_SCB_IRQ.c **** *
  11:Generated_Source\PSoC4/Serial_SCB_IRQ.c **** ********************************************************************************
  12:Generated_Source\PSoC4/Serial_SCB_IRQ.c **** * Copyright 2008-2015, Cypress Semiconductor Corporation.  All rights reserved.
  13:Generated_Source\PSoC4/Serial_SCB_IRQ.c **** * You may use this file only in accordance with the license, terms, conditions, 
  14:Generated_Source\PSoC4/Serial_SCB_IRQ.c **** * disclaimers, and limitations in the end user license agreement accompanying 
  15:Generated_Source\PSoC4/Serial_SCB_IRQ.c **** * the software package with which this file was provided.
  16:Generated_Source\PSoC4/Serial_SCB_IRQ.c **** *******************************************************************************/
  17:Generated_Source\PSoC4/Serial_SCB_IRQ.c **** 
  18:Generated_Source\PSoC4/Serial_SCB_IRQ.c **** 
  19:Generated_Source\PSoC4/Serial_SCB_IRQ.c **** #include <cydevice_trm.h>
  20:Generated_Source\PSoC4/Serial_SCB_IRQ.c **** #include <CyLib.h>
  21:Generated_Source\PSoC4/Serial_SCB_IRQ.c **** #include <Serial_SCB_IRQ.h>
  22:Generated_Source\PSoC4/Serial_SCB_IRQ.c **** #include "cyapicallbacks.h"
  23:Generated_Source\PSoC4/Serial_SCB_IRQ.c **** 
  24:Generated_Source\PSoC4/Serial_SCB_IRQ.c **** #if !defined(Serial_SCB_IRQ__REMOVED) /* Check for removal by optimization */
  25:Generated_Source\PSoC4/Serial_SCB_IRQ.c **** 
  26:Generated_Source\PSoC4/Serial_SCB_IRQ.c **** /*******************************************************************************
  27:Generated_Source\PSoC4/Serial_SCB_IRQ.c **** *  Place your includes, defines and code here 
  28:Generated_Source\PSoC4/Serial_SCB_IRQ.c **** ********************************************************************************/
  29:Generated_Source\PSoC4/Serial_SCB_IRQ.c **** /* `#START Serial_SCB_IRQ_intc` */
  30:Generated_Source\PSoC4/Serial_SCB_IRQ.c **** 
  31:Generated_Source\PSoC4/Serial_SCB_IRQ.c **** /* `#END` */
  32:Generated_Source\PSoC4/Serial_SCB_IRQ.c **** 
ARM GAS  C:\Users\TTSS\AppData\Local\Temp\ccy3xBj5.s 			page 2


  33:Generated_Source\PSoC4/Serial_SCB_IRQ.c **** extern cyisraddress CyRamVectors[CYINT_IRQ_BASE + CY_NUM_INTERRUPTS];
  34:Generated_Source\PSoC4/Serial_SCB_IRQ.c **** 
  35:Generated_Source\PSoC4/Serial_SCB_IRQ.c **** /* Declared in startup, used to set unused interrupts to. */
  36:Generated_Source\PSoC4/Serial_SCB_IRQ.c **** CY_ISR_PROTO(IntDefaultHandler);
  37:Generated_Source\PSoC4/Serial_SCB_IRQ.c **** 
  38:Generated_Source\PSoC4/Serial_SCB_IRQ.c **** 
  39:Generated_Source\PSoC4/Serial_SCB_IRQ.c **** /*******************************************************************************
  40:Generated_Source\PSoC4/Serial_SCB_IRQ.c **** * Function Name: Serial_SCB_IRQ_Start
  41:Generated_Source\PSoC4/Serial_SCB_IRQ.c **** ********************************************************************************
  42:Generated_Source\PSoC4/Serial_SCB_IRQ.c **** *
  43:Generated_Source\PSoC4/Serial_SCB_IRQ.c **** * Summary:
  44:Generated_Source\PSoC4/Serial_SCB_IRQ.c **** *  Set up the interrupt and enable it. This function disables the interrupt, 
  45:Generated_Source\PSoC4/Serial_SCB_IRQ.c **** *  sets the default interrupt vector, sets the priority from the value in the
  46:Generated_Source\PSoC4/Serial_SCB_IRQ.c **** *  Design Wide Resources Interrupt Editor, then enables the interrupt to the 
  47:Generated_Source\PSoC4/Serial_SCB_IRQ.c **** *  interrupt controller.
  48:Generated_Source\PSoC4/Serial_SCB_IRQ.c **** *
  49:Generated_Source\PSoC4/Serial_SCB_IRQ.c **** * Parameters:  
  50:Generated_Source\PSoC4/Serial_SCB_IRQ.c **** *   None
  51:Generated_Source\PSoC4/Serial_SCB_IRQ.c **** *
  52:Generated_Source\PSoC4/Serial_SCB_IRQ.c **** * Return:
  53:Generated_Source\PSoC4/Serial_SCB_IRQ.c **** *   None
  54:Generated_Source\PSoC4/Serial_SCB_IRQ.c **** *
  55:Generated_Source\PSoC4/Serial_SCB_IRQ.c **** *******************************************************************************/
  56:Generated_Source\PSoC4/Serial_SCB_IRQ.c **** void Serial_SCB_IRQ_Start(void)
  57:Generated_Source\PSoC4/Serial_SCB_IRQ.c **** {
  26              		.loc 1 57 0
  27              		.cfi_startproc
  28 0000 80B5     		push	{r7, lr}
  29              		.cfi_def_cfa_offset 8
  30              		.cfi_offset 7, -8
  31              		.cfi_offset 14, -4
  32 0002 00AF     		add	r7, sp, #0
  33              		.cfi_def_cfa_register 7
  58:Generated_Source\PSoC4/Serial_SCB_IRQ.c ****     /* For all we know the interrupt is active. */
  59:Generated_Source\PSoC4/Serial_SCB_IRQ.c ****     Serial_SCB_IRQ_Disable();
  34              		.loc 1 59 0
  35 0004 FFF7FEFF 		bl	Serial_SCB_IRQ_Disable
  60:Generated_Source\PSoC4/Serial_SCB_IRQ.c **** 
  61:Generated_Source\PSoC4/Serial_SCB_IRQ.c ****     /* Set the ISR to point to the Serial_SCB_IRQ Interrupt. */
  62:Generated_Source\PSoC4/Serial_SCB_IRQ.c ****     Serial_SCB_IRQ_SetVector(&Serial_SCB_IRQ_Interrupt);
  36              		.loc 1 62 0
  37 0008 054B     		ldr	r3, .L2
  38 000a 181C     		mov	r0, r3
  39 000c FFF7FEFF 		bl	Serial_SCB_IRQ_SetVector
  63:Generated_Source\PSoC4/Serial_SCB_IRQ.c **** 
  64:Generated_Source\PSoC4/Serial_SCB_IRQ.c ****     /* Set the priority. */
  65:Generated_Source\PSoC4/Serial_SCB_IRQ.c ****     Serial_SCB_IRQ_SetPriority((uint8)Serial_SCB_IRQ_INTC_PRIOR_NUMBER);
  40              		.loc 1 65 0
  41 0010 0320     		mov	r0, #3
  42 0012 FFF7FEFF 		bl	Serial_SCB_IRQ_SetPriority
  66:Generated_Source\PSoC4/Serial_SCB_IRQ.c **** 
  67:Generated_Source\PSoC4/Serial_SCB_IRQ.c ****     /* Enable it. */
  68:Generated_Source\PSoC4/Serial_SCB_IRQ.c ****     Serial_SCB_IRQ_Enable();
  43              		.loc 1 68 0
  44 0016 FFF7FEFF 		bl	Serial_SCB_IRQ_Enable
  69:Generated_Source\PSoC4/Serial_SCB_IRQ.c **** }
  45              		.loc 1 69 0
ARM GAS  C:\Users\TTSS\AppData\Local\Temp\ccy3xBj5.s 			page 3


  46 001a BD46     		mov	sp, r7
  47              		@ sp needed
  48 001c 80BD     		pop	{r7, pc}
  49              	.L3:
  50 001e C046     		.align	2
  51              	.L2:
  52 0020 00000000 		.word	Serial_SCB_IRQ_Interrupt
  53              		.cfi_endproc
  54              	.LFE2:
  55              		.size	Serial_SCB_IRQ_Start, .-Serial_SCB_IRQ_Start
  56              		.section	.text.Serial_SCB_IRQ_StartEx,"ax",%progbits
  57              		.align	2
  58              		.global	Serial_SCB_IRQ_StartEx
  59              		.code	16
  60              		.thumb_func
  61              		.type	Serial_SCB_IRQ_StartEx, %function
  62              	Serial_SCB_IRQ_StartEx:
  63              	.LFB3:
  70:Generated_Source\PSoC4/Serial_SCB_IRQ.c **** 
  71:Generated_Source\PSoC4/Serial_SCB_IRQ.c **** 
  72:Generated_Source\PSoC4/Serial_SCB_IRQ.c **** /*******************************************************************************
  73:Generated_Source\PSoC4/Serial_SCB_IRQ.c **** * Function Name: Serial_SCB_IRQ_StartEx
  74:Generated_Source\PSoC4/Serial_SCB_IRQ.c **** ********************************************************************************
  75:Generated_Source\PSoC4/Serial_SCB_IRQ.c **** *
  76:Generated_Source\PSoC4/Serial_SCB_IRQ.c **** * Summary:
  77:Generated_Source\PSoC4/Serial_SCB_IRQ.c **** *  Sets up the interrupt and enables it. This function disables the interrupt,
  78:Generated_Source\PSoC4/Serial_SCB_IRQ.c **** *  sets the interrupt vector based on the address passed in, sets the priority 
  79:Generated_Source\PSoC4/Serial_SCB_IRQ.c **** *  from the value in the Design Wide Resources Interrupt Editor, then enables 
  80:Generated_Source\PSoC4/Serial_SCB_IRQ.c **** *  the interrupt to the interrupt controller.
  81:Generated_Source\PSoC4/Serial_SCB_IRQ.c **** *  
  82:Generated_Source\PSoC4/Serial_SCB_IRQ.c **** *  When defining ISR functions, the CY_ISR and CY_ISR_PROTO macros should be 
  83:Generated_Source\PSoC4/Serial_SCB_IRQ.c **** *  used to provide consistent definition across compilers:
  84:Generated_Source\PSoC4/Serial_SCB_IRQ.c **** *  
  85:Generated_Source\PSoC4/Serial_SCB_IRQ.c **** *  Function definition example:
  86:Generated_Source\PSoC4/Serial_SCB_IRQ.c **** *   CY_ISR(MyISR)
  87:Generated_Source\PSoC4/Serial_SCB_IRQ.c **** *   {
  88:Generated_Source\PSoC4/Serial_SCB_IRQ.c **** *   }
  89:Generated_Source\PSoC4/Serial_SCB_IRQ.c **** *   Function prototype example:
  90:Generated_Source\PSoC4/Serial_SCB_IRQ.c **** *   CY_ISR_PROTO(MyISR);
  91:Generated_Source\PSoC4/Serial_SCB_IRQ.c **** *
  92:Generated_Source\PSoC4/Serial_SCB_IRQ.c **** * Parameters:  
  93:Generated_Source\PSoC4/Serial_SCB_IRQ.c **** *   address: Address of the ISR to set in the interrupt vector table.
  94:Generated_Source\PSoC4/Serial_SCB_IRQ.c **** *
  95:Generated_Source\PSoC4/Serial_SCB_IRQ.c **** * Return:
  96:Generated_Source\PSoC4/Serial_SCB_IRQ.c **** *   None
  97:Generated_Source\PSoC4/Serial_SCB_IRQ.c **** *
  98:Generated_Source\PSoC4/Serial_SCB_IRQ.c **** *******************************************************************************/
  99:Generated_Source\PSoC4/Serial_SCB_IRQ.c **** void Serial_SCB_IRQ_StartEx(cyisraddress address)
 100:Generated_Source\PSoC4/Serial_SCB_IRQ.c **** {
  64              		.loc 1 100 0
  65              		.cfi_startproc
  66 0000 80B5     		push	{r7, lr}
  67              		.cfi_def_cfa_offset 8
  68              		.cfi_offset 7, -8
  69              		.cfi_offset 14, -4
  70 0002 82B0     		sub	sp, sp, #8
  71              		.cfi_def_cfa_offset 16
ARM GAS  C:\Users\TTSS\AppData\Local\Temp\ccy3xBj5.s 			page 4


  72 0004 00AF     		add	r7, sp, #0
  73              		.cfi_def_cfa_register 7
  74 0006 7860     		str	r0, [r7, #4]
 101:Generated_Source\PSoC4/Serial_SCB_IRQ.c ****     /* For all we know the interrupt is active. */
 102:Generated_Source\PSoC4/Serial_SCB_IRQ.c ****     Serial_SCB_IRQ_Disable();
  75              		.loc 1 102 0
  76 0008 FFF7FEFF 		bl	Serial_SCB_IRQ_Disable
 103:Generated_Source\PSoC4/Serial_SCB_IRQ.c **** 
 104:Generated_Source\PSoC4/Serial_SCB_IRQ.c ****     /* Set the ISR to point to the Serial_SCB_IRQ Interrupt. */
 105:Generated_Source\PSoC4/Serial_SCB_IRQ.c ****     Serial_SCB_IRQ_SetVector(address);
  77              		.loc 1 105 0
  78 000c 7B68     		ldr	r3, [r7, #4]
  79 000e 181C     		mov	r0, r3
  80 0010 FFF7FEFF 		bl	Serial_SCB_IRQ_SetVector
 106:Generated_Source\PSoC4/Serial_SCB_IRQ.c **** 
 107:Generated_Source\PSoC4/Serial_SCB_IRQ.c ****     /* Set the priority. */
 108:Generated_Source\PSoC4/Serial_SCB_IRQ.c ****     Serial_SCB_IRQ_SetPriority((uint8)Serial_SCB_IRQ_INTC_PRIOR_NUMBER);
  81              		.loc 1 108 0
  82 0014 0320     		mov	r0, #3
  83 0016 FFF7FEFF 		bl	Serial_SCB_IRQ_SetPriority
 109:Generated_Source\PSoC4/Serial_SCB_IRQ.c **** 
 110:Generated_Source\PSoC4/Serial_SCB_IRQ.c ****     /* Enable it. */
 111:Generated_Source\PSoC4/Serial_SCB_IRQ.c ****     Serial_SCB_IRQ_Enable();
  84              		.loc 1 111 0
  85 001a FFF7FEFF 		bl	Serial_SCB_IRQ_Enable
 112:Generated_Source\PSoC4/Serial_SCB_IRQ.c **** }
  86              		.loc 1 112 0
  87 001e BD46     		mov	sp, r7
  88 0020 02B0     		add	sp, sp, #8
  89              		@ sp needed
  90 0022 80BD     		pop	{r7, pc}
  91              		.cfi_endproc
  92              	.LFE3:
  93              		.size	Serial_SCB_IRQ_StartEx, .-Serial_SCB_IRQ_StartEx
  94              		.section	.text.Serial_SCB_IRQ_Stop,"ax",%progbits
  95              		.align	2
  96              		.global	Serial_SCB_IRQ_Stop
  97              		.code	16
  98              		.thumb_func
  99              		.type	Serial_SCB_IRQ_Stop, %function
 100              	Serial_SCB_IRQ_Stop:
 101              	.LFB4:
 113:Generated_Source\PSoC4/Serial_SCB_IRQ.c **** 
 114:Generated_Source\PSoC4/Serial_SCB_IRQ.c **** 
 115:Generated_Source\PSoC4/Serial_SCB_IRQ.c **** /*******************************************************************************
 116:Generated_Source\PSoC4/Serial_SCB_IRQ.c **** * Function Name: Serial_SCB_IRQ_Stop
 117:Generated_Source\PSoC4/Serial_SCB_IRQ.c **** ********************************************************************************
 118:Generated_Source\PSoC4/Serial_SCB_IRQ.c **** *
 119:Generated_Source\PSoC4/Serial_SCB_IRQ.c **** * Summary:
 120:Generated_Source\PSoC4/Serial_SCB_IRQ.c **** *   Disables and removes the interrupt.
 121:Generated_Source\PSoC4/Serial_SCB_IRQ.c **** *
 122:Generated_Source\PSoC4/Serial_SCB_IRQ.c **** * Parameters:  
 123:Generated_Source\PSoC4/Serial_SCB_IRQ.c **** *   None
 124:Generated_Source\PSoC4/Serial_SCB_IRQ.c **** *
 125:Generated_Source\PSoC4/Serial_SCB_IRQ.c **** * Return:
 126:Generated_Source\PSoC4/Serial_SCB_IRQ.c **** *   None
 127:Generated_Source\PSoC4/Serial_SCB_IRQ.c **** *
ARM GAS  C:\Users\TTSS\AppData\Local\Temp\ccy3xBj5.s 			page 5


 128:Generated_Source\PSoC4/Serial_SCB_IRQ.c **** *******************************************************************************/
 129:Generated_Source\PSoC4/Serial_SCB_IRQ.c **** void Serial_SCB_IRQ_Stop(void)
 130:Generated_Source\PSoC4/Serial_SCB_IRQ.c **** {
 102              		.loc 1 130 0
 103              		.cfi_startproc
 104 0000 80B5     		push	{r7, lr}
 105              		.cfi_def_cfa_offset 8
 106              		.cfi_offset 7, -8
 107              		.cfi_offset 14, -4
 108 0002 00AF     		add	r7, sp, #0
 109              		.cfi_def_cfa_register 7
 131:Generated_Source\PSoC4/Serial_SCB_IRQ.c ****     /* Disable this interrupt. */
 132:Generated_Source\PSoC4/Serial_SCB_IRQ.c ****     Serial_SCB_IRQ_Disable();
 110              		.loc 1 132 0
 111 0004 FFF7FEFF 		bl	Serial_SCB_IRQ_Disable
 133:Generated_Source\PSoC4/Serial_SCB_IRQ.c **** 
 134:Generated_Source\PSoC4/Serial_SCB_IRQ.c ****     /* Set the ISR to point to the passive one. */
 135:Generated_Source\PSoC4/Serial_SCB_IRQ.c ****     Serial_SCB_IRQ_SetVector(&IntDefaultHandler);
 112              		.loc 1 135 0
 113 0008 024B     		ldr	r3, .L6
 114 000a 181C     		mov	r0, r3
 115 000c FFF7FEFF 		bl	Serial_SCB_IRQ_SetVector
 136:Generated_Source\PSoC4/Serial_SCB_IRQ.c **** }
 116              		.loc 1 136 0
 117 0010 BD46     		mov	sp, r7
 118              		@ sp needed
 119 0012 80BD     		pop	{r7, pc}
 120              	.L7:
 121              		.align	2
 122              	.L6:
 123 0014 00000000 		.word	IntDefaultHandler
 124              		.cfi_endproc
 125              	.LFE4:
 126              		.size	Serial_SCB_IRQ_Stop, .-Serial_SCB_IRQ_Stop
 127              		.section	.text.Serial_SCB_IRQ_Interrupt,"ax",%progbits
 128              		.align	2
 129              		.global	Serial_SCB_IRQ_Interrupt
 130              		.code	16
 131              		.thumb_func
 132              		.type	Serial_SCB_IRQ_Interrupt, %function
 133              	Serial_SCB_IRQ_Interrupt:
 134              	.LFB5:
 137:Generated_Source\PSoC4/Serial_SCB_IRQ.c **** 
 138:Generated_Source\PSoC4/Serial_SCB_IRQ.c **** 
 139:Generated_Source\PSoC4/Serial_SCB_IRQ.c **** /*******************************************************************************
 140:Generated_Source\PSoC4/Serial_SCB_IRQ.c **** * Function Name: Serial_SCB_IRQ_Interrupt
 141:Generated_Source\PSoC4/Serial_SCB_IRQ.c **** ********************************************************************************
 142:Generated_Source\PSoC4/Serial_SCB_IRQ.c **** *
 143:Generated_Source\PSoC4/Serial_SCB_IRQ.c **** * Summary:
 144:Generated_Source\PSoC4/Serial_SCB_IRQ.c **** *   The default Interrupt Service Routine for Serial_SCB_IRQ.
 145:Generated_Source\PSoC4/Serial_SCB_IRQ.c **** *
 146:Generated_Source\PSoC4/Serial_SCB_IRQ.c **** *   Add custom code between the START and END comments to keep the next version
 147:Generated_Source\PSoC4/Serial_SCB_IRQ.c **** *   of this file from over-writing your code.
 148:Generated_Source\PSoC4/Serial_SCB_IRQ.c **** *
 149:Generated_Source\PSoC4/Serial_SCB_IRQ.c **** *   Note You may use either the default ISR by using this API, or you may define
 150:Generated_Source\PSoC4/Serial_SCB_IRQ.c **** *   your own separate ISR through ISR_StartEx().
 151:Generated_Source\PSoC4/Serial_SCB_IRQ.c **** *
ARM GAS  C:\Users\TTSS\AppData\Local\Temp\ccy3xBj5.s 			page 6


 152:Generated_Source\PSoC4/Serial_SCB_IRQ.c **** * Parameters:  
 153:Generated_Source\PSoC4/Serial_SCB_IRQ.c **** *   None
 154:Generated_Source\PSoC4/Serial_SCB_IRQ.c **** *
 155:Generated_Source\PSoC4/Serial_SCB_IRQ.c **** * Return:
 156:Generated_Source\PSoC4/Serial_SCB_IRQ.c **** *   None
 157:Generated_Source\PSoC4/Serial_SCB_IRQ.c **** *
 158:Generated_Source\PSoC4/Serial_SCB_IRQ.c **** *******************************************************************************/
 159:Generated_Source\PSoC4/Serial_SCB_IRQ.c **** CY_ISR(Serial_SCB_IRQ_Interrupt)
 160:Generated_Source\PSoC4/Serial_SCB_IRQ.c **** {
 135              		.loc 1 160 0
 136              		.cfi_startproc
 137 0000 80B5     		push	{r7, lr}
 138              		.cfi_def_cfa_offset 8
 139              		.cfi_offset 7, -8
 140              		.cfi_offset 14, -4
 141 0002 00AF     		add	r7, sp, #0
 142              		.cfi_def_cfa_register 7
 161:Generated_Source\PSoC4/Serial_SCB_IRQ.c ****     #ifdef Serial_SCB_IRQ_INTERRUPT_INTERRUPT_CALLBACK
 162:Generated_Source\PSoC4/Serial_SCB_IRQ.c ****         Serial_SCB_IRQ_Interrupt_InterruptCallback();
 163:Generated_Source\PSoC4/Serial_SCB_IRQ.c ****     #endif /* Serial_SCB_IRQ_INTERRUPT_INTERRUPT_CALLBACK */ 
 164:Generated_Source\PSoC4/Serial_SCB_IRQ.c **** 
 165:Generated_Source\PSoC4/Serial_SCB_IRQ.c ****     /*  Place your Interrupt code here. */
 166:Generated_Source\PSoC4/Serial_SCB_IRQ.c ****     /* `#START Serial_SCB_IRQ_Interrupt` */
 167:Generated_Source\PSoC4/Serial_SCB_IRQ.c **** 
 168:Generated_Source\PSoC4/Serial_SCB_IRQ.c ****     /* `#END` */
 169:Generated_Source\PSoC4/Serial_SCB_IRQ.c **** }
 143              		.loc 1 169 0
 144 0004 BD46     		mov	sp, r7
 145              		@ sp needed
 146 0006 80BD     		pop	{r7, pc}
 147              		.cfi_endproc
 148              	.LFE5:
 149              		.size	Serial_SCB_IRQ_Interrupt, .-Serial_SCB_IRQ_Interrupt
 150              		.section	.text.Serial_SCB_IRQ_SetVector,"ax",%progbits
 151              		.align	2
 152              		.global	Serial_SCB_IRQ_SetVector
 153              		.code	16
 154              		.thumb_func
 155              		.type	Serial_SCB_IRQ_SetVector, %function
 156              	Serial_SCB_IRQ_SetVector:
 157              	.LFB6:
 170:Generated_Source\PSoC4/Serial_SCB_IRQ.c **** 
 171:Generated_Source\PSoC4/Serial_SCB_IRQ.c **** 
 172:Generated_Source\PSoC4/Serial_SCB_IRQ.c **** /*******************************************************************************
 173:Generated_Source\PSoC4/Serial_SCB_IRQ.c **** * Function Name: Serial_SCB_IRQ_SetVector
 174:Generated_Source\PSoC4/Serial_SCB_IRQ.c **** ********************************************************************************
 175:Generated_Source\PSoC4/Serial_SCB_IRQ.c **** *
 176:Generated_Source\PSoC4/Serial_SCB_IRQ.c **** * Summary:
 177:Generated_Source\PSoC4/Serial_SCB_IRQ.c **** *   Change the ISR vector for the Interrupt. Note calling Serial_SCB_IRQ_Start
 178:Generated_Source\PSoC4/Serial_SCB_IRQ.c **** *   will override any effect this method would have had. To set the vector 
 179:Generated_Source\PSoC4/Serial_SCB_IRQ.c **** *   before the component has been started use Serial_SCB_IRQ_StartEx instead.
 180:Generated_Source\PSoC4/Serial_SCB_IRQ.c **** * 
 181:Generated_Source\PSoC4/Serial_SCB_IRQ.c **** *   When defining ISR functions, the CY_ISR and CY_ISR_PROTO macros should be 
 182:Generated_Source\PSoC4/Serial_SCB_IRQ.c **** *   used to provide consistent definition across compilers:
 183:Generated_Source\PSoC4/Serial_SCB_IRQ.c **** *
 184:Generated_Source\PSoC4/Serial_SCB_IRQ.c **** *   Function definition example:
 185:Generated_Source\PSoC4/Serial_SCB_IRQ.c **** *   CY_ISR(MyISR)
ARM GAS  C:\Users\TTSS\AppData\Local\Temp\ccy3xBj5.s 			page 7


 186:Generated_Source\PSoC4/Serial_SCB_IRQ.c **** *   {
 187:Generated_Source\PSoC4/Serial_SCB_IRQ.c **** *   }
 188:Generated_Source\PSoC4/Serial_SCB_IRQ.c **** *
 189:Generated_Source\PSoC4/Serial_SCB_IRQ.c **** *   Function prototype example:
 190:Generated_Source\PSoC4/Serial_SCB_IRQ.c **** *     CY_ISR_PROTO(MyISR);
 191:Generated_Source\PSoC4/Serial_SCB_IRQ.c **** *
 192:Generated_Source\PSoC4/Serial_SCB_IRQ.c **** * Parameters:
 193:Generated_Source\PSoC4/Serial_SCB_IRQ.c **** *   address: Address of the ISR to set in the interrupt vector table.
 194:Generated_Source\PSoC4/Serial_SCB_IRQ.c **** *
 195:Generated_Source\PSoC4/Serial_SCB_IRQ.c **** * Return:
 196:Generated_Source\PSoC4/Serial_SCB_IRQ.c **** *   None
 197:Generated_Source\PSoC4/Serial_SCB_IRQ.c **** *
 198:Generated_Source\PSoC4/Serial_SCB_IRQ.c **** *******************************************************************************/
 199:Generated_Source\PSoC4/Serial_SCB_IRQ.c **** void Serial_SCB_IRQ_SetVector(cyisraddress address)
 200:Generated_Source\PSoC4/Serial_SCB_IRQ.c **** {
 158              		.loc 1 200 0
 159              		.cfi_startproc
 160 0000 80B5     		push	{r7, lr}
 161              		.cfi_def_cfa_offset 8
 162              		.cfi_offset 7, -8
 163              		.cfi_offset 14, -4
 164 0002 82B0     		sub	sp, sp, #8
 165              		.cfi_def_cfa_offset 16
 166 0004 00AF     		add	r7, sp, #0
 167              		.cfi_def_cfa_register 7
 168 0006 7860     		str	r0, [r7, #4]
 201:Generated_Source\PSoC4/Serial_SCB_IRQ.c ****     CyRamVectors[CYINT_IRQ_BASE + Serial_SCB_IRQ__INTC_NUMBER] = address;
 169              		.loc 1 201 0
 170 0008 024B     		ldr	r3, .L10
 171 000a 7A68     		ldr	r2, [r7, #4]
 172 000c 5A66     		str	r2, [r3, #100]
 202:Generated_Source\PSoC4/Serial_SCB_IRQ.c **** }
 173              		.loc 1 202 0
 174 000e BD46     		mov	sp, r7
 175 0010 02B0     		add	sp, sp, #8
 176              		@ sp needed
 177 0012 80BD     		pop	{r7, pc}
 178              	.L11:
 179              		.align	2
 180              	.L10:
 181 0014 00000000 		.word	CyRamVectors
 182              		.cfi_endproc
 183              	.LFE6:
 184              		.size	Serial_SCB_IRQ_SetVector, .-Serial_SCB_IRQ_SetVector
 185              		.section	.text.Serial_SCB_IRQ_GetVector,"ax",%progbits
 186              		.align	2
 187              		.global	Serial_SCB_IRQ_GetVector
 188              		.code	16
 189              		.thumb_func
 190              		.type	Serial_SCB_IRQ_GetVector, %function
 191              	Serial_SCB_IRQ_GetVector:
 192              	.LFB7:
 203:Generated_Source\PSoC4/Serial_SCB_IRQ.c **** 
 204:Generated_Source\PSoC4/Serial_SCB_IRQ.c **** 
 205:Generated_Source\PSoC4/Serial_SCB_IRQ.c **** /*******************************************************************************
 206:Generated_Source\PSoC4/Serial_SCB_IRQ.c **** * Function Name: Serial_SCB_IRQ_GetVector
 207:Generated_Source\PSoC4/Serial_SCB_IRQ.c **** ********************************************************************************
ARM GAS  C:\Users\TTSS\AppData\Local\Temp\ccy3xBj5.s 			page 8


 208:Generated_Source\PSoC4/Serial_SCB_IRQ.c **** *
 209:Generated_Source\PSoC4/Serial_SCB_IRQ.c **** * Summary:
 210:Generated_Source\PSoC4/Serial_SCB_IRQ.c **** *   Gets the "address" of the current ISR vector for the Interrupt.
 211:Generated_Source\PSoC4/Serial_SCB_IRQ.c **** *
 212:Generated_Source\PSoC4/Serial_SCB_IRQ.c **** * Parameters:
 213:Generated_Source\PSoC4/Serial_SCB_IRQ.c **** *   None
 214:Generated_Source\PSoC4/Serial_SCB_IRQ.c **** *
 215:Generated_Source\PSoC4/Serial_SCB_IRQ.c **** * Return:
 216:Generated_Source\PSoC4/Serial_SCB_IRQ.c **** *   Address of the ISR in the interrupt vector table.
 217:Generated_Source\PSoC4/Serial_SCB_IRQ.c **** *
 218:Generated_Source\PSoC4/Serial_SCB_IRQ.c **** *******************************************************************************/
 219:Generated_Source\PSoC4/Serial_SCB_IRQ.c **** cyisraddress Serial_SCB_IRQ_GetVector(void)
 220:Generated_Source\PSoC4/Serial_SCB_IRQ.c **** {
 193              		.loc 1 220 0
 194              		.cfi_startproc
 195 0000 80B5     		push	{r7, lr}
 196              		.cfi_def_cfa_offset 8
 197              		.cfi_offset 7, -8
 198              		.cfi_offset 14, -4
 199 0002 00AF     		add	r7, sp, #0
 200              		.cfi_def_cfa_register 7
 221:Generated_Source\PSoC4/Serial_SCB_IRQ.c ****     return CyRamVectors[CYINT_IRQ_BASE + Serial_SCB_IRQ__INTC_NUMBER];
 201              		.loc 1 221 0
 202 0004 024B     		ldr	r3, .L14
 203 0006 5B6E     		ldr	r3, [r3, #100]
 222:Generated_Source\PSoC4/Serial_SCB_IRQ.c **** }
 204              		.loc 1 222 0
 205 0008 181C     		mov	r0, r3
 206 000a BD46     		mov	sp, r7
 207              		@ sp needed
 208 000c 80BD     		pop	{r7, pc}
 209              	.L15:
 210 000e C046     		.align	2
 211              	.L14:
 212 0010 00000000 		.word	CyRamVectors
 213              		.cfi_endproc
 214              	.LFE7:
 215              		.size	Serial_SCB_IRQ_GetVector, .-Serial_SCB_IRQ_GetVector
 216              		.section	.text.Serial_SCB_IRQ_SetPriority,"ax",%progbits
 217              		.align	2
 218              		.global	Serial_SCB_IRQ_SetPriority
 219              		.code	16
 220              		.thumb_func
 221              		.type	Serial_SCB_IRQ_SetPriority, %function
 222              	Serial_SCB_IRQ_SetPriority:
 223              	.LFB8:
 223:Generated_Source\PSoC4/Serial_SCB_IRQ.c **** 
 224:Generated_Source\PSoC4/Serial_SCB_IRQ.c **** 
 225:Generated_Source\PSoC4/Serial_SCB_IRQ.c **** /*******************************************************************************
 226:Generated_Source\PSoC4/Serial_SCB_IRQ.c **** * Function Name: Serial_SCB_IRQ_SetPriority
 227:Generated_Source\PSoC4/Serial_SCB_IRQ.c **** ********************************************************************************
 228:Generated_Source\PSoC4/Serial_SCB_IRQ.c **** *
 229:Generated_Source\PSoC4/Serial_SCB_IRQ.c **** * Summary:
 230:Generated_Source\PSoC4/Serial_SCB_IRQ.c **** *   Sets the Priority of the Interrupt. 
 231:Generated_Source\PSoC4/Serial_SCB_IRQ.c **** *
 232:Generated_Source\PSoC4/Serial_SCB_IRQ.c **** *   Note calling Serial_SCB_IRQ_Start or Serial_SCB_IRQ_StartEx will 
 233:Generated_Source\PSoC4/Serial_SCB_IRQ.c **** *   override any effect this API would have had. This API should only be called
ARM GAS  C:\Users\TTSS\AppData\Local\Temp\ccy3xBj5.s 			page 9


 234:Generated_Source\PSoC4/Serial_SCB_IRQ.c **** *   after Serial_SCB_IRQ_Start or Serial_SCB_IRQ_StartEx has been called. 
 235:Generated_Source\PSoC4/Serial_SCB_IRQ.c **** *   To set the initial priority for the component, use the Design-Wide Resources
 236:Generated_Source\PSoC4/Serial_SCB_IRQ.c **** *   Interrupt Editor.
 237:Generated_Source\PSoC4/Serial_SCB_IRQ.c **** *
 238:Generated_Source\PSoC4/Serial_SCB_IRQ.c **** *   Note This API has no effect on Non-maskable interrupt NMI).
 239:Generated_Source\PSoC4/Serial_SCB_IRQ.c **** *
 240:Generated_Source\PSoC4/Serial_SCB_IRQ.c **** * Parameters:
 241:Generated_Source\PSoC4/Serial_SCB_IRQ.c **** *   priority: Priority of the interrupt, 0 being the highest priority
 242:Generated_Source\PSoC4/Serial_SCB_IRQ.c **** *             PSoC 3 and PSoC 5LP: Priority is from 0 to 7.
 243:Generated_Source\PSoC4/Serial_SCB_IRQ.c **** *             PSoC 4: Priority is from 0 to 3.
 244:Generated_Source\PSoC4/Serial_SCB_IRQ.c **** *
 245:Generated_Source\PSoC4/Serial_SCB_IRQ.c **** * Return:
 246:Generated_Source\PSoC4/Serial_SCB_IRQ.c **** *   None
 247:Generated_Source\PSoC4/Serial_SCB_IRQ.c **** *
 248:Generated_Source\PSoC4/Serial_SCB_IRQ.c **** *******************************************************************************/
 249:Generated_Source\PSoC4/Serial_SCB_IRQ.c **** void Serial_SCB_IRQ_SetPriority(uint8 priority)
 250:Generated_Source\PSoC4/Serial_SCB_IRQ.c **** {
 224              		.loc 1 250 0
 225              		.cfi_startproc
 226 0000 90B5     		push	{r4, r7, lr}
 227              		.cfi_def_cfa_offset 12
 228              		.cfi_offset 4, -12
 229              		.cfi_offset 7, -8
 230              		.cfi_offset 14, -4
 231 0002 85B0     		sub	sp, sp, #20
 232              		.cfi_def_cfa_offset 32
 233 0004 00AF     		add	r7, sp, #0
 234              		.cfi_def_cfa_register 7
 235 0006 021C     		mov	r2, r0
 236 0008 FB1D     		add	r3, r7, #7
 237 000a 1A70     		strb	r2, [r3]
 251:Generated_Source\PSoC4/Serial_SCB_IRQ.c **** 	uint8 interruptState;
 252:Generated_Source\PSoC4/Serial_SCB_IRQ.c ****     uint32 priorityOffset = ((Serial_SCB_IRQ__INTC_NUMBER % 4u) * 8u) + 6u;
 238              		.loc 1 252 0
 239 000c 0E23     		mov	r3, #14
 240 000e FB60     		str	r3, [r7, #12]
 253:Generated_Source\PSoC4/Serial_SCB_IRQ.c ****     
 254:Generated_Source\PSoC4/Serial_SCB_IRQ.c **** 	interruptState = CyEnterCriticalSection();
 241              		.loc 1 254 0
 242 0010 0B23     		mov	r3, #11
 243 0012 FC18     		add	r4, r7, r3
 244 0014 FFF7FEFF 		bl	CyEnterCriticalSection
 245 0018 031C     		mov	r3, r0
 246 001a 2370     		strb	r3, [r4]
 255:Generated_Source\PSoC4/Serial_SCB_IRQ.c ****     *Serial_SCB_IRQ_INTC_PRIOR = (*Serial_SCB_IRQ_INTC_PRIOR & (uint32)(~Serial_SCB_IRQ__INTC_PRIOR
 247              		.loc 1 255 0
 248 001c 0A4B     		ldr	r3, .L17
 249 001e 0A4A     		ldr	r2, .L17
 250 0020 1268     		ldr	r2, [r2]
 251 0022 0A49     		ldr	r1, .L17+4
 252 0024 1140     		and	r1, r2
 256:Generated_Source\PSoC4/Serial_SCB_IRQ.c ****                                     ((uint32)priority << priorityOffset);
 253              		.loc 1 256 0
 254 0026 FA1D     		add	r2, r7, #7
 255 0028 1078     		ldrb	r0, [r2]
 256 002a FA68     		ldr	r2, [r7, #12]
 257 002c 9040     		lsl	r0, r0, r2
ARM GAS  C:\Users\TTSS\AppData\Local\Temp\ccy3xBj5.s 			page 10


 258 002e 021C     		mov	r2, r0
 255:Generated_Source\PSoC4/Serial_SCB_IRQ.c ****     *Serial_SCB_IRQ_INTC_PRIOR = (*Serial_SCB_IRQ_INTC_PRIOR & (uint32)(~Serial_SCB_IRQ__INTC_PRIOR
 259              		.loc 1 255 0
 260 0030 0A43     		orr	r2, r1
 261 0032 1A60     		str	r2, [r3]
 257:Generated_Source\PSoC4/Serial_SCB_IRQ.c **** 	CyExitCriticalSection(interruptState);
 262              		.loc 1 257 0
 263 0034 0B23     		mov	r3, #11
 264 0036 FB18     		add	r3, r7, r3
 265 0038 1B78     		ldrb	r3, [r3]
 266 003a 181C     		mov	r0, r3
 267 003c FFF7FEFF 		bl	CyExitCriticalSection
 258:Generated_Source\PSoC4/Serial_SCB_IRQ.c **** }
 268              		.loc 1 258 0
 269 0040 BD46     		mov	sp, r7
 270 0042 05B0     		add	sp, sp, #20
 271              		@ sp needed
 272 0044 90BD     		pop	{r4, r7, pc}
 273              	.L18:
 274 0046 C046     		.align	2
 275              	.L17:
 276 0048 08E400E0 		.word	-536812536
 277 004c FF3FFFFF 		.word	-49153
 278              		.cfi_endproc
 279              	.LFE8:
 280              		.size	Serial_SCB_IRQ_SetPriority, .-Serial_SCB_IRQ_SetPriority
 281              		.section	.text.Serial_SCB_IRQ_GetPriority,"ax",%progbits
 282              		.align	2
 283              		.global	Serial_SCB_IRQ_GetPriority
 284              		.code	16
 285              		.thumb_func
 286              		.type	Serial_SCB_IRQ_GetPriority, %function
 287              	Serial_SCB_IRQ_GetPriority:
 288              	.LFB9:
 259:Generated_Source\PSoC4/Serial_SCB_IRQ.c **** 
 260:Generated_Source\PSoC4/Serial_SCB_IRQ.c **** 
 261:Generated_Source\PSoC4/Serial_SCB_IRQ.c **** /*******************************************************************************
 262:Generated_Source\PSoC4/Serial_SCB_IRQ.c **** * Function Name: Serial_SCB_IRQ_GetPriority
 263:Generated_Source\PSoC4/Serial_SCB_IRQ.c **** ********************************************************************************
 264:Generated_Source\PSoC4/Serial_SCB_IRQ.c **** *
 265:Generated_Source\PSoC4/Serial_SCB_IRQ.c **** * Summary:
 266:Generated_Source\PSoC4/Serial_SCB_IRQ.c **** *   Gets the Priority of the Interrupt.
 267:Generated_Source\PSoC4/Serial_SCB_IRQ.c **** *
 268:Generated_Source\PSoC4/Serial_SCB_IRQ.c **** * Parameters:
 269:Generated_Source\PSoC4/Serial_SCB_IRQ.c **** *   None
 270:Generated_Source\PSoC4/Serial_SCB_IRQ.c **** *
 271:Generated_Source\PSoC4/Serial_SCB_IRQ.c **** * Return:
 272:Generated_Source\PSoC4/Serial_SCB_IRQ.c **** *   Priority of the interrupt, 0 being the highest priority
 273:Generated_Source\PSoC4/Serial_SCB_IRQ.c **** *    PSoC 3 and PSoC 5LP: Priority is from 0 to 7.
 274:Generated_Source\PSoC4/Serial_SCB_IRQ.c **** *    PSoC 4: Priority is from 0 to 3.
 275:Generated_Source\PSoC4/Serial_SCB_IRQ.c **** *
 276:Generated_Source\PSoC4/Serial_SCB_IRQ.c **** *******************************************************************************/
 277:Generated_Source\PSoC4/Serial_SCB_IRQ.c **** uint8 Serial_SCB_IRQ_GetPriority(void)
 278:Generated_Source\PSoC4/Serial_SCB_IRQ.c **** {
 289              		.loc 1 278 0
 290              		.cfi_startproc
 291 0000 80B5     		push	{r7, lr}
ARM GAS  C:\Users\TTSS\AppData\Local\Temp\ccy3xBj5.s 			page 11


 292              		.cfi_def_cfa_offset 8
 293              		.cfi_offset 7, -8
 294              		.cfi_offset 14, -4
 295 0002 82B0     		sub	sp, sp, #8
 296              		.cfi_def_cfa_offset 16
 297 0004 00AF     		add	r7, sp, #0
 298              		.cfi_def_cfa_register 7
 279:Generated_Source\PSoC4/Serial_SCB_IRQ.c ****     uint32 priority;
 280:Generated_Source\PSoC4/Serial_SCB_IRQ.c **** 	uint32 priorityOffset = ((Serial_SCB_IRQ__INTC_NUMBER % 4u) * 8u) + 6u;
 299              		.loc 1 280 0
 300 0006 0E23     		mov	r3, #14
 301 0008 7B60     		str	r3, [r7, #4]
 281:Generated_Source\PSoC4/Serial_SCB_IRQ.c **** 
 282:Generated_Source\PSoC4/Serial_SCB_IRQ.c ****     priority = (*Serial_SCB_IRQ_INTC_PRIOR & Serial_SCB_IRQ__INTC_PRIOR_MASK) >> priorityOffset;
 302              		.loc 1 282 0
 303 000a 074B     		ldr	r3, .L21
 304 000c 1A68     		ldr	r2, [r3]
 305 000e C023     		mov	r3, #192
 306 0010 1B02     		lsl	r3, r3, #8
 307 0012 1A40     		and	r2, r3
 308 0014 7B68     		ldr	r3, [r7, #4]
 309 0016 DA40     		lsr	r2, r2, r3
 310 0018 131C     		mov	r3, r2
 311 001a 3B60     		str	r3, [r7]
 283:Generated_Source\PSoC4/Serial_SCB_IRQ.c **** 
 284:Generated_Source\PSoC4/Serial_SCB_IRQ.c ****     return (uint8)priority;
 312              		.loc 1 284 0
 313 001c 3B68     		ldr	r3, [r7]
 314 001e DBB2     		uxtb	r3, r3
 285:Generated_Source\PSoC4/Serial_SCB_IRQ.c **** }
 315              		.loc 1 285 0
 316 0020 181C     		mov	r0, r3
 317 0022 BD46     		mov	sp, r7
 318 0024 02B0     		add	sp, sp, #8
 319              		@ sp needed
 320 0026 80BD     		pop	{r7, pc}
 321              	.L22:
 322              		.align	2
 323              	.L21:
 324 0028 08E400E0 		.word	-536812536
 325              		.cfi_endproc
 326              	.LFE9:
 327              		.size	Serial_SCB_IRQ_GetPriority, .-Serial_SCB_IRQ_GetPriority
 328              		.section	.text.Serial_SCB_IRQ_Enable,"ax",%progbits
 329              		.align	2
 330              		.global	Serial_SCB_IRQ_Enable
 331              		.code	16
 332              		.thumb_func
 333              		.type	Serial_SCB_IRQ_Enable, %function
 334              	Serial_SCB_IRQ_Enable:
 335              	.LFB10:
 286:Generated_Source\PSoC4/Serial_SCB_IRQ.c **** 
 287:Generated_Source\PSoC4/Serial_SCB_IRQ.c **** 
 288:Generated_Source\PSoC4/Serial_SCB_IRQ.c **** /*******************************************************************************
 289:Generated_Source\PSoC4/Serial_SCB_IRQ.c **** * Function Name: Serial_SCB_IRQ_Enable
 290:Generated_Source\PSoC4/Serial_SCB_IRQ.c **** ********************************************************************************
 291:Generated_Source\PSoC4/Serial_SCB_IRQ.c **** *
ARM GAS  C:\Users\TTSS\AppData\Local\Temp\ccy3xBj5.s 			page 12


 292:Generated_Source\PSoC4/Serial_SCB_IRQ.c **** * Summary:
 293:Generated_Source\PSoC4/Serial_SCB_IRQ.c **** *   Enables the interrupt to the interrupt controller. Do not call this function
 294:Generated_Source\PSoC4/Serial_SCB_IRQ.c **** *   unless ISR_Start() has been called or the functionality of the ISR_Start() 
 295:Generated_Source\PSoC4/Serial_SCB_IRQ.c **** *   function, which sets the vector and the priority, has been called.
 296:Generated_Source\PSoC4/Serial_SCB_IRQ.c **** *
 297:Generated_Source\PSoC4/Serial_SCB_IRQ.c **** * Parameters:
 298:Generated_Source\PSoC4/Serial_SCB_IRQ.c **** *   None
 299:Generated_Source\PSoC4/Serial_SCB_IRQ.c **** *
 300:Generated_Source\PSoC4/Serial_SCB_IRQ.c **** * Return:
 301:Generated_Source\PSoC4/Serial_SCB_IRQ.c **** *   None
 302:Generated_Source\PSoC4/Serial_SCB_IRQ.c **** *
 303:Generated_Source\PSoC4/Serial_SCB_IRQ.c **** *******************************************************************************/
 304:Generated_Source\PSoC4/Serial_SCB_IRQ.c **** void Serial_SCB_IRQ_Enable(void)
 305:Generated_Source\PSoC4/Serial_SCB_IRQ.c **** {
 336              		.loc 1 305 0
 337              		.cfi_startproc
 338 0000 80B5     		push	{r7, lr}
 339              		.cfi_def_cfa_offset 8
 340              		.cfi_offset 7, -8
 341              		.cfi_offset 14, -4
 342 0002 00AF     		add	r7, sp, #0
 343              		.cfi_def_cfa_register 7
 306:Generated_Source\PSoC4/Serial_SCB_IRQ.c ****     /* Enable the general interrupt. */
 307:Generated_Source\PSoC4/Serial_SCB_IRQ.c ****     *Serial_SCB_IRQ_INTC_SET_EN = Serial_SCB_IRQ__INTC_MASK;
 344              		.loc 1 307 0
 345 0004 024B     		ldr	r3, .L24
 346 0006 8022     		mov	r2, #128
 347 0008 9200     		lsl	r2, r2, #2
 348 000a 1A60     		str	r2, [r3]
 308:Generated_Source\PSoC4/Serial_SCB_IRQ.c **** }
 349              		.loc 1 308 0
 350 000c BD46     		mov	sp, r7
 351              		@ sp needed
 352 000e 80BD     		pop	{r7, pc}
 353              	.L25:
 354              		.align	2
 355              	.L24:
 356 0010 00E100E0 		.word	-536813312
 357              		.cfi_endproc
 358              	.LFE10:
 359              		.size	Serial_SCB_IRQ_Enable, .-Serial_SCB_IRQ_Enable
 360              		.section	.text.Serial_SCB_IRQ_GetState,"ax",%progbits
 361              		.align	2
 362              		.global	Serial_SCB_IRQ_GetState
 363              		.code	16
 364              		.thumb_func
 365              		.type	Serial_SCB_IRQ_GetState, %function
 366              	Serial_SCB_IRQ_GetState:
 367              	.LFB11:
 309:Generated_Source\PSoC4/Serial_SCB_IRQ.c **** 
 310:Generated_Source\PSoC4/Serial_SCB_IRQ.c **** 
 311:Generated_Source\PSoC4/Serial_SCB_IRQ.c **** /*******************************************************************************
 312:Generated_Source\PSoC4/Serial_SCB_IRQ.c **** * Function Name: Serial_SCB_IRQ_GetState
 313:Generated_Source\PSoC4/Serial_SCB_IRQ.c **** ********************************************************************************
 314:Generated_Source\PSoC4/Serial_SCB_IRQ.c **** *
 315:Generated_Source\PSoC4/Serial_SCB_IRQ.c **** * Summary:
 316:Generated_Source\PSoC4/Serial_SCB_IRQ.c **** *   Gets the state (enabled, disabled) of the Interrupt.
ARM GAS  C:\Users\TTSS\AppData\Local\Temp\ccy3xBj5.s 			page 13


 317:Generated_Source\PSoC4/Serial_SCB_IRQ.c **** *
 318:Generated_Source\PSoC4/Serial_SCB_IRQ.c **** * Parameters:
 319:Generated_Source\PSoC4/Serial_SCB_IRQ.c **** *   None
 320:Generated_Source\PSoC4/Serial_SCB_IRQ.c **** *
 321:Generated_Source\PSoC4/Serial_SCB_IRQ.c **** * Return:
 322:Generated_Source\PSoC4/Serial_SCB_IRQ.c **** *   1 if enabled, 0 if disabled.
 323:Generated_Source\PSoC4/Serial_SCB_IRQ.c **** *
 324:Generated_Source\PSoC4/Serial_SCB_IRQ.c **** *******************************************************************************/
 325:Generated_Source\PSoC4/Serial_SCB_IRQ.c **** uint8 Serial_SCB_IRQ_GetState(void)
 326:Generated_Source\PSoC4/Serial_SCB_IRQ.c **** {
 368              		.loc 1 326 0
 369              		.cfi_startproc
 370 0000 80B5     		push	{r7, lr}
 371              		.cfi_def_cfa_offset 8
 372              		.cfi_offset 7, -8
 373              		.cfi_offset 14, -4
 374 0002 00AF     		add	r7, sp, #0
 375              		.cfi_def_cfa_register 7
 327:Generated_Source\PSoC4/Serial_SCB_IRQ.c ****     /* Get the state of the general interrupt. */
 328:Generated_Source\PSoC4/Serial_SCB_IRQ.c ****     return ((*Serial_SCB_IRQ_INTC_SET_EN & (uint32)Serial_SCB_IRQ__INTC_MASK) != 0u) ? 1u:0u;
 376              		.loc 1 328 0
 377 0004 054B     		ldr	r3, .L30
 378 0006 1A68     		ldr	r2, [r3]
 379 0008 8023     		mov	r3, #128
 380 000a 9B00     		lsl	r3, r3, #2
 381 000c 1340     		and	r3, r2
 382 000e 01D0     		beq	.L27
 383              		.loc 1 328 0 is_stmt 0 discriminator 1
 384 0010 0123     		mov	r3, #1
 385 0012 00E0     		b	.L28
 386              	.L27:
 387              		.loc 1 328 0 discriminator 2
 388 0014 0023     		mov	r3, #0
 389              	.L28:
 329:Generated_Source\PSoC4/Serial_SCB_IRQ.c **** }
 390              		.loc 1 329 0 is_stmt 1 discriminator 4
 391 0016 181C     		mov	r0, r3
 392 0018 BD46     		mov	sp, r7
 393              		@ sp needed
 394 001a 80BD     		pop	{r7, pc}
 395              	.L31:
 396              		.align	2
 397              	.L30:
 398 001c 00E100E0 		.word	-536813312
 399              		.cfi_endproc
 400              	.LFE11:
 401              		.size	Serial_SCB_IRQ_GetState, .-Serial_SCB_IRQ_GetState
 402              		.section	.text.Serial_SCB_IRQ_Disable,"ax",%progbits
 403              		.align	2
 404              		.global	Serial_SCB_IRQ_Disable
 405              		.code	16
 406              		.thumb_func
 407              		.type	Serial_SCB_IRQ_Disable, %function
 408              	Serial_SCB_IRQ_Disable:
 409              	.LFB12:
 330:Generated_Source\PSoC4/Serial_SCB_IRQ.c **** 
 331:Generated_Source\PSoC4/Serial_SCB_IRQ.c **** 
ARM GAS  C:\Users\TTSS\AppData\Local\Temp\ccy3xBj5.s 			page 14


 332:Generated_Source\PSoC4/Serial_SCB_IRQ.c **** /*******************************************************************************
 333:Generated_Source\PSoC4/Serial_SCB_IRQ.c **** * Function Name: Serial_SCB_IRQ_Disable
 334:Generated_Source\PSoC4/Serial_SCB_IRQ.c **** ********************************************************************************
 335:Generated_Source\PSoC4/Serial_SCB_IRQ.c **** *
 336:Generated_Source\PSoC4/Serial_SCB_IRQ.c **** * Summary:
 337:Generated_Source\PSoC4/Serial_SCB_IRQ.c **** *   Disables the Interrupt in the interrupt controller.
 338:Generated_Source\PSoC4/Serial_SCB_IRQ.c **** *
 339:Generated_Source\PSoC4/Serial_SCB_IRQ.c **** * Parameters:
 340:Generated_Source\PSoC4/Serial_SCB_IRQ.c **** *   None
 341:Generated_Source\PSoC4/Serial_SCB_IRQ.c **** *
 342:Generated_Source\PSoC4/Serial_SCB_IRQ.c **** * Return:
 343:Generated_Source\PSoC4/Serial_SCB_IRQ.c **** *   None
 344:Generated_Source\PSoC4/Serial_SCB_IRQ.c **** *
 345:Generated_Source\PSoC4/Serial_SCB_IRQ.c **** *******************************************************************************/
 346:Generated_Source\PSoC4/Serial_SCB_IRQ.c **** void Serial_SCB_IRQ_Disable(void)
 347:Generated_Source\PSoC4/Serial_SCB_IRQ.c **** {
 410              		.loc 1 347 0
 411              		.cfi_startproc
 412 0000 80B5     		push	{r7, lr}
 413              		.cfi_def_cfa_offset 8
 414              		.cfi_offset 7, -8
 415              		.cfi_offset 14, -4
 416 0002 00AF     		add	r7, sp, #0
 417              		.cfi_def_cfa_register 7
 348:Generated_Source\PSoC4/Serial_SCB_IRQ.c ****     /* Disable the general interrupt. */
 349:Generated_Source\PSoC4/Serial_SCB_IRQ.c ****     *Serial_SCB_IRQ_INTC_CLR_EN = Serial_SCB_IRQ__INTC_MASK;
 418              		.loc 1 349 0
 419 0004 024B     		ldr	r3, .L33
 420 0006 8022     		mov	r2, #128
 421 0008 9200     		lsl	r2, r2, #2
 422 000a 1A60     		str	r2, [r3]
 350:Generated_Source\PSoC4/Serial_SCB_IRQ.c **** }
 423              		.loc 1 350 0
 424 000c BD46     		mov	sp, r7
 425              		@ sp needed
 426 000e 80BD     		pop	{r7, pc}
 427              	.L34:
 428              		.align	2
 429              	.L33:
 430 0010 80E100E0 		.word	-536813184
 431              		.cfi_endproc
 432              	.LFE12:
 433              		.size	Serial_SCB_IRQ_Disable, .-Serial_SCB_IRQ_Disable
 434              		.section	.text.Serial_SCB_IRQ_SetPending,"ax",%progbits
 435              		.align	2
 436              		.global	Serial_SCB_IRQ_SetPending
 437              		.code	16
 438              		.thumb_func
 439              		.type	Serial_SCB_IRQ_SetPending, %function
 440              	Serial_SCB_IRQ_SetPending:
 441              	.LFB13:
 351:Generated_Source\PSoC4/Serial_SCB_IRQ.c **** 
 352:Generated_Source\PSoC4/Serial_SCB_IRQ.c **** 
 353:Generated_Source\PSoC4/Serial_SCB_IRQ.c **** /*******************************************************************************
 354:Generated_Source\PSoC4/Serial_SCB_IRQ.c **** * Function Name: Serial_SCB_IRQ_SetPending
 355:Generated_Source\PSoC4/Serial_SCB_IRQ.c **** ********************************************************************************
 356:Generated_Source\PSoC4/Serial_SCB_IRQ.c **** *
ARM GAS  C:\Users\TTSS\AppData\Local\Temp\ccy3xBj5.s 			page 15


 357:Generated_Source\PSoC4/Serial_SCB_IRQ.c **** * Summary:
 358:Generated_Source\PSoC4/Serial_SCB_IRQ.c **** *   Causes the Interrupt to enter the pending state, a software method of
 359:Generated_Source\PSoC4/Serial_SCB_IRQ.c **** *   generating the interrupt.
 360:Generated_Source\PSoC4/Serial_SCB_IRQ.c **** *
 361:Generated_Source\PSoC4/Serial_SCB_IRQ.c **** * Parameters:
 362:Generated_Source\PSoC4/Serial_SCB_IRQ.c **** *   None
 363:Generated_Source\PSoC4/Serial_SCB_IRQ.c **** *
 364:Generated_Source\PSoC4/Serial_SCB_IRQ.c **** * Return:
 365:Generated_Source\PSoC4/Serial_SCB_IRQ.c **** *   None
 366:Generated_Source\PSoC4/Serial_SCB_IRQ.c **** *
 367:Generated_Source\PSoC4/Serial_SCB_IRQ.c **** * Side Effects:
 368:Generated_Source\PSoC4/Serial_SCB_IRQ.c **** *   If interrupts are enabled and the interrupt is set up properly, the ISR is
 369:Generated_Source\PSoC4/Serial_SCB_IRQ.c **** *   entered (depending on the priority of this interrupt and other pending 
 370:Generated_Source\PSoC4/Serial_SCB_IRQ.c **** *   interrupts).
 371:Generated_Source\PSoC4/Serial_SCB_IRQ.c **** *
 372:Generated_Source\PSoC4/Serial_SCB_IRQ.c **** *******************************************************************************/
 373:Generated_Source\PSoC4/Serial_SCB_IRQ.c **** void Serial_SCB_IRQ_SetPending(void)
 374:Generated_Source\PSoC4/Serial_SCB_IRQ.c **** {
 442              		.loc 1 374 0
 443              		.cfi_startproc
 444 0000 80B5     		push	{r7, lr}
 445              		.cfi_def_cfa_offset 8
 446              		.cfi_offset 7, -8
 447              		.cfi_offset 14, -4
 448 0002 00AF     		add	r7, sp, #0
 449              		.cfi_def_cfa_register 7
 375:Generated_Source\PSoC4/Serial_SCB_IRQ.c ****     *Serial_SCB_IRQ_INTC_SET_PD = Serial_SCB_IRQ__INTC_MASK;
 450              		.loc 1 375 0
 451 0004 024B     		ldr	r3, .L36
 452 0006 8022     		mov	r2, #128
 453 0008 9200     		lsl	r2, r2, #2
 454 000a 1A60     		str	r2, [r3]
 376:Generated_Source\PSoC4/Serial_SCB_IRQ.c **** }
 455              		.loc 1 376 0
 456 000c BD46     		mov	sp, r7
 457              		@ sp needed
 458 000e 80BD     		pop	{r7, pc}
 459              	.L37:
 460              		.align	2
 461              	.L36:
 462 0010 00E200E0 		.word	-536813056
 463              		.cfi_endproc
 464              	.LFE13:
 465              		.size	Serial_SCB_IRQ_SetPending, .-Serial_SCB_IRQ_SetPending
 466              		.section	.text.Serial_SCB_IRQ_ClearPending,"ax",%progbits
 467              		.align	2
 468              		.global	Serial_SCB_IRQ_ClearPending
 469              		.code	16
 470              		.thumb_func
 471              		.type	Serial_SCB_IRQ_ClearPending, %function
 472              	Serial_SCB_IRQ_ClearPending:
 473              	.LFB14:
 377:Generated_Source\PSoC4/Serial_SCB_IRQ.c **** 
 378:Generated_Source\PSoC4/Serial_SCB_IRQ.c **** 
 379:Generated_Source\PSoC4/Serial_SCB_IRQ.c **** /*******************************************************************************
 380:Generated_Source\PSoC4/Serial_SCB_IRQ.c **** * Function Name: Serial_SCB_IRQ_ClearPending
 381:Generated_Source\PSoC4/Serial_SCB_IRQ.c **** ********************************************************************************
ARM GAS  C:\Users\TTSS\AppData\Local\Temp\ccy3xBj5.s 			page 16


 382:Generated_Source\PSoC4/Serial_SCB_IRQ.c **** *
 383:Generated_Source\PSoC4/Serial_SCB_IRQ.c **** * Summary:
 384:Generated_Source\PSoC4/Serial_SCB_IRQ.c **** *   Clears a pending interrupt in the interrupt controller.
 385:Generated_Source\PSoC4/Serial_SCB_IRQ.c **** *
 386:Generated_Source\PSoC4/Serial_SCB_IRQ.c **** *   Note Some interrupt sources are clear-on-read and require the block 
 387:Generated_Source\PSoC4/Serial_SCB_IRQ.c **** *   interrupt/status register to be read/cleared with the appropriate block API 
 388:Generated_Source\PSoC4/Serial_SCB_IRQ.c **** *   (GPIO, UART, and so on). Otherwise the ISR will continue to remain in 
 389:Generated_Source\PSoC4/Serial_SCB_IRQ.c **** *   pending state even though the interrupt itself is cleared using this API.
 390:Generated_Source\PSoC4/Serial_SCB_IRQ.c **** *
 391:Generated_Source\PSoC4/Serial_SCB_IRQ.c **** * Parameters:
 392:Generated_Source\PSoC4/Serial_SCB_IRQ.c **** *   None
 393:Generated_Source\PSoC4/Serial_SCB_IRQ.c **** *
 394:Generated_Source\PSoC4/Serial_SCB_IRQ.c **** * Return:
 395:Generated_Source\PSoC4/Serial_SCB_IRQ.c **** *   None
 396:Generated_Source\PSoC4/Serial_SCB_IRQ.c **** *
 397:Generated_Source\PSoC4/Serial_SCB_IRQ.c **** *******************************************************************************/
 398:Generated_Source\PSoC4/Serial_SCB_IRQ.c **** void Serial_SCB_IRQ_ClearPending(void)
 399:Generated_Source\PSoC4/Serial_SCB_IRQ.c **** {
 474              		.loc 1 399 0
 475              		.cfi_startproc
 476 0000 80B5     		push	{r7, lr}
 477              		.cfi_def_cfa_offset 8
 478              		.cfi_offset 7, -8
 479              		.cfi_offset 14, -4
 480 0002 00AF     		add	r7, sp, #0
 481              		.cfi_def_cfa_register 7
 400:Generated_Source\PSoC4/Serial_SCB_IRQ.c ****     *Serial_SCB_IRQ_INTC_CLR_PD = Serial_SCB_IRQ__INTC_MASK;
 482              		.loc 1 400 0
 483 0004 024B     		ldr	r3, .L39
 484 0006 8022     		mov	r2, #128
 485 0008 9200     		lsl	r2, r2, #2
 486 000a 1A60     		str	r2, [r3]
 401:Generated_Source\PSoC4/Serial_SCB_IRQ.c **** }
 487              		.loc 1 401 0
 488 000c BD46     		mov	sp, r7
 489              		@ sp needed
 490 000e 80BD     		pop	{r7, pc}
 491              	.L40:
 492              		.align	2
 493              	.L39:
 494 0010 80E200E0 		.word	-536812928
 495              		.cfi_endproc
 496              	.LFE14:
 497              		.size	Serial_SCB_IRQ_ClearPending, .-Serial_SCB_IRQ_ClearPending
 498              		.text
 499              	.Letext0:
 500              		.file 2 "Generated_Source\\PSoC4/cytypes.h"