ARM GAS  C:\Users\TTSS\AppData\Local\Temp\ccWZh6cO.s 			page 1


   1              		.syntax unified
   2              		.cpu cortex-m0
   3              		.fpu softvfp
   4              		.eabi_attribute 20, 1
   5              		.eabi_attribute 21, 1
   6              		.eabi_attribute 23, 3
   7              		.eabi_attribute 24, 1
   8              		.eabi_attribute 25, 1
   9              		.eabi_attribute 26, 1
  10              		.eabi_attribute 30, 6
  11              		.eabi_attribute 34, 0
  12              		.eabi_attribute 18, 4
  13              		.thumb
  14              		.syntax unified
  15              		.file	"main.c"
  16              		.text
  17              	.Ltext0:
  18              		.cfi_sections	.debug_frame
  19              		.global	__aeabi_idiv
  20              		.section	.text.main,"ax",%progbits
  21              		.align	2
  22              		.global	main
  23              		.code	16
  24              		.thumb_func
  25              		.type	main, %function
  26              	main:
  27              	.LFB35:
  28              		.file 1 "main.c"
   1:main.c        **** /* ========================================
   2:main.c        ****  * Air Quality Beacon, part of the hackAIR project.
   3:main.c        ****  * Freely available under CC BY 4.0
   4:main.c        ****  *
   5:main.c        ****  *
   6:main.c        ****  * Author: George Doxastakis gdoxastakis.ee@gmail.com
   7:main.c        ****  * Technology Transfer & Smart Solutions
   8:main.c        ****  * TEI of Athens
   9:main.c        ****  * http://research.ee.teiath.gr/ttss/
  10:main.c        ****  *
  11:main.c        ****  * http://www.hackair.eu/
  12:main.c        **** */
  13:main.c        **** #include <project.h>
  14:main.c        **** 
  15:main.c        **** /* Function prototypes */  
  16:main.c        **** void StackEventHandler(uint32 event, void* eventParam);
  17:main.c        **** char* readParticles();
  18:main.c        **** 
  19:main.c        **** /* ADV payload dta structure */  
  20:main.c        **** extern CYBLE_GAPP_DISC_MODE_INFO_T cyBle_discoveryModeInfo;
  21:main.c        **** #define advPayload   (cyBle_discoveryModeInfo.advData->advData) 
  22:main.c        **** 
  23:main.c        **** 
  24:main.c        **** int main()
  25:main.c        **** {
  29              		.loc 1 25 0
  30              		.cfi_startproc
  31              		@ args = 0, pretend = 0, frame = 8
  32              		@ frame_needed = 1, uses_anonymous_args = 0
ARM GAS  C:\Users\TTSS\AppData\Local\Temp\ccWZh6cO.s 			page 2


  33 0000 80B5     		push	{r7, lr}
  34              		.cfi_def_cfa_offset 8
  35              		.cfi_offset 7, -8
  36              		.cfi_offset 14, -4
  37 0002 82B0     		sub	sp, sp, #8
  38              		.cfi_def_cfa_offset 16
  39 0004 00AF     		add	r7, sp, #0
  40              		.cfi_def_cfa_register 7
  26:main.c        ****     CyGlobalIntEnable; /* Enable global interrupts. */
  41              		.loc 1 26 0
  42              		.syntax divided
  43              	@ 26 "main.c" 1
  44 0006 62B6     		CPSIE   i
  45              	@ 0 "" 2
  27:main.c        ****     Serial_Start();
  46              		.loc 1 27 0
  47              		.thumb
  48              		.syntax unified
  49 0008 FFF7FEFF 		bl	Serial_Start
  28:main.c        ****     /* Start CYBLE component and register the generic event handler */
  29:main.c        ****     CyBle_Start(StackEventHandler);
  50              		.loc 1 29 0
  51 000c 324B     		ldr	r3, .L3
  52 000e 1800     		movs	r0, r3
  53 0010 FFF7FEFF 		bl	CyBle_Start
  54              	.L2:
  55              	.LBB2:
  30:main.c        ****     
  31:main.c        ****     for(;;)
  32:main.c        ****     {
  33:main.c        ****         STATUS_Write(1);CyDelay(300);STATUS_Write(0);
  56              		.loc 1 33 0 discriminator 1
  57 0014 0120     		movs	r0, #1
  58 0016 FFF7FEFF 		bl	STATUS_Write
  59 001a 9623     		movs	r3, #150
  60 001c 5B00     		lsls	r3, r3, #1
  61 001e 1800     		movs	r0, r3
  62 0020 FFF7FEFF 		bl	CyDelay
  63 0024 0020     		movs	r0, #0
  64 0026 FFF7FEFF 		bl	STATUS_Write
  34:main.c        ****         char *val=readParticles(); //Perform sensor measurement (waits for result)
  65              		.loc 1 34 0 discriminator 1
  66 002a FFF7FEFF 		bl	readParticles
  67 002e 0300     		movs	r3, r0
  68 0030 7B60     		str	r3, [r7, #4]
  35:main.c        ****         uint16 pmsmall= (val[3]*256 + val[2])/10; //PM2.5 value
  69              		.loc 1 35 0 discriminator 1
  70 0032 7B68     		ldr	r3, [r7, #4]
  71 0034 0333     		adds	r3, r3, #3
  72 0036 1B78     		ldrb	r3, [r3]
  73 0038 1B02     		lsls	r3, r3, #8
  74 003a 7A68     		ldr	r2, [r7, #4]
  75 003c 0232     		adds	r2, r2, #2
  76 003e 1278     		ldrb	r2, [r2]
  77 0040 9B18     		adds	r3, r3, r2
  78 0042 0A21     		movs	r1, #10
  79 0044 1800     		movs	r0, r3
ARM GAS  C:\Users\TTSS\AppData\Local\Temp\ccWZh6cO.s 			page 3


  80 0046 FFF7FEFF 		bl	__aeabi_idiv
  81 004a 0300     		movs	r3, r0
  82 004c 1A00     		movs	r2, r3
  83 004e BB1C     		adds	r3, r7, #2
  84 0050 1A80     		strh	r2, [r3]
  36:main.c        ****         uint16 pmlarge= (val[5]*256 + val[4])/10; //PM10 value
  85              		.loc 1 36 0 discriminator 1
  86 0052 7B68     		ldr	r3, [r7, #4]
  87 0054 0533     		adds	r3, r3, #5
  88 0056 1B78     		ldrb	r3, [r3]
  89 0058 1B02     		lsls	r3, r3, #8
  90 005a 7A68     		ldr	r2, [r7, #4]
  91 005c 0432     		adds	r2, r2, #4
  92 005e 1278     		ldrb	r2, [r2]
  93 0060 9B18     		adds	r3, r3, r2
  94 0062 0A21     		movs	r1, #10
  95 0064 1800     		movs	r0, r3
  96 0066 FFF7FEFF 		bl	__aeabi_idiv
  97 006a 0300     		movs	r3, r0
  98 006c 1A00     		movs	r2, r3
  99 006e 3B00     		movs	r3, r7
 100 0070 1A80     		strh	r2, [r3]
  37:main.c        ****         /* Dynamic payload will be continuously updated */
  38:main.c        ****         advPayload[19] =  0x02; //Sensor ID: 0x02 for SDS011
 101              		.loc 1 38 0 discriminator 1
 102 0072 1A4B     		ldr	r3, .L3+4
 103 0074 9B68     		ldr	r3, [r3, #8]
 104 0076 0222     		movs	r2, #2
 105 0078 DA74     		strb	r2, [r3, #19]
  39:main.c        ****         advPayload[21] =  0x00; //High byte of PM1 value - Not Available
 106              		.loc 1 39 0 discriminator 1
 107 007a 184B     		ldr	r3, .L3+4
 108 007c 9B68     		ldr	r3, [r3, #8]
 109 007e 0022     		movs	r2, #0
 110 0080 5A75     		strb	r2, [r3, #21]
  40:main.c        ****         advPayload[22] =  0x00; //Low byte of PM1 value - Not Available
 111              		.loc 1 40 0 discriminator 1
 112 0082 164B     		ldr	r3, .L3+4
 113 0084 9B68     		ldr	r3, [r3, #8]
 114 0086 0022     		movs	r2, #0
 115 0088 9A75     		strb	r2, [r3, #22]
  41:main.c        ****         advPayload[23] =  pmsmall>>8; //High byte of PM2.5 value
 116              		.loc 1 41 0 discriminator 1
 117 008a 144B     		ldr	r3, .L3+4
 118 008c 9B68     		ldr	r3, [r3, #8]
 119 008e BA1C     		adds	r2, r7, #2
 120 0090 1288     		ldrh	r2, [r2]
 121 0092 120A     		lsrs	r2, r2, #8
 122 0094 92B2     		uxth	r2, r2
 123 0096 D2B2     		uxtb	r2, r2
 124 0098 DA75     		strb	r2, [r3, #23]
  42:main.c        ****         advPayload[24] =  pmsmall&0xFF; //Low byte of PM2.5 value
 125              		.loc 1 42 0 discriminator 1
 126 009a 104B     		ldr	r3, .L3+4
 127 009c 9B68     		ldr	r3, [r3, #8]
 128 009e BA1C     		adds	r2, r7, #2
 129 00a0 1288     		ldrh	r2, [r2]
ARM GAS  C:\Users\TTSS\AppData\Local\Temp\ccWZh6cO.s 			page 4


 130 00a2 D2B2     		uxtb	r2, r2
 131 00a4 1A76     		strb	r2, [r3, #24]
  43:main.c        ****         advPayload[25] =  pmlarge>>8; //High byte of PM10 value
 132              		.loc 1 43 0 discriminator 1
 133 00a6 0D4B     		ldr	r3, .L3+4
 134 00a8 9B68     		ldr	r3, [r3, #8]
 135 00aa 3A00     		movs	r2, r7
 136 00ac 1288     		ldrh	r2, [r2]
 137 00ae 120A     		lsrs	r2, r2, #8
 138 00b0 92B2     		uxth	r2, r2
 139 00b2 D2B2     		uxtb	r2, r2
 140 00b4 5A76     		strb	r2, [r3, #25]
  44:main.c        ****         advPayload[26] =  pmlarge&0xFF; //Low byte of PM10 value
 141              		.loc 1 44 0 discriminator 1
 142 00b6 094B     		ldr	r3, .L3+4
 143 00b8 9B68     		ldr	r3, [r3, #8]
 144 00ba 3A00     		movs	r2, r7
 145 00bc 1288     		ldrh	r2, [r2]
 146 00be D2B2     		uxtb	r2, r2
 147 00c0 9A76     		strb	r2, [r3, #26]
  45:main.c        ****         CyBle_GapUpdateAdvData(cyBle_discoveryModeInfo.advData, cyBle_discoveryModeInfo.scanRspData
 148              		.loc 1 45 0 discriminator 1
 149 00c2 064B     		ldr	r3, .L3+4
 150 00c4 9A68     		ldr	r2, [r3, #8]
 151 00c6 054B     		ldr	r3, .L3+4
 152 00c8 DB68     		ldr	r3, [r3, #12]
 153 00ca 1900     		movs	r1, r3
 154 00cc 1000     		movs	r0, r2
 155 00ce FFF7FEFF 		bl	CyBle_GapUpdateAdvData
  46:main.c        ****         CyBle_ProcessEvents();
 156              		.loc 1 46 0 discriminator 1
 157 00d2 FFF7FEFF 		bl	CyBle_ProcessEvents
 158              	.LBE2:
  47:main.c        ****     }
 159              		.loc 1 47 0 discriminator 1
 160 00d6 9DE7     		b	.L2
 161              	.L4:
 162              		.align	2
 163              	.L3:
 164 00d8 00000000 		.word	StackEventHandler
 165 00dc 00000000 		.word	cyBle_discoveryModeInfo
 166              		.cfi_endproc
 167              	.LFE35:
 168              		.size	main, .-main
 169              		.section	.text.StackEventHandler,"ax",%progbits
 170              		.align	2
 171              		.global	StackEventHandler
 172              		.code	16
 173              		.thumb_func
 174              		.type	StackEventHandler, %function
 175              	StackEventHandler:
 176              	.LFB36:
  48:main.c        **** }
  49:main.c        **** 
  50:main.c        **** void StackEventHandler(uint32 event, void *eventParam)
  51:main.c        **** {
 177              		.loc 1 51 0
ARM GAS  C:\Users\TTSS\AppData\Local\Temp\ccWZh6cO.s 			page 5


 178              		.cfi_startproc
 179              		@ args = 0, pretend = 0, frame = 8
 180              		@ frame_needed = 1, uses_anonymous_args = 0
 181 0000 80B5     		push	{r7, lr}
 182              		.cfi_def_cfa_offset 8
 183              		.cfi_offset 7, -8
 184              		.cfi_offset 14, -4
 185 0002 82B0     		sub	sp, sp, #8
 186              		.cfi_def_cfa_offset 16
 187 0004 00AF     		add	r7, sp, #0
 188              		.cfi_def_cfa_register 7
 189 0006 7860     		str	r0, [r7, #4]
 190 0008 3960     		str	r1, [r7]
  52:main.c        ****     switch(event)
 191              		.loc 1 52 0
 192 000a 7B68     		ldr	r3, [r7, #4]
 193 000c 012B     		cmp	r3, #1
 194 000e 00D0     		beq	.L7
  53:main.c        ****     {
  54:main.c        ****         
  55:main.c        **** 		case CYBLE_EVT_STACK_ON:
  56:main.c        **** 			/* BLE stack is on. Start BLE advertisement */   
  57:main.c        **** 			CyBle_GappStartAdvertisement(CYBLE_ADVERTISING_FAST);
  58:main.c        **** 		    break;
  59:main.c        **** 		
  60:main.c        ****         default:
  61:main.c        ****             break;
 195              		.loc 1 61 0
 196 0010 03E0     		b	.L8
 197              	.L7:
  57:main.c        **** 		    break;
 198              		.loc 1 57 0
 199 0012 0020     		movs	r0, #0
 200 0014 FFF7FEFF 		bl	CyBle_GappStartAdvertisement
  58:main.c        **** 		
 201              		.loc 1 58 0
 202 0018 C046     		nop
 203              	.L8:
  62:main.c        ****     }   	
  63:main.c        **** 
  64:main.c        **** }
 204              		.loc 1 64 0
 205 001a C046     		nop
 206 001c BD46     		mov	sp, r7
 207 001e 02B0     		add	sp, sp, #8
 208              		@ sp needed
 209 0020 80BD     		pop	{r7, pc}
 210              		.cfi_endproc
 211              	.LFE36:
 212              		.size	StackEventHandler, .-StackEventHandler
 213 0022 C046     		.section	.text.readParticles,"ax",%progbits
 214              		.align	2
 215              		.global	readParticles
 216              		.code	16
 217              		.thumb_func
 218              		.type	readParticles, %function
 219              	readParticles:
ARM GAS  C:\Users\TTSS\AppData\Local\Temp\ccWZh6cO.s 			page 6


 220              	.LFB37:
  65:main.c        **** 
  66:main.c        **** /*******************************************************************
  67:main.c        **** * NAME :            char* readParticles()
  68:main.c        **** *
  69:main.c        **** * DESCRIPTION :     Read sensor measurement
  70:main.c        **** * OUTPUTS :
  71:main.c        **** *       char* Sensor TX packet
  72:main.c        **** */
  73:main.c        **** char* readParticles(){
 221              		.loc 1 73 0
 222              		.cfi_startproc
 223              		@ args = 0, pretend = 0, frame = 8
 224              		@ frame_needed = 1, uses_anonymous_args = 0
 225 0000 80B5     		push	{r7, lr}
 226              		.cfi_def_cfa_offset 8
 227              		.cfi_offset 7, -8
 228              		.cfi_offset 14, -4
 229 0002 82B0     		sub	sp, sp, #8
 230              		.cfi_def_cfa_offset 16
 231 0004 00AF     		add	r7, sp, #0
 232              		.cfi_def_cfa_register 7
  74:main.c        ****     int idx;
  75:main.c        ****     static char senData[10];
  76:main.c        ****     senData[0]=0xAA;
 233              		.loc 1 76 0
 234 0006 114B     		ldr	r3, .L14
 235 0008 AA22     		movs	r2, #170
 236 000a 1A70     		strb	r2, [r3]
  77:main.c        ****     while(Serial_UartGetChar()!= 0xAA); // Wait for start character
 237              		.loc 1 77 0
 238 000c C046     		nop
 239              	.L10:
 240              		.loc 1 77 0 is_stmt 0 discriminator 1
 241 000e FFF7FEFF 		bl	Serial_UartGetChar
 242 0012 0300     		movs	r3, r0
 243 0014 AA2B     		cmp	r3, #170
 244 0016 FAD1     		bne	.L10
  78:main.c        ****     for(idx=1;idx<10;idx++){ // Read TX packet
 245              		.loc 1 78 0 is_stmt 1
 246 0018 0123     		movs	r3, #1
 247 001a 7B60     		str	r3, [r7, #4]
 248 001c 0EE0     		b	.L11
 249              	.L12:
  79:main.c        ****         CyDelay(10); // Wait for data
 250              		.loc 1 79 0 discriminator 3
 251 001e 0A20     		movs	r0, #10
 252 0020 FFF7FEFF 		bl	CyDelay
  80:main.c        ****         senData[idx]=Serial_UartGetChar();// Get next byte
 253              		.loc 1 80 0 discriminator 3
 254 0024 FFF7FEFF 		bl	Serial_UartGetChar
 255 0028 0300     		movs	r3, r0
 256 002a D9B2     		uxtb	r1, r3
 257 002c 074A     		ldr	r2, .L14
 258 002e 7B68     		ldr	r3, [r7, #4]
 259 0030 D318     		adds	r3, r2, r3
 260 0032 0A1C     		adds	r2, r1, #0
ARM GAS  C:\Users\TTSS\AppData\Local\Temp\ccWZh6cO.s 			page 7


 261 0034 1A70     		strb	r2, [r3]
  78:main.c        ****     for(idx=1;idx<10;idx++){ // Read TX packet
 262              		.loc 1 78 0 discriminator 3
 263 0036 7B68     		ldr	r3, [r7, #4]
 264 0038 0133     		adds	r3, r3, #1
 265 003a 7B60     		str	r3, [r7, #4]
 266              	.L11:
  78:main.c        ****     for(idx=1;idx<10;idx++){ // Read TX packet
 267              		.loc 1 78 0 is_stmt 0 discriminator 1
 268 003c 7B68     		ldr	r3, [r7, #4]
 269 003e 092B     		cmp	r3, #9
 270 0040 EDDD     		ble	.L12
  81:main.c        ****     }
  82:main.c        ****     return senData;
 271              		.loc 1 82 0 is_stmt 1
 272 0042 024B     		ldr	r3, .L14
  83:main.c        **** }
 273              		.loc 1 83 0
 274 0044 1800     		movs	r0, r3
 275 0046 BD46     		mov	sp, r7
 276 0048 02B0     		add	sp, sp, #8
 277              		@ sp needed
 278 004a 80BD     		pop	{r7, pc}
 279              	.L15:
 280              		.align	2
 281              	.L14:
 282 004c 00000000 		.word	senData.7184
 283              		.cfi_endproc
 284              	.LFE37:
 285              		.size	readParticles, .-readParticles
 286              		.bss
 287              		.align	2
 288              	senData.7184:
 289 0000 00000000 		.space	10
 289      00000000 
 289      0000
 290              		.text
 291              	.Letext0:
 292              		.file 2 "Generated_Source\\PSoC4/cytypes.h"
 293              		.file 3 "Generated_Source\\PSoC4/BLE_Stack.h"
 294              		.file 4 "Generated_Source\\PSoC4/BLE_StackGap.h"