ARM GAS  C:\Users\TTSS\AppData\Local\Temp\ccxYlvX3.s 			page 1


   1              		.syntax unified
   2              		.cpu cortex-m0
   3              		.fpu softvfp
   4              		.eabi_attribute 20, 1
   5              		.eabi_attribute 21, 1
   6              		.eabi_attribute 23, 3
   7              		.eabi_attribute 24, 1
   8              		.eabi_attribute 25, 1
   9              		.eabi_attribute 26, 1
  10              		.eabi_attribute 30, 6
  11              		.eabi_attribute 34, 0
  12              		.eabi_attribute 18, 4
  13              		.thumb
  14              		.syntax unified
  15              		.file	"Serial_UART.c"
  16              		.text
  17              	.Ltext0:
  18              		.cfi_sections	.debug_frame
  19              		.section	.text.Serial_UartInit,"ax",%progbits
  20              		.align	2
  21              		.global	Serial_UartInit
  22              		.code	16
  23              		.thumb_func
  24              		.type	Serial_UartInit, %function
  25              	Serial_UartInit:
  26              	.LFB2:
  27              		.file 1 "Generated_Source\\PSoC4\\Serial_UART.c"
   1:Generated_Source\PSoC4/Serial_UART.c **** /***************************************************************************//**
   2:Generated_Source\PSoC4/Serial_UART.c **** * \file Serial_UART.c
   3:Generated_Source\PSoC4/Serial_UART.c **** * \version 4.0
   4:Generated_Source\PSoC4/Serial_UART.c **** *
   5:Generated_Source\PSoC4/Serial_UART.c **** * \brief
   6:Generated_Source\PSoC4/Serial_UART.c **** *  This file provides the source code to the API for the SCB Component in
   7:Generated_Source\PSoC4/Serial_UART.c **** *  UART mode.
   8:Generated_Source\PSoC4/Serial_UART.c **** *
   9:Generated_Source\PSoC4/Serial_UART.c **** * Note:
  10:Generated_Source\PSoC4/Serial_UART.c **** *
  11:Generated_Source\PSoC4/Serial_UART.c **** *******************************************************************************
  12:Generated_Source\PSoC4/Serial_UART.c **** * \copyright
  13:Generated_Source\PSoC4/Serial_UART.c **** * Copyright 2013-2017, Cypress Semiconductor Corporation.  All rights reserved.
  14:Generated_Source\PSoC4/Serial_UART.c **** * You may use this file only in accordance with the license, terms, conditions,
  15:Generated_Source\PSoC4/Serial_UART.c **** * disclaimers, and limitations in the end user license agreement accompanying
  16:Generated_Source\PSoC4/Serial_UART.c **** * the software package with which this file was provided.
  17:Generated_Source\PSoC4/Serial_UART.c **** *******************************************************************************/
  18:Generated_Source\PSoC4/Serial_UART.c **** 
  19:Generated_Source\PSoC4/Serial_UART.c **** #include "Serial_PVT.h"
  20:Generated_Source\PSoC4/Serial_UART.c **** #include "Serial_SPI_UART_PVT.h"
  21:Generated_Source\PSoC4/Serial_UART.c **** #include "cyapicallbacks.h"
  22:Generated_Source\PSoC4/Serial_UART.c **** 
  23:Generated_Source\PSoC4/Serial_UART.c **** #if (Serial_UART_WAKE_ENABLE_CONST && Serial_UART_RX_WAKEUP_IRQ)
  24:Generated_Source\PSoC4/Serial_UART.c ****     /**
  25:Generated_Source\PSoC4/Serial_UART.c ****     * \addtogroup group_globals
  26:Generated_Source\PSoC4/Serial_UART.c ****     * \{
  27:Generated_Source\PSoC4/Serial_UART.c ****     */
  28:Generated_Source\PSoC4/Serial_UART.c ****     /** This global variable determines whether to enable Skip Start
  29:Generated_Source\PSoC4/Serial_UART.c ****     * functionality when Serial_Sleep() function is called:
  30:Generated_Source\PSoC4/Serial_UART.c ****     * 0 – disable, other values – enable. Default value is 1.
ARM GAS  C:\Users\TTSS\AppData\Local\Temp\ccxYlvX3.s 			page 2


  31:Generated_Source\PSoC4/Serial_UART.c ****     * It is only available when Enable wakeup from Deep Sleep Mode is enabled.
  32:Generated_Source\PSoC4/Serial_UART.c ****     */
  33:Generated_Source\PSoC4/Serial_UART.c ****     uint8 Serial_skipStart = 1u;
  34:Generated_Source\PSoC4/Serial_UART.c ****     /** \} globals */
  35:Generated_Source\PSoC4/Serial_UART.c **** #endif /* (Serial_UART_WAKE_ENABLE_CONST && Serial_UART_RX_WAKEUP_IRQ) */
  36:Generated_Source\PSoC4/Serial_UART.c **** 
  37:Generated_Source\PSoC4/Serial_UART.c **** #if(Serial_SCB_MODE_UNCONFIG_CONST_CFG)
  38:Generated_Source\PSoC4/Serial_UART.c **** 
  39:Generated_Source\PSoC4/Serial_UART.c ****     /***************************************
  40:Generated_Source\PSoC4/Serial_UART.c ****     *  Configuration Structure Initialization
  41:Generated_Source\PSoC4/Serial_UART.c ****     ***************************************/
  42:Generated_Source\PSoC4/Serial_UART.c **** 
  43:Generated_Source\PSoC4/Serial_UART.c ****     const Serial_UART_INIT_STRUCT Serial_configUart =
  44:Generated_Source\PSoC4/Serial_UART.c ****     {
  45:Generated_Source\PSoC4/Serial_UART.c ****         Serial_UART_SUB_MODE,
  46:Generated_Source\PSoC4/Serial_UART.c ****         Serial_UART_DIRECTION,
  47:Generated_Source\PSoC4/Serial_UART.c ****         Serial_UART_DATA_BITS_NUM,
  48:Generated_Source\PSoC4/Serial_UART.c ****         Serial_UART_PARITY_TYPE,
  49:Generated_Source\PSoC4/Serial_UART.c ****         Serial_UART_STOP_BITS_NUM,
  50:Generated_Source\PSoC4/Serial_UART.c ****         Serial_UART_OVS_FACTOR,
  51:Generated_Source\PSoC4/Serial_UART.c ****         Serial_UART_IRDA_LOW_POWER,
  52:Generated_Source\PSoC4/Serial_UART.c ****         Serial_UART_MEDIAN_FILTER_ENABLE,
  53:Generated_Source\PSoC4/Serial_UART.c ****         Serial_UART_RETRY_ON_NACK,
  54:Generated_Source\PSoC4/Serial_UART.c ****         Serial_UART_IRDA_POLARITY,
  55:Generated_Source\PSoC4/Serial_UART.c ****         Serial_UART_DROP_ON_PARITY_ERR,
  56:Generated_Source\PSoC4/Serial_UART.c ****         Serial_UART_DROP_ON_FRAME_ERR,
  57:Generated_Source\PSoC4/Serial_UART.c ****         Serial_UART_WAKE_ENABLE,
  58:Generated_Source\PSoC4/Serial_UART.c ****         0u,
  59:Generated_Source\PSoC4/Serial_UART.c ****         NULL,
  60:Generated_Source\PSoC4/Serial_UART.c ****         0u,
  61:Generated_Source\PSoC4/Serial_UART.c ****         NULL,
  62:Generated_Source\PSoC4/Serial_UART.c ****         Serial_UART_MP_MODE_ENABLE,
  63:Generated_Source\PSoC4/Serial_UART.c ****         Serial_UART_MP_ACCEPT_ADDRESS,
  64:Generated_Source\PSoC4/Serial_UART.c ****         Serial_UART_MP_RX_ADDRESS,
  65:Generated_Source\PSoC4/Serial_UART.c ****         Serial_UART_MP_RX_ADDRESS_MASK,
  66:Generated_Source\PSoC4/Serial_UART.c ****         (uint32) Serial_SCB_IRQ_INTERNAL,
  67:Generated_Source\PSoC4/Serial_UART.c ****         Serial_UART_INTR_RX_MASK,
  68:Generated_Source\PSoC4/Serial_UART.c ****         Serial_UART_RX_TRIGGER_LEVEL,
  69:Generated_Source\PSoC4/Serial_UART.c ****         Serial_UART_INTR_TX_MASK,
  70:Generated_Source\PSoC4/Serial_UART.c ****         Serial_UART_TX_TRIGGER_LEVEL,
  71:Generated_Source\PSoC4/Serial_UART.c ****         (uint8) Serial_UART_BYTE_MODE_ENABLE,
  72:Generated_Source\PSoC4/Serial_UART.c ****         (uint8) Serial_UART_CTS_ENABLE,
  73:Generated_Source\PSoC4/Serial_UART.c ****         (uint8) Serial_UART_CTS_POLARITY,
  74:Generated_Source\PSoC4/Serial_UART.c ****         (uint8) Serial_UART_RTS_POLARITY,
  75:Generated_Source\PSoC4/Serial_UART.c ****         (uint8) Serial_UART_RTS_FIFO_LEVEL,
  76:Generated_Source\PSoC4/Serial_UART.c ****         (uint8) Serial_UART_RX_BREAK_WIDTH
  77:Generated_Source\PSoC4/Serial_UART.c ****     };
  78:Generated_Source\PSoC4/Serial_UART.c **** 
  79:Generated_Source\PSoC4/Serial_UART.c **** 
  80:Generated_Source\PSoC4/Serial_UART.c ****     /*******************************************************************************
  81:Generated_Source\PSoC4/Serial_UART.c ****     * Function Name: Serial_UartInit
  82:Generated_Source\PSoC4/Serial_UART.c ****     ****************************************************************************//**
  83:Generated_Source\PSoC4/Serial_UART.c ****     *
  84:Generated_Source\PSoC4/Serial_UART.c ****     *  Configures the Serial for UART operation.
  85:Generated_Source\PSoC4/Serial_UART.c ****     *
  86:Generated_Source\PSoC4/Serial_UART.c ****     *  This function is intended specifically to be used when the Serial
  87:Generated_Source\PSoC4/Serial_UART.c ****     *  configuration is set to “Unconfigured Serial” in the customizer.
ARM GAS  C:\Users\TTSS\AppData\Local\Temp\ccxYlvX3.s 			page 3


  88:Generated_Source\PSoC4/Serial_UART.c ****     *  After initializing the Serial in UART mode using this function,
  89:Generated_Source\PSoC4/Serial_UART.c ****     *  the component can be enabled using the Serial_Start() or
  90:Generated_Source\PSoC4/Serial_UART.c ****     * Serial_Enable() function.
  91:Generated_Source\PSoC4/Serial_UART.c ****     *  This function uses a pointer to a structure that provides the configuration
  92:Generated_Source\PSoC4/Serial_UART.c ****     *  settings. This structure contains the same information that would otherwise
  93:Generated_Source\PSoC4/Serial_UART.c ****     *  be provided by the customizer settings.
  94:Generated_Source\PSoC4/Serial_UART.c ****     *
  95:Generated_Source\PSoC4/Serial_UART.c ****     *  \param config: pointer to a structure that contains the following list of
  96:Generated_Source\PSoC4/Serial_UART.c ****     *   fields. These fields match the selections available in the customizer.
  97:Generated_Source\PSoC4/Serial_UART.c ****     *   Refer to the customizer for further description of the settings.
  98:Generated_Source\PSoC4/Serial_UART.c ****     *
  99:Generated_Source\PSoC4/Serial_UART.c ****     *******************************************************************************/
 100:Generated_Source\PSoC4/Serial_UART.c ****     void Serial_UartInit(const Serial_UART_INIT_STRUCT *config)
 101:Generated_Source\PSoC4/Serial_UART.c ****     {
 102:Generated_Source\PSoC4/Serial_UART.c ****         uint32 pinsConfig;
 103:Generated_Source\PSoC4/Serial_UART.c **** 
 104:Generated_Source\PSoC4/Serial_UART.c ****         if (NULL == config)
 105:Generated_Source\PSoC4/Serial_UART.c ****         {
 106:Generated_Source\PSoC4/Serial_UART.c ****             CYASSERT(0u != 0u); /* Halt execution due to bad function parameter */
 107:Generated_Source\PSoC4/Serial_UART.c ****         }
 108:Generated_Source\PSoC4/Serial_UART.c ****         else
 109:Generated_Source\PSoC4/Serial_UART.c ****         {
 110:Generated_Source\PSoC4/Serial_UART.c ****             /* Get direction to configure UART pins: TX, RX or TX+RX */
 111:Generated_Source\PSoC4/Serial_UART.c ****             pinsConfig  = config->direction;
 112:Generated_Source\PSoC4/Serial_UART.c **** 
 113:Generated_Source\PSoC4/Serial_UART.c ****         #if !(Serial_CY_SCBIP_V0 || Serial_CY_SCBIP_V1)
 114:Generated_Source\PSoC4/Serial_UART.c ****             /* Add RTS and CTS pins to configure */
 115:Generated_Source\PSoC4/Serial_UART.c ****             pinsConfig |= (0u != config->rtsRxFifoLevel) ? (Serial_UART_RTS_PIN_ENABLE) : (0u);
 116:Generated_Source\PSoC4/Serial_UART.c ****             pinsConfig |= (0u != config->enableCts)      ? (Serial_UART_CTS_PIN_ENABLE) : (0u);
 117:Generated_Source\PSoC4/Serial_UART.c ****         #endif /* !(Serial_CY_SCBIP_V0 || Serial_CY_SCBIP_V1) */
 118:Generated_Source\PSoC4/Serial_UART.c **** 
 119:Generated_Source\PSoC4/Serial_UART.c ****             /* Configure pins */
 120:Generated_Source\PSoC4/Serial_UART.c ****             Serial_SetPins(Serial_SCB_MODE_UART, config->mode, pinsConfig);
 121:Generated_Source\PSoC4/Serial_UART.c **** 
 122:Generated_Source\PSoC4/Serial_UART.c ****             /* Store internal configuration */
 123:Generated_Source\PSoC4/Serial_UART.c ****             Serial_scbMode       = (uint8) Serial_SCB_MODE_UART;
 124:Generated_Source\PSoC4/Serial_UART.c ****             Serial_scbEnableWake = (uint8) config->enableWake;
 125:Generated_Source\PSoC4/Serial_UART.c ****             Serial_scbEnableIntr = (uint8) config->enableInterrupt;
 126:Generated_Source\PSoC4/Serial_UART.c **** 
 127:Generated_Source\PSoC4/Serial_UART.c ****             /* Set RX direction internal variables */
 128:Generated_Source\PSoC4/Serial_UART.c ****             Serial_rxBuffer      =         config->rxBuffer;
 129:Generated_Source\PSoC4/Serial_UART.c ****             Serial_rxDataBits    = (uint8) config->dataBits;
 130:Generated_Source\PSoC4/Serial_UART.c ****             Serial_rxBufferSize  =         config->rxBufferSize;
 131:Generated_Source\PSoC4/Serial_UART.c **** 
 132:Generated_Source\PSoC4/Serial_UART.c ****             /* Set TX direction internal variables */
 133:Generated_Source\PSoC4/Serial_UART.c ****             Serial_txBuffer      =         config->txBuffer;
 134:Generated_Source\PSoC4/Serial_UART.c ****             Serial_txDataBits    = (uint8) config->dataBits;
 135:Generated_Source\PSoC4/Serial_UART.c ****             Serial_txBufferSize  =         config->txBufferSize;
 136:Generated_Source\PSoC4/Serial_UART.c **** 
 137:Generated_Source\PSoC4/Serial_UART.c ****             /* Configure UART interface */
 138:Generated_Source\PSoC4/Serial_UART.c ****             if(Serial_UART_MODE_IRDA == config->mode)
 139:Generated_Source\PSoC4/Serial_UART.c ****             {
 140:Generated_Source\PSoC4/Serial_UART.c ****                 /* OVS settings: IrDA */
 141:Generated_Source\PSoC4/Serial_UART.c ****                 Serial_CTRL_REG  = ((0u != config->enableIrdaLowPower) ?
 142:Generated_Source\PSoC4/Serial_UART.c ****                                                 (Serial_UART_GET_CTRL_OVS_IRDA_LP(config->oversampl
 143:Generated_Source\PSoC4/Serial_UART.c ****                                                 (Serial_CTRL_OVS_IRDA_OVS16));
 144:Generated_Source\PSoC4/Serial_UART.c ****             }
ARM GAS  C:\Users\TTSS\AppData\Local\Temp\ccxYlvX3.s 			page 4


 145:Generated_Source\PSoC4/Serial_UART.c ****             else
 146:Generated_Source\PSoC4/Serial_UART.c ****             {
 147:Generated_Source\PSoC4/Serial_UART.c ****                 /* OVS settings: UART and SmartCard */
 148:Generated_Source\PSoC4/Serial_UART.c ****                 Serial_CTRL_REG  = Serial_GET_CTRL_OVS(config->oversample);
 149:Generated_Source\PSoC4/Serial_UART.c ****             }
 150:Generated_Source\PSoC4/Serial_UART.c **** 
 151:Generated_Source\PSoC4/Serial_UART.c ****             Serial_CTRL_REG     |= Serial_GET_CTRL_BYTE_MODE  (config->enableByteMode)      |
 152:Generated_Source\PSoC4/Serial_UART.c ****                                              Serial_GET_CTRL_ADDR_ACCEPT(config->multiprocAcceptAdd
 153:Generated_Source\PSoC4/Serial_UART.c ****                                              Serial_CTRL_UART;
 154:Generated_Source\PSoC4/Serial_UART.c **** 
 155:Generated_Source\PSoC4/Serial_UART.c ****             /* Configure sub-mode: UART, SmartCard or IrDA */
 156:Generated_Source\PSoC4/Serial_UART.c ****             Serial_UART_CTRL_REG = Serial_GET_UART_CTRL_MODE(config->mode);
 157:Generated_Source\PSoC4/Serial_UART.c **** 
 158:Generated_Source\PSoC4/Serial_UART.c ****             /* Configure RX direction */
 159:Generated_Source\PSoC4/Serial_UART.c ****             Serial_UART_RX_CTRL_REG = Serial_GET_UART_RX_CTRL_MODE(config->stopBits)              |
 160:Generated_Source\PSoC4/Serial_UART.c ****                                         Serial_GET_UART_RX_CTRL_POLARITY(config->enableInvertedRx) 
 161:Generated_Source\PSoC4/Serial_UART.c ****                                         Serial_GET_UART_RX_CTRL_MP_MODE(config->enableMultiproc)   
 162:Generated_Source\PSoC4/Serial_UART.c ****                                         Serial_GET_UART_RX_CTRL_DROP_ON_PARITY_ERR(config->dropOnPa
 163:Generated_Source\PSoC4/Serial_UART.c ****                                         Serial_GET_UART_RX_CTRL_DROP_ON_FRAME_ERR(config->dropOnFra
 164:Generated_Source\PSoC4/Serial_UART.c ****                                         Serial_GET_UART_RX_CTRL_BREAK_WIDTH(config->breakWidth);
 165:Generated_Source\PSoC4/Serial_UART.c **** 
 166:Generated_Source\PSoC4/Serial_UART.c ****             if(Serial_UART_PARITY_NONE != config->parity)
 167:Generated_Source\PSoC4/Serial_UART.c ****             {
 168:Generated_Source\PSoC4/Serial_UART.c ****                Serial_UART_RX_CTRL_REG |= Serial_GET_UART_RX_CTRL_PARITY(config->parity) |
 169:Generated_Source\PSoC4/Serial_UART.c ****                                                     Serial_UART_RX_CTRL_PARITY_ENABLED;
 170:Generated_Source\PSoC4/Serial_UART.c ****             }
 171:Generated_Source\PSoC4/Serial_UART.c **** 
 172:Generated_Source\PSoC4/Serial_UART.c ****             Serial_RX_CTRL_REG      = Serial_GET_RX_CTRL_DATA_WIDTH(config->dataBits)       |
 173:Generated_Source\PSoC4/Serial_UART.c ****                                                 Serial_GET_RX_CTRL_MEDIAN(config->enableMedianFilte
 174:Generated_Source\PSoC4/Serial_UART.c ****                                                 Serial_GET_UART_RX_CTRL_ENABLED(config->direction);
 175:Generated_Source\PSoC4/Serial_UART.c **** 
 176:Generated_Source\PSoC4/Serial_UART.c ****             Serial_RX_FIFO_CTRL_REG = Serial_GET_RX_FIFO_CTRL_TRIGGER_LEVEL(config->rxTriggerLevel)
 177:Generated_Source\PSoC4/Serial_UART.c **** 
 178:Generated_Source\PSoC4/Serial_UART.c ****             /* Configure MP address */
 179:Generated_Source\PSoC4/Serial_UART.c ****             Serial_RX_MATCH_REG     = Serial_GET_RX_MATCH_ADDR(config->multiprocAddr) |
 180:Generated_Source\PSoC4/Serial_UART.c ****                                                 Serial_GET_RX_MATCH_MASK(config->multiprocAddrMask)
 181:Generated_Source\PSoC4/Serial_UART.c **** 
 182:Generated_Source\PSoC4/Serial_UART.c ****             /* Configure RX direction */
 183:Generated_Source\PSoC4/Serial_UART.c ****             Serial_UART_TX_CTRL_REG = Serial_GET_UART_TX_CTRL_MODE(config->stopBits) |
 184:Generated_Source\PSoC4/Serial_UART.c ****                                                 Serial_GET_UART_TX_CTRL_RETRY_NACK(config->enableRe
 185:Generated_Source\PSoC4/Serial_UART.c **** 
 186:Generated_Source\PSoC4/Serial_UART.c ****             if(Serial_UART_PARITY_NONE != config->parity)
 187:Generated_Source\PSoC4/Serial_UART.c ****             {
 188:Generated_Source\PSoC4/Serial_UART.c ****                Serial_UART_TX_CTRL_REG |= Serial_GET_UART_TX_CTRL_PARITY(config->parity) |
 189:Generated_Source\PSoC4/Serial_UART.c ****                                                     Serial_UART_TX_CTRL_PARITY_ENABLED;
 190:Generated_Source\PSoC4/Serial_UART.c ****             }
 191:Generated_Source\PSoC4/Serial_UART.c **** 
 192:Generated_Source\PSoC4/Serial_UART.c ****             Serial_TX_CTRL_REG      = Serial_GET_TX_CTRL_DATA_WIDTH(config->dataBits)    |
 193:Generated_Source\PSoC4/Serial_UART.c ****                                                 Serial_GET_UART_TX_CTRL_ENABLED(config->direction);
 194:Generated_Source\PSoC4/Serial_UART.c **** 
 195:Generated_Source\PSoC4/Serial_UART.c ****             Serial_TX_FIFO_CTRL_REG = Serial_GET_TX_FIFO_CTRL_TRIGGER_LEVEL(config->txTriggerLevel)
 196:Generated_Source\PSoC4/Serial_UART.c **** 
 197:Generated_Source\PSoC4/Serial_UART.c ****         #if !(Serial_CY_SCBIP_V0 || Serial_CY_SCBIP_V1)
 198:Generated_Source\PSoC4/Serial_UART.c ****             Serial_UART_FLOW_CTRL_REG = Serial_GET_UART_FLOW_CTRL_CTS_ENABLE(config->enableCts) | \
 199:Generated_Source\PSoC4/Serial_UART.c ****                                             Serial_GET_UART_FLOW_CTRL_CTS_POLARITY (config->ctsPola
 200:Generated_Source\PSoC4/Serial_UART.c ****                                             Serial_GET_UART_FLOW_CTRL_RTS_POLARITY (config->rtsPola
 201:Generated_Source\PSoC4/Serial_UART.c ****                                             Serial_GET_UART_FLOW_CTRL_TRIGGER_LEVEL(config->rtsRxFi
ARM GAS  C:\Users\TTSS\AppData\Local\Temp\ccxYlvX3.s 			page 5


 202:Generated_Source\PSoC4/Serial_UART.c ****         #endif /* !(Serial_CY_SCBIP_V0 || Serial_CY_SCBIP_V1) */
 203:Generated_Source\PSoC4/Serial_UART.c **** 
 204:Generated_Source\PSoC4/Serial_UART.c ****             /* Configure interrupt with UART handler but do not enable it */
 205:Generated_Source\PSoC4/Serial_UART.c ****             CyIntDisable    (Serial_ISR_NUMBER);
 206:Generated_Source\PSoC4/Serial_UART.c ****             CyIntSetPriority(Serial_ISR_NUMBER, Serial_ISR_PRIORITY);
 207:Generated_Source\PSoC4/Serial_UART.c ****             (void) CyIntSetVector(Serial_ISR_NUMBER, &Serial_SPI_UART_ISR);
 208:Generated_Source\PSoC4/Serial_UART.c **** 
 209:Generated_Source\PSoC4/Serial_UART.c ****             /* Configure WAKE interrupt */
 210:Generated_Source\PSoC4/Serial_UART.c ****         #if(Serial_UART_RX_WAKEUP_IRQ)
 211:Generated_Source\PSoC4/Serial_UART.c ****             CyIntDisable    (Serial_RX_WAKE_ISR_NUMBER);
 212:Generated_Source\PSoC4/Serial_UART.c ****             CyIntSetPriority(Serial_RX_WAKE_ISR_NUMBER, Serial_RX_WAKE_ISR_PRIORITY);
 213:Generated_Source\PSoC4/Serial_UART.c ****             (void) CyIntSetVector(Serial_RX_WAKE_ISR_NUMBER, &Serial_UART_WAKEUP_ISR);
 214:Generated_Source\PSoC4/Serial_UART.c ****         #endif /* (Serial_UART_RX_WAKEUP_IRQ) */
 215:Generated_Source\PSoC4/Serial_UART.c **** 
 216:Generated_Source\PSoC4/Serial_UART.c ****             /* Configure interrupt sources */
 217:Generated_Source\PSoC4/Serial_UART.c ****             Serial_INTR_I2C_EC_MASK_REG = Serial_NO_INTR_SOURCES;
 218:Generated_Source\PSoC4/Serial_UART.c ****             Serial_INTR_SPI_EC_MASK_REG = Serial_NO_INTR_SOURCES;
 219:Generated_Source\PSoC4/Serial_UART.c ****             Serial_INTR_SLAVE_MASK_REG  = Serial_NO_INTR_SOURCES;
 220:Generated_Source\PSoC4/Serial_UART.c ****             Serial_INTR_MASTER_MASK_REG = Serial_NO_INTR_SOURCES;
 221:Generated_Source\PSoC4/Serial_UART.c ****             Serial_INTR_RX_MASK_REG     = config->rxInterruptMask;
 222:Generated_Source\PSoC4/Serial_UART.c ****             Serial_INTR_TX_MASK_REG     = config->txInterruptMask;
 223:Generated_Source\PSoC4/Serial_UART.c **** 
 224:Generated_Source\PSoC4/Serial_UART.c ****             /* Configure TX interrupt sources to restore. */
 225:Generated_Source\PSoC4/Serial_UART.c ****             Serial_IntrTxMask = LO16(Serial_INTR_TX_MASK_REG);
 226:Generated_Source\PSoC4/Serial_UART.c **** 
 227:Generated_Source\PSoC4/Serial_UART.c ****             /* Clear RX buffer indexes */
 228:Generated_Source\PSoC4/Serial_UART.c ****             Serial_rxBufferHead     = 0u;
 229:Generated_Source\PSoC4/Serial_UART.c ****             Serial_rxBufferTail     = 0u;
 230:Generated_Source\PSoC4/Serial_UART.c ****             Serial_rxBufferOverflow = 0u;
 231:Generated_Source\PSoC4/Serial_UART.c **** 
 232:Generated_Source\PSoC4/Serial_UART.c ****             /* Clear TX buffer indexes */
 233:Generated_Source\PSoC4/Serial_UART.c ****             Serial_txBufferHead = 0u;
 234:Generated_Source\PSoC4/Serial_UART.c ****             Serial_txBufferTail = 0u;
 235:Generated_Source\PSoC4/Serial_UART.c ****         }
 236:Generated_Source\PSoC4/Serial_UART.c ****     }
 237:Generated_Source\PSoC4/Serial_UART.c **** 
 238:Generated_Source\PSoC4/Serial_UART.c **** #else
 239:Generated_Source\PSoC4/Serial_UART.c **** 
 240:Generated_Source\PSoC4/Serial_UART.c ****     /*******************************************************************************
 241:Generated_Source\PSoC4/Serial_UART.c ****     * Function Name: Serial_UartInit
 242:Generated_Source\PSoC4/Serial_UART.c ****     ****************************************************************************//**
 243:Generated_Source\PSoC4/Serial_UART.c ****     *
 244:Generated_Source\PSoC4/Serial_UART.c ****     *  Configures the SCB for the UART operation.
 245:Generated_Source\PSoC4/Serial_UART.c ****     *
 246:Generated_Source\PSoC4/Serial_UART.c ****     *******************************************************************************/
 247:Generated_Source\PSoC4/Serial_UART.c ****     void Serial_UartInit(void)
 248:Generated_Source\PSoC4/Serial_UART.c ****     {
  28              		.loc 1 248 0
  29              		.cfi_startproc
  30              		@ args = 0, pretend = 0, frame = 0
  31              		@ frame_needed = 1, uses_anonymous_args = 0
  32 0000 80B5     		push	{r7, lr}
  33              		.cfi_def_cfa_offset 8
  34              		.cfi_offset 7, -8
  35              		.cfi_offset 14, -4
  36 0002 00AF     		add	r7, sp, #0
  37              		.cfi_def_cfa_register 7
ARM GAS  C:\Users\TTSS\AppData\Local\Temp\ccxYlvX3.s 			page 6


 249:Generated_Source\PSoC4/Serial_UART.c ****         /* Configure UART interface */
 250:Generated_Source\PSoC4/Serial_UART.c ****         Serial_CTRL_REG = Serial_UART_DEFAULT_CTRL;
  38              		.loc 1 250 0
  39 0004 264B     		ldr	r3, .L2
  40 0006 274A     		ldr	r2, .L2+4
  41 0008 1A60     		str	r2, [r3]
 251:Generated_Source\PSoC4/Serial_UART.c **** 
 252:Generated_Source\PSoC4/Serial_UART.c ****         /* Configure sub-mode: UART, SmartCard or IrDA */
 253:Generated_Source\PSoC4/Serial_UART.c ****         Serial_UART_CTRL_REG = Serial_UART_DEFAULT_UART_CTRL;
  42              		.loc 1 253 0
  43 000a 274B     		ldr	r3, .L2+8
  44 000c 0022     		movs	r2, #0
  45 000e 1A60     		str	r2, [r3]
 254:Generated_Source\PSoC4/Serial_UART.c **** 
 255:Generated_Source\PSoC4/Serial_UART.c ****         /* Configure RX direction */
 256:Generated_Source\PSoC4/Serial_UART.c ****         Serial_UART_RX_CTRL_REG = Serial_UART_DEFAULT_UART_RX_CTRL;
  46              		.loc 1 256 0
  47 0010 264B     		ldr	r3, .L2+12
  48 0012 274A     		ldr	r2, .L2+16
  49 0014 1A60     		str	r2, [r3]
 257:Generated_Source\PSoC4/Serial_UART.c ****         Serial_RX_CTRL_REG      = Serial_UART_DEFAULT_RX_CTRL;
  50              		.loc 1 257 0
  51 0016 274B     		ldr	r3, .L2+20
  52 0018 274A     		ldr	r2, .L2+24
  53 001a 1A60     		str	r2, [r3]
 258:Generated_Source\PSoC4/Serial_UART.c ****         Serial_RX_FIFO_CTRL_REG = Serial_UART_DEFAULT_RX_FIFO_CTRL;
  54              		.loc 1 258 0
  55 001c 274B     		ldr	r3, .L2+28
  56 001e 0722     		movs	r2, #7
  57 0020 1A60     		str	r2, [r3]
 259:Generated_Source\PSoC4/Serial_UART.c ****         Serial_RX_MATCH_REG     = Serial_UART_DEFAULT_RX_MATCH_REG;
  58              		.loc 1 259 0
  59 0022 274B     		ldr	r3, .L2+32
  60 0024 0022     		movs	r2, #0
  61 0026 1A60     		str	r2, [r3]
 260:Generated_Source\PSoC4/Serial_UART.c **** 
 261:Generated_Source\PSoC4/Serial_UART.c ****         /* Configure TX direction */
 262:Generated_Source\PSoC4/Serial_UART.c ****         Serial_UART_TX_CTRL_REG = Serial_UART_DEFAULT_UART_TX_CTRL;
  62              		.loc 1 262 0
  63 0028 264B     		ldr	r3, .L2+36
  64 002a 0122     		movs	r2, #1
  65 002c 1A60     		str	r2, [r3]
 263:Generated_Source\PSoC4/Serial_UART.c ****         Serial_TX_CTRL_REG      = Serial_UART_DEFAULT_TX_CTRL;
  66              		.loc 1 263 0
  67 002e 264B     		ldr	r3, .L2+40
  68 0030 0722     		movs	r2, #7
  69 0032 1A60     		str	r2, [r3]
 264:Generated_Source\PSoC4/Serial_UART.c ****         Serial_TX_FIFO_CTRL_REG = Serial_UART_DEFAULT_TX_FIFO_CTRL;
  70              		.loc 1 264 0
  71 0034 254B     		ldr	r3, .L2+44
  72 0036 0022     		movs	r2, #0
  73 0038 1A60     		str	r2, [r3]
 265:Generated_Source\PSoC4/Serial_UART.c **** 
 266:Generated_Source\PSoC4/Serial_UART.c ****     #if !(Serial_CY_SCBIP_V0 || Serial_CY_SCBIP_V1)
 267:Generated_Source\PSoC4/Serial_UART.c ****         Serial_UART_FLOW_CTRL_REG = Serial_UART_DEFAULT_FLOW_CTRL;
  74              		.loc 1 267 0
  75 003a 254B     		ldr	r3, .L2+48
ARM GAS  C:\Users\TTSS\AppData\Local\Temp\ccxYlvX3.s 			page 7


  76 003c 0422     		movs	r2, #4
  77 003e 1A60     		str	r2, [r3]
 268:Generated_Source\PSoC4/Serial_UART.c ****     #endif /* !(Serial_CY_SCBIP_V0 || Serial_CY_SCBIP_V1) */
 269:Generated_Source\PSoC4/Serial_UART.c **** 
 270:Generated_Source\PSoC4/Serial_UART.c ****         /* Configure interrupt with UART handler but do not enable it */
 271:Generated_Source\PSoC4/Serial_UART.c ****     #if(Serial_SCB_IRQ_INTERNAL)
 272:Generated_Source\PSoC4/Serial_UART.c ****         CyIntDisable    (Serial_ISR_NUMBER);
  78              		.loc 1 272 0
  79 0040 0920     		movs	r0, #9
  80 0042 FFF7FEFF 		bl	CyIntDisable
 273:Generated_Source\PSoC4/Serial_UART.c ****         CyIntSetPriority(Serial_ISR_NUMBER, Serial_ISR_PRIORITY);
  81              		.loc 1 273 0
  82 0046 0321     		movs	r1, #3
  83 0048 0920     		movs	r0, #9
  84 004a FFF7FEFF 		bl	CyIntSetPriority
 274:Generated_Source\PSoC4/Serial_UART.c ****         (void) CyIntSetVector(Serial_ISR_NUMBER, &Serial_SPI_UART_ISR);
  85              		.loc 1 274 0
  86 004e 214B     		ldr	r3, .L2+52
  87 0050 1900     		movs	r1, r3
  88 0052 0920     		movs	r0, #9
  89 0054 FFF7FEFF 		bl	CyIntSetVector
 275:Generated_Source\PSoC4/Serial_UART.c ****     #endif /* (Serial_SCB_IRQ_INTERNAL) */
 276:Generated_Source\PSoC4/Serial_UART.c **** 
 277:Generated_Source\PSoC4/Serial_UART.c ****         /* Configure WAKE interrupt */
 278:Generated_Source\PSoC4/Serial_UART.c ****     #if(Serial_UART_RX_WAKEUP_IRQ)
 279:Generated_Source\PSoC4/Serial_UART.c ****         CyIntDisable    (Serial_RX_WAKE_ISR_NUMBER);
 280:Generated_Source\PSoC4/Serial_UART.c ****         CyIntSetPriority(Serial_RX_WAKE_ISR_NUMBER, Serial_RX_WAKE_ISR_PRIORITY);
 281:Generated_Source\PSoC4/Serial_UART.c ****         (void) CyIntSetVector(Serial_RX_WAKE_ISR_NUMBER, &Serial_UART_WAKEUP_ISR);
 282:Generated_Source\PSoC4/Serial_UART.c ****     #endif /* (Serial_UART_RX_WAKEUP_IRQ) */
 283:Generated_Source\PSoC4/Serial_UART.c **** 
 284:Generated_Source\PSoC4/Serial_UART.c ****         /* Configure interrupt sources */
 285:Generated_Source\PSoC4/Serial_UART.c ****         Serial_INTR_I2C_EC_MASK_REG = Serial_UART_DEFAULT_INTR_I2C_EC_MASK;
  90              		.loc 1 285 0
  91 0058 1F4B     		ldr	r3, .L2+56
  92 005a 0022     		movs	r2, #0
  93 005c 1A60     		str	r2, [r3]
 286:Generated_Source\PSoC4/Serial_UART.c ****         Serial_INTR_SPI_EC_MASK_REG = Serial_UART_DEFAULT_INTR_SPI_EC_MASK;
  94              		.loc 1 286 0
  95 005e 1F4B     		ldr	r3, .L2+60
  96 0060 0022     		movs	r2, #0
  97 0062 1A60     		str	r2, [r3]
 287:Generated_Source\PSoC4/Serial_UART.c ****         Serial_INTR_SLAVE_MASK_REG  = Serial_UART_DEFAULT_INTR_SLAVE_MASK;
  98              		.loc 1 287 0
  99 0064 1E4B     		ldr	r3, .L2+64
 100 0066 0022     		movs	r2, #0
 101 0068 1A60     		str	r2, [r3]
 288:Generated_Source\PSoC4/Serial_UART.c ****         Serial_INTR_MASTER_MASK_REG = Serial_UART_DEFAULT_INTR_MASTER_MASK;
 102              		.loc 1 288 0
 103 006a 1E4B     		ldr	r3, .L2+68
 104 006c 0022     		movs	r2, #0
 105 006e 1A60     		str	r2, [r3]
 289:Generated_Source\PSoC4/Serial_UART.c ****         Serial_INTR_RX_MASK_REG     = Serial_UART_DEFAULT_INTR_RX_MASK;
 106              		.loc 1 289 0
 107 0070 1D4B     		ldr	r3, .L2+72
 108 0072 0422     		movs	r2, #4
 109 0074 1A60     		str	r2, [r3]
 290:Generated_Source\PSoC4/Serial_UART.c ****         Serial_INTR_TX_MASK_REG     = Serial_UART_DEFAULT_INTR_TX_MASK;
ARM GAS  C:\Users\TTSS\AppData\Local\Temp\ccxYlvX3.s 			page 8


 110              		.loc 1 290 0
 111 0076 1D4B     		ldr	r3, .L2+76
 112 0078 0022     		movs	r2, #0
 113 007a 1A60     		str	r2, [r3]
 291:Generated_Source\PSoC4/Serial_UART.c **** 
 292:Generated_Source\PSoC4/Serial_UART.c ****         /* Configure TX interrupt sources to restore. */
 293:Generated_Source\PSoC4/Serial_UART.c ****         Serial_IntrTxMask = LO16(Serial_INTR_TX_MASK_REG);
 114              		.loc 1 293 0
 115 007c 1B4B     		ldr	r3, .L2+76
 116 007e 1B68     		ldr	r3, [r3]
 117 0080 9AB2     		uxth	r2, r3
 118 0082 1B4B     		ldr	r3, .L2+80
 119 0084 1A80     		strh	r2, [r3]
 294:Generated_Source\PSoC4/Serial_UART.c **** 
 295:Generated_Source\PSoC4/Serial_UART.c ****     #if(Serial_INTERNAL_RX_SW_BUFFER_CONST)
 296:Generated_Source\PSoC4/Serial_UART.c ****         Serial_rxBufferHead     = 0u;
 120              		.loc 1 296 0
 121 0086 1B4B     		ldr	r3, .L2+84
 122 0088 0022     		movs	r2, #0
 123 008a 1A60     		str	r2, [r3]
 297:Generated_Source\PSoC4/Serial_UART.c ****         Serial_rxBufferTail     = 0u;
 124              		.loc 1 297 0
 125 008c 1A4B     		ldr	r3, .L2+88
 126 008e 0022     		movs	r2, #0
 127 0090 1A60     		str	r2, [r3]
 298:Generated_Source\PSoC4/Serial_UART.c ****         Serial_rxBufferOverflow = 0u;
 128              		.loc 1 298 0
 129 0092 1A4B     		ldr	r3, .L2+92
 130 0094 0022     		movs	r2, #0
 131 0096 1A70     		strb	r2, [r3]
 299:Generated_Source\PSoC4/Serial_UART.c ****     #endif /* (Serial_INTERNAL_RX_SW_BUFFER_CONST) */
 300:Generated_Source\PSoC4/Serial_UART.c **** 
 301:Generated_Source\PSoC4/Serial_UART.c ****     #if(Serial_INTERNAL_TX_SW_BUFFER_CONST)
 302:Generated_Source\PSoC4/Serial_UART.c ****         Serial_txBufferHead = 0u;
 303:Generated_Source\PSoC4/Serial_UART.c ****         Serial_txBufferTail = 0u;
 304:Generated_Source\PSoC4/Serial_UART.c ****     #endif /* (Serial_INTERNAL_TX_SW_BUFFER_CONST) */
 305:Generated_Source\PSoC4/Serial_UART.c ****     }
 132              		.loc 1 305 0
 133 0098 C046     		nop
 134 009a BD46     		mov	sp, r7
 135              		@ sp needed
 136 009c 80BD     		pop	{r7, pc}
 137              	.L3:
 138 009e C046     		.align	2
 139              	.L2:
 140 00a0 00002440 		.word	1076101120
 141 00a4 0B080002 		.word	33556491
 142 00a8 40002440 		.word	1076101184
 143 00ac 48002440 		.word	1076101192
 144 00b0 01000A00 		.word	655361
 145 00b4 00032440 		.word	1076101888
 146 00b8 07000080 		.word	-2147483641
 147 00bc 04032440 		.word	1076101892
 148 00c0 10032440 		.word	1076101904
 149 00c4 44002440 		.word	1076101188
 150 00c8 00022440 		.word	1076101632
 151 00cc 04022440 		.word	1076101636
ARM GAS  C:\Users\TTSS\AppData\Local\Temp\ccxYlvX3.s 			page 9


 152 00d0 50002440 		.word	1076101200
 153 00d4 00000000 		.word	Serial_SPI_UART_ISR
 154 00d8 880E2440 		.word	1076104840
 155 00dc C80E2440 		.word	1076104904
 156 00e0 480F2440 		.word	1076105032
 157 00e4 080F2440 		.word	1076104968
 158 00e8 C80F2440 		.word	1076105160
 159 00ec 880F2440 		.word	1076105096
 160 00f0 00000000 		.word	Serial_IntrTxMask
 161 00f4 00000000 		.word	Serial_rxBufferHead
 162 00f8 00000000 		.word	Serial_rxBufferTail
 163 00fc 00000000 		.word	Serial_rxBufferOverflow
 164              		.cfi_endproc
 165              	.LFE2:
 166              		.size	Serial_UartInit, .-Serial_UartInit
 167              		.section	.text.Serial_UartPostEnable,"ax",%progbits
 168              		.align	2
 169              		.global	Serial_UartPostEnable
 170              		.code	16
 171              		.thumb_func
 172              		.type	Serial_UartPostEnable, %function
 173              	Serial_UartPostEnable:
 174              	.LFB3:
 306:Generated_Source\PSoC4/Serial_UART.c **** #endif /* (Serial_SCB_MODE_UNCONFIG_CONST_CFG) */
 307:Generated_Source\PSoC4/Serial_UART.c **** 
 308:Generated_Source\PSoC4/Serial_UART.c **** 
 309:Generated_Source\PSoC4/Serial_UART.c **** /*******************************************************************************
 310:Generated_Source\PSoC4/Serial_UART.c **** * Function Name: Serial_UartPostEnable
 311:Generated_Source\PSoC4/Serial_UART.c **** ****************************************************************************//**
 312:Generated_Source\PSoC4/Serial_UART.c **** *
 313:Generated_Source\PSoC4/Serial_UART.c **** *  Restores HSIOM settings for the UART output pins (TX and/or RTS) to be
 314:Generated_Source\PSoC4/Serial_UART.c **** *  controlled by the SCB UART.
 315:Generated_Source\PSoC4/Serial_UART.c **** *
 316:Generated_Source\PSoC4/Serial_UART.c **** *******************************************************************************/
 317:Generated_Source\PSoC4/Serial_UART.c **** void Serial_UartPostEnable(void)
 318:Generated_Source\PSoC4/Serial_UART.c **** {
 175              		.loc 1 318 0
 176              		.cfi_startproc
 177              		@ args = 0, pretend = 0, frame = 0
 178              		@ frame_needed = 1, uses_anonymous_args = 0
 179 0000 80B5     		push	{r7, lr}
 180              		.cfi_def_cfa_offset 8
 181              		.cfi_offset 7, -8
 182              		.cfi_offset 14, -4
 183 0002 00AF     		add	r7, sp, #0
 184              		.cfi_def_cfa_register 7
 319:Generated_Source\PSoC4/Serial_UART.c **** #if (Serial_SCB_MODE_UNCONFIG_CONST_CFG)
 320:Generated_Source\PSoC4/Serial_UART.c ****     #if (Serial_TX_SCL_MISO_PIN)
 321:Generated_Source\PSoC4/Serial_UART.c ****         if (Serial_CHECK_TX_SCL_MISO_PIN_USED)
 322:Generated_Source\PSoC4/Serial_UART.c ****         {
 323:Generated_Source\PSoC4/Serial_UART.c ****             /* Set SCB UART to drive the output pin */
 324:Generated_Source\PSoC4/Serial_UART.c ****             Serial_SET_HSIOM_SEL(Serial_TX_SCL_MISO_HSIOM_REG, Serial_TX_SCL_MISO_HSIOM_MASK,
 325:Generated_Source\PSoC4/Serial_UART.c ****                                            Serial_TX_SCL_MISO_HSIOM_POS, Serial_TX_SCL_MISO_HSIOM_S
 326:Generated_Source\PSoC4/Serial_UART.c ****         }
 327:Generated_Source\PSoC4/Serial_UART.c ****     #endif /* (Serial_TX_SCL_MISO_PIN_PIN) */
 328:Generated_Source\PSoC4/Serial_UART.c **** 
 329:Generated_Source\PSoC4/Serial_UART.c ****     #if !(Serial_CY_SCBIP_V0 || Serial_CY_SCBIP_V1)
ARM GAS  C:\Users\TTSS\AppData\Local\Temp\ccxYlvX3.s 			page 10


 330:Generated_Source\PSoC4/Serial_UART.c ****         #if (Serial_RTS_SS0_PIN)
 331:Generated_Source\PSoC4/Serial_UART.c ****             if (Serial_CHECK_RTS_SS0_PIN_USED)
 332:Generated_Source\PSoC4/Serial_UART.c ****             {
 333:Generated_Source\PSoC4/Serial_UART.c ****                 /* Set SCB UART to drive the output pin */
 334:Generated_Source\PSoC4/Serial_UART.c ****                 Serial_SET_HSIOM_SEL(Serial_RTS_SS0_HSIOM_REG, Serial_RTS_SS0_HSIOM_MASK,
 335:Generated_Source\PSoC4/Serial_UART.c ****                                                Serial_RTS_SS0_HSIOM_POS, Serial_RTS_SS0_HSIOM_SEL_U
 336:Generated_Source\PSoC4/Serial_UART.c ****             }
 337:Generated_Source\PSoC4/Serial_UART.c ****         #endif /* (Serial_RTS_SS0_PIN) */
 338:Generated_Source\PSoC4/Serial_UART.c ****     #endif /* !(Serial_CY_SCBIP_V0 || Serial_CY_SCBIP_V1) */
 339:Generated_Source\PSoC4/Serial_UART.c **** 
 340:Generated_Source\PSoC4/Serial_UART.c **** #else
 341:Generated_Source\PSoC4/Serial_UART.c ****     #if (Serial_UART_TX_PIN)
 342:Generated_Source\PSoC4/Serial_UART.c ****          /* Set SCB UART to drive the output pin */
 343:Generated_Source\PSoC4/Serial_UART.c ****         Serial_SET_HSIOM_SEL(Serial_TX_HSIOM_REG, Serial_TX_HSIOM_MASK,
 344:Generated_Source\PSoC4/Serial_UART.c ****                                        Serial_TX_HSIOM_POS, Serial_TX_HSIOM_SEL_UART);
 345:Generated_Source\PSoC4/Serial_UART.c ****     #endif /* (Serial_UART_TX_PIN) */
 346:Generated_Source\PSoC4/Serial_UART.c **** 
 347:Generated_Source\PSoC4/Serial_UART.c ****     #if (Serial_UART_RTS_PIN)
 348:Generated_Source\PSoC4/Serial_UART.c ****         /* Set SCB UART to drive the output pin */
 349:Generated_Source\PSoC4/Serial_UART.c ****         Serial_SET_HSIOM_SEL(Serial_RTS_HSIOM_REG, Serial_RTS_HSIOM_MASK,
 350:Generated_Source\PSoC4/Serial_UART.c ****                                        Serial_RTS_HSIOM_POS, Serial_RTS_HSIOM_SEL_UART);
 351:Generated_Source\PSoC4/Serial_UART.c ****     #endif /* (Serial_UART_RTS_PIN) */
 352:Generated_Source\PSoC4/Serial_UART.c **** #endif /* (Serial_SCB_MODE_UNCONFIG_CONST_CFG) */
 353:Generated_Source\PSoC4/Serial_UART.c **** 
 354:Generated_Source\PSoC4/Serial_UART.c ****     /* Restore TX interrupt sources. */
 355:Generated_Source\PSoC4/Serial_UART.c ****     Serial_SetTxInterruptMode(Serial_IntrTxMask);
 185              		.loc 1 355 0
 186 0004 034B     		ldr	r3, .L5
 187 0006 044A     		ldr	r2, .L5+4
 188 0008 1288     		ldrh	r2, [r2]
 189 000a 1A60     		str	r2, [r3]
 356:Generated_Source\PSoC4/Serial_UART.c **** }
 190              		.loc 1 356 0
 191 000c C046     		nop
 192 000e BD46     		mov	sp, r7
 193              		@ sp needed
 194 0010 80BD     		pop	{r7, pc}
 195              	.L6:
 196 0012 C046     		.align	2
 197              	.L5:
 198 0014 880F2440 		.word	1076105096
 199 0018 00000000 		.word	Serial_IntrTxMask
 200              		.cfi_endproc
 201              	.LFE3:
 202              		.size	Serial_UartPostEnable, .-Serial_UartPostEnable
 203              		.section	.text.Serial_UartStop,"ax",%progbits
 204              		.align	2
 205              		.global	Serial_UartStop
 206              		.code	16
 207              		.thumb_func
 208              		.type	Serial_UartStop, %function
 209              	Serial_UartStop:
 210              	.LFB4:
 357:Generated_Source\PSoC4/Serial_UART.c **** 
 358:Generated_Source\PSoC4/Serial_UART.c **** 
 359:Generated_Source\PSoC4/Serial_UART.c **** /*******************************************************************************
 360:Generated_Source\PSoC4/Serial_UART.c **** * Function Name: Serial_UartStop
ARM GAS  C:\Users\TTSS\AppData\Local\Temp\ccxYlvX3.s 			page 11


 361:Generated_Source\PSoC4/Serial_UART.c **** ****************************************************************************//**
 362:Generated_Source\PSoC4/Serial_UART.c **** *
 363:Generated_Source\PSoC4/Serial_UART.c **** *  Changes the HSIOM settings for the UART output pins (TX and/or RTS) to keep
 364:Generated_Source\PSoC4/Serial_UART.c **** *  them inactive after the block is disabled. The output pins are controlled by
 365:Generated_Source\PSoC4/Serial_UART.c **** *  the GPIO data register. Also, the function disables the skip start feature
 366:Generated_Source\PSoC4/Serial_UART.c **** *  to not cause it to trigger after the component is enabled.
 367:Generated_Source\PSoC4/Serial_UART.c **** *
 368:Generated_Source\PSoC4/Serial_UART.c **** *******************************************************************************/
 369:Generated_Source\PSoC4/Serial_UART.c **** void Serial_UartStop(void)
 370:Generated_Source\PSoC4/Serial_UART.c **** {
 211              		.loc 1 370 0
 212              		.cfi_startproc
 213              		@ args = 0, pretend = 0, frame = 0
 214              		@ frame_needed = 1, uses_anonymous_args = 0
 215 0000 80B5     		push	{r7, lr}
 216              		.cfi_def_cfa_offset 8
 217              		.cfi_offset 7, -8
 218              		.cfi_offset 14, -4
 219 0002 00AF     		add	r7, sp, #0
 220              		.cfi_def_cfa_register 7
 371:Generated_Source\PSoC4/Serial_UART.c **** #if(Serial_SCB_MODE_UNCONFIG_CONST_CFG)
 372:Generated_Source\PSoC4/Serial_UART.c ****     #if (Serial_TX_SCL_MISO_PIN)
 373:Generated_Source\PSoC4/Serial_UART.c ****         if (Serial_CHECK_TX_SCL_MISO_PIN_USED)
 374:Generated_Source\PSoC4/Serial_UART.c ****         {
 375:Generated_Source\PSoC4/Serial_UART.c ****             /* Set GPIO to drive output pin */
 376:Generated_Source\PSoC4/Serial_UART.c ****             Serial_SET_HSIOM_SEL(Serial_TX_SCL_MISO_HSIOM_REG, Serial_TX_SCL_MISO_HSIOM_MASK,
 377:Generated_Source\PSoC4/Serial_UART.c ****                                            Serial_TX_SCL_MISO_HSIOM_POS, Serial_TX_SCL_MISO_HSIOM_S
 378:Generated_Source\PSoC4/Serial_UART.c ****         }
 379:Generated_Source\PSoC4/Serial_UART.c ****     #endif /* (Serial_TX_SCL_MISO_PIN_PIN) */
 380:Generated_Source\PSoC4/Serial_UART.c **** 
 381:Generated_Source\PSoC4/Serial_UART.c ****     #if !(Serial_CY_SCBIP_V0 || Serial_CY_SCBIP_V1)
 382:Generated_Source\PSoC4/Serial_UART.c ****         #if (Serial_RTS_SS0_PIN)
 383:Generated_Source\PSoC4/Serial_UART.c ****             if (Serial_CHECK_RTS_SS0_PIN_USED)
 384:Generated_Source\PSoC4/Serial_UART.c ****             {
 385:Generated_Source\PSoC4/Serial_UART.c ****                 /* Set output pin state after block is disabled */
 386:Generated_Source\PSoC4/Serial_UART.c ****                 Serial_uart_rts_spi_ss0_Write(Serial_GET_UART_RTS_INACTIVE);
 387:Generated_Source\PSoC4/Serial_UART.c **** 
 388:Generated_Source\PSoC4/Serial_UART.c ****                 /* Set GPIO to drive output pin */
 389:Generated_Source\PSoC4/Serial_UART.c ****                 Serial_SET_HSIOM_SEL(Serial_RTS_SS0_HSIOM_REG, Serial_RTS_SS0_HSIOM_MASK,
 390:Generated_Source\PSoC4/Serial_UART.c ****                                                Serial_RTS_SS0_HSIOM_POS, Serial_RTS_SS0_HSIOM_SEL_G
 391:Generated_Source\PSoC4/Serial_UART.c ****             }
 392:Generated_Source\PSoC4/Serial_UART.c ****         #endif /* (Serial_RTS_SS0_PIN) */
 393:Generated_Source\PSoC4/Serial_UART.c ****     #endif /* !(Serial_CY_SCBIP_V0 || Serial_CY_SCBIP_V1) */
 394:Generated_Source\PSoC4/Serial_UART.c **** 
 395:Generated_Source\PSoC4/Serial_UART.c **** #else
 396:Generated_Source\PSoC4/Serial_UART.c ****     #if (Serial_UART_TX_PIN)
 397:Generated_Source\PSoC4/Serial_UART.c ****         /* Set GPIO to drive output pin */
 398:Generated_Source\PSoC4/Serial_UART.c ****         Serial_SET_HSIOM_SEL(Serial_TX_HSIOM_REG, Serial_TX_HSIOM_MASK,
 399:Generated_Source\PSoC4/Serial_UART.c ****                                        Serial_TX_HSIOM_POS, Serial_TX_HSIOM_SEL_GPIO);
 400:Generated_Source\PSoC4/Serial_UART.c ****     #endif /* (Serial_UART_TX_PIN) */
 401:Generated_Source\PSoC4/Serial_UART.c **** 
 402:Generated_Source\PSoC4/Serial_UART.c ****     #if (Serial_UART_RTS_PIN)
 403:Generated_Source\PSoC4/Serial_UART.c ****         /* Set output pin state after block is disabled */
 404:Generated_Source\PSoC4/Serial_UART.c ****         Serial_rts_Write(Serial_GET_UART_RTS_INACTIVE);
 405:Generated_Source\PSoC4/Serial_UART.c **** 
 406:Generated_Source\PSoC4/Serial_UART.c ****         /* Set GPIO to drive output pin */
 407:Generated_Source\PSoC4/Serial_UART.c ****         Serial_SET_HSIOM_SEL(Serial_RTS_HSIOM_REG, Serial_RTS_HSIOM_MASK,
ARM GAS  C:\Users\TTSS\AppData\Local\Temp\ccxYlvX3.s 			page 12


 408:Generated_Source\PSoC4/Serial_UART.c ****                                        Serial_RTS_HSIOM_POS, Serial_RTS_HSIOM_SEL_GPIO);
 409:Generated_Source\PSoC4/Serial_UART.c ****     #endif /* (Serial_UART_RTS_PIN) */
 410:Generated_Source\PSoC4/Serial_UART.c **** 
 411:Generated_Source\PSoC4/Serial_UART.c **** #endif /* (Serial_SCB_MODE_UNCONFIG_CONST_CFG) */
 412:Generated_Source\PSoC4/Serial_UART.c **** 
 413:Generated_Source\PSoC4/Serial_UART.c **** #if (Serial_UART_WAKE_ENABLE_CONST)
 414:Generated_Source\PSoC4/Serial_UART.c ****     /* Disable skip start feature used for wakeup */
 415:Generated_Source\PSoC4/Serial_UART.c ****     Serial_UART_RX_CTRL_REG &= (uint32) ~Serial_UART_RX_CTRL_SKIP_START;
 416:Generated_Source\PSoC4/Serial_UART.c **** #endif /* (Serial_UART_WAKE_ENABLE_CONST) */
 417:Generated_Source\PSoC4/Serial_UART.c **** 
 418:Generated_Source\PSoC4/Serial_UART.c ****     /* Store TX interrupt sources (exclude level triggered). */
 419:Generated_Source\PSoC4/Serial_UART.c ****     Serial_IntrTxMask = LO16(Serial_GetTxInterruptMode() & Serial_INTR_UART_TX_RESTORE);
 221              		.loc 1 419 0
 222 0004 054B     		ldr	r3, .L8
 223 0006 1B68     		ldr	r3, [r3]
 224 0008 9AB2     		uxth	r2, r3
 225 000a E423     		movs	r3, #228
 226 000c DB00     		lsls	r3, r3, #3
 227 000e 1340     		ands	r3, r2
 228 0010 9AB2     		uxth	r2, r3
 229 0012 034B     		ldr	r3, .L8+4
 230 0014 1A80     		strh	r2, [r3]
 420:Generated_Source\PSoC4/Serial_UART.c **** }
 231              		.loc 1 420 0
 232 0016 C046     		nop
 233 0018 BD46     		mov	sp, r7
 234              		@ sp needed
 235 001a 80BD     		pop	{r7, pc}
 236              	.L9:
 237              		.align	2
 238              	.L8:
 239 001c 880F2440 		.word	1076105096
 240 0020 00000000 		.word	Serial_IntrTxMask
 241              		.cfi_endproc
 242              	.LFE4:
 243              		.size	Serial_UartStop, .-Serial_UartStop
 244              		.section	.text.Serial_UartSetRxAddress,"ax",%progbits
 245              		.align	2
 246              		.global	Serial_UartSetRxAddress
 247              		.code	16
 248              		.thumb_func
 249              		.type	Serial_UartSetRxAddress, %function
 250              	Serial_UartSetRxAddress:
 251              	.LFB5:
 421:Generated_Source\PSoC4/Serial_UART.c **** 
 422:Generated_Source\PSoC4/Serial_UART.c **** 
 423:Generated_Source\PSoC4/Serial_UART.c **** /*******************************************************************************
 424:Generated_Source\PSoC4/Serial_UART.c **** * Function Name: Serial_UartSetRxAddress
 425:Generated_Source\PSoC4/Serial_UART.c **** ****************************************************************************//**
 426:Generated_Source\PSoC4/Serial_UART.c **** *
 427:Generated_Source\PSoC4/Serial_UART.c **** *  Sets the hardware detectable receiver address for the UART in the
 428:Generated_Source\PSoC4/Serial_UART.c **** *  Multiprocessor mode.
 429:Generated_Source\PSoC4/Serial_UART.c **** *
 430:Generated_Source\PSoC4/Serial_UART.c **** *  \param address: Address for hardware address detection.
 431:Generated_Source\PSoC4/Serial_UART.c **** *
 432:Generated_Source\PSoC4/Serial_UART.c **** *******************************************************************************/
 433:Generated_Source\PSoC4/Serial_UART.c **** void Serial_UartSetRxAddress(uint32 address)
ARM GAS  C:\Users\TTSS\AppData\Local\Temp\ccxYlvX3.s 			page 13


 434:Generated_Source\PSoC4/Serial_UART.c **** {
 252              		.loc 1 434 0
 253              		.cfi_startproc
 254              		@ args = 0, pretend = 0, frame = 16
 255              		@ frame_needed = 1, uses_anonymous_args = 0
 256 0000 80B5     		push	{r7, lr}
 257              		.cfi_def_cfa_offset 8
 258              		.cfi_offset 7, -8
 259              		.cfi_offset 14, -4
 260 0002 84B0     		sub	sp, sp, #16
 261              		.cfi_def_cfa_offset 24
 262 0004 00AF     		add	r7, sp, #0
 263              		.cfi_def_cfa_register 7
 264 0006 7860     		str	r0, [r7, #4]
 435:Generated_Source\PSoC4/Serial_UART.c ****      uint32 matchReg;
 436:Generated_Source\PSoC4/Serial_UART.c **** 
 437:Generated_Source\PSoC4/Serial_UART.c ****     matchReg = Serial_RX_MATCH_REG;
 265              		.loc 1 437 0
 266 0008 094B     		ldr	r3, .L11
 267 000a 1B68     		ldr	r3, [r3]
 268 000c FB60     		str	r3, [r7, #12]
 438:Generated_Source\PSoC4/Serial_UART.c **** 
 439:Generated_Source\PSoC4/Serial_UART.c ****     matchReg &= ((uint32) ~Serial_RX_MATCH_ADDR_MASK); /* Clear address bits */
 269              		.loc 1 439 0
 270 000e FB68     		ldr	r3, [r7, #12]
 271 0010 FF22     		movs	r2, #255
 272 0012 9343     		bics	r3, r2
 273 0014 FB60     		str	r3, [r7, #12]
 440:Generated_Source\PSoC4/Serial_UART.c ****     matchReg |= ((uint32)  (address & Serial_RX_MATCH_ADDR_MASK)); /* Set address  */
 274              		.loc 1 440 0
 275 0016 7B68     		ldr	r3, [r7, #4]
 276 0018 FF22     		movs	r2, #255
 277 001a 1340     		ands	r3, r2
 278 001c FA68     		ldr	r2, [r7, #12]
 279 001e 1343     		orrs	r3, r2
 280 0020 FB60     		str	r3, [r7, #12]
 441:Generated_Source\PSoC4/Serial_UART.c **** 
 442:Generated_Source\PSoC4/Serial_UART.c ****     Serial_RX_MATCH_REG = matchReg;
 281              		.loc 1 442 0
 282 0022 034B     		ldr	r3, .L11
 283 0024 FA68     		ldr	r2, [r7, #12]
 284 0026 1A60     		str	r2, [r3]
 443:Generated_Source\PSoC4/Serial_UART.c **** }
 285              		.loc 1 443 0
 286 0028 C046     		nop
 287 002a BD46     		mov	sp, r7
 288 002c 04B0     		add	sp, sp, #16
 289              		@ sp needed
 290 002e 80BD     		pop	{r7, pc}
 291              	.L12:
 292              		.align	2
 293              	.L11:
 294 0030 10032440 		.word	1076101904
 295              		.cfi_endproc
 296              	.LFE5:
 297              		.size	Serial_UartSetRxAddress, .-Serial_UartSetRxAddress
 298              		.section	.text.Serial_UartSetRxAddressMask,"ax",%progbits
ARM GAS  C:\Users\TTSS\AppData\Local\Temp\ccxYlvX3.s 			page 14


 299              		.align	2
 300              		.global	Serial_UartSetRxAddressMask
 301              		.code	16
 302              		.thumb_func
 303              		.type	Serial_UartSetRxAddressMask, %function
 304              	Serial_UartSetRxAddressMask:
 305              	.LFB6:
 444:Generated_Source\PSoC4/Serial_UART.c **** 
 445:Generated_Source\PSoC4/Serial_UART.c **** 
 446:Generated_Source\PSoC4/Serial_UART.c **** /*******************************************************************************
 447:Generated_Source\PSoC4/Serial_UART.c **** * Function Name: Serial_UartSetRxAddressMask
 448:Generated_Source\PSoC4/Serial_UART.c **** ****************************************************************************//**
 449:Generated_Source\PSoC4/Serial_UART.c **** *
 450:Generated_Source\PSoC4/Serial_UART.c **** *  Sets the hardware address mask for the UART in the Multiprocessor mode.
 451:Generated_Source\PSoC4/Serial_UART.c **** *
 452:Generated_Source\PSoC4/Serial_UART.c **** *  \param addressMask: Address mask.
 453:Generated_Source\PSoC4/Serial_UART.c **** *   - Bit value 0 – excludes bit from address comparison.
 454:Generated_Source\PSoC4/Serial_UART.c **** *   - Bit value 1 – the bit needs to match with the corresponding bit
 455:Generated_Source\PSoC4/Serial_UART.c **** *     of the address.
 456:Generated_Source\PSoC4/Serial_UART.c **** *
 457:Generated_Source\PSoC4/Serial_UART.c **** *******************************************************************************/
 458:Generated_Source\PSoC4/Serial_UART.c **** void Serial_UartSetRxAddressMask(uint32 addressMask)
 459:Generated_Source\PSoC4/Serial_UART.c **** {
 306              		.loc 1 459 0
 307              		.cfi_startproc
 308              		@ args = 0, pretend = 0, frame = 16
 309              		@ frame_needed = 1, uses_anonymous_args = 0
 310 0000 80B5     		push	{r7, lr}
 311              		.cfi_def_cfa_offset 8
 312              		.cfi_offset 7, -8
 313              		.cfi_offset 14, -4
 314 0002 84B0     		sub	sp, sp, #16
 315              		.cfi_def_cfa_offset 24
 316 0004 00AF     		add	r7, sp, #0
 317              		.cfi_def_cfa_register 7
 318 0006 7860     		str	r0, [r7, #4]
 460:Generated_Source\PSoC4/Serial_UART.c ****     uint32 matchReg;
 461:Generated_Source\PSoC4/Serial_UART.c **** 
 462:Generated_Source\PSoC4/Serial_UART.c ****     matchReg = Serial_RX_MATCH_REG;
 319              		.loc 1 462 0
 320 0008 094B     		ldr	r3, .L14
 321 000a 1B68     		ldr	r3, [r3]
 322 000c FB60     		str	r3, [r7, #12]
 463:Generated_Source\PSoC4/Serial_UART.c **** 
 464:Generated_Source\PSoC4/Serial_UART.c ****     matchReg &= ((uint32) ~Serial_RX_MATCH_MASK_MASK); /* Clear address mask bits */
 323              		.loc 1 464 0
 324 000e FB68     		ldr	r3, [r7, #12]
 325 0010 084A     		ldr	r2, .L14+4
 326 0012 1340     		ands	r3, r2
 327 0014 FB60     		str	r3, [r7, #12]
 465:Generated_Source\PSoC4/Serial_UART.c ****     matchReg |= ((uint32) (addressMask << Serial_RX_MATCH_MASK_POS));
 328              		.loc 1 465 0
 329 0016 7B68     		ldr	r3, [r7, #4]
 330 0018 1B04     		lsls	r3, r3, #16
 331 001a FA68     		ldr	r2, [r7, #12]
 332 001c 1343     		orrs	r3, r2
 333 001e FB60     		str	r3, [r7, #12]
ARM GAS  C:\Users\TTSS\AppData\Local\Temp\ccxYlvX3.s 			page 15


 466:Generated_Source\PSoC4/Serial_UART.c **** 
 467:Generated_Source\PSoC4/Serial_UART.c ****     Serial_RX_MATCH_REG = matchReg;
 334              		.loc 1 467 0
 335 0020 034B     		ldr	r3, .L14
 336 0022 FA68     		ldr	r2, [r7, #12]
 337 0024 1A60     		str	r2, [r3]
 468:Generated_Source\PSoC4/Serial_UART.c **** }
 338              		.loc 1 468 0
 339 0026 C046     		nop
 340 0028 BD46     		mov	sp, r7
 341 002a 04B0     		add	sp, sp, #16
 342              		@ sp needed
 343 002c 80BD     		pop	{r7, pc}
 344              	.L15:
 345 002e C046     		.align	2
 346              	.L14:
 347 0030 10032440 		.word	1076101904
 348 0034 FFFF00FF 		.word	-16711681
 349              		.cfi_endproc
 350              	.LFE6:
 351              		.size	Serial_UartSetRxAddressMask, .-Serial_UartSetRxAddressMask
 352              		.section	.text.Serial_UartGetChar,"ax",%progbits
 353              		.align	2
 354              		.global	Serial_UartGetChar
 355              		.code	16
 356              		.thumb_func
 357              		.type	Serial_UartGetChar, %function
 358              	Serial_UartGetChar:
 359              	.LFB7:
 469:Generated_Source\PSoC4/Serial_UART.c **** 
 470:Generated_Source\PSoC4/Serial_UART.c **** 
 471:Generated_Source\PSoC4/Serial_UART.c **** #if(Serial_UART_RX_DIRECTION)
 472:Generated_Source\PSoC4/Serial_UART.c ****     /*******************************************************************************
 473:Generated_Source\PSoC4/Serial_UART.c ****     * Function Name: Serial_UartGetChar
 474:Generated_Source\PSoC4/Serial_UART.c ****     ****************************************************************************//**
 475:Generated_Source\PSoC4/Serial_UART.c ****     *
 476:Generated_Source\PSoC4/Serial_UART.c ****     *  Retrieves next data element from receive buffer.
 477:Generated_Source\PSoC4/Serial_UART.c ****     *  This function is designed for ASCII characters and returns a char where
 478:Generated_Source\PSoC4/Serial_UART.c ****     *  1 to 255 are valid characters and 0 indicates an error occurred or no data
 479:Generated_Source\PSoC4/Serial_UART.c ****     *  is present.
 480:Generated_Source\PSoC4/Serial_UART.c ****     *  - RX software buffer is disabled: Returns data element retrieved from RX
 481:Generated_Source\PSoC4/Serial_UART.c ****     *    FIFO.
 482:Generated_Source\PSoC4/Serial_UART.c ****     *  - RX software buffer is enabled: Returns data element from the software
 483:Generated_Source\PSoC4/Serial_UART.c ****     *    receive buffer.
 484:Generated_Source\PSoC4/Serial_UART.c ****     *
 485:Generated_Source\PSoC4/Serial_UART.c ****     *  \return
 486:Generated_Source\PSoC4/Serial_UART.c ****     *   Next data element from the receive buffer. ASCII character values from
 487:Generated_Source\PSoC4/Serial_UART.c ****     *   1 to 255 are valid. A returned zero signifies an error condition or no
 488:Generated_Source\PSoC4/Serial_UART.c ****     *   data available.
 489:Generated_Source\PSoC4/Serial_UART.c ****     *
 490:Generated_Source\PSoC4/Serial_UART.c ****     *  \sideeffect
 491:Generated_Source\PSoC4/Serial_UART.c ****     *   The errors bits may not correspond with reading characters due to
 492:Generated_Source\PSoC4/Serial_UART.c ****     *   RX FIFO and software buffer usage.
 493:Generated_Source\PSoC4/Serial_UART.c ****     *   RX software buffer is enabled: The internal software buffer overflow
 494:Generated_Source\PSoC4/Serial_UART.c ****     *   is not treated as an error condition.
 495:Generated_Source\PSoC4/Serial_UART.c ****     *   Check Serial_rxBufferOverflow to capture that error condition.
 496:Generated_Source\PSoC4/Serial_UART.c ****     *
ARM GAS  C:\Users\TTSS\AppData\Local\Temp\ccxYlvX3.s 			page 16


 497:Generated_Source\PSoC4/Serial_UART.c ****     *******************************************************************************/
 498:Generated_Source\PSoC4/Serial_UART.c ****     uint32 Serial_UartGetChar(void)
 499:Generated_Source\PSoC4/Serial_UART.c ****     {
 360              		.loc 1 499 0
 361              		.cfi_startproc
 362              		@ args = 0, pretend = 0, frame = 8
 363              		@ frame_needed = 1, uses_anonymous_args = 0
 364 0000 80B5     		push	{r7, lr}
 365              		.cfi_def_cfa_offset 8
 366              		.cfi_offset 7, -8
 367              		.cfi_offset 14, -4
 368 0002 82B0     		sub	sp, sp, #8
 369              		.cfi_def_cfa_offset 16
 370 0004 00AF     		add	r7, sp, #0
 371              		.cfi_def_cfa_register 7
 500:Generated_Source\PSoC4/Serial_UART.c ****         uint32 rxData = 0u;
 372              		.loc 1 500 0
 373 0006 0023     		movs	r3, #0
 374 0008 7B60     		str	r3, [r7, #4]
 501:Generated_Source\PSoC4/Serial_UART.c **** 
 502:Generated_Source\PSoC4/Serial_UART.c ****         /* Reads data only if there is data to read */
 503:Generated_Source\PSoC4/Serial_UART.c ****         if (0u != Serial_SpiUartGetRxBufferSize())
 375              		.loc 1 503 0
 376 000a FFF7FEFF 		bl	Serial_SpiUartGetRxBufferSize
 377 000e 031E     		subs	r3, r0, #0
 378 0010 03D0     		beq	.L17
 504:Generated_Source\PSoC4/Serial_UART.c ****         {
 505:Generated_Source\PSoC4/Serial_UART.c ****             rxData = Serial_SpiUartReadRxData();
 379              		.loc 1 505 0
 380 0012 FFF7FEFF 		bl	Serial_SpiUartReadRxData
 381 0016 0300     		movs	r3, r0
 382 0018 7B60     		str	r3, [r7, #4]
 383              	.L17:
 506:Generated_Source\PSoC4/Serial_UART.c ****         }
 507:Generated_Source\PSoC4/Serial_UART.c **** 
 508:Generated_Source\PSoC4/Serial_UART.c ****         if (Serial_CHECK_INTR_RX(Serial_INTR_RX_ERR))
 384              		.loc 1 508 0
 385 001a 084B     		ldr	r3, .L20
 386 001c 1A68     		ldr	r2, [r3]
 387 001e D823     		movs	r3, #216
 388 0020 9B00     		lsls	r3, r3, #2
 389 0022 1340     		ands	r3, r2
 390 0024 05D0     		beq	.L18
 509:Generated_Source\PSoC4/Serial_UART.c ****         {
 510:Generated_Source\PSoC4/Serial_UART.c ****             rxData = 0u; /* Error occurred: returns zero */
 391              		.loc 1 510 0
 392 0026 0023     		movs	r3, #0
 393 0028 7B60     		str	r3, [r7, #4]
 511:Generated_Source\PSoC4/Serial_UART.c ****             Serial_ClearRxInterruptSource(Serial_INTR_RX_ERR);
 394              		.loc 1 511 0
 395 002a 044B     		ldr	r3, .L20
 396 002c D822     		movs	r2, #216
 397 002e 9200     		lsls	r2, r2, #2
 398 0030 1A60     		str	r2, [r3]
 399              	.L18:
 512:Generated_Source\PSoC4/Serial_UART.c ****         }
 513:Generated_Source\PSoC4/Serial_UART.c **** 
ARM GAS  C:\Users\TTSS\AppData\Local\Temp\ccxYlvX3.s 			page 17


 514:Generated_Source\PSoC4/Serial_UART.c ****         return (rxData);
 400              		.loc 1 514 0
 401 0032 7B68     		ldr	r3, [r7, #4]
 515:Generated_Source\PSoC4/Serial_UART.c ****     }
 402              		.loc 1 515 0
 403 0034 1800     		movs	r0, r3
 404 0036 BD46     		mov	sp, r7
 405 0038 02B0     		add	sp, sp, #8
 406              		@ sp needed
 407 003a 80BD     		pop	{r7, pc}
 408              	.L21:
 409              		.align	2
 410              	.L20:
 411 003c C00F2440 		.word	1076105152
 412              		.cfi_endproc
 413              	.LFE7:
 414              		.size	Serial_UartGetChar, .-Serial_UartGetChar
 415              		.section	.text.Serial_UartGetByte,"ax",%progbits
 416              		.align	2
 417              		.global	Serial_UartGetByte
 418              		.code	16
 419              		.thumb_func
 420              		.type	Serial_UartGetByte, %function
 421              	Serial_UartGetByte:
 422              	.LFB8:
 516:Generated_Source\PSoC4/Serial_UART.c **** 
 517:Generated_Source\PSoC4/Serial_UART.c **** 
 518:Generated_Source\PSoC4/Serial_UART.c ****     /*******************************************************************************
 519:Generated_Source\PSoC4/Serial_UART.c ****     * Function Name: Serial_UartGetByte
 520:Generated_Source\PSoC4/Serial_UART.c ****     ****************************************************************************//**
 521:Generated_Source\PSoC4/Serial_UART.c ****     *
 522:Generated_Source\PSoC4/Serial_UART.c ****     *  Retrieves the next data element from the receive buffer, returns the
 523:Generated_Source\PSoC4/Serial_UART.c ****     *  received byte and error condition.
 524:Generated_Source\PSoC4/Serial_UART.c ****     *   - The RX software buffer is disabled: returns the data element retrieved
 525:Generated_Source\PSoC4/Serial_UART.c ****     *     from the RX FIFO. Undefined data will be returned if the RX FIFO is
 526:Generated_Source\PSoC4/Serial_UART.c ****     *     empty.
 527:Generated_Source\PSoC4/Serial_UART.c ****     *   - The RX software buffer is enabled: returns data element from the
 528:Generated_Source\PSoC4/Serial_UART.c ****     *     software receive buffer.
 529:Generated_Source\PSoC4/Serial_UART.c ****     *
 530:Generated_Source\PSoC4/Serial_UART.c ****     *  \return
 531:Generated_Source\PSoC4/Serial_UART.c ****     *   Bits 7-0 contain the next data element from the receive buffer and
 532:Generated_Source\PSoC4/Serial_UART.c ****     *   other bits contain the error condition.
 533:Generated_Source\PSoC4/Serial_UART.c ****     *   - Serial_UART_RX_OVERFLOW - Attempt to write to a full
 534:Generated_Source\PSoC4/Serial_UART.c ****     *     receiver FIFO.
 535:Generated_Source\PSoC4/Serial_UART.c ****     *   - Serial_UART_RX_UNDERFLOW    Attempt to read from an empty
 536:Generated_Source\PSoC4/Serial_UART.c ****     *     receiver FIFO.
 537:Generated_Source\PSoC4/Serial_UART.c ****     *   - Serial_UART_RX_FRAME_ERROR - UART framing error detected.
 538:Generated_Source\PSoC4/Serial_UART.c ****     *   - Serial_UART_RX_PARITY_ERROR - UART parity error detected.
 539:Generated_Source\PSoC4/Serial_UART.c ****     *
 540:Generated_Source\PSoC4/Serial_UART.c ****     *  \sideeffect
 541:Generated_Source\PSoC4/Serial_UART.c ****     *   The errors bits may not correspond with reading characters due to
 542:Generated_Source\PSoC4/Serial_UART.c ****     *   RX FIFO and software buffer usage.
 543:Generated_Source\PSoC4/Serial_UART.c ****     *   RX software buffer is enabled: The internal software buffer overflow
 544:Generated_Source\PSoC4/Serial_UART.c ****     *   is not treated as an error condition.
 545:Generated_Source\PSoC4/Serial_UART.c ****     *   Check Serial_rxBufferOverflow to capture that error condition.
 546:Generated_Source\PSoC4/Serial_UART.c ****     *
 547:Generated_Source\PSoC4/Serial_UART.c ****     *******************************************************************************/
ARM GAS  C:\Users\TTSS\AppData\Local\Temp\ccxYlvX3.s 			page 18


 548:Generated_Source\PSoC4/Serial_UART.c ****     uint32 Serial_UartGetByte(void)
 549:Generated_Source\PSoC4/Serial_UART.c ****     {
 423              		.loc 1 549 0
 424              		.cfi_startproc
 425              		@ args = 0, pretend = 0, frame = 8
 426              		@ frame_needed = 1, uses_anonymous_args = 0
 427 0000 80B5     		push	{r7, lr}
 428              		.cfi_def_cfa_offset 8
 429              		.cfi_offset 7, -8
 430              		.cfi_offset 14, -4
 431 0002 82B0     		sub	sp, sp, #8
 432              		.cfi_def_cfa_offset 16
 433 0004 00AF     		add	r7, sp, #0
 434              		.cfi_def_cfa_register 7
 550:Generated_Source\PSoC4/Serial_UART.c ****         uint32 rxData;
 551:Generated_Source\PSoC4/Serial_UART.c ****         uint32 tmpStatus;
 552:Generated_Source\PSoC4/Serial_UART.c **** 
 553:Generated_Source\PSoC4/Serial_UART.c ****         #if (Serial_CHECK_RX_SW_BUFFER)
 554:Generated_Source\PSoC4/Serial_UART.c ****         {
 555:Generated_Source\PSoC4/Serial_UART.c ****             Serial_DisableInt();
 435              		.loc 1 555 0
 436 0006 0920     		movs	r0, #9
 437 0008 FFF7FEFF 		bl	CyIntDisable
 556:Generated_Source\PSoC4/Serial_UART.c ****         }
 557:Generated_Source\PSoC4/Serial_UART.c ****         #endif
 558:Generated_Source\PSoC4/Serial_UART.c **** 
 559:Generated_Source\PSoC4/Serial_UART.c ****         if (0u != Serial_SpiUartGetRxBufferSize())
 438              		.loc 1 559 0
 439 000c FFF7FEFF 		bl	Serial_SpiUartGetRxBufferSize
 440 0010 031E     		subs	r3, r0, #0
 441 0012 07D0     		beq	.L23
 560:Generated_Source\PSoC4/Serial_UART.c ****         {
 561:Generated_Source\PSoC4/Serial_UART.c ****             /* Enables interrupt to receive more bytes: at least one byte is in
 562:Generated_Source\PSoC4/Serial_UART.c ****             * buffer.
 563:Generated_Source\PSoC4/Serial_UART.c ****             */
 564:Generated_Source\PSoC4/Serial_UART.c ****             #if (Serial_CHECK_RX_SW_BUFFER)
 565:Generated_Source\PSoC4/Serial_UART.c ****             {
 566:Generated_Source\PSoC4/Serial_UART.c ****                 Serial_EnableInt();
 442              		.loc 1 566 0
 443 0014 0920     		movs	r0, #9
 444 0016 FFF7FEFF 		bl	CyIntEnable
 567:Generated_Source\PSoC4/Serial_UART.c ****             }
 568:Generated_Source\PSoC4/Serial_UART.c ****             #endif
 569:Generated_Source\PSoC4/Serial_UART.c **** 
 570:Generated_Source\PSoC4/Serial_UART.c ****             /* Get received byte */
 571:Generated_Source\PSoC4/Serial_UART.c ****             rxData = Serial_SpiUartReadRxData();
 445              		.loc 1 571 0
 446 001a FFF7FEFF 		bl	Serial_SpiUartReadRxData
 447 001e 0300     		movs	r3, r0
 448 0020 7B60     		str	r3, [r7, #4]
 449 0022 08E0     		b	.L24
 450              	.L23:
 572:Generated_Source\PSoC4/Serial_UART.c ****         }
 573:Generated_Source\PSoC4/Serial_UART.c ****         else
 574:Generated_Source\PSoC4/Serial_UART.c ****         {
 575:Generated_Source\PSoC4/Serial_UART.c ****             /* Reads a byte directly from RX FIFO: underflow is raised in the
 576:Generated_Source\PSoC4/Serial_UART.c ****             * case of empty. Otherwise the first received byte will be read.
ARM GAS  C:\Users\TTSS\AppData\Local\Temp\ccxYlvX3.s 			page 19


 577:Generated_Source\PSoC4/Serial_UART.c ****             */
 578:Generated_Source\PSoC4/Serial_UART.c ****             rxData = Serial_RX_FIFO_RD_REG;
 451              		.loc 1 578 0
 452 0024 0E4B     		ldr	r3, .L26
 453 0026 1B68     		ldr	r3, [r3]
 454 0028 7B60     		str	r3, [r7, #4]
 579:Generated_Source\PSoC4/Serial_UART.c **** 
 580:Generated_Source\PSoC4/Serial_UART.c **** 
 581:Generated_Source\PSoC4/Serial_UART.c ****             /* Enables interrupt to receive more bytes. */
 582:Generated_Source\PSoC4/Serial_UART.c ****             #if (Serial_CHECK_RX_SW_BUFFER)
 583:Generated_Source\PSoC4/Serial_UART.c ****             {
 584:Generated_Source\PSoC4/Serial_UART.c **** 
 585:Generated_Source\PSoC4/Serial_UART.c ****                 /* The byte has been read from RX FIFO. Clear RX interrupt to
 586:Generated_Source\PSoC4/Serial_UART.c ****                 * not involve interrupt handler when RX FIFO is empty.
 587:Generated_Source\PSoC4/Serial_UART.c ****                 */
 588:Generated_Source\PSoC4/Serial_UART.c ****                 Serial_ClearRxInterruptSource(Serial_INTR_RX_NOT_EMPTY);
 455              		.loc 1 588 0
 456 002a 0E4B     		ldr	r3, .L26+4
 457 002c 0422     		movs	r2, #4
 458 002e 1A60     		str	r2, [r3]
 589:Generated_Source\PSoC4/Serial_UART.c **** 
 590:Generated_Source\PSoC4/Serial_UART.c ****                 Serial_EnableInt();
 459              		.loc 1 590 0
 460 0030 0920     		movs	r0, #9
 461 0032 FFF7FEFF 		bl	CyIntEnable
 462              	.L24:
 591:Generated_Source\PSoC4/Serial_UART.c ****             }
 592:Generated_Source\PSoC4/Serial_UART.c ****             #endif
 593:Generated_Source\PSoC4/Serial_UART.c ****         }
 594:Generated_Source\PSoC4/Serial_UART.c **** 
 595:Generated_Source\PSoC4/Serial_UART.c ****         /* Get and clear RX error mask */
 596:Generated_Source\PSoC4/Serial_UART.c ****         tmpStatus = (Serial_GetRxInterruptSource() & Serial_INTR_RX_ERR);
 463              		.loc 1 596 0
 464 0036 0B4B     		ldr	r3, .L26+4
 465 0038 1A68     		ldr	r2, [r3]
 466 003a D823     		movs	r3, #216
 467 003c 9B00     		lsls	r3, r3, #2
 468 003e 1340     		ands	r3, r2
 469 0040 3B60     		str	r3, [r7]
 597:Generated_Source\PSoC4/Serial_UART.c ****         Serial_ClearRxInterruptSource(Serial_INTR_RX_ERR);
 470              		.loc 1 597 0
 471 0042 084B     		ldr	r3, .L26+4
 472 0044 D822     		movs	r2, #216
 473 0046 9200     		lsls	r2, r2, #2
 474 0048 1A60     		str	r2, [r3]
 598:Generated_Source\PSoC4/Serial_UART.c **** 
 599:Generated_Source\PSoC4/Serial_UART.c ****         /* Puts together data and error status:
 600:Generated_Source\PSoC4/Serial_UART.c ****         * MP mode and accept address: 9th bit is set to notify mark.
 601:Generated_Source\PSoC4/Serial_UART.c ****         */
 602:Generated_Source\PSoC4/Serial_UART.c ****         rxData |= ((uint32) (tmpStatus << 8u));
 475              		.loc 1 602 0
 476 004a 3B68     		ldr	r3, [r7]
 477 004c 1B02     		lsls	r3, r3, #8
 478 004e 7A68     		ldr	r2, [r7, #4]
 479 0050 1343     		orrs	r3, r2
 480 0052 7B60     		str	r3, [r7, #4]
 603:Generated_Source\PSoC4/Serial_UART.c **** 
ARM GAS  C:\Users\TTSS\AppData\Local\Temp\ccxYlvX3.s 			page 20


 604:Generated_Source\PSoC4/Serial_UART.c ****         return (rxData);
 481              		.loc 1 604 0
 482 0054 7B68     		ldr	r3, [r7, #4]
 605:Generated_Source\PSoC4/Serial_UART.c ****     }
 483              		.loc 1 605 0
 484 0056 1800     		movs	r0, r3
 485 0058 BD46     		mov	sp, r7
 486 005a 02B0     		add	sp, sp, #8
 487              		@ sp needed
 488 005c 80BD     		pop	{r7, pc}
 489              	.L27:
 490 005e C046     		.align	2
 491              	.L26:
 492 0060 40032440 		.word	1076101952
 493 0064 C00F2440 		.word	1076105152
 494              		.cfi_endproc
 495              	.LFE8:
 496              		.size	Serial_UartGetByte, .-Serial_UartGetByte
 497              		.section	.text.Serial_UartSetRtsPolarity,"ax",%progbits
 498              		.align	2
 499              		.global	Serial_UartSetRtsPolarity
 500              		.code	16
 501              		.thumb_func
 502              		.type	Serial_UartSetRtsPolarity, %function
 503              	Serial_UartSetRtsPolarity:
 504              	.LFB9:
 606:Generated_Source\PSoC4/Serial_UART.c **** 
 607:Generated_Source\PSoC4/Serial_UART.c **** 
 608:Generated_Source\PSoC4/Serial_UART.c ****     #if !(Serial_CY_SCBIP_V0 || Serial_CY_SCBIP_V1)
 609:Generated_Source\PSoC4/Serial_UART.c ****         /*******************************************************************************
 610:Generated_Source\PSoC4/Serial_UART.c ****         * Function Name: Serial_UartSetRtsPolarity
 611:Generated_Source\PSoC4/Serial_UART.c ****         ****************************************************************************//**
 612:Generated_Source\PSoC4/Serial_UART.c ****         *
 613:Generated_Source\PSoC4/Serial_UART.c ****         *  Sets active polarity of RTS output signal.
 614:Generated_Source\PSoC4/Serial_UART.c ****         *  Only available for PSoC 4100 BLE / PSoC 4200 BLE / PSoC 4100M / PSoC 4200M /
 615:Generated_Source\PSoC4/Serial_UART.c ****         *  PSoC 4200L / PSoC 4000S / PSoC 4100S / PSoC Analog Coprocessor devices.
 616:Generated_Source\PSoC4/Serial_UART.c ****         *
 617:Generated_Source\PSoC4/Serial_UART.c ****         *  \param polarity: Active polarity of RTS output signal.
 618:Generated_Source\PSoC4/Serial_UART.c ****         *   - Serial_UART_RTS_ACTIVE_LOW  - RTS signal is active low.
 619:Generated_Source\PSoC4/Serial_UART.c ****         *   - Serial_UART_RTS_ACTIVE_HIGH - RTS signal is active high.
 620:Generated_Source\PSoC4/Serial_UART.c ****         *
 621:Generated_Source\PSoC4/Serial_UART.c ****         *******************************************************************************/
 622:Generated_Source\PSoC4/Serial_UART.c ****         void Serial_UartSetRtsPolarity(uint32 polarity)
 623:Generated_Source\PSoC4/Serial_UART.c ****         {
 505              		.loc 1 623 0
 506              		.cfi_startproc
 507              		@ args = 0, pretend = 0, frame = 8
 508              		@ frame_needed = 1, uses_anonymous_args = 0
 509 0000 80B5     		push	{r7, lr}
 510              		.cfi_def_cfa_offset 8
 511              		.cfi_offset 7, -8
 512              		.cfi_offset 14, -4
 513 0002 82B0     		sub	sp, sp, #8
 514              		.cfi_def_cfa_offset 16
 515 0004 00AF     		add	r7, sp, #0
 516              		.cfi_def_cfa_register 7
 517 0006 7860     		str	r0, [r7, #4]
ARM GAS  C:\Users\TTSS\AppData\Local\Temp\ccxYlvX3.s 			page 21


 624:Generated_Source\PSoC4/Serial_UART.c ****             if(0u != polarity)
 518              		.loc 1 624 0
 519 0008 7B68     		ldr	r3, [r7, #4]
 520 000a 002B     		cmp	r3, #0
 521 000c 07D0     		beq	.L29
 625:Generated_Source\PSoC4/Serial_UART.c ****             {
 626:Generated_Source\PSoC4/Serial_UART.c ****                 Serial_UART_FLOW_CTRL_REG |= (uint32)  Serial_UART_FLOW_CTRL_RTS_POLARITY;
 522              		.loc 1 626 0
 523 000e 094B     		ldr	r3, .L32
 524 0010 084A     		ldr	r2, .L32
 525 0012 1268     		ldr	r2, [r2]
 526 0014 8021     		movs	r1, #128
 527 0016 4902     		lsls	r1, r1, #9
 528 0018 0A43     		orrs	r2, r1
 529 001a 1A60     		str	r2, [r3]
 627:Generated_Source\PSoC4/Serial_UART.c ****             }
 628:Generated_Source\PSoC4/Serial_UART.c ****             else
 629:Generated_Source\PSoC4/Serial_UART.c ****             {
 630:Generated_Source\PSoC4/Serial_UART.c ****                 Serial_UART_FLOW_CTRL_REG &= (uint32) ~Serial_UART_FLOW_CTRL_RTS_POLARITY;
 631:Generated_Source\PSoC4/Serial_UART.c ****             }
 632:Generated_Source\PSoC4/Serial_UART.c ****         }
 530              		.loc 1 632 0
 531 001c 05E0     		b	.L31
 532              	.L29:
 630:Generated_Source\PSoC4/Serial_UART.c ****             }
 533              		.loc 1 630 0
 534 001e 054B     		ldr	r3, .L32
 535 0020 044A     		ldr	r2, .L32
 536 0022 1268     		ldr	r2, [r2]
 537 0024 0449     		ldr	r1, .L32+4
 538 0026 0A40     		ands	r2, r1
 539 0028 1A60     		str	r2, [r3]
 540              	.L31:
 541              		.loc 1 632 0
 542 002a C046     		nop
 543 002c BD46     		mov	sp, r7
 544 002e 02B0     		add	sp, sp, #8
 545              		@ sp needed
 546 0030 80BD     		pop	{r7, pc}
 547              	.L33:
 548 0032 C046     		.align	2
 549              	.L32:
 550 0034 50002440 		.word	1076101200
 551 0038 FFFFFEFF 		.word	-65537
 552              		.cfi_endproc
 553              	.LFE9:
 554              		.size	Serial_UartSetRtsPolarity, .-Serial_UartSetRtsPolarity
 555              		.section	.text.Serial_UartSetRtsFifoLevel,"ax",%progbits
 556              		.align	2
 557              		.global	Serial_UartSetRtsFifoLevel
 558              		.code	16
 559              		.thumb_func
 560              		.type	Serial_UartSetRtsFifoLevel, %function
 561              	Serial_UartSetRtsFifoLevel:
 562              	.LFB10:
 633:Generated_Source\PSoC4/Serial_UART.c **** 
 634:Generated_Source\PSoC4/Serial_UART.c **** 
ARM GAS  C:\Users\TTSS\AppData\Local\Temp\ccxYlvX3.s 			page 22


 635:Generated_Source\PSoC4/Serial_UART.c ****         /*******************************************************************************
 636:Generated_Source\PSoC4/Serial_UART.c ****         * Function Name: Serial_UartSetRtsFifoLevel
 637:Generated_Source\PSoC4/Serial_UART.c ****         ****************************************************************************//**
 638:Generated_Source\PSoC4/Serial_UART.c ****         *
 639:Generated_Source\PSoC4/Serial_UART.c ****         *  Sets level in the RX FIFO for RTS signal activation.
 640:Generated_Source\PSoC4/Serial_UART.c ****         *  While the RX FIFO has fewer entries than the RX FIFO level the RTS signal
 641:Generated_Source\PSoC4/Serial_UART.c ****         *  remains active, otherwise the RTS signal becomes inactive.
 642:Generated_Source\PSoC4/Serial_UART.c ****         *  Only available for PSoC 4100 BLE / PSoC 4200 BLE / PSoC 4100M / PSoC 4200M /
 643:Generated_Source\PSoC4/Serial_UART.c ****         *  PSoC 4200L / PSoC 4000S / PSoC 4100S / PSoC Analog Coprocessor devices.
 644:Generated_Source\PSoC4/Serial_UART.c ****         *
 645:Generated_Source\PSoC4/Serial_UART.c ****         *  \param level: Level in the RX FIFO for RTS signal activation.
 646:Generated_Source\PSoC4/Serial_UART.c ****         *   The range of valid level values is between 0 and RX FIFO depth - 1.
 647:Generated_Source\PSoC4/Serial_UART.c ****         *   Setting level value to 0 disables RTS signal activation.
 648:Generated_Source\PSoC4/Serial_UART.c ****         *
 649:Generated_Source\PSoC4/Serial_UART.c ****         *******************************************************************************/
 650:Generated_Source\PSoC4/Serial_UART.c ****         void Serial_UartSetRtsFifoLevel(uint32 level)
 651:Generated_Source\PSoC4/Serial_UART.c ****         {
 563              		.loc 1 651 0
 564              		.cfi_startproc
 565              		@ args = 0, pretend = 0, frame = 16
 566              		@ frame_needed = 1, uses_anonymous_args = 0
 567 0000 80B5     		push	{r7, lr}
 568              		.cfi_def_cfa_offset 8
 569              		.cfi_offset 7, -8
 570              		.cfi_offset 14, -4
 571 0002 84B0     		sub	sp, sp, #16
 572              		.cfi_def_cfa_offset 24
 573 0004 00AF     		add	r7, sp, #0
 574              		.cfi_def_cfa_register 7
 575 0006 7860     		str	r0, [r7, #4]
 652:Generated_Source\PSoC4/Serial_UART.c ****             uint32 uartFlowCtrl;
 653:Generated_Source\PSoC4/Serial_UART.c **** 
 654:Generated_Source\PSoC4/Serial_UART.c ****             uartFlowCtrl = Serial_UART_FLOW_CTRL_REG;
 576              		.loc 1 654 0
 577 0008 094B     		ldr	r3, .L35
 578 000a 1B68     		ldr	r3, [r3]
 579 000c FB60     		str	r3, [r7, #12]
 655:Generated_Source\PSoC4/Serial_UART.c **** 
 656:Generated_Source\PSoC4/Serial_UART.c ****             uartFlowCtrl &= ((uint32) ~Serial_UART_FLOW_CTRL_TRIGGER_LEVEL_MASK); /* Clear level ma
 580              		.loc 1 656 0
 581 000e FB68     		ldr	r3, [r7, #12]
 582 0010 0F22     		movs	r2, #15
 583 0012 9343     		bics	r3, r2
 584 0014 FB60     		str	r3, [r7, #12]
 657:Generated_Source\PSoC4/Serial_UART.c ****             uartFlowCtrl |= ((uint32) (Serial_UART_FLOW_CTRL_TRIGGER_LEVEL_MASK & level));
 585              		.loc 1 657 0
 586 0016 7B68     		ldr	r3, [r7, #4]
 587 0018 0F22     		movs	r2, #15
 588 001a 1340     		ands	r3, r2
 589 001c FA68     		ldr	r2, [r7, #12]
 590 001e 1343     		orrs	r3, r2
 591 0020 FB60     		str	r3, [r7, #12]
 658:Generated_Source\PSoC4/Serial_UART.c **** 
 659:Generated_Source\PSoC4/Serial_UART.c ****             Serial_UART_FLOW_CTRL_REG = uartFlowCtrl;
 592              		.loc 1 659 0
 593 0022 034B     		ldr	r3, .L35
 594 0024 FA68     		ldr	r2, [r7, #12]
ARM GAS  C:\Users\TTSS\AppData\Local\Temp\ccxYlvX3.s 			page 23


 595 0026 1A60     		str	r2, [r3]
 660:Generated_Source\PSoC4/Serial_UART.c ****         }
 596              		.loc 1 660 0
 597 0028 C046     		nop
 598 002a BD46     		mov	sp, r7
 599 002c 04B0     		add	sp, sp, #16
 600              		@ sp needed
 601 002e 80BD     		pop	{r7, pc}
 602              	.L36:
 603              		.align	2
 604              	.L35:
 605 0030 50002440 		.word	1076101200
 606              		.cfi_endproc
 607              	.LFE10:
 608              		.size	Serial_UartSetRtsFifoLevel, .-Serial_UartSetRtsFifoLevel
 609              		.text
 610              	.Letext0:
 611              		.file 2 "Generated_Source\\PSoC4/cytypes.h"
 612              		.file 3 "Generated_Source\\PSoC4\\Serial_PVT.h"
 613              		.file 4 "Generated_Source\\PSoC4\\Serial_SPI_UART_PVT.h"