ARM GAS  C:\Users\TTSS\AppData\Local\Temp\ccj93rHk.s 			page 1


   1              		.syntax unified
   2              		.cpu cortex-m0
   3              		.fpu softvfp
   4              		.eabi_attribute 20, 1
   5              		.eabi_attribute 21, 1
   6              		.eabi_attribute 23, 3
   7              		.eabi_attribute 24, 1
   8              		.eabi_attribute 25, 1
   9              		.eabi_attribute 26, 1
  10              		.eabi_attribute 30, 6
  11              		.eabi_attribute 34, 0
  12              		.eabi_attribute 18, 4
  13              		.thumb
  14              		.syntax unified
  15              		.file	"Serial.c"
  16              		.text
  17              	.Ltext0:
  18              		.cfi_sections	.debug_frame
  19              		.global	Serial_initVar
  20              		.bss
  21              		.type	Serial_initVar, %object
  22              		.size	Serial_initVar, 1
  23              	Serial_initVar:
  24 0000 00       		.space	1
  25              		.global	Serial_IntrTxMask
  26 0001 00       		.align	1
  27              		.type	Serial_IntrTxMask, %object
  28              		.size	Serial_IntrTxMask, 2
  29              	Serial_IntrTxMask:
  30 0002 0000     		.space	2
  31              		.global	Serial_customIntrHandler
  32              		.align	2
  33              		.type	Serial_customIntrHandler, %object
  34              		.size	Serial_customIntrHandler, 4
  35              	Serial_customIntrHandler:
  36 0004 00000000 		.space	4
  37              		.section	.text.Serial_Init,"ax",%progbits
  38              		.align	2
  39              		.global	Serial_Init
  40              		.code	16
  41              		.thumb_func
  42              		.type	Serial_Init, %function
  43              	Serial_Init:
  44              	.LFB2:
  45              		.file 1 "Generated_Source\\PSoC4\\Serial.c"
   1:Generated_Source\PSoC4/Serial.c **** /***************************************************************************//**
   2:Generated_Source\PSoC4/Serial.c **** * \file Serial.c
   3:Generated_Source\PSoC4/Serial.c **** * \version 4.0
   4:Generated_Source\PSoC4/Serial.c **** *
   5:Generated_Source\PSoC4/Serial.c **** * \brief
   6:Generated_Source\PSoC4/Serial.c **** *  This file provides the source code to the API for the SCB Component.
   7:Generated_Source\PSoC4/Serial.c **** *
   8:Generated_Source\PSoC4/Serial.c **** * Note:
   9:Generated_Source\PSoC4/Serial.c **** *
  10:Generated_Source\PSoC4/Serial.c **** *******************************************************************************
  11:Generated_Source\PSoC4/Serial.c **** * \copyright
  12:Generated_Source\PSoC4/Serial.c **** * Copyright 2013-2017, Cypress Semiconductor Corporation.  All rights reserved.
ARM GAS  C:\Users\TTSS\AppData\Local\Temp\ccj93rHk.s 			page 2


  13:Generated_Source\PSoC4/Serial.c **** * You may use this file only in accordance with the license, terms, conditions,
  14:Generated_Source\PSoC4/Serial.c **** * disclaimers, and limitations in the end user license agreement accompanying
  15:Generated_Source\PSoC4/Serial.c **** * the software package with which this file was provided.
  16:Generated_Source\PSoC4/Serial.c **** *******************************************************************************/
  17:Generated_Source\PSoC4/Serial.c **** 
  18:Generated_Source\PSoC4/Serial.c **** #include "Serial_PVT.h"
  19:Generated_Source\PSoC4/Serial.c **** 
  20:Generated_Source\PSoC4/Serial.c **** #if (Serial_SCB_MODE_I2C_INC)
  21:Generated_Source\PSoC4/Serial.c ****     #include "Serial_I2C_PVT.h"
  22:Generated_Source\PSoC4/Serial.c **** #endif /* (Serial_SCB_MODE_I2C_INC) */
  23:Generated_Source\PSoC4/Serial.c **** 
  24:Generated_Source\PSoC4/Serial.c **** #if (Serial_SCB_MODE_EZI2C_INC)
  25:Generated_Source\PSoC4/Serial.c ****     #include "Serial_EZI2C_PVT.h"
  26:Generated_Source\PSoC4/Serial.c **** #endif /* (Serial_SCB_MODE_EZI2C_INC) */
  27:Generated_Source\PSoC4/Serial.c **** 
  28:Generated_Source\PSoC4/Serial.c **** #if (Serial_SCB_MODE_SPI_INC || Serial_SCB_MODE_UART_INC)
  29:Generated_Source\PSoC4/Serial.c ****     #include "Serial_SPI_UART_PVT.h"
  30:Generated_Source\PSoC4/Serial.c **** #endif /* (Serial_SCB_MODE_SPI_INC || Serial_SCB_MODE_UART_INC) */
  31:Generated_Source\PSoC4/Serial.c **** 
  32:Generated_Source\PSoC4/Serial.c **** 
  33:Generated_Source\PSoC4/Serial.c **** /***************************************
  34:Generated_Source\PSoC4/Serial.c **** *    Run Time Configuration Vars
  35:Generated_Source\PSoC4/Serial.c **** ***************************************/
  36:Generated_Source\PSoC4/Serial.c **** 
  37:Generated_Source\PSoC4/Serial.c **** /* Stores internal component configuration for Unconfigured mode */
  38:Generated_Source\PSoC4/Serial.c **** #if (Serial_SCB_MODE_UNCONFIG_CONST_CFG)
  39:Generated_Source\PSoC4/Serial.c ****     /* Common configuration variables */
  40:Generated_Source\PSoC4/Serial.c ****     uint8 Serial_scbMode = Serial_SCB_MODE_UNCONFIG;
  41:Generated_Source\PSoC4/Serial.c ****     uint8 Serial_scbEnableWake;
  42:Generated_Source\PSoC4/Serial.c ****     uint8 Serial_scbEnableIntr;
  43:Generated_Source\PSoC4/Serial.c **** 
  44:Generated_Source\PSoC4/Serial.c ****     /* I2C configuration variables */
  45:Generated_Source\PSoC4/Serial.c ****     uint8 Serial_mode;
  46:Generated_Source\PSoC4/Serial.c ****     uint8 Serial_acceptAddr;
  47:Generated_Source\PSoC4/Serial.c **** 
  48:Generated_Source\PSoC4/Serial.c ****     /* SPI/UART configuration variables */
  49:Generated_Source\PSoC4/Serial.c ****     volatile uint8 * Serial_rxBuffer;
  50:Generated_Source\PSoC4/Serial.c ****     uint8  Serial_rxDataBits;
  51:Generated_Source\PSoC4/Serial.c ****     uint32 Serial_rxBufferSize;
  52:Generated_Source\PSoC4/Serial.c **** 
  53:Generated_Source\PSoC4/Serial.c ****     volatile uint8 * Serial_txBuffer;
  54:Generated_Source\PSoC4/Serial.c ****     uint8  Serial_txDataBits;
  55:Generated_Source\PSoC4/Serial.c ****     uint32 Serial_txBufferSize;
  56:Generated_Source\PSoC4/Serial.c **** 
  57:Generated_Source\PSoC4/Serial.c ****     /* EZI2C configuration variables */
  58:Generated_Source\PSoC4/Serial.c ****     uint8 Serial_numberOfAddr;
  59:Generated_Source\PSoC4/Serial.c ****     uint8 Serial_subAddrSize;
  60:Generated_Source\PSoC4/Serial.c **** #endif /* (Serial_SCB_MODE_UNCONFIG_CONST_CFG) */
  61:Generated_Source\PSoC4/Serial.c **** 
  62:Generated_Source\PSoC4/Serial.c **** 
  63:Generated_Source\PSoC4/Serial.c **** /***************************************
  64:Generated_Source\PSoC4/Serial.c **** *     Common SCB Vars
  65:Generated_Source\PSoC4/Serial.c **** ***************************************/
  66:Generated_Source\PSoC4/Serial.c **** /**
  67:Generated_Source\PSoC4/Serial.c **** * \addtogroup group_general
  68:Generated_Source\PSoC4/Serial.c **** * \{
  69:Generated_Source\PSoC4/Serial.c **** */
ARM GAS  C:\Users\TTSS\AppData\Local\Temp\ccj93rHk.s 			page 3


  70:Generated_Source\PSoC4/Serial.c **** 
  71:Generated_Source\PSoC4/Serial.c **** /** Serial_initVar indicates whether the Serial 
  72:Generated_Source\PSoC4/Serial.c **** *  component has been initialized. The variable is initialized to 0 
  73:Generated_Source\PSoC4/Serial.c **** *  and set to 1 the first time SCB_Start() is called. This allows 
  74:Generated_Source\PSoC4/Serial.c **** *  the component to restart without reinitialization after the first 
  75:Generated_Source\PSoC4/Serial.c **** *  call to the Serial_Start() routine.
  76:Generated_Source\PSoC4/Serial.c **** *
  77:Generated_Source\PSoC4/Serial.c **** *  If re-initialization of the component is required, then the 
  78:Generated_Source\PSoC4/Serial.c **** *  Serial_Init() function can be called before the 
  79:Generated_Source\PSoC4/Serial.c **** *  Serial_Start() or Serial_Enable() function.
  80:Generated_Source\PSoC4/Serial.c **** */
  81:Generated_Source\PSoC4/Serial.c **** uint8 Serial_initVar = 0u;
  82:Generated_Source\PSoC4/Serial.c **** 
  83:Generated_Source\PSoC4/Serial.c **** 
  84:Generated_Source\PSoC4/Serial.c **** #if (! (Serial_SCB_MODE_I2C_CONST_CFG || \
  85:Generated_Source\PSoC4/Serial.c ****         Serial_SCB_MODE_EZI2C_CONST_CFG))
  86:Generated_Source\PSoC4/Serial.c ****     /** This global variable stores TX interrupt sources after 
  87:Generated_Source\PSoC4/Serial.c ****     * Serial_Stop() is called. Only these TX interrupt sources 
  88:Generated_Source\PSoC4/Serial.c ****     * will be restored on a subsequent Serial_Enable() call.
  89:Generated_Source\PSoC4/Serial.c ****     */
  90:Generated_Source\PSoC4/Serial.c ****     uint16 Serial_IntrTxMask = 0u;
  91:Generated_Source\PSoC4/Serial.c **** #endif /* (! (Serial_SCB_MODE_I2C_CONST_CFG || \
  92:Generated_Source\PSoC4/Serial.c ****               Serial_SCB_MODE_EZI2C_CONST_CFG)) */
  93:Generated_Source\PSoC4/Serial.c **** /** \} globals */
  94:Generated_Source\PSoC4/Serial.c **** 
  95:Generated_Source\PSoC4/Serial.c **** #if (Serial_SCB_IRQ_INTERNAL)
  96:Generated_Source\PSoC4/Serial.c **** #if !defined (CY_REMOVE_Serial_CUSTOM_INTR_HANDLER)
  97:Generated_Source\PSoC4/Serial.c ****     void (*Serial_customIntrHandler)(void) = NULL;
  98:Generated_Source\PSoC4/Serial.c **** #endif /* !defined (CY_REMOVE_Serial_CUSTOM_INTR_HANDLER) */
  99:Generated_Source\PSoC4/Serial.c **** #endif /* (Serial_SCB_IRQ_INTERNAL) */
 100:Generated_Source\PSoC4/Serial.c **** 
 101:Generated_Source\PSoC4/Serial.c **** 
 102:Generated_Source\PSoC4/Serial.c **** /***************************************
 103:Generated_Source\PSoC4/Serial.c **** *    Private Function Prototypes
 104:Generated_Source\PSoC4/Serial.c **** ***************************************/
 105:Generated_Source\PSoC4/Serial.c **** 
 106:Generated_Source\PSoC4/Serial.c **** static void Serial_ScbEnableIntr(void);
 107:Generated_Source\PSoC4/Serial.c **** static void Serial_ScbModeStop(void);
 108:Generated_Source\PSoC4/Serial.c **** static void Serial_ScbModePostEnable(void);
 109:Generated_Source\PSoC4/Serial.c **** 
 110:Generated_Source\PSoC4/Serial.c **** 
 111:Generated_Source\PSoC4/Serial.c **** /*******************************************************************************
 112:Generated_Source\PSoC4/Serial.c **** * Function Name: Serial_Init
 113:Generated_Source\PSoC4/Serial.c **** ****************************************************************************//**
 114:Generated_Source\PSoC4/Serial.c **** *
 115:Generated_Source\PSoC4/Serial.c **** *  Initializes the Serial component to operate in one of the selected
 116:Generated_Source\PSoC4/Serial.c **** *  configurations: I2C, SPI, UART or EZI2C.
 117:Generated_Source\PSoC4/Serial.c **** *  When the configuration is set to "Unconfigured SCB", this function does
 118:Generated_Source\PSoC4/Serial.c **** *  not do any initialization. Use mode-specific initialization APIs instead:
 119:Generated_Source\PSoC4/Serial.c **** *  Serial_I2CInit, Serial_SpiInit, 
 120:Generated_Source\PSoC4/Serial.c **** *  Serial_UartInit or Serial_EzI2CInit.
 121:Generated_Source\PSoC4/Serial.c **** *
 122:Generated_Source\PSoC4/Serial.c **** *******************************************************************************/
 123:Generated_Source\PSoC4/Serial.c **** void Serial_Init(void)
 124:Generated_Source\PSoC4/Serial.c **** {
  46              		.loc 1 124 0
  47              		.cfi_startproc
ARM GAS  C:\Users\TTSS\AppData\Local\Temp\ccj93rHk.s 			page 4


  48              		@ args = 0, pretend = 0, frame = 0
  49              		@ frame_needed = 1, uses_anonymous_args = 0
  50 0000 80B5     		push	{r7, lr}
  51              		.cfi_def_cfa_offset 8
  52              		.cfi_offset 7, -8
  53              		.cfi_offset 14, -4
  54 0002 00AF     		add	r7, sp, #0
  55              		.cfi_def_cfa_register 7
 125:Generated_Source\PSoC4/Serial.c **** #if (Serial_SCB_MODE_UNCONFIG_CONST_CFG)
 126:Generated_Source\PSoC4/Serial.c ****     if (Serial_SCB_MODE_UNCONFIG_RUNTM_CFG)
 127:Generated_Source\PSoC4/Serial.c ****     {
 128:Generated_Source\PSoC4/Serial.c ****         Serial_initVar = 0u;
 129:Generated_Source\PSoC4/Serial.c ****     }
 130:Generated_Source\PSoC4/Serial.c ****     else
 131:Generated_Source\PSoC4/Serial.c ****     {
 132:Generated_Source\PSoC4/Serial.c ****         /* Initialization was done before this function call */
 133:Generated_Source\PSoC4/Serial.c ****     }
 134:Generated_Source\PSoC4/Serial.c **** 
 135:Generated_Source\PSoC4/Serial.c **** #elif (Serial_SCB_MODE_I2C_CONST_CFG)
 136:Generated_Source\PSoC4/Serial.c ****     Serial_I2CInit();
 137:Generated_Source\PSoC4/Serial.c **** 
 138:Generated_Source\PSoC4/Serial.c **** #elif (Serial_SCB_MODE_SPI_CONST_CFG)
 139:Generated_Source\PSoC4/Serial.c ****     Serial_SpiInit();
 140:Generated_Source\PSoC4/Serial.c **** 
 141:Generated_Source\PSoC4/Serial.c **** #elif (Serial_SCB_MODE_UART_CONST_CFG)
 142:Generated_Source\PSoC4/Serial.c ****     Serial_UartInit();
  56              		.loc 1 142 0
  57 0004 FFF7FEFF 		bl	Serial_UartInit
 143:Generated_Source\PSoC4/Serial.c **** 
 144:Generated_Source\PSoC4/Serial.c **** #elif (Serial_SCB_MODE_EZI2C_CONST_CFG)
 145:Generated_Source\PSoC4/Serial.c ****     Serial_EzI2CInit();
 146:Generated_Source\PSoC4/Serial.c **** 
 147:Generated_Source\PSoC4/Serial.c **** #endif /* (Serial_SCB_MODE_UNCONFIG_CONST_CFG) */
 148:Generated_Source\PSoC4/Serial.c **** }
  58              		.loc 1 148 0
  59 0008 C046     		nop
  60 000a BD46     		mov	sp, r7
  61              		@ sp needed
  62 000c 80BD     		pop	{r7, pc}
  63              		.cfi_endproc
  64              	.LFE2:
  65              		.size	Serial_Init, .-Serial_Init
  66 000e C046     		.section	.text.Serial_Enable,"ax",%progbits
  67              		.align	2
  68              		.global	Serial_Enable
  69              		.code	16
  70              		.thumb_func
  71              		.type	Serial_Enable, %function
  72              	Serial_Enable:
  73              	.LFB3:
 149:Generated_Source\PSoC4/Serial.c **** 
 150:Generated_Source\PSoC4/Serial.c **** 
 151:Generated_Source\PSoC4/Serial.c **** /*******************************************************************************
 152:Generated_Source\PSoC4/Serial.c **** * Function Name: Serial_Enable
 153:Generated_Source\PSoC4/Serial.c **** ****************************************************************************//**
 154:Generated_Source\PSoC4/Serial.c **** *
 155:Generated_Source\PSoC4/Serial.c **** *  Enables Serial component operation: activates the hardware and 
ARM GAS  C:\Users\TTSS\AppData\Local\Temp\ccj93rHk.s 			page 5


 156:Generated_Source\PSoC4/Serial.c **** *  internal interrupt. It also restores TX interrupt sources disabled after the 
 157:Generated_Source\PSoC4/Serial.c **** *  Serial_Stop() function was called (note that level-triggered TX 
 158:Generated_Source\PSoC4/Serial.c **** *  interrupt sources remain disabled to not cause code lock-up).
 159:Generated_Source\PSoC4/Serial.c **** *  For I2C and EZI2C modes the interrupt is internal and mandatory for 
 160:Generated_Source\PSoC4/Serial.c **** *  operation. For SPI and UART modes the interrupt can be configured as none, 
 161:Generated_Source\PSoC4/Serial.c **** *  internal or external.
 162:Generated_Source\PSoC4/Serial.c **** *  The Serial configuration should be not changed when the component
 163:Generated_Source\PSoC4/Serial.c **** *  is enabled. Any configuration changes should be made after disabling the 
 164:Generated_Source\PSoC4/Serial.c **** *  component.
 165:Generated_Source\PSoC4/Serial.c **** *  When configuration is set to “Unconfigured Serial”, the component 
 166:Generated_Source\PSoC4/Serial.c **** *  must first be initialized to operate in one of the following configurations: 
 167:Generated_Source\PSoC4/Serial.c **** *  I2C, SPI, UART or EZ I2C, using the mode-specific initialization API. 
 168:Generated_Source\PSoC4/Serial.c **** *  Otherwise this function does not enable the component.
 169:Generated_Source\PSoC4/Serial.c **** *
 170:Generated_Source\PSoC4/Serial.c **** *******************************************************************************/
 171:Generated_Source\PSoC4/Serial.c **** void Serial_Enable(void)
 172:Generated_Source\PSoC4/Serial.c **** {
  74              		.loc 1 172 0
  75              		.cfi_startproc
  76              		@ args = 0, pretend = 0, frame = 0
  77              		@ frame_needed = 1, uses_anonymous_args = 0
  78 0000 80B5     		push	{r7, lr}
  79              		.cfi_def_cfa_offset 8
  80              		.cfi_offset 7, -8
  81              		.cfi_offset 14, -4
  82 0002 00AF     		add	r7, sp, #0
  83              		.cfi_def_cfa_register 7
 173:Generated_Source\PSoC4/Serial.c **** #if (Serial_SCB_MODE_UNCONFIG_CONST_CFG)
 174:Generated_Source\PSoC4/Serial.c ****     /* Enable SCB block, only if it is already configured */
 175:Generated_Source\PSoC4/Serial.c ****     if (!Serial_SCB_MODE_UNCONFIG_RUNTM_CFG)
 176:Generated_Source\PSoC4/Serial.c ****     {
 177:Generated_Source\PSoC4/Serial.c ****         Serial_CTRL_REG |= Serial_CTRL_ENABLED;
 178:Generated_Source\PSoC4/Serial.c **** 
 179:Generated_Source\PSoC4/Serial.c ****         Serial_ScbEnableIntr();
 180:Generated_Source\PSoC4/Serial.c **** 
 181:Generated_Source\PSoC4/Serial.c ****         /* Call PostEnable function specific to current operation mode */
 182:Generated_Source\PSoC4/Serial.c ****         Serial_ScbModePostEnable();
 183:Generated_Source\PSoC4/Serial.c ****     }
 184:Generated_Source\PSoC4/Serial.c **** #else
 185:Generated_Source\PSoC4/Serial.c ****     Serial_CTRL_REG |= Serial_CTRL_ENABLED;
  84              		.loc 1 185 0
  85 0004 064B     		ldr	r3, .L3
  86 0006 064A     		ldr	r2, .L3
  87 0008 1268     		ldr	r2, [r2]
  88 000a 8021     		movs	r1, #128
  89 000c 0906     		lsls	r1, r1, #24
  90 000e 0A43     		orrs	r2, r1
  91 0010 1A60     		str	r2, [r3]
 186:Generated_Source\PSoC4/Serial.c **** 
 187:Generated_Source\PSoC4/Serial.c ****     Serial_ScbEnableIntr();
  92              		.loc 1 187 0
  93 0012 FFF7FEFF 		bl	Serial_ScbEnableIntr
 188:Generated_Source\PSoC4/Serial.c **** 
 189:Generated_Source\PSoC4/Serial.c ****     /* Call PostEnable function specific to current operation mode */
 190:Generated_Source\PSoC4/Serial.c ****     Serial_ScbModePostEnable();
  94              		.loc 1 190 0
  95 0016 FFF7FEFF 		bl	Serial_ScbModePostEnable
ARM GAS  C:\Users\TTSS\AppData\Local\Temp\ccj93rHk.s 			page 6


 191:Generated_Source\PSoC4/Serial.c **** #endif /* (Serial_SCB_MODE_UNCONFIG_CONST_CFG) */
 192:Generated_Source\PSoC4/Serial.c **** }
  96              		.loc 1 192 0
  97 001a C046     		nop
  98 001c BD46     		mov	sp, r7
  99              		@ sp needed
 100 001e 80BD     		pop	{r7, pc}
 101              	.L4:
 102              		.align	2
 103              	.L3:
 104 0020 00002440 		.word	1076101120
 105              		.cfi_endproc
 106              	.LFE3:
 107              		.size	Serial_Enable, .-Serial_Enable
 108              		.section	.text.Serial_Start,"ax",%progbits
 109              		.align	2
 110              		.global	Serial_Start
 111              		.code	16
 112              		.thumb_func
 113              		.type	Serial_Start, %function
 114              	Serial_Start:
 115              	.LFB4:
 193:Generated_Source\PSoC4/Serial.c **** 
 194:Generated_Source\PSoC4/Serial.c **** 
 195:Generated_Source\PSoC4/Serial.c **** /*******************************************************************************
 196:Generated_Source\PSoC4/Serial.c **** * Function Name: Serial_Start
 197:Generated_Source\PSoC4/Serial.c **** ****************************************************************************//**
 198:Generated_Source\PSoC4/Serial.c **** *
 199:Generated_Source\PSoC4/Serial.c **** *  Invokes Serial_Init() and Serial_Enable().
 200:Generated_Source\PSoC4/Serial.c **** *  After this function call, the component is enabled and ready for operation.
 201:Generated_Source\PSoC4/Serial.c **** *  When configuration is set to "Unconfigured SCB", the component must first be
 202:Generated_Source\PSoC4/Serial.c **** *  initialized to operate in one of the following configurations: I2C, SPI, UART
 203:Generated_Source\PSoC4/Serial.c **** *  or EZI2C. Otherwise this function does not enable the component.
 204:Generated_Source\PSoC4/Serial.c **** *
 205:Generated_Source\PSoC4/Serial.c **** * \globalvars
 206:Generated_Source\PSoC4/Serial.c **** *  Serial_initVar - used to check initial configuration, modified
 207:Generated_Source\PSoC4/Serial.c **** *  on first function call.
 208:Generated_Source\PSoC4/Serial.c **** *
 209:Generated_Source\PSoC4/Serial.c **** *******************************************************************************/
 210:Generated_Source\PSoC4/Serial.c **** void Serial_Start(void)
 211:Generated_Source\PSoC4/Serial.c **** {
 116              		.loc 1 211 0
 117              		.cfi_startproc
 118              		@ args = 0, pretend = 0, frame = 0
 119              		@ frame_needed = 1, uses_anonymous_args = 0
 120 0000 80B5     		push	{r7, lr}
 121              		.cfi_def_cfa_offset 8
 122              		.cfi_offset 7, -8
 123              		.cfi_offset 14, -4
 124 0002 00AF     		add	r7, sp, #0
 125              		.cfi_def_cfa_register 7
 212:Generated_Source\PSoC4/Serial.c ****     if (0u == Serial_initVar)
 126              		.loc 1 212 0
 127 0004 064B     		ldr	r3, .L7
 128 0006 1B78     		ldrb	r3, [r3]
 129 0008 002B     		cmp	r3, #0
 130 000a 04D1     		bne	.L6
ARM GAS  C:\Users\TTSS\AppData\Local\Temp\ccj93rHk.s 			page 7


 213:Generated_Source\PSoC4/Serial.c ****     {
 214:Generated_Source\PSoC4/Serial.c ****         Serial_Init();
 131              		.loc 1 214 0
 132 000c FFF7FEFF 		bl	Serial_Init
 215:Generated_Source\PSoC4/Serial.c ****         Serial_initVar = 1u; /* Component was initialized */
 133              		.loc 1 215 0
 134 0010 034B     		ldr	r3, .L7
 135 0012 0122     		movs	r2, #1
 136 0014 1A70     		strb	r2, [r3]
 137              	.L6:
 216:Generated_Source\PSoC4/Serial.c ****     }
 217:Generated_Source\PSoC4/Serial.c **** 
 218:Generated_Source\PSoC4/Serial.c ****     Serial_Enable();
 138              		.loc 1 218 0
 139 0016 FFF7FEFF 		bl	Serial_Enable
 219:Generated_Source\PSoC4/Serial.c **** }
 140              		.loc 1 219 0
 141 001a C046     		nop
 142 001c BD46     		mov	sp, r7
 143              		@ sp needed
 144 001e 80BD     		pop	{r7, pc}
 145              	.L8:
 146              		.align	2
 147              	.L7:
 148 0020 00000000 		.word	Serial_initVar
 149              		.cfi_endproc
 150              	.LFE4:
 151              		.size	Serial_Start, .-Serial_Start
 152              		.section	.text.Serial_Stop,"ax",%progbits
 153              		.align	2
 154              		.global	Serial_Stop
 155              		.code	16
 156              		.thumb_func
 157              		.type	Serial_Stop, %function
 158              	Serial_Stop:
 159              	.LFB5:
 220:Generated_Source\PSoC4/Serial.c **** 
 221:Generated_Source\PSoC4/Serial.c **** 
 222:Generated_Source\PSoC4/Serial.c **** /*******************************************************************************
 223:Generated_Source\PSoC4/Serial.c **** * Function Name: Serial_Stop
 224:Generated_Source\PSoC4/Serial.c **** ****************************************************************************//**
 225:Generated_Source\PSoC4/Serial.c **** *
 226:Generated_Source\PSoC4/Serial.c **** *  Disables the Serial component: disable the hardware and internal 
 227:Generated_Source\PSoC4/Serial.c **** *  interrupt. It also disables all TX interrupt sources so as not to cause an 
 228:Generated_Source\PSoC4/Serial.c **** *  unexpected interrupt trigger because after the component is enabled, the 
 229:Generated_Source\PSoC4/Serial.c **** *  TX FIFO is empty.
 230:Generated_Source\PSoC4/Serial.c **** *  Refer to the function Serial_Enable() for the interrupt 
 231:Generated_Source\PSoC4/Serial.c **** *  configuration details.
 232:Generated_Source\PSoC4/Serial.c **** *  This function disables the SCB component without checking to see if 
 233:Generated_Source\PSoC4/Serial.c **** *  communication is in progress. Before calling this function it may be 
 234:Generated_Source\PSoC4/Serial.c **** *  necessary to check the status of communication to make sure communication 
 235:Generated_Source\PSoC4/Serial.c **** *  is complete. If this is not done then communication could be stopped mid 
 236:Generated_Source\PSoC4/Serial.c **** *  byte and corrupted data could result.
 237:Generated_Source\PSoC4/Serial.c **** *
 238:Generated_Source\PSoC4/Serial.c **** *******************************************************************************/
 239:Generated_Source\PSoC4/Serial.c **** void Serial_Stop(void)
 240:Generated_Source\PSoC4/Serial.c **** {
ARM GAS  C:\Users\TTSS\AppData\Local\Temp\ccj93rHk.s 			page 8


 160              		.loc 1 240 0
 161              		.cfi_startproc
 162              		@ args = 0, pretend = 0, frame = 0
 163              		@ frame_needed = 1, uses_anonymous_args = 0
 164 0000 80B5     		push	{r7, lr}
 165              		.cfi_def_cfa_offset 8
 166              		.cfi_offset 7, -8
 167              		.cfi_offset 14, -4
 168 0002 00AF     		add	r7, sp, #0
 169              		.cfi_def_cfa_register 7
 241:Generated_Source\PSoC4/Serial.c **** #if (Serial_SCB_IRQ_INTERNAL)
 242:Generated_Source\PSoC4/Serial.c ****     Serial_DisableInt();
 170              		.loc 1 242 0
 171 0004 0920     		movs	r0, #9
 172 0006 FFF7FEFF 		bl	CyIntDisable
 243:Generated_Source\PSoC4/Serial.c **** #endif /* (Serial_SCB_IRQ_INTERNAL) */
 244:Generated_Source\PSoC4/Serial.c **** 
 245:Generated_Source\PSoC4/Serial.c ****     /* Call Stop function specific to current operation mode */
 246:Generated_Source\PSoC4/Serial.c ****     Serial_ScbModeStop();
 173              		.loc 1 246 0
 174 000a FFF7FEFF 		bl	Serial_ScbModeStop
 247:Generated_Source\PSoC4/Serial.c **** 
 248:Generated_Source\PSoC4/Serial.c ****     /* Disable SCB IP */
 249:Generated_Source\PSoC4/Serial.c ****     Serial_CTRL_REG &= (uint32) ~Serial_CTRL_ENABLED;
 175              		.loc 1 249 0
 176 000e 074B     		ldr	r3, .L10
 177 0010 064A     		ldr	r2, .L10
 178 0012 1268     		ldr	r2, [r2]
 179 0014 5200     		lsls	r2, r2, #1
 180 0016 5208     		lsrs	r2, r2, #1
 181 0018 1A60     		str	r2, [r3]
 250:Generated_Source\PSoC4/Serial.c **** 
 251:Generated_Source\PSoC4/Serial.c ****     /* Disable all TX interrupt sources so as not to cause an unexpected
 252:Generated_Source\PSoC4/Serial.c ****     * interrupt trigger after the component will be enabled because the 
 253:Generated_Source\PSoC4/Serial.c ****     * TX FIFO is empty.
 254:Generated_Source\PSoC4/Serial.c ****     * For SCB IP v0, it is critical as it does not mask-out interrupt
 255:Generated_Source\PSoC4/Serial.c ****     * sources when it is disabled. This can cause a code lock-up in the
 256:Generated_Source\PSoC4/Serial.c ****     * interrupt handler because TX FIFO cannot be loaded after the block
 257:Generated_Source\PSoC4/Serial.c ****     * is disabled.
 258:Generated_Source\PSoC4/Serial.c ****     */
 259:Generated_Source\PSoC4/Serial.c ****     Serial_SetTxInterruptMode(Serial_NO_INTR_SOURCES);
 182              		.loc 1 259 0
 183 001a 054B     		ldr	r3, .L10+4
 184 001c 0022     		movs	r2, #0
 185 001e 1A60     		str	r2, [r3]
 260:Generated_Source\PSoC4/Serial.c **** 
 261:Generated_Source\PSoC4/Serial.c **** #if (Serial_SCB_IRQ_INTERNAL)
 262:Generated_Source\PSoC4/Serial.c ****     Serial_ClearPendingInt();
 186              		.loc 1 262 0
 187 0020 0920     		movs	r0, #9
 188 0022 FFF7FEFF 		bl	CyIntClearPending
 263:Generated_Source\PSoC4/Serial.c **** #endif /* (Serial_SCB_IRQ_INTERNAL) */
 264:Generated_Source\PSoC4/Serial.c **** }
 189              		.loc 1 264 0
 190 0026 C046     		nop
 191 0028 BD46     		mov	sp, r7
 192              		@ sp needed
ARM GAS  C:\Users\TTSS\AppData\Local\Temp\ccj93rHk.s 			page 9


 193 002a 80BD     		pop	{r7, pc}
 194              	.L11:
 195              		.align	2
 196              	.L10:
 197 002c 00002440 		.word	1076101120
 198 0030 880F2440 		.word	1076105096
 199              		.cfi_endproc
 200              	.LFE5:
 201              		.size	Serial_Stop, .-Serial_Stop
 202              		.section	.text.Serial_SetRxFifoLevel,"ax",%progbits
 203              		.align	2
 204              		.global	Serial_SetRxFifoLevel
 205              		.code	16
 206              		.thumb_func
 207              		.type	Serial_SetRxFifoLevel, %function
 208              	Serial_SetRxFifoLevel:
 209              	.LFB6:
 265:Generated_Source\PSoC4/Serial.c **** 
 266:Generated_Source\PSoC4/Serial.c **** 
 267:Generated_Source\PSoC4/Serial.c **** /*******************************************************************************
 268:Generated_Source\PSoC4/Serial.c **** * Function Name: Serial_SetRxFifoLevel
 269:Generated_Source\PSoC4/Serial.c **** ****************************************************************************//**
 270:Generated_Source\PSoC4/Serial.c **** *
 271:Generated_Source\PSoC4/Serial.c **** *  Sets level in the RX FIFO to generate a RX level interrupt.
 272:Generated_Source\PSoC4/Serial.c **** *  When the RX FIFO has more entries than the RX FIFO level an RX level
 273:Generated_Source\PSoC4/Serial.c **** *  interrupt request is generated.
 274:Generated_Source\PSoC4/Serial.c **** *
 275:Generated_Source\PSoC4/Serial.c **** *  \param level: Level in the RX FIFO to generate RX level interrupt.
 276:Generated_Source\PSoC4/Serial.c **** *   The range of valid level values is between 0 and RX FIFO depth - 1.
 277:Generated_Source\PSoC4/Serial.c **** *
 278:Generated_Source\PSoC4/Serial.c **** *******************************************************************************/
 279:Generated_Source\PSoC4/Serial.c **** void Serial_SetRxFifoLevel(uint32 level)
 280:Generated_Source\PSoC4/Serial.c **** {
 210              		.loc 1 280 0
 211              		.cfi_startproc
 212              		@ args = 0, pretend = 0, frame = 16
 213              		@ frame_needed = 1, uses_anonymous_args = 0
 214 0000 80B5     		push	{r7, lr}
 215              		.cfi_def_cfa_offset 8
 216              		.cfi_offset 7, -8
 217              		.cfi_offset 14, -4
 218 0002 84B0     		sub	sp, sp, #16
 219              		.cfi_def_cfa_offset 24
 220 0004 00AF     		add	r7, sp, #0
 221              		.cfi_def_cfa_register 7
 222 0006 7860     		str	r0, [r7, #4]
 281:Generated_Source\PSoC4/Serial.c ****     uint32 rxFifoCtrl;
 282:Generated_Source\PSoC4/Serial.c **** 
 283:Generated_Source\PSoC4/Serial.c ****     rxFifoCtrl = Serial_RX_FIFO_CTRL_REG;
 223              		.loc 1 283 0
 224 0008 094B     		ldr	r3, .L13
 225 000a 1B68     		ldr	r3, [r3]
 226 000c FB60     		str	r3, [r7, #12]
 284:Generated_Source\PSoC4/Serial.c **** 
 285:Generated_Source\PSoC4/Serial.c ****     rxFifoCtrl &= ((uint32) ~Serial_RX_FIFO_CTRL_TRIGGER_LEVEL_MASK); /* Clear level mask bits */
 227              		.loc 1 285 0
 228 000e FB68     		ldr	r3, [r7, #12]
ARM GAS  C:\Users\TTSS\AppData\Local\Temp\ccj93rHk.s 			page 10


 229 0010 0F22     		movs	r2, #15
 230 0012 9343     		bics	r3, r2
 231 0014 FB60     		str	r3, [r7, #12]
 286:Generated_Source\PSoC4/Serial.c ****     rxFifoCtrl |= ((uint32) (Serial_RX_FIFO_CTRL_TRIGGER_LEVEL_MASK & level));
 232              		.loc 1 286 0
 233 0016 7B68     		ldr	r3, [r7, #4]
 234 0018 0F22     		movs	r2, #15
 235 001a 1340     		ands	r3, r2
 236 001c FA68     		ldr	r2, [r7, #12]
 237 001e 1343     		orrs	r3, r2
 238 0020 FB60     		str	r3, [r7, #12]
 287:Generated_Source\PSoC4/Serial.c **** 
 288:Generated_Source\PSoC4/Serial.c ****     Serial_RX_FIFO_CTRL_REG = rxFifoCtrl;
 239              		.loc 1 288 0
 240 0022 034B     		ldr	r3, .L13
 241 0024 FA68     		ldr	r2, [r7, #12]
 242 0026 1A60     		str	r2, [r3]
 289:Generated_Source\PSoC4/Serial.c **** }
 243              		.loc 1 289 0
 244 0028 C046     		nop
 245 002a BD46     		mov	sp, r7
 246 002c 04B0     		add	sp, sp, #16
 247              		@ sp needed
 248 002e 80BD     		pop	{r7, pc}
 249              	.L14:
 250              		.align	2
 251              	.L13:
 252 0030 04032440 		.word	1076101892
 253              		.cfi_endproc
 254              	.LFE6:
 255              		.size	Serial_SetRxFifoLevel, .-Serial_SetRxFifoLevel
 256              		.section	.text.Serial_SetTxFifoLevel,"ax",%progbits
 257              		.align	2
 258              		.global	Serial_SetTxFifoLevel
 259              		.code	16
 260              		.thumb_func
 261              		.type	Serial_SetTxFifoLevel, %function
 262              	Serial_SetTxFifoLevel:
 263              	.LFB7:
 290:Generated_Source\PSoC4/Serial.c **** 
 291:Generated_Source\PSoC4/Serial.c **** 
 292:Generated_Source\PSoC4/Serial.c **** /*******************************************************************************
 293:Generated_Source\PSoC4/Serial.c **** * Function Name: Serial_SetTxFifoLevel
 294:Generated_Source\PSoC4/Serial.c **** ****************************************************************************//**
 295:Generated_Source\PSoC4/Serial.c **** *
 296:Generated_Source\PSoC4/Serial.c **** *  Sets level in the TX FIFO to generate a TX level interrupt.
 297:Generated_Source\PSoC4/Serial.c **** *  When the TX FIFO has less entries than the TX FIFO level an TX level
 298:Generated_Source\PSoC4/Serial.c **** *  interrupt request is generated.
 299:Generated_Source\PSoC4/Serial.c **** *
 300:Generated_Source\PSoC4/Serial.c **** *  \param level: Level in the TX FIFO to generate TX level interrupt.
 301:Generated_Source\PSoC4/Serial.c **** *   The range of valid level values is between 0 and TX FIFO depth - 1.
 302:Generated_Source\PSoC4/Serial.c **** *
 303:Generated_Source\PSoC4/Serial.c **** *******************************************************************************/
 304:Generated_Source\PSoC4/Serial.c **** void Serial_SetTxFifoLevel(uint32 level)
 305:Generated_Source\PSoC4/Serial.c **** {
 264              		.loc 1 305 0
 265              		.cfi_startproc
ARM GAS  C:\Users\TTSS\AppData\Local\Temp\ccj93rHk.s 			page 11


 266              		@ args = 0, pretend = 0, frame = 16
 267              		@ frame_needed = 1, uses_anonymous_args = 0
 268 0000 80B5     		push	{r7, lr}
 269              		.cfi_def_cfa_offset 8
 270              		.cfi_offset 7, -8
 271              		.cfi_offset 14, -4
 272 0002 84B0     		sub	sp, sp, #16
 273              		.cfi_def_cfa_offset 24
 274 0004 00AF     		add	r7, sp, #0
 275              		.cfi_def_cfa_register 7
 276 0006 7860     		str	r0, [r7, #4]
 306:Generated_Source\PSoC4/Serial.c ****     uint32 txFifoCtrl;
 307:Generated_Source\PSoC4/Serial.c **** 
 308:Generated_Source\PSoC4/Serial.c ****     txFifoCtrl = Serial_TX_FIFO_CTRL_REG;
 277              		.loc 1 308 0
 278 0008 094B     		ldr	r3, .L16
 279 000a 1B68     		ldr	r3, [r3]
 280 000c FB60     		str	r3, [r7, #12]
 309:Generated_Source\PSoC4/Serial.c **** 
 310:Generated_Source\PSoC4/Serial.c ****     txFifoCtrl &= ((uint32) ~Serial_TX_FIFO_CTRL_TRIGGER_LEVEL_MASK); /* Clear level mask bits */
 281              		.loc 1 310 0
 282 000e FB68     		ldr	r3, [r7, #12]
 283 0010 0F22     		movs	r2, #15
 284 0012 9343     		bics	r3, r2
 285 0014 FB60     		str	r3, [r7, #12]
 311:Generated_Source\PSoC4/Serial.c ****     txFifoCtrl |= ((uint32) (Serial_TX_FIFO_CTRL_TRIGGER_LEVEL_MASK & level));
 286              		.loc 1 311 0
 287 0016 7B68     		ldr	r3, [r7, #4]
 288 0018 0F22     		movs	r2, #15
 289 001a 1340     		ands	r3, r2
 290 001c FA68     		ldr	r2, [r7, #12]
 291 001e 1343     		orrs	r3, r2
 292 0020 FB60     		str	r3, [r7, #12]
 312:Generated_Source\PSoC4/Serial.c **** 
 313:Generated_Source\PSoC4/Serial.c ****     Serial_TX_FIFO_CTRL_REG = txFifoCtrl;
 293              		.loc 1 313 0
 294 0022 034B     		ldr	r3, .L16
 295 0024 FA68     		ldr	r2, [r7, #12]
 296 0026 1A60     		str	r2, [r3]
 314:Generated_Source\PSoC4/Serial.c **** }
 297              		.loc 1 314 0
 298 0028 C046     		nop
 299 002a BD46     		mov	sp, r7
 300 002c 04B0     		add	sp, sp, #16
 301              		@ sp needed
 302 002e 80BD     		pop	{r7, pc}
 303              	.L17:
 304              		.align	2
 305              	.L16:
 306 0030 04022440 		.word	1076101636
 307              		.cfi_endproc
 308              	.LFE7:
 309              		.size	Serial_SetTxFifoLevel, .-Serial_SetTxFifoLevel
 310              		.section	.text.Serial_SetCustomInterruptHandler,"ax",%progbits
 311              		.align	2
 312              		.global	Serial_SetCustomInterruptHandler
 313              		.code	16
ARM GAS  C:\Users\TTSS\AppData\Local\Temp\ccj93rHk.s 			page 12


 314              		.thumb_func
 315              		.type	Serial_SetCustomInterruptHandler, %function
 316              	Serial_SetCustomInterruptHandler:
 317              	.LFB8:
 315:Generated_Source\PSoC4/Serial.c **** 
 316:Generated_Source\PSoC4/Serial.c **** 
 317:Generated_Source\PSoC4/Serial.c **** #if (Serial_SCB_IRQ_INTERNAL)
 318:Generated_Source\PSoC4/Serial.c ****     /*******************************************************************************
 319:Generated_Source\PSoC4/Serial.c ****     * Function Name: Serial_SetCustomInterruptHandler
 320:Generated_Source\PSoC4/Serial.c ****     ****************************************************************************//**
 321:Generated_Source\PSoC4/Serial.c ****     *
 322:Generated_Source\PSoC4/Serial.c ****     *  Registers a function to be called by the internal interrupt handler.
 323:Generated_Source\PSoC4/Serial.c ****     *  First the function that is registered is called, then the internal interrupt
 324:Generated_Source\PSoC4/Serial.c ****     *  handler performs any operation such as software buffer management functions
 325:Generated_Source\PSoC4/Serial.c ****     *  before the interrupt returns.  It is the user's responsibility not to break
 326:Generated_Source\PSoC4/Serial.c ****     *  the software buffer operations. Only one custom handler is supported, which
 327:Generated_Source\PSoC4/Serial.c ****     *  is the function provided by the most recent call.
 328:Generated_Source\PSoC4/Serial.c ****     *  At the initialization time no custom handler is registered.
 329:Generated_Source\PSoC4/Serial.c ****     *
 330:Generated_Source\PSoC4/Serial.c ****     *  \param func: Pointer to the function to register.
 331:Generated_Source\PSoC4/Serial.c ****     *        The value NULL indicates to remove the current custom interrupt
 332:Generated_Source\PSoC4/Serial.c ****     *        handler.
 333:Generated_Source\PSoC4/Serial.c ****     *
 334:Generated_Source\PSoC4/Serial.c ****     *******************************************************************************/
 335:Generated_Source\PSoC4/Serial.c ****     void Serial_SetCustomInterruptHandler(void (*func)(void))
 336:Generated_Source\PSoC4/Serial.c ****     {
 318              		.loc 1 336 0
 319              		.cfi_startproc
 320              		@ args = 0, pretend = 0, frame = 8
 321              		@ frame_needed = 1, uses_anonymous_args = 0
 322 0000 80B5     		push	{r7, lr}
 323              		.cfi_def_cfa_offset 8
 324              		.cfi_offset 7, -8
 325              		.cfi_offset 14, -4
 326 0002 82B0     		sub	sp, sp, #8
 327              		.cfi_def_cfa_offset 16
 328 0004 00AF     		add	r7, sp, #0
 329              		.cfi_def_cfa_register 7
 330 0006 7860     		str	r0, [r7, #4]
 337:Generated_Source\PSoC4/Serial.c ****     #if !defined (CY_REMOVE_Serial_CUSTOM_INTR_HANDLER)
 338:Generated_Source\PSoC4/Serial.c ****         Serial_customIntrHandler = func; /* Register interrupt handler */
 331              		.loc 1 338 0
 332 0008 034B     		ldr	r3, .L19
 333 000a 7A68     		ldr	r2, [r7, #4]
 334 000c 1A60     		str	r2, [r3]
 339:Generated_Source\PSoC4/Serial.c ****     #else
 340:Generated_Source\PSoC4/Serial.c ****         if (NULL != func)
 341:Generated_Source\PSoC4/Serial.c ****         {
 342:Generated_Source\PSoC4/Serial.c ****             /* Suppress compiler warning */
 343:Generated_Source\PSoC4/Serial.c ****         }
 344:Generated_Source\PSoC4/Serial.c ****     #endif /* !defined (CY_REMOVE_Serial_CUSTOM_INTR_HANDLER) */
 345:Generated_Source\PSoC4/Serial.c ****     }
 335              		.loc 1 345 0
 336 000e C046     		nop
 337 0010 BD46     		mov	sp, r7
 338 0012 02B0     		add	sp, sp, #8
 339              		@ sp needed
ARM GAS  C:\Users\TTSS\AppData\Local\Temp\ccj93rHk.s 			page 13


 340 0014 80BD     		pop	{r7, pc}
 341              	.L20:
 342 0016 C046     		.align	2
 343              	.L19:
 344 0018 00000000 		.word	Serial_customIntrHandler
 345              		.cfi_endproc
 346              	.LFE8:
 347              		.size	Serial_SetCustomInterruptHandler, .-Serial_SetCustomInterruptHandler
 348              		.section	.text.Serial_ScbEnableIntr,"ax",%progbits
 349              		.align	2
 350              		.code	16
 351              		.thumb_func
 352              		.type	Serial_ScbEnableIntr, %function
 353              	Serial_ScbEnableIntr:
 354              	.LFB9:
 346:Generated_Source\PSoC4/Serial.c **** #endif /* (Serial_SCB_IRQ_INTERNAL) */
 347:Generated_Source\PSoC4/Serial.c **** 
 348:Generated_Source\PSoC4/Serial.c **** 
 349:Generated_Source\PSoC4/Serial.c **** /*******************************************************************************
 350:Generated_Source\PSoC4/Serial.c **** * Function Name: Serial_ScbModeEnableIntr
 351:Generated_Source\PSoC4/Serial.c **** ****************************************************************************//**
 352:Generated_Source\PSoC4/Serial.c **** *
 353:Generated_Source\PSoC4/Serial.c **** *  Enables an interrupt for a specific mode.
 354:Generated_Source\PSoC4/Serial.c **** *
 355:Generated_Source\PSoC4/Serial.c **** *******************************************************************************/
 356:Generated_Source\PSoC4/Serial.c **** static void Serial_ScbEnableIntr(void)
 357:Generated_Source\PSoC4/Serial.c **** {
 355              		.loc 1 357 0
 356              		.cfi_startproc
 357              		@ args = 0, pretend = 0, frame = 0
 358              		@ frame_needed = 1, uses_anonymous_args = 0
 359 0000 80B5     		push	{r7, lr}
 360              		.cfi_def_cfa_offset 8
 361              		.cfi_offset 7, -8
 362              		.cfi_offset 14, -4
 363 0002 00AF     		add	r7, sp, #0
 364              		.cfi_def_cfa_register 7
 358:Generated_Source\PSoC4/Serial.c **** #if (Serial_SCB_IRQ_INTERNAL)
 359:Generated_Source\PSoC4/Serial.c ****     /* Enable interrupt in NVIC */
 360:Generated_Source\PSoC4/Serial.c ****     #if (Serial_SCB_MODE_UNCONFIG_CONST_CFG)
 361:Generated_Source\PSoC4/Serial.c ****         if (0u != Serial_scbEnableIntr)
 362:Generated_Source\PSoC4/Serial.c ****         {
 363:Generated_Source\PSoC4/Serial.c ****             Serial_EnableInt();
 364:Generated_Source\PSoC4/Serial.c ****         }
 365:Generated_Source\PSoC4/Serial.c **** 
 366:Generated_Source\PSoC4/Serial.c ****     #else
 367:Generated_Source\PSoC4/Serial.c ****         Serial_EnableInt();
 365              		.loc 1 367 0
 366 0004 0920     		movs	r0, #9
 367 0006 FFF7FEFF 		bl	CyIntEnable
 368:Generated_Source\PSoC4/Serial.c **** 
 369:Generated_Source\PSoC4/Serial.c ****     #endif /* (Serial_SCB_MODE_UNCONFIG_CONST_CFG) */
 370:Generated_Source\PSoC4/Serial.c **** #endif /* (Serial_SCB_IRQ_INTERNAL) */
 371:Generated_Source\PSoC4/Serial.c **** }
 368              		.loc 1 371 0
 369 000a C046     		nop
 370 000c BD46     		mov	sp, r7
ARM GAS  C:\Users\TTSS\AppData\Local\Temp\ccj93rHk.s 			page 14


 371              		@ sp needed
 372 000e 80BD     		pop	{r7, pc}
 373              		.cfi_endproc
 374              	.LFE9:
 375              		.size	Serial_ScbEnableIntr, .-Serial_ScbEnableIntr
 376              		.section	.text.Serial_ScbModePostEnable,"ax",%progbits
 377              		.align	2
 378              		.code	16
 379              		.thumb_func
 380              		.type	Serial_ScbModePostEnable, %function
 381              	Serial_ScbModePostEnable:
 382              	.LFB10:
 372:Generated_Source\PSoC4/Serial.c **** 
 373:Generated_Source\PSoC4/Serial.c **** 
 374:Generated_Source\PSoC4/Serial.c **** /*******************************************************************************
 375:Generated_Source\PSoC4/Serial.c **** * Function Name: Serial_ScbModePostEnable
 376:Generated_Source\PSoC4/Serial.c **** ****************************************************************************//**
 377:Generated_Source\PSoC4/Serial.c **** *
 378:Generated_Source\PSoC4/Serial.c **** *  Calls the PostEnable function for a specific operation mode.
 379:Generated_Source\PSoC4/Serial.c **** *
 380:Generated_Source\PSoC4/Serial.c **** *******************************************************************************/
 381:Generated_Source\PSoC4/Serial.c **** static void Serial_ScbModePostEnable(void)
 382:Generated_Source\PSoC4/Serial.c **** {
 383              		.loc 1 382 0
 384              		.cfi_startproc
 385              		@ args = 0, pretend = 0, frame = 0
 386              		@ frame_needed = 1, uses_anonymous_args = 0
 387 0000 80B5     		push	{r7, lr}
 388              		.cfi_def_cfa_offset 8
 389              		.cfi_offset 7, -8
 390              		.cfi_offset 14, -4
 391 0002 00AF     		add	r7, sp, #0
 392              		.cfi_def_cfa_register 7
 383:Generated_Source\PSoC4/Serial.c **** #if (Serial_SCB_MODE_UNCONFIG_CONST_CFG)
 384:Generated_Source\PSoC4/Serial.c **** #if (!Serial_CY_SCBIP_V1)
 385:Generated_Source\PSoC4/Serial.c ****     if (Serial_SCB_MODE_SPI_RUNTM_CFG)
 386:Generated_Source\PSoC4/Serial.c ****     {
 387:Generated_Source\PSoC4/Serial.c ****         Serial_SpiPostEnable();
 388:Generated_Source\PSoC4/Serial.c ****     }
 389:Generated_Source\PSoC4/Serial.c ****     else if (Serial_SCB_MODE_UART_RUNTM_CFG)
 390:Generated_Source\PSoC4/Serial.c ****     {
 391:Generated_Source\PSoC4/Serial.c ****         Serial_UartPostEnable();
 392:Generated_Source\PSoC4/Serial.c ****     }
 393:Generated_Source\PSoC4/Serial.c ****     else
 394:Generated_Source\PSoC4/Serial.c ****     {
 395:Generated_Source\PSoC4/Serial.c ****         /* Unknown mode: do nothing */
 396:Generated_Source\PSoC4/Serial.c ****     }
 397:Generated_Source\PSoC4/Serial.c **** #endif /* (!Serial_CY_SCBIP_V1) */
 398:Generated_Source\PSoC4/Serial.c **** 
 399:Generated_Source\PSoC4/Serial.c **** #elif (Serial_SCB_MODE_SPI_CONST_CFG)
 400:Generated_Source\PSoC4/Serial.c ****     Serial_SpiPostEnable();
 401:Generated_Source\PSoC4/Serial.c **** 
 402:Generated_Source\PSoC4/Serial.c **** #elif (Serial_SCB_MODE_UART_CONST_CFG)
 403:Generated_Source\PSoC4/Serial.c ****     Serial_UartPostEnable();
 393              		.loc 1 403 0
 394 0004 FFF7FEFF 		bl	Serial_UartPostEnable
 404:Generated_Source\PSoC4/Serial.c **** 
ARM GAS  C:\Users\TTSS\AppData\Local\Temp\ccj93rHk.s 			page 15


 405:Generated_Source\PSoC4/Serial.c **** #else
 406:Generated_Source\PSoC4/Serial.c ****     /* Unknown mode: do nothing */
 407:Generated_Source\PSoC4/Serial.c **** #endif /* (Serial_SCB_MODE_UNCONFIG_CONST_CFG) */
 408:Generated_Source\PSoC4/Serial.c **** }
 395              		.loc 1 408 0
 396 0008 C046     		nop
 397 000a BD46     		mov	sp, r7
 398              		@ sp needed
 399 000c 80BD     		pop	{r7, pc}
 400              		.cfi_endproc
 401              	.LFE10:
 402              		.size	Serial_ScbModePostEnable, .-Serial_ScbModePostEnable
 403 000e C046     		.section	.text.Serial_ScbModeStop,"ax",%progbits
 404              		.align	2
 405              		.code	16
 406              		.thumb_func
 407              		.type	Serial_ScbModeStop, %function
 408              	Serial_ScbModeStop:
 409              	.LFB11:
 409:Generated_Source\PSoC4/Serial.c **** 
 410:Generated_Source\PSoC4/Serial.c **** 
 411:Generated_Source\PSoC4/Serial.c **** /*******************************************************************************
 412:Generated_Source\PSoC4/Serial.c **** * Function Name: Serial_ScbModeStop
 413:Generated_Source\PSoC4/Serial.c **** ****************************************************************************//**
 414:Generated_Source\PSoC4/Serial.c **** *
 415:Generated_Source\PSoC4/Serial.c **** *  Calls the Stop function for a specific operation mode.
 416:Generated_Source\PSoC4/Serial.c **** *
 417:Generated_Source\PSoC4/Serial.c **** *******************************************************************************/
 418:Generated_Source\PSoC4/Serial.c **** static void Serial_ScbModeStop(void)
 419:Generated_Source\PSoC4/Serial.c **** {
 410              		.loc 1 419 0
 411              		.cfi_startproc
 412              		@ args = 0, pretend = 0, frame = 0
 413              		@ frame_needed = 1, uses_anonymous_args = 0
 414 0000 80B5     		push	{r7, lr}
 415              		.cfi_def_cfa_offset 8
 416              		.cfi_offset 7, -8
 417              		.cfi_offset 14, -4
 418 0002 00AF     		add	r7, sp, #0
 419              		.cfi_def_cfa_register 7
 420:Generated_Source\PSoC4/Serial.c **** #if (Serial_SCB_MODE_UNCONFIG_CONST_CFG)
 421:Generated_Source\PSoC4/Serial.c ****     if (Serial_SCB_MODE_I2C_RUNTM_CFG)
 422:Generated_Source\PSoC4/Serial.c ****     {
 423:Generated_Source\PSoC4/Serial.c ****         Serial_I2CStop();
 424:Generated_Source\PSoC4/Serial.c ****     }
 425:Generated_Source\PSoC4/Serial.c ****     else if (Serial_SCB_MODE_EZI2C_RUNTM_CFG)
 426:Generated_Source\PSoC4/Serial.c ****     {
 427:Generated_Source\PSoC4/Serial.c ****         Serial_EzI2CStop();
 428:Generated_Source\PSoC4/Serial.c ****     }
 429:Generated_Source\PSoC4/Serial.c **** #if (!Serial_CY_SCBIP_V1)
 430:Generated_Source\PSoC4/Serial.c ****     else if (Serial_SCB_MODE_SPI_RUNTM_CFG)
 431:Generated_Source\PSoC4/Serial.c ****     {
 432:Generated_Source\PSoC4/Serial.c ****         Serial_SpiStop();
 433:Generated_Source\PSoC4/Serial.c ****     }
 434:Generated_Source\PSoC4/Serial.c ****     else if (Serial_SCB_MODE_UART_RUNTM_CFG)
 435:Generated_Source\PSoC4/Serial.c ****     {
 436:Generated_Source\PSoC4/Serial.c ****         Serial_UartStop();
ARM GAS  C:\Users\TTSS\AppData\Local\Temp\ccj93rHk.s 			page 16


 437:Generated_Source\PSoC4/Serial.c ****     }
 438:Generated_Source\PSoC4/Serial.c **** #endif /* (!Serial_CY_SCBIP_V1) */
 439:Generated_Source\PSoC4/Serial.c ****     else
 440:Generated_Source\PSoC4/Serial.c ****     {
 441:Generated_Source\PSoC4/Serial.c ****         /* Unknown mode: do nothing */
 442:Generated_Source\PSoC4/Serial.c ****     }
 443:Generated_Source\PSoC4/Serial.c **** #elif (Serial_SCB_MODE_I2C_CONST_CFG)
 444:Generated_Source\PSoC4/Serial.c ****     Serial_I2CStop();
 445:Generated_Source\PSoC4/Serial.c **** 
 446:Generated_Source\PSoC4/Serial.c **** #elif (Serial_SCB_MODE_EZI2C_CONST_CFG)
 447:Generated_Source\PSoC4/Serial.c ****     Serial_EzI2CStop();
 448:Generated_Source\PSoC4/Serial.c **** 
 449:Generated_Source\PSoC4/Serial.c **** #elif (Serial_SCB_MODE_SPI_CONST_CFG)
 450:Generated_Source\PSoC4/Serial.c ****     Serial_SpiStop();
 451:Generated_Source\PSoC4/Serial.c **** 
 452:Generated_Source\PSoC4/Serial.c **** #elif (Serial_SCB_MODE_UART_CONST_CFG)
 453:Generated_Source\PSoC4/Serial.c ****     Serial_UartStop();
 420              		.loc 1 453 0
 421 0004 FFF7FEFF 		bl	Serial_UartStop
 454:Generated_Source\PSoC4/Serial.c **** 
 455:Generated_Source\PSoC4/Serial.c **** #else
 456:Generated_Source\PSoC4/Serial.c ****     /* Unknown mode: do nothing */
 457:Generated_Source\PSoC4/Serial.c **** #endif /* (Serial_SCB_MODE_UNCONFIG_CONST_CFG) */
 458:Generated_Source\PSoC4/Serial.c **** }
 422              		.loc 1 458 0
 423 0008 C046     		nop
 424 000a BD46     		mov	sp, r7
 425              		@ sp needed
 426 000c 80BD     		pop	{r7, pc}
 427              		.cfi_endproc
 428              	.LFE11:
 429              		.size	Serial_ScbModeStop, .-Serial_ScbModeStop
 430 000e C046     		.text
 431              	.Letext0:
 432              		.file 2 "Generated_Source\\PSoC4/cytypes.h"